(dp0
S'nfe'
p1
(lp2
I50
aI100
aI150
aI200
aI250
aI300
aI350
aI400
aI450
aI500
aI550
aI600
aI650
aI700
aI750
aI800
aI850
aI900
aI950
aI1000
aI1050
aI1100
aI1150
aI1200
aI1250
aI1300
aI1350
aI1400
aI1450
aI1500
aI1550
aI1600
aI1650
aI1700
aI1750
aI1800
aI1850
aI1900
aI1950
aI2000
aI2050
aI2100
aI2150
aI2200
aI2250
aI2300
aI2350
aI2400
aI2450
aI2500
aI2550
aI2600
aI2650
aI2700
aI2750
aI2800
aI2850
aI2900
aI2950
aI3000
aI3050
aI3100
aI3150
aI3200
aI3250
aI3300
aI3350
aI3400
aI3450
aI3500
aI3550
aI3600
aI3650
aI3700
aI3750
aI3800
aI3850
aI3900
aI3950
aI4000
aI4050
aI4100
aI4150
aI4200
aI4250
aI4300
aI4350
aI4400
aI4450
aI4500
aI4550
aI4600
aI4650
aI4700
aI4750
aI4800
aI4850
aI4900
aI4950
aI5000
aI5050
aI5100
aI5150
aI5200
aI5250
aI5300
aI5350
aI5400
aI5450
aI5500
aI5550
aI5600
aI5650
aI5700
aI5750
aI5800
aI5850
aI5900
aI5950
aI6000
aI6050
aI6100
aI6150
aI6200
aI6250
aI6300
aI6350
aI6400
aI6450
aI6500
aI6550
aI6600
aI6650
aI6700
aI6750
aI6800
aI6850
aI6900
aI6950
aI7000
aI7050
aI7100
aI7150
aI7200
aI7250
aI7300
aI7350
aI7400
aI7450
aI7500
aI7550
aI7600
aI7650
aI7700
aI7750
aI7800
aI7850
aI7900
aI7950
aI8000
aI8050
aI8100
aI8150
aI8200
aI8250
aI8300
aI8350
aI8400
aI8450
aI8500
aI8550
aI8600
aI8650
aI8700
aI8750
aI8800
aI8850
aI8900
aI8950
aI9000
aI9050
aI9100
aI9150
aI9200
aI9250
aI9300
aI9350
aI9400
aI9450
aI9500
aI9550
aI9600
aI9650
aI9700
aI9750
aI9800
aI9850
aI9900
aI9950
aI10000
asS'best_f'
p3
(lp4
cnumpy.core.multiarray
scalar
p5
(cnumpy
dtype
p6
(S'f8'
p7
I0
I1
tp8
Rp9
(I3
S'<'
p10
NNNI-1
I-1
I0
tp11
bS'\xbcq\x02\xd5\xd0<c@'
p12
tp13
Rp14
ag14
ag14
ag5
(g9
S'\x9c\xe0+r\x1cXb@'
p15
tp16
Rp17
ag5
(g9
S"\xf6'<\xfe\xcfoa@"
p18
tp19
Rp20
ag20
ag20
ag20
ag5
(g9
S'S\x05E(\xb3\x0ea@'
p21
tp22
Rp23
ag23
ag23
ag23
ag5
(g9
S'L\xa8\x06\x9e\xce\ta@'
p24
tp25
Rp26
ag26
ag26
ag26
ag5
(g9
S'\x012\xa9|\n\x03a@'
p27
tp28
Rp29
ag29
ag29
ag29
ag29
ag5
(g9
S'\xc0v\x0f\xf5J\x01a@'
p30
tp31
Rp32
ag32
ag32
ag32
ag32
ag32
ag32
ag32
ag32
ag32
ag32
ag32
ag32
ag32
ag32
ag32
ag32
ag32
ag32
ag32
ag32
ag32
ag32
ag32
ag32
ag32
ag32
ag32
ag32
ag32
ag32
ag32
ag32
ag32
ag32
ag32
ag5
(g9
S'e\xfe2\x19\x00\x00a@'
p33
tp34
Rp35
ag35
ag35
ag35
ag35
ag35
ag35
ag35
ag35
ag35
ag35
ag35
ag35
ag35
ag35
ag35
ag35
ag35
ag35
ag35
ag35
ag35
ag35
ag35
ag35
ag35
ag35
ag35
ag35
ag35
ag35
ag35
ag35
ag35
ag35
ag35
ag35
ag35
ag35
ag35
ag35
ag35
ag35
ag35
ag35
ag35
ag35
ag35
ag35
ag35
ag35
ag35
ag35
ag35
ag35
ag35
ag35
ag35
ag35
ag35
ag35
ag35
ag35
ag35
ag35
ag35
ag35
ag35
ag35
ag35
ag35
ag35
ag35
ag35
ag35
ag35
ag35
ag35
ag35
ag35
ag35
ag35
ag35
ag35
ag35
ag35
ag35
ag35
ag35
ag35
ag35
ag35
ag35
ag35
ag35
ag35
ag35
ag35
ag35
ag35
ag35
ag35
ag35
ag35
ag35
ag35
ag35
ag35
ag35
ag35
ag35
ag35
ag35
ag35
ag35
ag35
ag35
ag35
ag35
ag35
ag35
ag35
ag35
ag35
ag35
ag35
ag35
ag35
ag35
ag35
ag35
ag35
ag35
ag35
ag35
ag35
ag35
ag35
ag35
ag35
ag35
ag35
ag35
asS'best_P'
p36
(lp37
(itree
PTree
p38
(dp39
S'root'
p40
ccopy_reg
_reconstructor
p41
(ctree
Feature
p42
c__builtin__
object
p43
Ntp44
Rp45
(dp46
S'index'
p47
I0
sS'name'
p48
S'Storage'
p49
sS'l'
p50
g41
(ctree
Action
p51
g43
Ntp52
Rp53
(dp54
S'r'
p55
NsS'is_feature'
p56
I00
sS'value'
p57
S'Release_Demand'
p58
sg50
Nsbsg55
g41
(g42
g43
Ntp59
Rp60
(dp61
g47
I1
sg48
S'Day'
p62
sg50
g41
(g51
g43
Ntp63
Rp64
(dp65
g55
Nsg56
I00
sg57
S'Flood_Control'
p66
sg50
Nsbsg55
g41
(g42
g43
Ntp67
Rp68
(dp69
g47
I0
sg48
g49
sg50
g41
(g51
g43
Ntp70
Rp71
(dp72
g55
Nsg56
I00
sg57
S'Hedge_80'
p73
sg50
Nsbsg55
g41
(g51
g43
Ntp74
Rp75
(dp76
g55
Nsg56
I00
sg57
S'Release_Demand'
p77
sg50
NsbsS'threshold'
p78
F589.4006431170184
sg56
I01
sbsg78
F225.05254117890394
sg56
I01
sbsg78
F520.7313770594939
sg56
I01
sbsS'L'
p79
(lp80
g45
ag53
ag60
ag64
ag68
ag71
ag75
asS'N'
p81
I7
sbag38
ag38
a(itree
PTree
p82
(dp83
g40
g41
(g42
g43
Ntp84
Rp85
(dp86
g47
I1
sg55
g41
(g42
g43
Ntp87
Rp88
(dp89
g47
I0
sg55
g41
(g51
g43
Ntp90
Rp91
(dp92
g55
Nsg56
I00
sg57
S'Release_Demand'
p93
sg50
Nsbsg48
g49
sg78
F465.00979013906294
sg50
g41
(g51
g43
Ntp94
Rp95
(dp96
g55
Nsg56
I00
sg57
S'Hedge_50'
p97
sg50
Nsbsg56
I01
sbsg48
g62
sg78
F220.3634852234339
sg50
g41
(g51
g43
Ntp98
Rp99
(dp100
g55
Nsg56
I00
sg57
S'Flood_Control'
p101
sg50
Nsbsg56
I01
sbsg79
(lp102
g85
ag99
ag88
ag95
ag91
asg81
I5
sba(itree
PTree
p103
(dp104
g40
g41
(g42
g43
Ntp105
Rp106
(dp107
g47
I1
sg55
g41
(g42
g43
Ntp108
Rp109
(dp110
g47
I0
sg55
g41
(g51
g43
Ntp111
Rp112
(dp113
g55
Nsg56
I00
sg57
g93
sg50
Nsbsg48
g49
sg78
F402.47999433082913
sg50
g41
(g51
g43
Ntp114
Rp115
(dp116
g55
Nsg56
I00
sg57
g97
sg50
Nsbsg56
I01
sbsg48
g62
sg78
F201.60573626395856
sg50
g41
(g51
g43
Ntp117
Rp118
(dp119
g55
Nsg56
I00
sg57
g101
sg50
Nsbsg56
I01
sbsg79
(lp120
g106
ag118
ag109
ag115
ag112
asg81
I5
sbag103
ag103
ag103
a(itree
PTree
p121
(dp122
g40
g41
(g42
g43
Ntp123
Rp124
(dp125
g47
I1
sg55
g41
(g42
g43
Ntp126
Rp127
(dp128
g47
I0
sg55
g41
(g51
g43
Ntp129
Rp130
(dp131
g55
Nsg56
I00
sg57
S'Release_Demand'
p132
sg50
Nsbsg48
g49
sg78
F391.8979207364302
sg50
g41
(g51
g43
Ntp133
Rp134
(dp135
g55
Nsg56
I00
sg57
S'Hedge_80'
p136
sg50
Nsbsg56
I01
sbsg48
g62
sg78
F187.28777858544845
sg50
g41
(g51
g43
Ntp137
Rp138
(dp139
g55
Nsg56
I00
sg57
S'Flood_Control'
p140
sg50
Nsbsg56
I01
sbsg79
(lp141
g124
ag138
ag127
ag134
ag130
asg81
I5
sbag121
ag121
ag121
a(itree
PTree
p142
(dp143
g40
g41
(g42
g43
Ntp144
Rp145
(dp146
g47
I1
sg55
g41
(g42
g43
Ntp147
Rp148
(dp149
g47
I0
sg55
g41
(g51
g43
Ntp150
Rp151
(dp152
g55
Nsg56
I00
sg57
g93
sg50
Nsbsg48
g49
sg78
F285.3767912839027
sg50
g41
(g51
g43
Ntp153
Rp154
(dp155
g55
Nsg56
I00
sg57
g97
sg50
Nsbsg56
I01
sbsg48
g62
sg78
F179.59700955762364
sg50
g41
(g51
g43
Ntp156
Rp157
(dp158
g55
Nsg56
I00
sg57
g101
sg50
Nsbsg56
I01
sbsg79
(lp159
g145
ag157
ag148
ag154
ag151
asg81
I5
sbag142
ag142
ag142
a(itree
PTree
p160
(dp161
g40
g41
(g42
g43
Ntp162
Rp163
(dp164
g47
I1
sg55
g41
(g42
g43
Ntp165
Rp166
(dp167
g47
I0
sg55
g41
(g51
g43
Ntp168
Rp169
(dp170
g55
Nsg56
I00
sg57
S'Release_Demand'
p171
sg50
Nsbsg48
g49
sg78
F291.74120595059924
sg50
g41
(g51
g43
Ntp172
Rp173
(dp174
g55
Nsg56
I00
sg57
S'Hedge_50'
p175
sg50
Nsbsg56
I01
sbsg48
g62
sg78
F181.2140414030458
sg50
g41
(g51
g43
Ntp176
Rp177
(dp178
g55
Nsg56
I00
sg57
S'Flood_Control'
p179
sg50
Nsbsg56
I01
sbsg79
(lp180
g163
ag177
ag166
ag173
ag169
asg81
I5
sbag160
ag160
ag160
ag160
a(itree
PTree
p181
(dp182
g40
g41
(g42
g43
Ntp183
Rp184
(dp185
g47
I1
sg55
g41
(g42
g43
Ntp186
Rp187
(dp188
g47
I0
sg55
g41
(g51
g43
Ntp189
Rp190
(dp191
g55
Nsg56
I00
sg57
g171
sg50
Nsbsg48
g49
sg78
F291.74120595059924
sg50
g41
(g51
g43
Ntp192
Rp193
(dp194
g55
Nsg56
I00
sg57
g175
sg50
Nsbsg56
I01
sbsg48
g62
sg78
F182.56179045700753
sg50
g41
(g51
g43
Ntp195
Rp196
(dp197
g55
Nsg56
I00
sg57
g179
sg50
Nsbsg56
I01
sbsg79
(lp198
g184
ag196
ag187
ag193
ag190
asg81
I5
sbag181
ag181
ag181
ag181
ag181
ag181
ag181
ag181
ag181
ag181
ag181
ag181
ag181
ag181
ag181
ag181
ag181
ag181
ag181
ag181
ag181
ag181
ag181
ag181
ag181
ag181
ag181
ag181
ag181
ag181
ag181
ag181
ag181
ag181
ag181
a(itree
PTree
p199
(dp200
g40
g41
(g42
g43
Ntp201
Rp202
(dp203
g47
I1
sg55
g41
(g42
g43
Ntp204
Rp205
(dp206
g47
I0
sg55
g41
(g51
g43
Ntp207
Rp208
(dp209
g55
Nsg56
I00
sg57
g171
sg50
Nsbsg48
g49
sg78
F326.1807333600897
sg50
g41
(g51
g43
Ntp210
Rp211
(dp212
g55
Nsg56
I00
sg57
g175
sg50
Nsbsg56
I01
sbsg48
g62
sg78
F182.5292626094748
sg50
g41
(g51
g43
Ntp213
Rp214
(dp215
g55
Nsg56
I00
sg57
g179
sg50
Nsbsg56
I01
sbsg79
(lp216
g202
ag214
ag205
ag211
ag208
asg81
I5
sbag199
ag199
ag199
ag199
ag199
ag199
ag199
ag199
ag199
ag199
ag199
ag199
ag199
ag199
ag199
ag199
ag199
ag199
ag199
ag199
ag199
ag199
ag199
ag199
ag199
ag199
ag199
ag199
ag199
ag199
ag199
ag199
ag199
ag199
ag199
ag199
ag199
ag199
ag199
ag199
ag199
ag199
ag199
ag199
ag199
ag199
ag199
ag199
ag199
ag199
ag199
ag199
ag199
ag199
ag199
ag199
ag199
ag199
ag199
ag199
ag199
ag199
ag199
ag199
ag199
ag199
ag199
ag199
ag199
ag199
ag199
ag199
ag199
ag199
ag199
ag199
ag199
ag199
ag199
ag199
ag199
ag199
ag199
ag199
ag199
ag199
ag199
ag199
ag199
ag199
ag199
ag199
ag199
ag199
ag199
ag199
ag199
ag199
ag199
ag199
ag199
ag199
ag199
ag199
ag199
ag199
ag199
ag199
ag199
ag199
ag199
ag199
ag199
ag199
ag199
ag199
ag199
ag199
ag199
ag199
ag199
ag199
ag199
ag199
ag199
ag199
ag199
ag199
ag199
ag199
ag199
ag199
ag199
ag199
ag199
ag199
ag199
ag199
ag199
ag199
ag199
ag199
asS'time'
p217
(lp218
I10
aI15
aI21
aI26
aI31
aI37
aI42
aI47
aI52
aI57
aI63
aI68
aI73
aI78
aI83
aI89
aI94
aI99
aI104
aI109
aI114
aI120
aI125
aI130
aI135
aI140
aI145
aI151
aI156
aI161
aI166
aI171
aI176
aI181
aI187
aI192
aI197
aI202
aI207
aI212
aI218
aI223
aI228
aI233
aI238
aI243
aI249
aI254
aI259
aI264
aI269
aI274
aI280
aI285
aI290
aI295
aI300
aI306
aI311
aI316
aI321
aI326
aI331
aI337
aI342
aI347
aI352
aI357
aI363
aI368
aI373
aI378
aI384
aI389
aI394
aI399
aI404
aI410
aI415
aI420
aI425
aI430
aI436
aI441
aI446
aI452
aI457
aI463
aI468
aI474
aI479
aI484
aI490
aI495
aI500
aI506
aI511
aI516
aI521
aI526
aI532
aI537
aI542
aI547
aI553
aI558
aI563
aI568
aI574
aI579
aI584
aI589
aI594
aI599
aI605
aI610
aI615
aI621
aI626
aI631
aI636
aI642
aI647
aI652
aI658
aI663
aI668
aI673
aI678
aI684
aI689
aI694
aI699
aI704
aI710
aI715
aI720
aI725
aI730
aI736
aI741
aI746
aI751
aI757
aI762
aI767
aI772
aI778
aI783
aI788
aI793
aI798
aI803
aI808
aI814
aI819
aI824
aI829
aI834
aI839
aI845
aI850
aI855
aI861
aI866
aI872
aI877
aI882
aI887
aI893
aI898
aI903
aI909
aI914
aI920
aI925
aI930
aI935
aI940
aI946
aI951
aI956
aI962
aI967
aI972
aI977
aI982
aI987
aI993
aI998
aI1003
aI1008
aI1014
aI1019
aI1024
aI1030
aI1035
aI1040
aI1045
aI1050
as.