(dp0
S'nfe'
p1
(lp2
I50
aI100
aI150
aI200
aI250
aI300
aI350
aI400
aI450
aI500
aI550
aI600
aI650
aI700
aI750
aI800
aI850
aI900
aI950
aI1000
aI1050
aI1100
aI1150
aI1200
aI1250
aI1300
aI1350
aI1400
aI1450
aI1500
aI1550
aI1600
aI1650
aI1700
aI1750
aI1800
aI1850
aI1900
aI1950
aI2000
aI2050
aI2100
aI2150
aI2200
aI2250
aI2300
aI2350
aI2400
aI2450
aI2500
aI2550
aI2600
aI2650
aI2700
aI2750
aI2800
aI2850
aI2900
aI2950
aI3000
aI3050
aI3100
aI3150
aI3200
aI3250
aI3300
aI3350
aI3400
aI3450
aI3500
aI3550
aI3600
aI3650
aI3700
aI3750
aI3800
aI3850
aI3900
aI3950
aI4000
aI4050
aI4100
aI4150
aI4200
aI4250
aI4300
aI4350
aI4400
aI4450
aI4500
aI4550
aI4600
aI4650
aI4700
aI4750
aI4800
aI4850
aI4900
aI4950
aI5000
aI5050
aI5100
aI5150
aI5200
aI5250
aI5300
aI5350
aI5400
aI5450
aI5500
aI5550
aI5600
aI5650
aI5700
aI5750
aI5800
aI5850
aI5900
aI5950
aI6000
aI6050
aI6100
aI6150
aI6200
aI6250
aI6300
aI6350
aI6400
aI6450
aI6500
aI6550
aI6600
aI6650
aI6700
aI6750
aI6800
aI6850
aI6900
aI6950
aI7000
aI7050
aI7100
aI7150
aI7200
aI7250
aI7300
aI7350
aI7400
aI7450
aI7500
aI7550
aI7600
aI7650
aI7700
aI7750
aI7800
aI7850
aI7900
aI7950
aI8000
aI8050
aI8100
aI8150
aI8200
aI8250
aI8300
aI8350
aI8400
aI8450
aI8500
aI8550
aI8600
aI8650
aI8700
aI8750
aI8800
aI8850
aI8900
aI8950
aI9000
aI9050
aI9100
aI9150
aI9200
aI9250
aI9300
aI9350
aI9400
aI9450
aI9500
aI9550
aI9600
aI9650
aI9700
aI9750
aI9800
aI9850
aI9900
aI9950
aI10000
aI10050
aI10100
aI10150
aI10200
aI10250
aI10300
aI10350
aI10400
aI10450
aI10500
aI10550
aI10600
aI10650
aI10700
aI10750
aI10800
aI10850
aI10900
aI10950
aI11000
aI11050
aI11100
aI11150
aI11200
aI11250
aI11300
aI11350
aI11400
aI11450
aI11500
aI11550
aI11600
aI11650
aI11700
aI11750
aI11800
aI11850
aI11900
aI11950
aI12000
aI12050
aI12100
aI12150
aI12200
aI12250
aI12300
aI12350
aI12400
aI12450
aI12500
aI12550
aI12600
aI12650
aI12700
aI12750
aI12800
aI12850
aI12900
aI12950
aI13000
aI13050
aI13100
aI13150
aI13200
aI13250
aI13300
aI13350
aI13400
aI13450
aI13500
aI13550
aI13600
aI13650
aI13700
aI13750
aI13800
aI13850
aI13900
aI13950
aI14000
aI14050
aI14100
aI14150
aI14200
aI14250
aI14300
aI14350
aI14400
aI14450
aI14500
aI14550
aI14600
aI14650
aI14700
aI14750
aI14800
aI14850
aI14900
aI14950
aI15000
aI15050
aI15100
aI15150
aI15200
aI15250
aI15300
aI15350
aI15400
aI15450
aI15500
aI15550
aI15600
aI15650
aI15700
aI15750
aI15800
aI15850
aI15900
aI15950
aI16000
aI16050
aI16100
aI16150
aI16200
aI16250
aI16300
aI16350
aI16400
aI16450
aI16500
aI16550
aI16600
aI16650
aI16700
aI16750
aI16800
aI16850
aI16900
aI16950
aI17000
aI17050
aI17100
aI17150
aI17200
aI17250
aI17300
aI17350
aI17400
aI17450
aI17500
aI17550
aI17600
aI17650
aI17700
aI17750
aI17800
aI17850
aI17900
aI17950
aI18000
aI18050
aI18100
aI18150
aI18200
aI18250
aI18300
aI18350
aI18400
aI18450
aI18500
aI18550
aI18600
aI18650
aI18700
aI18750
aI18800
aI18850
aI18900
aI18950
aI19000
aI19050
aI19100
aI19150
aI19200
aI19250
aI19300
aI19350
aI19400
aI19450
aI19500
aI19550
aI19600
aI19650
aI19700
aI19750
aI19800
aI19850
aI19900
aI19950
aI20000
aI20050
aI20100
aI20150
aI20200
aI20250
aI20300
aI20350
aI20400
aI20450
aI20500
aI20550
aI20600
aI20650
aI20700
aI20750
aI20800
aI20850
aI20900
aI20950
aI21000
aI21050
aI21100
aI21150
aI21200
aI21250
aI21300
aI21350
aI21400
aI21450
aI21500
aI21550
aI21600
aI21650
aI21700
aI21750
aI21800
aI21850
aI21900
aI21950
aI22000
aI22050
aI22100
aI22150
aI22200
aI22250
aI22300
aI22350
aI22400
aI22450
aI22500
aI22550
aI22600
aI22650
aI22700
aI22750
aI22800
aI22850
aI22900
aI22950
aI23000
aI23050
aI23100
aI23150
aI23200
aI23250
aI23300
aI23350
aI23400
aI23450
aI23500
aI23550
aI23600
aI23650
aI23700
aI23750
aI23800
aI23850
aI23900
aI23950
aI24000
aI24050
aI24100
aI24150
aI24200
aI24250
aI24300
aI24350
aI24400
aI24450
aI24500
aI24550
aI24600
aI24650
aI24700
aI24750
aI24800
aI24850
aI24900
aI24950
aI25000
asS'best_f'
p3
(lp4
cnumpy.core.multiarray
scalar
p5
(cnumpy
dtype
p6
(S'f8'
p7
I0
I1
tp8
Rp9
(I3
S'<'
p10
NNNI-1
I-1
I0
tp11
bS'\x8cW\xeex,\x1f\xfe?'
p12
tp13
Rp14
ag5
(g9
S'\xa1Z\xb3\xf7}\x86\xe7?'
p15
tp16
Rp17
ag5
(g9
S'\x93Q\xce\xcd\x93\x10\xe5?'
p18
tp19
Rp20
ag5
(g9
S'\x9a\xb2o\xcf;\x86\xe2?'
p21
tp22
Rp23
ag23
ag23
ag23
ag5
(g9
S'zS\xb1\x85\xc1\xb4\xe1?'
p24
tp25
Rp26
ag26
ag5
(g9
S'\xbf\xf0o\xe9\xad\xfc\xdf?'
p27
tp28
Rp29
ag29
ag29
ag29
ag29
ag5
(g9
S'\xc8\x86\n\xf0a\xf6\xdf?'
p30
tp31
Rp32
ag5
(g9
S'\xf9\xaf\x16\xc3g\xad\xdf?'
p33
tp34
Rp35
ag35
ag5
(g9
S'\x82\x80\x1ec\x85\xa5\xdf?'
p36
tp37
Rp38
ag5
(g9
S'H\x97\x87#\xb5\xe5\xdc?'
p39
tp40
Rp41
ag41
ag5
(g9
S'\xdb1\t\xe6\x8e\x84\xd7?'
p42
tp43
Rp44
ag44
ag44
ag44
ag44
ag44
ag44
ag44
ag5
(g9
S'@\x14.\xdf\xac%\xd7?'
p45
tp46
Rp47
ag47
ag47
ag5
(g9
S'\xc3\x95D\xf1,"\xd7?'
p48
tp49
Rp50
ag50
ag50
ag5
(g9
S'\xb7\x06\xa02\xd6\x14\xd7?'
p51
tp52
Rp53
ag53
ag53
ag53
ag53
ag53
ag53
ag53
ag53
ag5
(g9
S'\xa4O\xff\xf1\xf1\t\xd7?'
p54
tp55
Rp56
ag56
ag56
ag56
ag5
(g9
S'\xe2:\x93\xef@y\xd4?'
p57
tp58
Rp59
ag59
ag59
ag59
ag59
ag59
ag59
ag59
ag59
ag59
ag5
(g9
S'R\xfd\x7f\x1e\xb2\xf9\xd3?'
p60
tp61
Rp62
ag62
ag62
ag5
(g9
S'\x1bd\xbb\xd8\xa6\xbb\xd1?'
p63
tp64
Rp65
ag65
ag5
(g9
S'D\x91\xe5\x03B\x80\xd1?'
p66
tp67
Rp68
ag68
ag68
ag68
ag68
ag68
ag68
ag68
ag68
ag68
ag68
ag68
ag68
ag68
ag68
ag68
ag5
(g9
S'\xb4\xe5T2\xb1l\xd1?'
p69
tp70
Rp71
ag71
ag71
ag71
ag5
(g9
S'\x1fL\xa4E\xf2T\xd0?'
p72
tp73
Rp74
ag74
ag74
ag74
ag74
ag5
(g9
S'^e\xb9\x92a>\xd0?'
p75
tp76
Rp77
ag77
ag77
ag77
ag77
ag77
ag77
ag77
ag77
ag77
ag77
ag77
ag77
ag77
ag5
(g9
S'\xce\xdb\x13\x1bF\xb5\xcf?'
p78
tp79
Rp80
ag80
ag80
ag80
ag80
ag80
ag80
ag80
ag80
ag80
ag80
ag80
ag80
ag80
ag80
ag80
ag80
ag80
ag80
ag80
ag80
ag80
ag80
ag80
ag80
ag80
ag80
ag80
ag80
ag80
ag80
ag80
ag80
ag80
ag80
ag80
ag80
ag80
ag80
ag80
ag80
ag80
ag80
ag80
ag80
ag80
ag80
ag80
ag80
ag80
ag80
ag80
ag80
ag80
ag80
ag80
ag80
ag80
ag80
ag80
ag80
ag80
ag80
ag80
ag80
ag80
ag80
ag80
ag80
ag80
ag80
ag80
ag80
ag80
ag80
ag80
ag80
ag80
ag80
ag80
ag80
ag80
ag80
ag80
ag80
ag80
ag80
ag80
ag80
ag80
ag80
ag80
ag80
ag80
ag80
ag80
ag80
ag80
ag80
ag80
ag80
ag80
ag80
ag80
ag80
ag80
ag80
ag80
ag80
ag80
ag80
ag80
ag80
ag80
ag80
ag80
ag80
ag80
ag80
ag80
ag80
ag80
ag80
ag80
ag80
ag80
ag80
ag80
ag80
ag80
ag80
ag80
ag80
ag80
ag80
ag80
ag80
ag80
ag80
ag80
ag80
ag80
ag80
ag80
ag80
ag80
ag5
(g9
S'\x17\xb5\x18I]A\xcf?'
p81
tp82
Rp83
ag83
ag83
ag83
ag83
ag83
ag83
ag83
ag83
ag83
ag83
ag83
ag83
ag83
ag83
ag83
ag83
ag83
ag83
ag83
ag83
ag83
ag83
ag83
ag83
ag83
ag83
ag83
ag83
ag83
ag83
ag83
ag83
ag83
ag83
ag83
ag83
ag83
ag83
ag83
ag83
ag83
ag83
ag83
ag83
ag83
ag83
ag83
ag83
ag83
ag83
ag83
ag83
ag83
ag83
ag83
ag83
ag83
ag83
ag83
ag83
ag83
ag83
ag5
(g9
S'\xbf)i\xc8\x9dq\xce?'
p84
tp85
Rp86
ag86
ag86
ag86
ag86
ag86
ag86
ag86
ag86
ag86
ag86
ag86
ag86
ag86
ag86
ag5
(g9
S'\xfa\x0cjV\xab\xfa\xc5?'
p87
tp88
Rp89
ag89
ag5
(g9
S'\x99\xdb\xa2{\x85\xe7\xc2?'
p90
tp91
Rp92
ag92
ag92
ag92
ag92
ag92
ag92
ag92
ag92
ag92
ag92
ag92
ag92
ag92
ag92
ag92
ag92
ag92
ag92
ag92
ag92
ag92
ag92
ag92
ag92
ag92
ag92
ag92
ag92
ag92
ag92
ag92
ag92
ag92
ag92
ag92
ag92
ag92
ag92
ag92
ag92
ag92
ag92
ag92
ag92
ag92
ag92
ag92
ag92
ag92
ag92
ag92
ag92
ag92
ag92
ag92
ag92
ag92
ag92
ag92
ag92
ag92
ag92
ag92
ag92
ag92
ag92
ag92
ag92
ag92
ag92
ag92
ag92
ag92
ag92
ag92
ag92
ag92
ag92
ag92
ag92
ag92
ag92
ag92
ag92
ag92
ag92
ag92
ag92
ag92
ag92
ag92
ag92
ag92
ag92
ag92
ag92
ag92
ag92
ag92
ag92
ag92
ag92
ag92
ag92
ag92
ag92
ag92
ag92
ag92
ag92
ag92
ag92
ag92
ag92
ag92
ag92
ag92
ag92
ag92
ag92
ag92
ag92
ag92
ag92
ag92
ag92
ag92
ag92
ag92
ag92
ag92
ag92
ag92
ag92
ag92
ag92
ag92
ag92
ag92
ag92
ag92
ag92
ag92
ag92
ag92
ag92
ag92
ag92
ag92
ag92
ag92
ag92
ag92
ag92
ag92
ag92
ag92
ag92
ag92
ag92
ag92
ag92
ag92
ag92
ag92
ag92
ag92
ag92
ag92
ag92
ag92
ag92
asS'best_P'
p93
(lp94
(itree
PTree
p95
(dp96
S'root'
p97
ccopy_reg
_reconstructor
p98
(ctree
Feature
p99
c__builtin__
object
p100
Ntp101
Rp102
(dp103
S'index'
p104
I0
sS'name'
p105
S'Storage'
p106
sS'l'
p107
g98
(ctree
Action
p108
g100
Ntp109
Rp110
(dp111
S'r'
p112
NsS'is_feature'
p113
I00
sS'value'
p114
S'Hedge_80'
p115
sg107
Nsbsg112
g98
(g99
g100
Ntp116
Rp117
(dp118
g104
I1
sg105
S'Day'
p119
sg107
g98
(g108
g100
Ntp120
Rp121
(dp122
g112
Nsg113
I00
sg114
S'Flood_Control'
p123
sg107
Nsbsg112
g98
(g99
g100
Ntp124
Rp125
(dp126
g104
I1
sg105
g119
sg107
g98
(g108
g100
Ntp127
Rp128
(dp129
g112
Nsg113
I00
sg114
S'Release_Demand'
p130
sg107
Nsbsg112
g98
(g108
g100
Ntp131
Rp132
(dp133
g112
Nsg113
I00
sg114
S'Hedge_50'
p134
sg107
NsbsS'threshold'
p135
F242.47478918874836
sg113
I01
sbsg135
F228.69524897742545
sg113
I01
sbsg135
F412.2090890795762
sg113
I01
sbsS'L'
p136
(lp137
g102
ag110
ag117
ag121
ag125
ag128
ag132
asS'N'
p138
I7
sba(itree
PTree
p139
(dp140
g97
g98
(g99
g100
Ntp141
Rp142
(dp143
g104
I1
sg112
g98
(g108
g100
Ntp144
Rp145
(dp146
g112
Nsg113
I00
sg114
S'Release_Demand'
p147
sg107
Nsbsg105
g119
sg135
F141.05202416608103
sg107
g98
(g108
g100
Ntp148
Rp149
(dp150
g112
Nsg113
I00
sg114
S'Flood_Control'
p151
sg107
Nsbsg113
I01
sbsg136
(lp152
g142
ag149
ag145
asg138
I3
sba(itree
PTree
p153
(dp154
g97
g98
(g99
g100
Ntp155
Rp156
(dp157
g104
I1
sg112
g98
(g108
g100
Ntp158
Rp159
(dp160
g112
Nsg113
I00
sg114
g147
sg107
Nsbsg105
g119
sg135
F130.4836960436587
sg107
g98
(g108
g100
Ntp161
Rp162
(dp163
g112
Nsg113
I00
sg114
g151
sg107
Nsbsg113
I01
sbsg136
(lp164
g156
ag162
ag159
asg138
I3
sba(itree
PTree
p165
(dp166
g97
g98
(g99
g100
Ntp167
Rp168
(dp169
g104
I1
sg112
g98
(g108
g100
Ntp170
Rp171
(dp172
g112
Nsg113
I00
sg114
S'Release_Demand'
p173
sg107
Nsbsg105
g119
sg135
F102.44556563989178
sg107
g98
(g108
g100
Ntp174
Rp175
(dp176
g112
Nsg113
I00
sg114
g151
sg107
Nsbsg113
I01
sbsg136
(lp177
g168
ag175
ag171
asg138
I3
sbag165
ag165
ag165
a(itree
PTree
p178
(dp179
g97
g98
(g99
g100
Ntp180
Rp181
(dp182
g104
I0
sg112
g98
(g99
g100
Ntp183
Rp184
(dp185
g104
I1
sg112
g98
(g99
g100
Ntp186
Rp187
(dp188
g104
I1
sg112
g98
(g108
g100
Ntp189
Rp190
(dp191
g112
Nsg113
I00
sg114
S'Hedge_70'
p192
sg107
Nsbsg105
g119
sg135
F297.8310476393319
sg107
g98
(g108
g100
Ntp193
Rp194
(dp195
g112
Nsg113
I00
sg114
g130
sg107
Nsbsg113
I01
sbsg105
g119
sg135
F172.43440926564307
sg107
g98
(g108
g100
Ntp196
Rp197
(dp198
g112
Nsg113
I00
sg114
S'Flood_Control'
p199
sg107
Nsbsg113
I01
sbsg105
g106
sg135
F302.2285030045189
sg107
g98
(g108
g100
Ntp200
Rp201
(dp202
g112
Nsg113
I00
sg114
g115
sg107
Nsbsg113
I01
sbsg136
(lp203
g181
ag201
ag184
ag197
ag187
ag194
ag190
asg138
I7
sbag178
a(itree
PTree
p204
(dp205
g97
g98
(g99
g100
Ntp206
Rp207
(dp208
g104
I1
sg112
g98
(g108
g100
Ntp209
Rp210
(dp211
g112
Nsg113
I00
sg114
S'Hedge_90'
p212
sg107
Nsbsg105
g119
sg135
F92.60346656616883
sg107
g98
(g108
g100
Ntp213
Rp214
(dp215
g112
Nsg113
I00
sg114
g151
sg107
Nsbsg113
I01
sbsg136
(lp216
g207
ag214
ag210
asg138
I3
sbag204
ag204
ag204
ag204
a(itree
PTree
p217
(dp218
g97
g98
(g99
g100
Ntp219
Rp220
(dp221
g104
I1
sg112
g98
(g108
g100
Ntp222
Rp223
(dp224
g112
Nsg113
I00
sg114
S'Hedge_90'
p225
sg107
Nsbsg105
g119
sg135
F121.1682265854529
sg107
g98
(g108
g100
Ntp226
Rp227
(dp228
g112
Nsg113
I00
sg114
S'Flood_Control'
p229
sg107
Nsbsg113
I01
sbsg136
(lp230
g220
ag227
ag223
asg138
I3
sba(itree
PTree
p231
(dp232
g97
g98
(g99
g100
Ntp233
Rp234
(dp235
g104
I1
sg112
g98
(g108
g100
Ntp236
Rp237
(dp238
g112
Nsg113
I00
sg114
S'Hedge_90'
p239
sg107
Nsbsg105
g119
sg135
F110.74328358324846
sg107
g98
(g108
g100
Ntp240
Rp241
(dp242
g112
Nsg113
I00
sg114
S'Flood_Control'
p243
sg107
Nsbsg113
I01
sbsg136
(lp244
g234
ag241
ag237
asg138
I3
sbag231
a(itree
PTree
p245
(dp246
g97
g98
(g99
g100
Ntp247
Rp248
(dp249
g104
I1
sg112
g98
(g108
g100
Ntp250
Rp251
(dp252
g112
Nsg113
I00
sg114
S'Hedge_90'
p253
sg107
Nsbsg105
g119
sg135
F111.71783382039825
sg107
g98
(g108
g100
Ntp254
Rp255
(dp256
g112
Nsg113
I00
sg114
S'Flood_Control'
p257
sg107
Nsbsg113
I01
sbsg136
(lp258
g248
ag255
ag251
asg138
I3
sba(itree
PTree
p259
(dp260
g97
g98
(g99
g100
Ntp261
Rp262
(dp263
g104
I0
sg112
g98
(g99
g100
Ntp264
Rp265
(dp266
g104
I1
sg112
g98
(g99
g100
Ntp267
Rp268
(dp269
g104
I1
sg112
g98
(g108
g100
Ntp270
Rp271
(dp272
g112
Nsg113
I00
sg114
g192
sg107
Nsbsg105
g119
sg135
F350.09216850623545
sg107
g98
(g108
g100
Ntp273
Rp274
(dp275
g112
Nsg113
I00
sg114
g130
sg107
Nsbsg113
I01
sbsg105
g119
sg135
F202.9863261321706
sg107
g98
(g108
g100
Ntp276
Rp277
(dp278
g112
Nsg113
I00
sg114
g199
sg107
Nsbsg113
I01
sbsg105
g106
sg135
F291.24463450245344
sg107
g98
(g108
g100
Ntp279
Rp280
(dp281
g112
Nsg113
I00
sg114
g115
sg107
Nsbsg113
I01
sbsg136
(lp282
g262
ag280
ag265
ag277
ag268
ag274
ag271
asg138
I7
sbag259
a(itree
PTree
p283
(dp284
g97
g98
(g99
g100
Ntp285
Rp286
(dp287
g104
I0
sg112
g98
(g99
g100
Ntp288
Rp289
(dp290
g104
I1
sg112
g98
(g99
g100
Ntp291
Rp292
(dp293
g104
I1
sg112
g98
(g108
g100
Ntp294
Rp295
(dp296
g112
Nsg113
I00
sg114
S'Release_Demand'
p297
sg107
Nsbsg105
g119
sg135
F163.4677743794834
sg107
g98
(g108
g100
Ntp298
Rp299
(dp300
g112
Nsg113
I00
sg114
S'Flood_Control'
p301
sg107
Nsbsg113
I01
sbsg105
g119
sg135
F153.3592085113795
sg107
g98
(g108
g100
Ntp302
Rp303
(dp304
g112
Nsg113
I00
sg114
S'Flood_Control'
p305
sg107
Nsbsg113
I01
sbsg105
g106
sg135
F315.5641202158969
sg107
g98
(g108
g100
Ntp306
Rp307
(dp308
g112
Nsg113
I00
sg114
S'Hedge_90'
p309
sg107
Nsbsg113
I01
sbsg136
(lp310
g286
ag307
ag289
ag303
ag292
ag299
ag295
asg138
I7
sbag283
ag283
ag283
ag283
ag283
ag283
ag283
a(itree
PTree
p311
(dp312
g97
g98
(g99
g100
Ntp313
Rp314
(dp315
g104
I0
sg112
g98
(g99
g100
Ntp316
Rp317
(dp318
g104
I1
sg112
g98
(g99
g100
Ntp319
Rp320
(dp321
g104
I1
sg112
g98
(g108
g100
Ntp322
Rp323
(dp324
g112
Nsg113
I00
sg114
g192
sg107
Nsbsg105
g119
sg135
F339.12019005593464
sg107
g98
(g108
g100
Ntp325
Rp326
(dp327
g112
Nsg113
I00
sg114
g130
sg107
Nsbsg113
I01
sbsg105
g119
sg135
F154.97977492465702
sg107
g98
(g108
g100
Ntp328
Rp329
(dp330
g112
Nsg113
I00
sg114
g199
sg107
Nsbsg113
I01
sbsg105
g106
sg135
F377.64508326982616
sg107
g98
(g108
g100
Ntp331
Rp332
(dp333
g112
Nsg113
I00
sg114
g115
sg107
Nsbsg113
I01
sbsg136
(lp334
g314
ag332
ag317
ag329
ag320
ag326
ag323
asg138
I7
sbag311
ag311
a(itree
PTree
p335
(dp336
g97
g98
(g99
g100
Ntp337
Rp338
(dp339
g104
I0
sg112
g98
(g99
g100
Ntp340
Rp341
(dp342
g104
I1
sg112
g98
(g99
g100
Ntp343
Rp344
(dp345
g104
I1
sg112
g98
(g108
g100
Ntp346
Rp347
(dp348
g112
Nsg113
I00
sg114
g297
sg107
Nsbsg105
g119
sg135
F94.43835996263849
sg107
g98
(g108
g100
Ntp349
Rp350
(dp351
g112
Nsg113
I00
sg114
g301
sg107
Nsbsg113
I01
sbsg105
g119
sg135
F137.36731334594973
sg107
g98
(g108
g100
Ntp352
Rp353
(dp354
g112
Nsg113
I00
sg114
g305
sg107
Nsbsg113
I01
sbsg105
g106
sg135
F387.42206842850715
sg107
g98
(g108
g100
Ntp355
Rp356
(dp357
g112
Nsg113
I00
sg114
g309
sg107
Nsbsg113
I01
sbsg136
(lp358
g338
ag356
ag341
ag353
ag344
ag350
ag347
asg138
I7
sbag335
ag335
a(itree
PTree
p359
(dp360
g97
g98
(g99
g100
Ntp361
Rp362
(dp363
g104
I0
sg112
g98
(g99
g100
Ntp364
Rp365
(dp366
g104
I1
sg112
g98
(g99
g100
Ntp367
Rp368
(dp369
g104
I1
sg112
g98
(g108
g100
Ntp370
Rp371
(dp372
g112
Nsg113
I00
sg114
g297
sg107
Nsbsg105
g119
sg135
F62.69581320491104
sg107
g98
(g108
g100
Ntp373
Rp374
(dp375
g112
Nsg113
I00
sg114
g301
sg107
Nsbsg113
I01
sbsg105
g119
sg135
F136.47122344539218
sg107
g98
(g108
g100
Ntp376
Rp377
(dp378
g112
Nsg113
I00
sg114
g305
sg107
Nsbsg113
I01
sbsg105
g106
sg135
F387.42206842850715
sg107
g98
(g108
g100
Ntp379
Rp380
(dp381
g112
Nsg113
I00
sg114
g309
sg107
Nsbsg113
I01
sbsg136
(lp382
g362
ag380
ag365
ag377
ag368
ag374
ag371
asg138
I7
sbag359
ag359
ag359
ag359
ag359
ag359
ag359
ag359
a(itree
PTree
p383
(dp384
g97
g98
(g99
g100
Ntp385
Rp386
(dp387
g104
I0
sg112
g98
(g99
g100
Ntp388
Rp389
(dp390
g104
I1
sg112
g98
(g99
g100
Ntp391
Rp392
(dp393
g104
I1
sg112
g98
(g108
g100
Ntp394
Rp395
(dp396
g112
Nsg113
I00
sg114
S'Flood_Control'
p397
sg107
Nsbsg105
g119
sg135
F357.9731039511279
sg107
g98
(g108
g100
Ntp398
Rp399
(dp400
g112
Nsg113
I00
sg114
g130
sg107
Nsbsg113
I01
sbsg105
g119
sg135
F151.65769893670387
sg107
g98
(g108
g100
Ntp401
Rp402
(dp403
g112
Nsg113
I00
sg114
g199
sg107
Nsbsg113
I01
sbsg105
g106
sg135
F362.08527417108655
sg107
g98
(g108
g100
Ntp404
Rp405
(dp406
g112
Nsg113
I00
sg114
S'Hedge_80'
p407
sg107
Nsbsg113
I01
sbsg136
(lp408
g386
ag405
ag389
ag402
ag392
ag399
ag395
asg138
I7
sbag383
ag383
ag383
a(itree
PTree
p409
(dp410
g97
g98
(g99
g100
Ntp411
Rp412
(dp413
g104
I0
sg112
g98
(g99
g100
Ntp414
Rp415
(dp416
g104
I1
sg112
g98
(g99
g100
Ntp417
Rp418
(dp419
g104
I1
sg112
g98
(g108
g100
Ntp420
Rp421
(dp422
g112
Nsg113
I00
sg114
g192
sg107
Nsbsg105
g119
sg135
F351.0242656350464
sg107
g98
(g108
g100
Ntp423
Rp424
(dp425
g112
Nsg113
I00
sg114
g130
sg107
Nsbsg113
I01
sbsg105
g119
sg135
F121.65952675778519
sg107
g98
(g108
g100
Ntp426
Rp427
(dp428
g112
Nsg113
I00
sg114
g199
sg107
Nsbsg113
I01
sbsg105
g106
sg135
F401.79571357648234
sg107
g98
(g108
g100
Ntp429
Rp430
(dp431
g112
Nsg113
I00
sg114
g115
sg107
Nsbsg113
I01
sbsg136
(lp432
g412
ag430
ag415
ag427
ag418
ag424
ag421
asg138
I7
sbag409
ag409
ag409
ag409
ag409
ag409
ag409
ag409
ag409
a(itree
PTree
p433
(dp434
g97
g98
(g99
g100
Ntp435
Rp436
(dp437
g104
I0
sg112
g98
(g99
g100
Ntp438
Rp439
(dp440
g104
I1
sg112
g98
(g99
g100
Ntp441
Rp442
(dp443
g104
I1
sg112
g98
(g108
g100
Ntp444
Rp445
(dp446
g112
Nsg113
I00
sg114
g397
sg107
Nsbsg105
g119
sg135
F362.3392050909733
sg107
g98
(g108
g100
Ntp447
Rp448
(dp449
g112
Nsg113
I00
sg114
g130
sg107
Nsbsg113
I01
sbsg105
g119
sg135
F142.12078674520117
sg107
g98
(g108
g100
Ntp450
Rp451
(dp452
g112
Nsg113
I00
sg114
g199
sg107
Nsbsg113
I01
sbsg105
g106
sg135
F359.5174123278103
sg107
g98
(g108
g100
Ntp453
Rp454
(dp455
g112
Nsg113
I00
sg114
g407
sg107
Nsbsg113
I01
sbsg136
(lp456
g436
ag454
ag439
ag451
ag442
ag448
ag445
asg138
I7
sbag433
ag433
a(itree
PTree
p457
(dp458
g97
g98
(g99
g100
Ntp459
Rp460
(dp461
g104
I0
sg112
g98
(g99
g100
Ntp462
Rp463
(dp464
g104
I1
sg112
g98
(g99
g100
Ntp465
Rp466
(dp467
g104
I1
sg112
g98
(g108
g100
Ntp468
Rp469
(dp470
g112
Nsg113
I00
sg114
g397
sg107
Nsbsg105
g119
sg135
F362.3392050909733
sg107
g98
(g108
g100
Ntp471
Rp472
(dp473
g112
Nsg113
I00
sg114
g130
sg107
Nsbsg113
I01
sbsg105
g119
sg135
F97.67744939162043
sg107
g98
(g108
g100
Ntp474
Rp475
(dp476
g112
Nsg113
I00
sg114
g199
sg107
Nsbsg113
I01
sbsg105
g106
sg135
F407.47652083459406
sg107
g98
(g108
g100
Ntp477
Rp478
(dp479
g112
Nsg113
I00
sg114
g407
sg107
Nsbsg113
I01
sbsg136
(lp480
g460
ag478
ag463
ag475
ag466
ag472
ag469
asg138
I7
sbag457
a(itree
PTree
p481
(dp482
g97
g98
(g99
g100
Ntp483
Rp484
(dp485
g104
I0
sg112
g98
(g99
g100
Ntp486
Rp487
(dp488
g104
I1
sg112
g98
(g99
g100
Ntp489
Rp490
(dp491
g104
I1
sg112
g98
(g108
g100
Ntp492
Rp493
(dp494
g112
Nsg113
I00
sg114
g192
sg107
Nsbsg105
g119
sg135
F364.0368947164663
sg107
g98
(g108
g100
Ntp495
Rp496
(dp497
g112
Nsg113
I00
sg114
g130
sg107
Nsbsg113
I01
sbsg105
g119
sg135
F112.14664063654776
sg107
g98
(g108
g100
Ntp498
Rp499
(dp500
g112
Nsg113
I00
sg114
g199
sg107
Nsbsg113
I01
sbsg105
g106
sg135
F421.33581392439106
sg107
g98
(g108
g100
Ntp501
Rp502
(dp503
g112
Nsg113
I00
sg114
g115
sg107
Nsbsg113
I01
sbsg136
(lp504
g484
ag502
ag487
ag499
ag490
ag496
ag493
asg138
I7
sbag481
ag481
ag481
ag481
ag481
ag481
ag481
ag481
ag481
ag481
ag481
ag481
ag481
ag481
ag481
a(itree
PTree
p505
(dp506
g97
g98
(g99
g100
Ntp507
Rp508
(dp509
g104
I0
sg112
g98
(g99
g100
Ntp510
Rp511
(dp512
g104
I1
sg112
g98
(g108
g100
Ntp513
Rp514
(dp515
g112
Nsg113
I00
sg114
S'Release_Demand'
p516
sg107
Nsbsg105
g119
sg135
F116.57223739442256
sg107
g98
(g108
g100
Ntp517
Rp518
(dp519
g112
Nsg113
I00
sg114
S'Flood_Control'
p520
sg107
Nsbsg113
I01
sbsg105
g106
sg135
F433.0960717302242
sg107
g98
(g108
g100
Ntp521
Rp522
(dp523
g112
Nsg113
I00
sg114
S'Hedge_80'
p524
sg107
Nsbsg113
I01
sbsg136
(lp525
g508
ag522
ag511
ag518
ag514
asg138
I5
sbag505
ag505
ag505
a(itree
PTree
p526
(dp527
g97
g98
(g99
g100
Ntp528
Rp529
(dp530
g104
I0
sg112
g98
(g99
g100
Ntp531
Rp532
(dp533
g104
I1
sg112
g98
(g108
g100
Ntp534
Rp535
(dp536
g112
Nsg113
I00
sg114
S'Release_Demand'
p537
sg107
Nsbsg105
g119
sg135
F133.1925565189121
sg107
g98
(g108
g100
Ntp538
Rp539
(dp540
g112
Nsg113
I00
sg114
S'Flood_Control'
p541
sg107
Nsbsg113
I01
sbsg105
g106
sg135
F434.8963742246088
sg107
g98
(g108
g100
Ntp542
Rp543
(dp544
g112
Nsg113
I00
sg114
g524
sg107
Nsbsg113
I01
sbsg136
(lp545
g529
ag543
ag532
ag539
ag535
asg138
I5
sbag526
ag526
ag526
ag526
a(itree
PTree
p546
(dp547
g97
g98
(g99
g100
Ntp548
Rp549
(dp550
g104
I0
sg112
g98
(g99
g100
Ntp551
Rp552
(dp553
g104
I1
sg112
g98
(g108
g100
Ntp554
Rp555
(dp556
g112
Nsg113
I00
sg114
g537
sg107
Nsbsg105
g119
sg135
F131.60469121549266
sg107
g98
(g108
g100
Ntp557
Rp558
(dp559
g112
Nsg113
I00
sg114
g541
sg107
Nsbsg113
I01
sbsg105
g106
sg135
F434.8963742246088
sg107
g98
(g108
g100
Ntp560
Rp561
(dp562
g112
Nsg113
I00
sg114
g524
sg107
Nsbsg113
I01
sbsg136
(lp563
g549
ag561
ag552
ag558
ag555
asg138
I5
sbag546
ag546
ag546
ag546
ag546
ag546
ag546
ag546
ag546
ag546
ag546
ag546
ag546
a(itree
PTree
p564
(dp565
g97
g98
(g99
g100
Ntp566
Rp567
(dp568
g104
I0
sg112
g98
(g99
g100
Ntp569
Rp570
(dp571
g104
I1
sg112
g98
(g108
g100
Ntp572
Rp573
(dp574
g112
Nsg113
I00
sg114
g516
sg107
Nsbsg105
g119
sg135
F158.74728569392818
sg107
g98
(g108
g100
Ntp575
Rp576
(dp577
g112
Nsg113
I00
sg114
g520
sg107
Nsbsg113
I01
sbsg105
g106
sg135
F431.90803835628446
sg107
g98
(g108
g100
Ntp578
Rp579
(dp580
g112
Nsg113
I00
sg114
g524
sg107
Nsbsg113
I01
sbsg136
(lp581
g567
ag579
ag570
ag576
ag573
asg138
I5
sbag564
ag564
ag564
ag564
ag564
ag564
ag564
ag564
ag564
ag564
ag564
ag564
ag564
ag564
ag564
ag564
ag564
ag564
ag564
ag564
ag564
ag564
ag564
ag564
ag564
ag564
ag564
ag564
ag564
ag564
ag564
ag564
ag564
ag564
ag564
ag564
ag564
ag564
ag564
ag564
ag564
ag564
ag564
ag564
ag564
ag564
ag564
ag564
ag564
ag564
ag564
ag564
ag564
ag564
ag564
ag564
ag564
ag564
ag564
ag564
ag564
ag564
ag564
ag564
ag564
ag564
ag564
ag564
ag564
ag564
ag564
ag564
ag564
ag564
ag564
ag564
ag564
ag564
ag564
ag564
ag564
ag564
ag564
ag564
ag564
ag564
ag564
ag564
ag564
ag564
ag564
ag564
ag564
ag564
ag564
ag564
ag564
ag564
ag564
ag564
ag564
ag564
ag564
ag564
ag564
ag564
ag564
ag564
ag564
ag564
ag564
ag564
ag564
ag564
ag564
ag564
ag564
ag564
ag564
ag564
ag564
ag564
ag564
ag564
ag564
ag564
ag564
ag564
ag564
ag564
ag564
ag564
ag564
ag564
ag564
ag564
ag564
ag564
ag564
ag564
ag564
ag564
ag564
ag564
ag564
a(itree
PTree
p582
(dp583
g97
g98
(g99
g100
Ntp584
Rp585
(dp586
g104
I0
sg112
g98
(g99
g100
Ntp587
Rp588
(dp589
g104
I1
sg112
g98
(g108
g100
Ntp590
Rp591
(dp592
g112
Nsg113
I00
sg114
g516
sg107
Nsbsg105
g119
sg135
F155.88436054803472
sg107
g98
(g108
g100
Ntp593
Rp594
(dp595
g112
Nsg113
I00
sg114
g520
sg107
Nsbsg113
I01
sbsg105
g106
sg135
F433.5442857666723
sg107
g98
(g108
g100
Ntp596
Rp597
(dp598
g112
Nsg113
I00
sg114
g524
sg107
Nsbsg113
I01
sbsg136
(lp599
g585
ag597
ag588
ag594
ag591
asg138
I5
sbag582
ag582
ag582
ag582
ag582
ag582
ag582
ag582
ag582
ag582
ag582
ag582
ag582
ag582
ag582
ag582
ag582
ag582
ag582
ag582
ag582
ag582
ag582
ag582
ag582
ag582
ag582
ag582
ag582
ag582
ag582
ag582
ag582
ag582
ag582
ag582
ag582
ag582
ag582
ag582
ag582
ag582
ag582
ag582
ag582
ag582
ag582
ag582
ag582
ag582
ag582
ag582
ag582
ag582
ag582
ag582
ag582
ag582
ag582
ag582
ag582
ag582
a(itree
PTree
p600
(dp601
g97
g98
(g99
g100
Ntp602
Rp603
(dp604
g104
I0
sg112
g98
(g99
g100
Ntp605
Rp606
(dp607
g104
I0
sg112
g98
(g99
g100
Ntp608
Rp609
(dp610
g104
I1
sg112
g98
(g108
g100
Ntp611
Rp612
(dp613
g112
Nsg113
I00
sg114
S'Release_Demand'
p614
sg107
Nsbsg105
g119
sg135
F154.11821062358393
sg107
g98
(g108
g100
Ntp615
Rp616
(dp617
g112
Nsg113
I00
sg114
S'Flood_Control'
p618
sg107
Nsbsg113
I01
sbsg105
g106
sg135
F429.3370376461494
sg107
g98
(g108
g100
Ntp619
Rp620
(dp621
g112
Nsg113
I00
sg114
S'Hedge_90'
p622
sg107
Nsbsg113
I01
sbsg105
g106
sg135
F220.24001086903522
sg107
g98
(g108
g100
Ntp623
Rp624
(dp625
g112
Nsg113
I00
sg114
S'Hedge_70'
p626
sg107
Nsbsg113
I01
sbsg136
(lp627
g603
ag624
ag606
ag620
ag609
ag616
ag612
asg138
I7
sbag600
ag600
ag600
ag600
ag600
ag600
ag600
ag600
ag600
ag600
ag600
ag600
ag600
ag600
a(itree
PTree
p628
(dp629
g97
g98
(g99
g100
Ntp630
Rp631
(dp632
g104
I0
sg112
g98
(g99
g100
Ntp633
Rp634
(dp635
g104
I0
sg112
g98
(g99
g100
Ntp636
Rp637
(dp638
g104
I1
sg112
g98
(g108
g100
Ntp639
Rp640
(dp641
g112
Nsg113
I00
sg114
S'Release_Demand'
p642
sg107
Nsbsg105
g119
sg135
F143.3334509550955
sg107
g98
(g108
g100
Ntp643
Rp644
(dp645
g112
Nsg113
I00
sg114
S'Flood_Control'
p646
sg107
Nsbsg113
I01
sbsg105
g106
sg135
F421.5958971192709
sg107
g98
(g108
g100
Ntp647
Rp648
(dp649
g112
Nsg113
I00
sg114
S'Hedge_90'
p650
sg107
Nsbsg113
I01
sbsg105
g106
sg135
F439.0394662513062
sg107
g98
(g108
g100
Ntp651
Rp652
(dp653
g112
Nsg113
I00
sg114
S'Hedge_80'
p654
sg107
Nsbsg113
I01
sbsg136
(lp655
g631
ag652
ag634
ag648
ag637
ag644
ag640
asg138
I7
sbag628
a(itree
PTree
p656
(dp657
g97
g98
(g99
g100
Ntp658
Rp659
(dp660
g104
I0
sg112
g98
(g99
g100
Ntp661
Rp662
(dp663
g104
I0
sg112
g98
(g99
g100
Ntp664
Rp665
(dp666
g104
I1
sg112
g98
(g108
g100
Ntp667
Rp668
(dp669
g112
Nsg113
I00
sg114
g642
sg107
Nsbsg105
g119
sg135
F114.75177744381246
sg107
g98
(g108
g100
Ntp670
Rp671
(dp672
g112
Nsg113
I00
sg114
g646
sg107
Nsbsg113
I01
sbsg105
g106
sg135
F421.5958971192709
sg107
g98
(g108
g100
Ntp673
Rp674
(dp675
g112
Nsg113
I00
sg114
g650
sg107
Nsbsg113
I01
sbsg105
g106
sg135
F432.12602757534466
sg107
g98
(g108
g100
Ntp676
Rp677
(dp678
g112
Nsg113
I00
sg114
g654
sg107
Nsbsg113
I01
sbsg136
(lp679
g659
ag677
ag662
ag674
ag665
ag671
ag668
asg138
I7
sbag656
ag656
ag656
ag656
ag656
ag656
ag656
ag656
ag656
ag656
ag656
ag656
ag656
ag656
ag656
ag656
ag656
ag656
ag656
ag656
ag656
ag656
ag656
ag656
ag656
ag656
ag656
ag656
ag656
ag656
ag656
ag656
ag656
ag656
ag656
ag656
ag656
ag656
ag656
ag656
ag656
ag656
ag656
ag656
ag656
ag656
ag656
ag656
ag656
ag656
ag656
ag656
ag656
ag656
ag656
ag656
ag656
ag656
ag656
ag656
ag656
ag656
ag656
ag656
ag656
ag656
ag656
ag656
ag656
ag656
ag656
ag656
ag656
ag656
ag656
ag656
ag656
ag656
ag656
ag656
ag656
ag656
ag656
ag656
ag656
ag656
ag656
ag656
ag656
ag656
ag656
ag656
ag656
ag656
ag656
ag656
ag656
ag656
ag656
ag656
ag656
ag656
ag656
ag656
ag656
ag656
ag656
ag656
ag656
ag656
ag656
ag656
ag656
ag656
ag656
ag656
ag656
ag656
ag656
ag656
ag656
ag656
ag656
ag656
ag656
ag656
ag656
ag656
ag656
ag656
ag656
ag656
ag656
ag656
ag656
ag656
ag656
ag656
ag656
ag656
ag656
ag656
ag656
ag656
ag656
ag656
ag656
ag656
ag656
ag656
ag656
ag656
ag656
ag656
ag656
ag656
ag656
ag656
ag656
ag656
ag656
ag656
ag656
ag656
ag656
ag656
ag656
ag656
ag656
ag656
ag656
ag656
asS'time'
p680
(lp681
I63
aI96
aI128
aI160
aI193
aI225
aI258
aI292
aI325
aI358
aI392
aI425
aI458
aI492
aI525
aI559
aI592
aI625
aI658
aI691
aI725
aI758
aI792
aI826
aI859
aI892
aI925
aI959
aI992
aI1025
aI1059
aI1092
aI1125
aI1159
aI1192
aI1225
aI1258
aI1292
aI1325
aI1358
aI1392
aI1425
aI1458
aI1492
aI1525
aI1559
aI1592
aI1626
aI1660
aI1694
aI1727
aI1761
aI1795
aI1829
aI1862
aI1896
aI1930
aI1964
aI1998
aI2032
aI2066
aI2100
aI2134
aI2168
aI2202
aI2236
aI2270
aI2304
aI2338
aI2372
aI2407
aI2441
aI2474
aI2508
aI2542
aI2576
aI2610
aI2644
aI2678
aI2712
aI2746
aI2780
aI2814
aI2848
aI2881
aI2915
aI2949
aI2982
aI3016
aI3050
aI3084
aI3117
aI3151
aI3185
aI3218
aI3252
aI3286
aI3319
aI3353
aI3387
aI3420
aI3454
aI3488
aI3522
aI3556
aI3589
aI3623
aI3657
aI3691
aI3725
aI3759
aI3794
aI3828
aI3861
aI3895
aI3929
aI3963
aI3997
aI4030
aI4065
aI4098
aI4132
aI4166
aI4200
aI4234
aI4268
aI4301
aI4335
aI4369
aI4403
aI4437
aI4471
aI4505
aI4539
aI4573
aI4606
aI4641
aI4675
aI4708
aI4742
aI4776
aI4810
aI4844
aI4878
aI4912
aI4946
aI4980
aI5014
aI5048
aI5082
aI5116
aI5150
aI5184
aI5218
aI5252
aI5285
aI5319
aI5353
aI5387
aI5421
aI5455
aI5489
aI5522
aI5556
aI5590
aI5623
aI5657
aI5691
aI5725
aI5758
aI5792
aI5826
aI5860
aI5894
aI5928
aI5962
aI5996
aI6030
aI6064
aI6098
aI6132
aI6166
aI6200
aI6234
aI6268
aI6302
aI6336
aI6370
aI6404
aI6438
aI6472
aI6506
aI6540
aI6573
aI6607
aI6641
aI6675
aI6709
aI6743
aI6777
aI6811
aI6845
aI6879
aI6913
aI6947
aI6981
aI7015
aI7049
aI7083
aI7116
aI7150
aI7184
aI7219
aI7252
aI7286
aI7320
aI7353
aI7388
aI7421
aI7455
aI7489
aI7523
aI7557
aI7590
aI7624
aI7658
aI7691
aI7725
aI7759
aI7793
aI7827
aI7860
aI7894
aI7929
aI7963
aI7997
aI8031
aI8064
aI8099
aI8132
aI8166
aI8200
aI8234
aI8268
aI8302
aI8335
aI8369
aI8403
aI8437
aI8471
aI8505
aI8538
aI8572
aI8606
aI8640
aI8674
aI8707
aI8742
aI8776
aI8810
aI8844
aI8878
aI8912
aI8946
aI8980
aI9014
aI9048
aI9082
aI9116
aI9150
aI9184
aI9218
aI9252
aI9286
aI9320
aI9354
aI9388
aI9422
aI9456
aI9490
aI9524
aI9558
aI9592
aI9626
aI9660
aI9693
aI9727
aI9760
aI9794
aI9827
aI9862
aI9895
aI9929
aI9963
aI9997
aI10031
aI10065
aI10099
aI10133
aI10166
aI10200
aI10234
aI10268
aI10301
aI10335
aI10369
aI10403
aI10437
aI10471
aI10505
aI10539
aI10572
aI10606
aI10640
aI10674
aI10708
aI10742
aI10775
aI10809
aI10843
aI10877
aI10910
aI10944
aI10978
aI11011
aI11045
aI11079
aI11112
aI11146
aI11180
aI11214
aI11247
aI11281
aI11315
aI11349
aI11383
aI11416
aI11450
aI11484
aI11517
aI11551
aI11585
aI11619
aI11653
aI11686
aI11719
aI11753
aI11787
aI11821
aI11855
aI11889
aI11922
aI11956
aI11990
aI12024
aI12057
aI12091
aI12125
aI12159
aI12193
aI12227
aI12261
aI12295
aI12328
aI12362
aI12395
aI12429
aI12463
aI12497
aI12531
aI12565
aI12598
aI12632
aI12666
aI12700
aI12734
aI12768
aI12802
aI12836
aI12869
aI12903
aI12936
aI12970
aI13004
aI13038
aI13072
aI13106
aI13139
aI13173
aI13207
aI13240
aI13274
aI13307
aI13341
aI13374
aI13407
aI13441
aI13474
aI13508
aI13541
aI13575
aI13609
aI13642
aI13675
aI13709
aI13743
aI13776
aI13810
aI13843
aI13877
aI13911
aI13944
aI13978
aI14012
aI14046
aI14080
aI14114
aI14147
aI14181
aI14214
aI14248
aI14282
aI14316
aI14349
aI14382
aI14416
aI14449
aI14483
aI14517
aI14550
aI14583
aI14617
aI14651
aI14684
aI14718
aI14751
aI14784
aI14818
aI14851
aI14884
aI14918
aI14951
aI14984
aI15018
aI15051
aI15085
aI15119
aI15152
aI15186
aI15219
aI15253
aI15286
aI15320
aI15354
aI15387
aI15421
aI15455
aI15488
aI15522
aI15555
aI15589
aI15623
aI15656
aI15690
aI15723
aI15757
aI15790
aI15823
aI15857
aI15890
aI15924
aI15958
aI15991
aI16025
aI16059
aI16092
aI16125
aI16158
aI16192
aI16225
aI16258
aI16292
aI16325
aI16359
aI16392
aI16426
aI16459
aI16493
aI16526
aI16560
aI16594
aI16627
aI16661
aI16695
aI16729
aI16762
aI16796
aI16830
aI16863
aI16897
as.