(dp0
S'nfe'
p1
(lp2
I50
aI100
aI150
aI200
aI250
aI300
aI350
aI400
aI450
aI500
aI550
aI600
aI650
aI700
aI750
aI800
aI850
aI900
aI950
aI1000
aI1050
aI1100
aI1150
aI1200
aI1250
aI1300
aI1350
aI1400
aI1450
aI1500
aI1550
aI1600
aI1650
aI1700
aI1750
aI1800
aI1850
aI1900
aI1950
aI2000
aI2050
aI2100
aI2150
aI2200
aI2250
aI2300
aI2350
aI2400
aI2450
aI2500
aI2550
aI2600
aI2650
aI2700
aI2750
aI2800
aI2850
aI2900
aI2950
aI3000
aI3050
aI3100
aI3150
aI3200
aI3250
aI3300
aI3350
aI3400
aI3450
aI3500
aI3550
aI3600
aI3650
aI3700
aI3750
aI3800
aI3850
aI3900
aI3950
aI4000
aI4050
aI4100
aI4150
aI4200
aI4250
aI4300
aI4350
aI4400
aI4450
aI4500
aI4550
aI4600
aI4650
aI4700
aI4750
aI4800
aI4850
aI4900
aI4950
aI5000
aI5050
aI5100
aI5150
aI5200
aI5250
aI5300
aI5350
aI5400
aI5450
aI5500
aI5550
aI5600
aI5650
aI5700
aI5750
aI5800
aI5850
aI5900
aI5950
aI6000
aI6050
aI6100
aI6150
aI6200
aI6250
aI6300
aI6350
aI6400
aI6450
aI6500
aI6550
aI6600
aI6650
aI6700
aI6750
aI6800
aI6850
aI6900
aI6950
aI7000
aI7050
aI7100
aI7150
aI7200
aI7250
aI7300
aI7350
aI7400
aI7450
aI7500
aI7550
aI7600
aI7650
aI7700
aI7750
aI7800
aI7850
aI7900
aI7950
aI8000
aI8050
aI8100
aI8150
aI8200
aI8250
aI8300
aI8350
aI8400
aI8450
aI8500
aI8550
aI8600
aI8650
aI8700
aI8750
aI8800
aI8850
aI8900
aI8950
aI9000
aI9050
aI9100
aI9150
aI9200
aI9250
aI9300
aI9350
aI9400
aI9450
aI9500
aI9550
aI9600
aI9650
aI9700
aI9750
aI9800
aI9850
aI9900
aI9950
aI10000
aI10050
aI10100
aI10150
aI10200
aI10250
aI10300
aI10350
aI10400
aI10450
aI10500
aI10550
aI10600
aI10650
aI10700
aI10750
aI10800
aI10850
aI10900
aI10950
aI11000
aI11050
aI11100
aI11150
aI11200
aI11250
aI11300
aI11350
aI11400
aI11450
aI11500
aI11550
aI11600
aI11650
aI11700
aI11750
aI11800
aI11850
aI11900
aI11950
aI12000
aI12050
aI12100
aI12150
aI12200
aI12250
aI12300
aI12350
aI12400
aI12450
aI12500
aI12550
aI12600
aI12650
aI12700
aI12750
aI12800
aI12850
aI12900
aI12950
aI13000
aI13050
aI13100
aI13150
aI13200
aI13250
aI13300
aI13350
aI13400
aI13450
aI13500
aI13550
aI13600
aI13650
aI13700
aI13750
aI13800
aI13850
aI13900
aI13950
aI14000
aI14050
aI14100
aI14150
aI14200
aI14250
aI14300
aI14350
aI14400
aI14450
aI14500
aI14550
aI14600
aI14650
aI14700
aI14750
aI14800
aI14850
aI14900
aI14950
aI15000
aI15050
aI15100
aI15150
aI15200
aI15250
aI15300
aI15350
aI15400
aI15450
aI15500
aI15550
aI15600
aI15650
aI15700
aI15750
aI15800
aI15850
aI15900
aI15950
aI16000
aI16050
aI16100
aI16150
aI16200
aI16250
aI16300
aI16350
aI16400
aI16450
aI16500
aI16550
aI16600
aI16650
aI16700
aI16750
aI16800
aI16850
aI16900
aI16950
aI17000
aI17050
aI17100
aI17150
aI17200
aI17250
aI17300
aI17350
aI17400
aI17450
aI17500
aI17550
aI17600
aI17650
aI17700
aI17750
aI17800
aI17850
aI17900
aI17950
aI18000
aI18050
aI18100
aI18150
aI18200
aI18250
aI18300
aI18350
aI18400
aI18450
aI18500
aI18550
aI18600
aI18650
aI18700
aI18750
aI18800
aI18850
aI18900
aI18950
aI19000
aI19050
aI19100
aI19150
aI19200
aI19250
aI19300
aI19350
aI19400
aI19450
aI19500
aI19550
aI19600
aI19650
aI19700
aI19750
aI19800
aI19850
aI19900
aI19950
aI20000
aI20050
aI20100
aI20150
aI20200
aI20250
aI20300
aI20350
aI20400
aI20450
aI20500
aI20550
aI20600
aI20650
aI20700
aI20750
aI20800
aI20850
aI20900
aI20950
aI21000
aI21050
aI21100
aI21150
aI21200
aI21250
aI21300
aI21350
aI21400
aI21450
aI21500
aI21550
aI21600
aI21650
aI21700
aI21750
aI21800
aI21850
aI21900
aI21950
aI22000
aI22050
aI22100
aI22150
aI22200
aI22250
aI22300
aI22350
aI22400
aI22450
aI22500
aI22550
aI22600
aI22650
aI22700
aI22750
aI22800
aI22850
aI22900
aI22950
aI23000
aI23050
aI23100
aI23150
aI23200
aI23250
aI23300
aI23350
aI23400
aI23450
aI23500
aI23550
aI23600
aI23650
aI23700
aI23750
aI23800
aI23850
aI23900
aI23950
aI24000
aI24050
aI24100
aI24150
aI24200
aI24250
aI24300
aI24350
aI24400
aI24450
aI24500
aI24550
aI24600
aI24650
aI24700
aI24750
aI24800
aI24850
aI24900
aI24950
aI25000
asS'best_f'
p3
(lp4
cnumpy.core.multiarray
scalar
p5
(cnumpy
dtype
p6
(S'f8'
p7
I0
I1
tp8
Rp9
(I3
S'<'
p10
NNNI-1
I-1
I0
tp11
bS'\xef\x8b\x08\x94&\xf7\xf0?'
p12
tp13
Rp14
ag5
(g9
S'Ls\xa0F5\x04\xed?'
p15
tp16
Rp17
ag5
(g9
S'+\x00k\xce!\xf1\xdf?'
p18
tp19
Rp20
ag20
ag20
ag20
ag20
ag5
(g9
S'\x86\xc9\x00~z\x97\xdf?'
p21
tp22
Rp23
ag23
ag23
ag23
ag23
ag5
(g9
S'\xe0\xadwi\x91\x87\xde?'
p24
tp25
Rp26
ag5
(g9
S'\xb1\xd7g\xde"1\xda?'
p27
tp28
Rp29
ag29
ag5
(g9
S'5\xba\xdb\x1do\x11\xd9?'
p30
tp31
Rp32
ag32
ag32
ag32
ag5
(g9
S'd\xb4\xd8\xf8"\xa9\xd5?'
p33
tp34
Rp35
ag5
(g9
S'\x8e\x15-\xaf\x9a\x19\xd5?'
p36
tp37
Rp38
ag5
(g9
S'\xd9\x18\x0c_\xae\xc7\xd4?'
p39
tp40
Rp41
ag41
ag41
ag41
ag41
ag41
ag41
ag5
(g9
S'I\xf7\xa7\xac\xf0\x9e\xd4?'
p42
tp43
Rp44
ag44
ag44
ag44
ag44
ag44
ag5
(g9
S'I\x8d\xa9=\xf8"\xd2?'
p45
tp46
Rp47
ag47
ag47
ag5
(g9
S'e\x19\x94\xbe\xc6\xda\xd1?'
p48
tp49
Rp50
ag5
(g9
S'\xc8\x9e\xe8\x80 \xeb\xd0?'
p51
tp52
Rp53
ag53
ag5
(g9
S'\xb1|\xfd\xf6q\xa3\xd0?'
p54
tp55
Rp56
ag56
ag56
ag56
ag56
ag56
ag56
ag56
ag56
ag56
ag56
ag56
ag56
ag56
ag56
ag56
ag56
ag56
ag56
ag56
ag5
(g9
S'\xf6\xc6\xab\x8c\x9c\x98\xd0?'
p57
tp58
Rp59
ag59
ag59
ag59
ag59
ag59
ag59
ag59
ag59
ag59
ag59
ag59
ag59
ag59
ag59
ag59
ag59
ag59
ag59
ag59
ag59
ag5
(g9
S'\xd2Kq9\xc7@\xd0?'
p60
tp61
Rp62
ag62
ag62
ag62
ag62
ag62
ag62
ag62
ag62
ag62
ag62
ag62
ag62
ag62
ag62
ag62
ag62
ag62
ag62
ag62
ag62
ag62
ag62
ag62
ag62
ag62
ag62
ag62
ag5
(g9
S'\x02\x1av\x87\x91"\xcf?'
p63
tp64
Rp65
ag65
ag65
ag65
ag65
ag65
ag65
ag65
ag65
ag65
ag65
ag65
ag65
ag65
ag65
ag65
ag65
ag65
ag65
ag65
ag65
ag65
ag65
ag65
ag65
ag65
ag65
ag65
ag65
ag65
ag65
ag65
ag65
ag65
ag65
ag65
ag65
ag65
ag65
ag65
ag65
ag65
ag65
ag65
ag65
ag65
ag65
ag5
(g9
S'(Qjn\xda\x13\xcf?'
p66
tp67
Rp68
ag68
ag68
ag68
ag68
ag68
ag68
ag68
ag68
ag68
ag68
ag68
ag68
ag68
ag68
ag68
ag68
ag68
ag68
ag68
ag68
ag68
ag68
ag68
ag68
ag68
ag68
ag68
ag68
ag68
ag68
ag68
ag68
ag68
ag68
ag68
ag68
ag68
ag68
ag68
ag68
ag68
ag68
ag68
ag68
ag68
ag68
ag68
ag68
ag68
ag68
ag68
ag68
ag68
ag68
ag68
ag68
ag68
ag68
ag68
ag68
ag68
ag68
ag68
ag68
ag68
ag68
ag68
ag68
ag68
ag68
ag68
ag68
ag68
ag68
ag68
ag68
ag68
ag68
ag68
ag68
ag68
ag68
ag68
ag68
ag68
ag68
ag68
ag68
ag68
ag68
ag68
ag68
ag68
ag68
ag68
ag68
ag68
ag68
ag68
ag68
ag68
ag68
ag68
ag68
ag68
ag68
ag68
ag68
ag68
ag68
ag68
ag68
ag68
ag68
ag68
ag68
ag68
ag68
ag68
ag68
ag68
ag68
ag68
ag68
ag68
ag68
ag68
ag68
ag68
ag68
ag68
ag68
ag68
ag68
ag68
ag68
ag68
ag68
ag68
ag68
ag68
ag68
ag68
ag68
ag68
ag68
ag68
ag68
ag68
ag68
ag68
ag68
ag68
ag68
ag68
ag68
ag68
ag68
ag68
ag68
ag68
ag68
ag68
ag68
ag68
ag68
ag68
ag68
ag68
ag68
ag68
ag68
ag68
ag68
ag68
ag68
ag68
ag68
ag68
ag68
ag68
ag68
ag68
ag68
ag68
ag68
ag68
ag68
ag68
ag68
ag68
ag68
ag68
ag68
ag68
ag68
ag68
ag68
ag68
ag68
ag68
ag68
ag68
ag68
ag68
ag68
ag68
ag68
ag68
ag68
ag68
ag68
ag68
ag68
ag68
ag68
ag68
ag68
ag68
ag68
ag68
ag68
ag68
ag68
ag68
ag68
ag68
ag68
ag68
ag68
ag68
ag68
ag68
ag68
ag68
ag68
ag68
ag68
ag68
ag68
ag68
ag68
ag68
ag68
ag68
ag68
ag68
ag68
ag68
ag68
ag68
ag68
ag68
ag68
ag68
ag68
ag68
ag68
ag68
ag68
ag68
ag68
ag68
ag68
ag68
ag68
ag68
ag68
ag68
ag68
ag68
ag68
ag68
ag68
ag68
ag68
ag68
ag68
ag68
ag68
ag68
ag68
ag68
ag68
ag68
ag68
ag68
ag68
ag68
ag68
ag68
ag68
ag68
ag68
ag68
ag68
ag68
ag68
ag68
ag68
ag68
ag68
ag68
ag68
ag68
ag68
ag68
ag68
ag68
ag68
ag68
ag68
ag68
ag68
ag68
ag68
ag68
ag68
ag68
ag68
ag68
ag68
ag68
ag68
ag68
ag68
ag68
ag68
ag68
ag68
ag68
ag68
ag68
ag68
ag68
ag68
ag68
ag68
ag68
ag68
ag68
ag68
ag68
asS'best_P'
p69
(lp70
(itree
PTree
p71
(dp72
S'root'
p73
ccopy_reg
_reconstructor
p74
(ctree
Feature
p75
c__builtin__
object
p76
Ntp77
Rp78
(dp79
S'index'
p80
I0
sS'name'
p81
S'Storage'
p82
sS'l'
p83
g74
(ctree
Action
p84
g76
Ntp85
Rp86
(dp87
S'r'
p88
NsS'is_feature'
p89
I00
sS'value'
p90
S'Release_Demand'
p91
sg83
Nsbsg88
g74
(g75
g76
Ntp92
Rp93
(dp94
g80
I1
sg81
S'Day'
p95
sg83
g74
(g84
g76
Ntp96
Rp97
(dp98
g88
Nsg89
I00
sg90
S'Flood_Control'
p99
sg83
Nsbsg88
g74
(g84
g76
Ntp100
Rp101
(dp102
g88
Nsg89
I00
sg90
S'Hedge_80'
p103
sg83
NsbsS'threshold'
p104
F186.52699740738362
sg89
I01
sbsg104
F77.54595757104266
sg89
I01
sbsS'L'
p105
(lp106
g78
ag86
ag93
ag97
ag101
asS'N'
p107
I5
sba(itree
PTree
p108
(dp109
g73
g74
(g75
g76
Ntp110
Rp111
(dp112
g80
I0
sg88
g74
(g75
g76
Ntp113
Rp114
(dp115
g80
I1
sg88
g74
(g84
g76
Ntp116
Rp117
(dp118
g88
Nsg89
I00
sg90
g103
sg83
Nsbsg81
g95
sg104
F167.92725233169705
sg83
g74
(g84
g76
Ntp119
Rp120
(dp121
g88
Nsg89
I00
sg90
g99
sg83
Nsbsg89
I01
sbsg81
g82
sg104
F138.45611810777615
sg83
g74
(g84
g76
Ntp122
Rp123
(dp124
g88
Nsg89
I00
sg90
g91
sg83
Nsbsg89
I01
sbsg105
(lp125
g111
ag123
ag114
ag120
ag117
asg107
I5
sba(itree
PTree
p126
(dp127
g73
g74
(g75
g76
Ntp128
Rp129
(dp130
g80
I1
sg88
g74
(g84
g76
Ntp131
Rp132
(dp133
g88
Nsg89
I00
sg90
S'Hedge_90'
p134
sg83
Nsbsg81
g95
sg104
F98.74593310007714
sg83
g74
(g84
g76
Ntp135
Rp136
(dp137
g88
Nsg89
I00
sg90
S'Flood_Control'
p138
sg83
Nsbsg89
I01
sbsg105
(lp139
g129
ag136
ag132
asg107
I3
sbag126
ag126
ag126
ag126
a(itree
PTree
p140
(dp141
g73
g74
(g75
g76
Ntp142
Rp143
(dp144
g80
I1
sg88
g74
(g84
g76
Ntp145
Rp146
(dp147
g88
Nsg89
I00
sg90
S'Hedge_90'
p148
sg83
Nsbsg81
g95
sg104
F113.93280801138229
sg83
g74
(g84
g76
Ntp149
Rp150
(dp151
g88
Nsg89
I00
sg90
S'Flood_Control'
p152
sg83
Nsbsg89
I01
sbsg105
(lp153
g143
ag150
ag146
asg107
I3
sbag140
ag140
ag140
ag140
a(itree
PTree
p154
(dp155
g73
g74
(g75
g76
Ntp156
Rp157
(dp158
g80
I0
sg88
g74
(g75
g76
Ntp159
Rp160
(dp161
g80
I1
sg88
g74
(g84
g76
Ntp162
Rp163
(dp164
g88
Nsg89
I00
sg90
S'Hedge_90'
p165
sg83
Nsbsg81
g95
sg104
F108.79713060928789
sg83
g74
(g84
g76
Ntp166
Rp167
(dp168
g88
Nsg89
I00
sg90
g138
sg83
Nsbsg89
I01
sbsg81
g82
sg104
F258.21344197483006
sg83
g74
(g84
g76
Ntp169
Rp170
(dp171
g88
Nsg89
I00
sg90
S'Hedge_90'
p172
sg83
Nsbsg89
I01
sbsg105
(lp173
g157
ag170
ag160
ag167
ag163
asg107
I5
sba(itree
PTree
p174
(dp175
g73
g74
(g75
g76
Ntp176
Rp177
(dp178
g80
I0
sg88
g74
(g75
g76
Ntp179
Rp180
(dp181
g80
I1
sg88
g74
(g84
g76
Ntp182
Rp183
(dp184
g88
Nsg89
I00
sg90
S'Release_Demand'
p185
sg83
Nsbsg81
g95
sg104
F157.36974032704563
sg83
g74
(g84
g76
Ntp186
Rp187
(dp188
g88
Nsg89
I00
sg90
S'Flood_Control'
p189
sg83
Nsbsg89
I01
sbsg81
g82
sg104
F236.8232399768596
sg83
g74
(g84
g76
Ntp190
Rp191
(dp192
g88
Nsg89
I00
sg90
S'Hedge_90'
p193
sg83
Nsbsg89
I01
sbsg105
(lp194
g177
ag191
ag180
ag187
ag183
asg107
I5
sbag174
a(itree
PTree
p195
(dp196
g73
g74
(g75
g76
Ntp197
Rp198
(dp199
g80
I0
sg88
g74
(g75
g76
Ntp200
Rp201
(dp202
g80
I1
sg88
g74
(g84
g76
Ntp203
Rp204
(dp205
g88
Nsg89
I00
sg90
g165
sg83
Nsbsg81
g95
sg104
F121.76486041135354
sg83
g74
(g84
g76
Ntp206
Rp207
(dp208
g88
Nsg89
I00
sg90
S'Flood_Control'
p209
sg83
Nsbsg89
I01
sbsg81
g82
sg104
F391.8796922729918
sg83
g74
(g84
g76
Ntp210
Rp211
(dp212
g88
Nsg89
I00
sg90
S'Release_Demand'
p213
sg83
Nsbsg89
I01
sbsg105
(lp214
g198
ag211
ag201
ag207
ag204
asg107
I5
sbag195
ag195
ag195
a(itree
PTree
p215
(dp216
g73
g74
(g75
g76
Ntp217
Rp218
(dp219
g80
I0
sg88
g74
(g75
g76
Ntp220
Rp221
(dp222
g80
I1
sg88
g74
(g84
g76
Ntp223
Rp224
(dp225
g88
Nsg89
I00
sg90
S'Release_Demand'
p226
sg83
Nsbsg81
g95
sg104
F119.87929800623625
sg83
g74
(g84
g76
Ntp227
Rp228
(dp229
g88
Nsg89
I00
sg90
S'Flood_Control'
p230
sg83
Nsbsg89
I01
sbsg81
g82
sg104
F406.4263778436887
sg83
g74
(g84
g76
Ntp231
Rp232
(dp233
g88
Nsg89
I00
sg90
S'Hedge_70'
p234
sg83
Nsbsg89
I01
sbsg105
(lp235
g218
ag232
ag221
ag228
ag224
asg107
I5
sba(itree
PTree
p236
(dp237
g73
g74
(g75
g76
Ntp238
Rp239
(dp240
g80
I0
sg88
g74
(g75
g76
Ntp241
Rp242
(dp243
g80
I1
sg88
g74
(g84
g76
Ntp244
Rp245
(dp246
g88
Nsg89
I00
sg90
g226
sg83
Nsbsg81
g95
sg104
F140.04631267729863
sg83
g74
(g84
g76
Ntp247
Rp248
(dp249
g88
Nsg89
I00
sg90
g230
sg83
Nsbsg89
I01
sbsg81
g82
sg104
F321.1362162937237
sg83
g74
(g84
g76
Ntp250
Rp251
(dp252
g88
Nsg89
I00
sg90
g234
sg83
Nsbsg89
I01
sbsg105
(lp253
g239
ag251
ag242
ag248
ag245
asg107
I5
sba(itree
PTree
p254
(dp255
g73
g74
(g75
g76
Ntp256
Rp257
(dp258
g80
I0
sg88
g74
(g75
g76
Ntp259
Rp260
(dp261
g80
I1
sg88
g74
(g84
g76
Ntp262
Rp263
(dp264
g88
Nsg89
I00
sg90
g226
sg83
Nsbsg81
g95
sg104
F137.28936819841132
sg83
g74
(g84
g76
Ntp265
Rp266
(dp267
g88
Nsg89
I00
sg90
S'Flood_Control'
p268
sg83
Nsbsg89
I01
sbsg81
g82
sg104
F288.8345943315527
sg83
g74
(g84
g76
Ntp269
Rp270
(dp271
g88
Nsg89
I00
sg90
g234
sg83
Nsbsg89
I01
sbsg105
(lp272
g257
ag270
ag260
ag266
ag263
asg107
I5
sbag254
ag254
ag254
ag254
ag254
ag254
a(itree
PTree
p273
(dp274
g73
g74
(g75
g76
Ntp275
Rp276
(dp277
g80
I0
sg88
g74
(g75
g76
Ntp278
Rp279
(dp280
g80
I1
sg88
g74
(g84
g76
Ntp281
Rp282
(dp283
g88
Nsg89
I00
sg90
g148
sg83
Nsbsg81
g95
sg104
F126.20989934575502
sg83
g74
(g84
g76
Ntp284
Rp285
(dp286
g88
Nsg89
I00
sg90
S'Flood_Control'
p287
sg83
Nsbsg89
I01
sbsg81
g82
sg104
F400.86434744349134
sg83
g74
(g84
g76
Ntp288
Rp289
(dp290
g88
Nsg89
I00
sg90
S'Hedge_80'
p291
sg83
Nsbsg89
I01
sbsg105
(lp292
g276
ag289
ag279
ag285
ag282
asg107
I5
sbag273
ag273
ag273
ag273
ag273
a(itree
PTree
p293
(dp294
g73
g74
(g75
g76
Ntp295
Rp296
(dp297
g80
I0
sg88
g74
(g75
g76
Ntp298
Rp299
(dp300
g80
I1
sg88
g74
(g84
g76
Ntp301
Rp302
(dp303
g88
Nsg89
I00
sg90
S'Release_Demand'
p304
sg83
Nsbsg81
g95
sg104
F162.67997912990484
sg83
g74
(g84
g76
Ntp305
Rp306
(dp307
g88
Nsg89
I00
sg90
S'Flood_Control'
p308
sg83
Nsbsg89
I01
sbsg81
g82
sg104
F368.04943990811336
sg83
g74
(g84
g76
Ntp309
Rp310
(dp311
g88
Nsg89
I00
sg90
S'Hedge_80'
p312
sg83
Nsbsg89
I01
sbsg105
(lp313
g296
ag310
ag299
ag306
ag302
asg107
I5
sbag293
ag293
a(itree
PTree
p314
(dp315
g73
g74
(g75
g76
Ntp316
Rp317
(dp318
g80
I0
sg88
g74
(g75
g76
Ntp319
Rp320
(dp321
g80
I1
sg88
g74
(g84
g76
Ntp322
Rp323
(dp324
g88
Nsg89
I00
sg90
g304
sg83
Nsbsg81
g95
sg104
F143.42716676556114
sg83
g74
(g84
g76
Ntp325
Rp326
(dp327
g88
Nsg89
I00
sg90
S'Flood_Control'
p328
sg83
Nsbsg89
I01
sbsg81
g82
sg104
F395.07417359423715
sg83
g74
(g84
g76
Ntp329
Rp330
(dp331
g88
Nsg89
I00
sg90
S'Hedge_80'
p332
sg83
Nsbsg89
I01
sbsg105
(lp333
g317
ag330
ag320
ag326
ag323
asg107
I5
sba(itree
PTree
p334
(dp335
g73
g74
(g75
g76
Ntp336
Rp337
(dp338
g80
I0
sg88
g74
(g75
g76
Ntp339
Rp340
(dp341
g80
I1
sg88
g74
(g84
g76
Ntp342
Rp343
(dp344
g88
Nsg89
I00
sg90
g304
sg83
Nsbsg81
g95
sg104
F134.4017704174716
sg83
g74
(g84
g76
Ntp345
Rp346
(dp347
g88
Nsg89
I00
sg90
S'Flood_Control'
p348
sg83
Nsbsg89
I01
sbsg81
g82
sg104
F412.0014696995747
sg83
g74
(g84
g76
Ntp349
Rp350
(dp351
g88
Nsg89
I00
sg90
S'Hedge_80'
p352
sg83
Nsbsg89
I01
sbsg105
(lp353
g337
ag350
ag340
ag346
ag343
asg107
I5
sbag334
a(itree
PTree
p354
(dp355
g73
g74
(g75
g76
Ntp356
Rp357
(dp358
g80
I0
sg88
g74
(g75
g76
Ntp359
Rp360
(dp361
g80
I1
sg88
g74
(g84
g76
Ntp362
Rp363
(dp364
g88
Nsg89
I00
sg90
g304
sg83
Nsbsg81
g95
sg104
F131.6401267713772
sg83
g74
(g84
g76
Ntp365
Rp366
(dp367
g88
Nsg89
I00
sg90
g328
sg83
Nsbsg89
I01
sbsg81
g82
sg104
F416.5992369703637
sg83
g74
(g84
g76
Ntp368
Rp369
(dp370
g88
Nsg89
I00
sg90
g332
sg83
Nsbsg89
I01
sbsg105
(lp371
g357
ag369
ag360
ag366
ag363
asg107
I5
sbag354
ag354
ag354
ag354
ag354
ag354
ag354
ag354
ag354
ag354
ag354
ag354
ag354
ag354
ag354
ag354
ag354
ag354
ag354
a(itree
PTree
p372
(dp373
g73
g74
(g75
g76
Ntp374
Rp375
(dp376
g80
I0
sg88
g74
(g75
g76
Ntp377
Rp378
(dp379
g80
I1
sg88
g74
(g84
g76
Ntp380
Rp381
(dp382
g88
Nsg89
I00
sg90
S'Release_Demand'
p383
sg83
Nsbsg81
g95
sg104
F101.24550116721915
sg83
g74
(g84
g76
Ntp384
Rp385
(dp386
g88
Nsg89
I00
sg90
S'Flood_Control'
p387
sg83
Nsbsg89
I01
sbsg81
g82
sg104
F428.4215195979849
sg83
g74
(g84
g76
Ntp388
Rp389
(dp390
g88
Nsg89
I00
sg90
S'Hedge_80'
p391
sg83
Nsbsg89
I01
sbsg105
(lp392
g375
ag389
ag378
ag385
ag381
asg107
I5
sbag372
ag372
ag372
ag372
ag372
ag372
ag372
ag372
ag372
ag372
ag372
ag372
ag372
ag372
ag372
ag372
ag372
ag372
ag372
ag372
a(itree
PTree
p393
(dp394
g73
g74
(g75
g76
Ntp395
Rp396
(dp397
g80
I0
sg88
g74
(g75
g76
Ntp398
Rp399
(dp400
g80
I1
sg88
g74
(g84
g76
Ntp401
Rp402
(dp403
g88
Nsg89
I00
sg90
g383
sg83
Nsbsg81
g95
sg104
F97.69281206048186
sg83
g74
(g84
g76
Ntp404
Rp405
(dp406
g88
Nsg89
I00
sg90
g387
sg83
Nsbsg89
I01
sbsg81
g82
sg104
F428.4215195979849
sg83
g74
(g84
g76
Ntp407
Rp408
(dp409
g88
Nsg89
I00
sg90
g391
sg83
Nsbsg89
I01
sbsg105
(lp410
g396
ag408
ag399
ag405
ag402
asg107
I5
sbag393
ag393
ag393
ag393
ag393
ag393
ag393
ag393
ag393
ag393
ag393
ag393
ag393
ag393
ag393
ag393
ag393
ag393
ag393
ag393
ag393
ag393
ag393
ag393
ag393
ag393
ag393
a(itree
PTree
p411
(dp412
g73
g74
(g75
g76
Ntp413
Rp414
(dp415
g80
I0
sg88
g74
(g75
g76
Ntp416
Rp417
(dp418
g80
I1
sg88
g74
(g84
g76
Ntp419
Rp420
(dp421
g88
Nsg89
I00
sg90
g304
sg83
Nsbsg81
g95
sg104
F154.22923662309353
sg83
g74
(g84
g76
Ntp422
Rp423
(dp424
g88
Nsg89
I00
sg90
g348
sg83
Nsbsg89
I01
sbsg81
g82
sg104
F433.4394010817126
sg83
g74
(g84
g76
Ntp425
Rp426
(dp427
g88
Nsg89
I00
sg90
g352
sg83
Nsbsg89
I01
sbsg105
(lp428
g414
ag426
ag417
ag423
ag420
asg107
I5
sbag411
ag411
ag411
ag411
ag411
ag411
ag411
ag411
ag411
ag411
ag411
ag411
ag411
ag411
ag411
ag411
ag411
ag411
ag411
ag411
ag411
ag411
ag411
ag411
ag411
ag411
ag411
ag411
ag411
ag411
ag411
ag411
ag411
ag411
ag411
ag411
ag411
ag411
ag411
ag411
ag411
ag411
ag411
ag411
ag411
ag411
a(itree
PTree
p429
(dp430
g73
g74
(g75
g76
Ntp431
Rp432
(dp433
g80
I0
sg88
g74
(g75
g76
Ntp434
Rp435
(dp436
g80
I1
sg88
g74
(g84
g76
Ntp437
Rp438
(dp439
g88
Nsg89
I00
sg90
g304
sg83
Nsbsg81
g95
sg104
F154.39009891659643
sg83
g74
(g84
g76
Ntp440
Rp441
(dp442
g88
Nsg89
I00
sg90
g308
sg83
Nsbsg89
I01
sbsg81
g82
sg104
F434.97253122070424
sg83
g74
(g84
g76
Ntp443
Rp444
(dp445
g88
Nsg89
I00
sg90
g312
sg83
Nsbsg89
I01
sbsg105
(lp446
g432
ag444
ag435
ag441
ag438
asg107
I5
sbag429
ag429
ag429
ag429
ag429
ag429
ag429
ag429
ag429
ag429
ag429
ag429
ag429
ag429
ag429
ag429
ag429
ag429
ag429
ag429
ag429
ag429
ag429
ag429
ag429
ag429
ag429
ag429
ag429
ag429
ag429
ag429
ag429
ag429
ag429
ag429
ag429
ag429
ag429
ag429
ag429
ag429
ag429
ag429
ag429
ag429
ag429
ag429
ag429
ag429
ag429
ag429
ag429
ag429
ag429
ag429
ag429
ag429
ag429
ag429
ag429
ag429
ag429
ag429
ag429
ag429
ag429
ag429
ag429
ag429
ag429
ag429
ag429
ag429
ag429
ag429
ag429
ag429
ag429
ag429
ag429
ag429
ag429
ag429
ag429
ag429
ag429
ag429
ag429
ag429
ag429
ag429
ag429
ag429
ag429
ag429
ag429
ag429
ag429
ag429
ag429
ag429
ag429
ag429
ag429
ag429
ag429
ag429
ag429
ag429
ag429
ag429
ag429
ag429
ag429
ag429
ag429
ag429
ag429
ag429
ag429
ag429
ag429
ag429
ag429
ag429
ag429
ag429
ag429
ag429
ag429
ag429
ag429
ag429
ag429
ag429
ag429
ag429
ag429
ag429
ag429
ag429
ag429
ag429
ag429
ag429
ag429
ag429
ag429
ag429
ag429
ag429
ag429
ag429
ag429
ag429
ag429
ag429
ag429
ag429
ag429
ag429
ag429
ag429
ag429
ag429
ag429
ag429
ag429
ag429
ag429
ag429
ag429
ag429
ag429
ag429
ag429
ag429
ag429
ag429
ag429
ag429
ag429
ag429
ag429
ag429
ag429
ag429
ag429
ag429
ag429
ag429
ag429
ag429
ag429
ag429
ag429
ag429
ag429
ag429
ag429
ag429
ag429
ag429
ag429
ag429
ag429
ag429
ag429
ag429
ag429
ag429
ag429
ag429
ag429
ag429
ag429
ag429
ag429
ag429
ag429
ag429
ag429
ag429
ag429
ag429
ag429
ag429
ag429
ag429
ag429
ag429
ag429
ag429
ag429
ag429
ag429
ag429
ag429
ag429
ag429
ag429
ag429
ag429
ag429
ag429
ag429
ag429
ag429
ag429
ag429
ag429
ag429
ag429
ag429
ag429
ag429
ag429
ag429
ag429
ag429
ag429
ag429
ag429
ag429
ag429
ag429
ag429
ag429
ag429
ag429
ag429
ag429
ag429
ag429
ag429
ag429
ag429
ag429
ag429
ag429
ag429
ag429
ag429
ag429
ag429
ag429
ag429
ag429
ag429
ag429
ag429
ag429
ag429
ag429
ag429
ag429
ag429
ag429
ag429
ag429
ag429
ag429
ag429
ag429
ag429
ag429
ag429
ag429
ag429
ag429
ag429
ag429
ag429
ag429
ag429
ag429
ag429
ag429
ag429
ag429
ag429
ag429
ag429
ag429
ag429
ag429
ag429
ag429
ag429
ag429
ag429
ag429
ag429
ag429
ag429
ag429
ag429
ag429
ag429
ag429
ag429
ag429
asS'time'
p447
(lp448
I53
aI80
aI107
aI134
aI160
aI187
aI214
aI241
aI268
aI294
aI321
aI348
aI375
aI401
aI428
aI455
aI482
aI508
aI535
aI562
aI589
aI616
aI643
aI670
aI697
aI724
aI751
aI779
aI806
aI833
aI860
aI886
aI913
aI940
aI968
aI995
aI1022
aI1050
aI1077
aI1104
aI1131
aI1158
aI1184
aI1212
aI1239
aI1266
aI1293
aI1320
aI1347
aI1374
aI1401
aI1428
aI1455
aI1482
aI1509
aI1536
aI1563
aI1590
aI1617
aI1644
aI1671
aI1698
aI1726
aI1753
aI1780
aI1807
aI1834
aI1861
aI1889
aI1915
aI1943
aI1970
aI1997
aI2024
aI2051
aI2079
aI2106
aI2133
aI2160
aI2187
aI2214
aI2241
aI2268
aI2296
aI2323
aI2350
aI2376
aI2402
aI2428
aI2455
aI2482
aI2509
aI2536
aI2563
aI2590
aI2617
aI2645
aI2672
aI2699
aI2726
aI2755
aI2782
aI2809
aI2836
aI2863
aI2890
aI2917
aI2945
aI2972
aI3000
aI3027
aI3054
aI3081
aI3108
aI3135
aI3162
aI3189
aI3216
aI3243
aI3270
aI3297
aI3324
aI3351
aI3378
aI3405
aI3433
aI3460
aI3487
aI3514
aI3540
aI3567
aI3594
aI3622
aI3648
aI3675
aI3701
aI3728
aI3755
aI3782
aI3809
aI3837
aI3864
aI3891
aI3917
aI3944
aI3970
aI3997
aI4024
aI4051
aI4078
aI4104
aI4132
aI4159
aI4186
aI4213
aI4240
aI4267
aI4294
aI4321
aI4348
aI4376
aI4403
aI4430
aI4457
aI4484
aI4511
aI4538
aI4565
aI4592
aI4619
aI4646
aI4673
aI4700
aI4727
aI4754
aI4782
aI4809
aI4836
aI4863
aI4890
aI4917
aI4945
aI4971
aI4998
aI5025
aI5052
aI5079
aI5105
aI5132
aI5159
aI5186
aI5213
aI5241
aI5268
aI5295
aI5322
aI5349
aI5376
aI5404
aI5431
aI5458
aI5485
aI5512
aI5539
aI5566
aI5594
aI5620
aI5648
aI5675
aI5701
aI5728
aI5754
aI5781
aI5807
aI5835
aI5861
aI5889
aI5916
aI5943
aI5971
aI5999
aI6026
aI6054
aI6081
aI6108
aI6135
aI6162
aI6190
aI6217
aI6243
aI6270
aI6298
aI6324
aI6351
aI6378
aI6405
aI6432
aI6460
aI6486
aI6514
aI6541
aI6568
aI6595
aI6622
aI6649
aI6676
aI6703
aI6730
aI6757
aI6784
aI6811
aI6838
aI6866
aI6893
aI6920
aI6947
aI6974
aI7001
aI7028
aI7056
aI7083
aI7110
aI7137
aI7164
aI7191
aI7218
aI7245
aI7272
aI7299
aI7326
aI7353
aI7380
aI7409
aI7436
aI7463
aI7490
aI7517
aI7544
aI7571
aI7598
aI7625
aI7652
aI7679
aI7706
aI7733
aI7760
aI7787
aI7814
aI7841
aI7868
aI7895
aI7922
aI7949
aI7976
aI8003
aI8030
aI8057
aI8084
aI8111
aI8138
aI8165
aI8192
aI8219
aI8246
aI8273
aI8301
aI8328
aI8355
aI8382
aI8409
aI8436
aI8463
aI8490
aI8517
aI8544
aI8571
aI8598
aI8625
aI8652
aI8680
aI8707
aI8734
aI8761
aI8788
aI8815
aI8842
aI8869
aI8896
aI8923
aI8950
aI8977
aI9004
aI9031
aI9058
aI9085
aI9113
aI9140
aI9167
aI9194
aI9221
aI9248
aI9275
aI9302
aI9329
aI9356
aI9383
aI9410
aI9437
aI9465
aI9492
aI9519
aI9546
aI9573
aI9600
aI9627
aI9654
aI9682
aI9709
aI9737
aI9763
aI9790
aI9817
aI9844
aI9871
aI9898
aI9925
aI9951
aI9978
aI10005
aI10032
aI10059
aI10086
aI10115
aI10142
aI10169
aI10197
aI10225
aI10252
aI10279
aI10306
aI10333
aI10361
aI10388
aI10415
aI10442
aI10469
aI10496
aI10524
aI10551
aI10578
aI10606
aI10634
aI10661
aI10688
aI10716
aI10743
aI10770
aI10797
aI10824
aI10851
aI10878
aI10905
aI10932
aI10959
aI10986
aI11013
aI11041
aI11068
aI11095
aI11122
aI11149
aI11176
aI11203
aI11231
aI11258
aI11285
aI11312
aI11339
aI11366
aI11394
aI11421
aI11448
aI11475
aI11502
aI11529
aI11556
aI11583
aI11611
aI11639
aI11667
aI11694
aI11720
aI11748
aI11775
aI11802
aI11830
aI11856
aI11883
aI11910
aI11937
aI11964
aI11991
aI12018
aI12045
aI12072
aI12099
aI12126
aI12153
aI12180
aI12207
aI12234
aI12261
aI12289
aI12315
aI12343
aI12370
aI12397
aI12424
aI12451
aI12478
aI12505
aI12532
aI12559
aI12587
aI12614
aI12641
aI12668
aI12695
aI12722
aI12749
aI12777
aI12804
aI12831
aI12858
aI12885
aI12912
aI12939
aI12966
aI12993
aI13020
aI13047
aI13074
aI13101
aI13129
aI13156
aI13183
aI13210
aI13237
aI13264
aI13291
aI13318
aI13345
aI13372
aI13399
aI13426
aI13452
aI13477
aI13504
aI13530
aI13558
as.