(dp0
S'nfe'
p1
(lp2
I50
aI100
aI150
aI200
aI250
aI300
aI350
aI400
aI450
aI500
aI550
aI600
aI650
aI700
aI750
aI800
aI850
aI900
aI950
aI1000
aI1050
aI1100
aI1150
aI1200
aI1250
aI1300
aI1350
aI1400
aI1450
aI1500
aI1550
aI1600
aI1650
aI1700
aI1750
aI1800
aI1850
aI1900
aI1950
aI2000
aI2050
aI2100
aI2150
aI2200
aI2250
aI2300
aI2350
aI2400
aI2450
aI2500
aI2550
aI2600
aI2650
aI2700
aI2750
aI2800
aI2850
aI2900
aI2950
aI3000
aI3050
aI3100
aI3150
aI3200
aI3250
aI3300
aI3350
aI3400
aI3450
aI3500
aI3550
aI3600
aI3650
aI3700
aI3750
aI3800
aI3850
aI3900
aI3950
aI4000
aI4050
aI4100
aI4150
aI4200
aI4250
aI4300
aI4350
aI4400
aI4450
aI4500
aI4550
aI4600
aI4650
aI4700
aI4750
aI4800
aI4850
aI4900
aI4950
aI5000
aI5050
aI5100
aI5150
aI5200
aI5250
aI5300
aI5350
aI5400
aI5450
aI5500
aI5550
aI5600
aI5650
aI5700
aI5750
aI5800
aI5850
aI5900
aI5950
aI6000
aI6050
aI6100
aI6150
aI6200
aI6250
aI6300
aI6350
aI6400
aI6450
aI6500
aI6550
aI6600
aI6650
aI6700
aI6750
aI6800
aI6850
aI6900
aI6950
aI7000
aI7050
aI7100
aI7150
aI7200
aI7250
aI7300
aI7350
aI7400
aI7450
aI7500
aI7550
aI7600
aI7650
aI7700
aI7750
aI7800
aI7850
aI7900
aI7950
aI8000
aI8050
aI8100
aI8150
aI8200
aI8250
aI8300
aI8350
aI8400
aI8450
aI8500
aI8550
aI8600
aI8650
aI8700
aI8750
aI8800
aI8850
aI8900
aI8950
aI9000
aI9050
aI9100
aI9150
aI9200
aI9250
aI9300
aI9350
aI9400
aI9450
aI9500
aI9550
aI9600
aI9650
aI9700
aI9750
aI9800
aI9850
aI9900
aI9950
aI10000
aI10050
aI10100
aI10150
aI10200
aI10250
aI10300
aI10350
aI10400
aI10450
aI10500
aI10550
aI10600
aI10650
aI10700
aI10750
aI10800
aI10850
aI10900
aI10950
aI11000
aI11050
aI11100
aI11150
aI11200
aI11250
aI11300
aI11350
aI11400
aI11450
aI11500
aI11550
aI11600
aI11650
aI11700
aI11750
aI11800
aI11850
aI11900
aI11950
aI12000
aI12050
aI12100
aI12150
aI12200
aI12250
aI12300
aI12350
aI12400
aI12450
aI12500
aI12550
aI12600
aI12650
aI12700
aI12750
aI12800
aI12850
aI12900
aI12950
aI13000
aI13050
aI13100
aI13150
aI13200
aI13250
aI13300
aI13350
aI13400
aI13450
aI13500
aI13550
aI13600
aI13650
aI13700
aI13750
aI13800
aI13850
aI13900
aI13950
aI14000
aI14050
aI14100
aI14150
aI14200
aI14250
aI14300
aI14350
aI14400
aI14450
aI14500
aI14550
aI14600
aI14650
aI14700
aI14750
aI14800
aI14850
aI14900
aI14950
aI15000
aI15050
aI15100
aI15150
aI15200
aI15250
aI15300
aI15350
aI15400
aI15450
aI15500
aI15550
aI15600
aI15650
aI15700
aI15750
aI15800
aI15850
aI15900
aI15950
aI16000
aI16050
aI16100
aI16150
aI16200
aI16250
aI16300
aI16350
aI16400
aI16450
aI16500
aI16550
aI16600
aI16650
aI16700
aI16750
aI16800
aI16850
aI16900
aI16950
aI17000
aI17050
aI17100
aI17150
aI17200
aI17250
aI17300
aI17350
aI17400
aI17450
aI17500
aI17550
aI17600
aI17650
aI17700
aI17750
aI17800
aI17850
aI17900
aI17950
aI18000
aI18050
aI18100
aI18150
aI18200
aI18250
aI18300
aI18350
aI18400
aI18450
aI18500
aI18550
aI18600
aI18650
aI18700
aI18750
aI18800
aI18850
aI18900
aI18950
aI19000
aI19050
aI19100
aI19150
aI19200
aI19250
aI19300
aI19350
aI19400
aI19450
aI19500
aI19550
aI19600
aI19650
aI19700
aI19750
aI19800
aI19850
aI19900
aI19950
aI20000
aI20050
aI20100
aI20150
aI20200
aI20250
aI20300
aI20350
aI20400
aI20450
aI20500
aI20550
aI20600
aI20650
aI20700
aI20750
aI20800
aI20850
aI20900
aI20950
aI21000
aI21050
aI21100
aI21150
aI21200
aI21250
aI21300
aI21350
aI21400
aI21450
aI21500
aI21550
aI21600
aI21650
aI21700
aI21750
aI21800
aI21850
aI21900
aI21950
aI22000
aI22050
aI22100
aI22150
aI22200
aI22250
aI22300
aI22350
aI22400
aI22450
aI22500
aI22550
aI22600
aI22650
aI22700
aI22750
aI22800
aI22850
aI22900
aI22950
aI23000
aI23050
aI23100
aI23150
aI23200
aI23250
aI23300
aI23350
aI23400
aI23450
aI23500
aI23550
aI23600
aI23650
aI23700
aI23750
aI23800
aI23850
aI23900
aI23950
aI24000
aI24050
aI24100
aI24150
aI24200
aI24250
aI24300
aI24350
aI24400
aI24450
aI24500
aI24550
aI24600
aI24650
aI24700
aI24750
aI24800
aI24850
aI24900
aI24950
aI25000
asS'best_f'
p3
(lp4
cnumpy.core.multiarray
scalar
p5
(cnumpy
dtype
p6
(S'f8'
p7
I0
I1
tp8
Rp9
(I3
S'<'
p10
NNNI-1
I-1
I0
tp11
bS'\xe75TYF\x08\xfb?'
p12
tp13
Rp14
ag14
ag5
(g9
S'<\x9bV\xf5\xda\x18\xe4?'
p15
tp16
Rp17
ag17
ag5
(g9
S'E\xc27\x13^\x16\xe4?'
p18
tp19
Rp20
ag20
ag20
ag20
ag20
ag5
(g9
S'zo\xf5Uq\xc2\xe0?'
p21
tp22
Rp23
ag5
(g9
S'Z_\x13\x0cEe\xdf?'
p24
tp25
Rp26
ag26
ag5
(g9
S'\xd9{\xa0\x80b]\xdf?'
p27
tp28
Rp29
ag29
ag29
ag29
ag5
(g9
S'X\xef\xb9\xe5\x99#\xdf?'
p30
tp31
Rp32
ag5
(g9
S'oh5\xbe\xc1m\xde?'
p33
tp34
Rp35
ag5
(g9
S'\xfc\x89\x19\xec\xb4\x87\xdb?'
p36
tp37
Rp38
ag38
ag38
ag5
(g9
S'\xb2\x02\xc3\xb9\xca\xd0\xd5?'
p39
tp40
Rp41
ag41
ag41
ag5
(g9
S'\x91\xbe\xae\xa8\xb2u\xd5?'
p42
tp43
Rp44
ag44
ag5
(g9
S'\xa1\xb7~%\xff\xf0\xd4?'
p45
tp46
Rp47
ag47
ag47
ag5
(g9
S'\x90\xb0\xff\x07\xba\xbb\xd4?'
p48
tp49
Rp50
ag50
ag50
ag50
ag50
ag5
(g9
S'\x8f\xc7t\x03\x93\x06\xd3?'
p51
tp52
Rp53
ag53
ag53
ag5
(g9
S'y\xb4\xbd\xdf5A\xd2?'
p54
tp55
Rp56
ag56
ag56
ag5
(g9
S'5\xb3|\xf4C9\xcc?'
p57
tp58
Rp59
ag59
ag59
ag59
ag59
ag59
ag59
ag59
ag59
ag59
ag59
ag59
ag59
ag59
ag59
ag59
ag59
ag59
ag59
ag59
ag5
(g9
S'\x0eq^a\xf68\xcc?'
p60
tp61
Rp62
ag62
ag5
(g9
S'\x1a\xab\xd3\xb7/?\xca?'
p63
tp64
Rp65
ag65
ag5
(g9
S'\xfbwI=\x8d\xd8\xc9?'
p66
tp67
Rp68
ag68
ag68
ag68
ag68
ag68
ag68
ag68
ag5
(g9
S'\x0c\x14/^C\xbe\xc8?'
p69
tp70
Rp71
ag71
ag71
ag71
ag5
(g9
S'6f\xcc<\xe4r\xc6?'
p72
tp73
Rp74
ag74
ag74
ag74
ag74
ag74
ag74
ag74
ag74
ag74
ag74
ag74
ag74
ag74
ag74
ag74
ag74
ag74
ag74
ag74
ag74
ag74
ag74
ag74
ag5
(g9
S'\xd2\xf4\r%\x1d\xab\xc2?'
p75
tp76
Rp77
ag77
ag77
ag5
(g9
S'\xb4\xf4s\x9c\xdc\x0e\xc2?'
p78
tp79
Rp80
ag80
ag80
ag80
ag80
ag80
ag80
ag80
ag80
ag80
ag80
ag80
ag80
ag80
ag80
ag80
ag80
ag80
ag80
ag80
ag80
ag80
ag80
ag80
ag80
ag80
ag80
ag80
ag80
ag80
ag80
ag80
ag80
ag80
ag80
ag80
ag80
ag80
ag80
ag80
ag80
ag80
ag80
ag80
ag80
ag80
ag80
ag80
ag80
ag80
ag80
ag80
ag80
ag80
ag80
ag80
ag80
ag80
ag80
ag80
ag80
ag80
ag80
ag80
ag80
ag80
ag80
ag80
ag80
ag80
ag80
ag80
ag80
ag80
ag80
ag80
ag80
ag80
ag80
ag80
ag80
ag80
ag80
ag80
ag80
ag80
ag80
ag80
ag80
ag80
ag80
ag80
ag80
ag80
ag80
ag80
ag80
ag80
ag80
ag80
ag80
ag80
ag80
ag80
ag80
ag80
ag80
ag80
ag80
ag80
ag80
ag80
ag80
ag80
ag80
ag80
ag80
ag80
ag80
ag80
ag80
ag80
ag80
ag80
ag5
(g9
S'\x8e\x81\xce\x1f\xfa\x7f\xc1?'
p81
tp82
Rp83
ag83
ag83
ag83
ag5
(g9
S'\x95T\xcf\xe0\xca\xfd\xbf?'
p84
tp85
Rp86
ag86
ag86
ag86
ag86
ag86
ag5
(g9
S'\xff\xdf\x87V \xec\xbc?'
p87
tp88
Rp89
ag89
ag89
ag89
ag5
(g9
S'\xb41EM\xc9\xac\xba?'
p90
tp91
Rp92
ag5
(g9
S'^"|X\x96!\xb8?'
p93
tp94
Rp95
ag95
ag95
ag95
ag95
ag95
ag95
ag95
ag95
ag95
ag95
ag95
ag95
ag95
ag95
ag95
ag95
ag95
ag5
(g9
S'\xd8\xd1|\xe4\x05X\xb3?'
p96
tp97
Rp98
ag98
ag98
ag98
ag98
ag98
ag98
ag98
ag98
ag98
ag98
ag98
ag98
ag98
ag98
ag98
ag98
ag98
ag98
ag98
ag98
ag98
ag98
ag98
ag98
ag98
ag98
ag98
ag98
ag98
ag98
ag98
ag98
ag98
ag98
ag98
ag98
ag98
ag98
ag98
ag98
ag98
ag98
ag98
ag98
ag98
ag98
ag98
ag98
ag98
ag98
ag98
ag98
ag98
ag98
ag98
ag98
ag98
ag98
ag98
ag98
ag98
ag98
ag98
ag98
ag98
ag98
ag98
ag98
ag98
ag98
ag98
ag98
ag98
ag98
ag98
ag98
ag98
ag98
ag98
ag98
ag98
ag98
ag98
ag98
ag98
ag98
ag98
ag98
ag98
ag98
ag98
ag98
ag98
ag98
ag98
ag98
ag98
ag98
ag98
ag98
ag98
ag98
ag98
ag98
ag98
ag98
ag98
ag98
ag98
ag98
ag98
ag98
ag98
ag98
ag98
ag98
ag98
ag98
ag98
ag98
ag98
ag98
ag98
ag98
ag98
ag98
ag98
ag98
ag98
ag98
ag98
ag98
ag98
ag98
ag98
ag98
ag98
ag98
ag98
ag98
ag98
ag98
ag98
ag98
ag98
ag98
ag98
ag98
ag98
ag98
ag98
ag98
ag98
ag98
ag98
ag98
ag98
ag98
ag98
ag98
ag98
ag98
ag98
ag98
ag98
ag98
ag98
ag98
ag98
ag98
ag98
ag98
ag98
ag98
ag98
ag98
ag98
ag98
ag98
ag98
ag98
ag98
ag98
ag98
ag98
ag98
ag98
ag98
ag98
ag98
ag98
ag98
ag98
ag98
ag98
ag98
ag98
ag98
ag98
ag98
ag98
ag98
ag98
ag98
ag98
ag98
ag98
ag98
ag98
ag98
ag98
ag98
ag98
ag98
ag98
ag98
ag98
ag98
ag98
ag98
ag98
ag98
ag98
ag98
ag98
ag98
ag98
ag98
ag98
ag98
ag98
ag98
ag98
ag98
ag5
(g9
S'sEy\x19D\xf7\xb2?'
p99
tp100
Rp101
ag101
ag101
ag101
ag101
asS'best_P'
p102
(lp103
(itree
PTree
p104
(dp105
S'root'
p106
ccopy_reg
_reconstructor
p107
(ctree
Feature
p108
c__builtin__
object
p109
Ntp110
Rp111
(dp112
S'index'
p113
I0
sS'name'
p114
S'Storage'
p115
sS'l'
p116
g107
(g108
g109
Ntp117
Rp118
(dp119
g113
I1
sg114
S'Day'
p120
sg116
g107
(ctree
Action
p121
g109
Ntp122
Rp123
(dp124
S'r'
p125
NsS'is_feature'
p126
I00
sS'value'
p127
S'Hedge_50'
p128
sg116
Nsbsg125
g107
(g121
g109
Ntp129
Rp130
(dp131
g125
Nsg126
I00
sg127
S'Flood_Control'
p132
sg116
NsbsS'threshold'
p133
F171.90760280233263
sg126
I01
sbsg125
g107
(g108
g109
Ntp134
Rp135
(dp136
g113
I0
sg114
g115
sg116
g107
(g121
g109
Ntp137
Rp138
(dp139
g125
Nsg126
I00
sg127
S'Flood_Control'
p140
sg116
Nsbsg125
g107
(g121
g109
Ntp141
Rp142
(dp143
g125
Nsg126
I00
sg127
S'Hedge_90'
p144
sg116
Nsbsg133
F588.4345916924126
sg126
I01
sbsg133
F337.02545180022105
sg126
I01
sbsS'L'
p145
(lp146
g111
ag118
ag123
ag130
ag135
ag138
ag142
asS'N'
p147
I7
sbag104
a(itree
PTree
p148
(dp149
g106
g107
(g108
g109
Ntp150
Rp151
(dp152
g113
I0
sg125
g107
(g108
g109
Ntp153
Rp154
(dp155
g113
I0
sg125
g107
(g121
g109
Ntp156
Rp157
(dp158
g125
Nsg126
I00
sg127
S'Hedge_90'
p159
sg116
Nsbsg114
g115
sg133
F474.806436884274
sg116
g107
(g121
g109
Ntp160
Rp161
(dp162
g125
Nsg126
I00
sg127
S'Flood_Control'
p163
sg116
Nsbsg126
I01
sbsg114
g115
sg133
F172.42738212833095
sg116
g107
(g108
g109
Ntp164
Rp165
(dp166
g113
I1
sg125
g107
(g121
g109
Ntp167
Rp168
(dp169
g125
Nsg126
I00
sg127
S'Hedge_80'
p170
sg116
Nsbsg114
g120
sg133
F203.5117986929812
sg116
g107
(g121
g109
Ntp171
Rp172
(dp173
g125
Nsg126
I00
sg127
S'Hedge_90'
p174
sg116
Nsbsg126
I01
sbsg126
I01
sbsg145
(lp175
g151
ag165
ag172
ag168
ag154
ag161
ag157
asg147
I7
sbag148
a(itree
PTree
p176
(dp177
g106
g107
(g108
g109
Ntp178
Rp179
(dp180
g113
I0
sg125
g107
(g108
g109
Ntp181
Rp182
(dp183
g113
I0
sg125
g107
(g121
g109
Ntp184
Rp185
(dp186
g125
Nsg126
I00
sg127
g144
sg116
Nsbsg114
g115
sg133
F457.1172039748919
sg116
g107
(g121
g109
Ntp187
Rp188
(dp189
g125
Nsg126
I00
sg127
g140
sg116
Nsbsg126
I01
sbsg114
g115
sg133
F251.5903958274896
sg116
g107
(g108
g109
Ntp190
Rp191
(dp192
g113
I1
sg125
g107
(g121
g109
Ntp193
Rp194
(dp195
g125
Nsg126
I00
sg127
g132
sg116
Nsbsg114
g120
sg133
F171.0780439144698
sg116
g107
(g121
g109
Ntp196
Rp197
(dp198
g125
Nsg126
I00
sg127
g128
sg116
Nsbsg126
I01
sbsg126
I01
sbsg145
(lp199
g179
ag191
ag197
ag194
ag182
ag188
ag185
asg147
I7
sbag176
ag176
ag176
ag176
a(itree
PTree
p200
(dp201
g106
g107
(g108
g109
Ntp202
Rp203
(dp204
g113
I1
sg125
g107
(g108
g109
Ntp205
Rp206
(dp207
g113
I1
sg125
g107
(g121
g109
Ntp208
Rp209
(dp210
g125
Nsg126
I00
sg127
S'Hedge_90'
p211
sg116
Nsbsg114
g120
sg133
F178.04881433198773
sg116
g107
(g121
g109
Ntp212
Rp213
(dp214
g125
Nsg126
I00
sg127
S'Release_Demand'
p215
sg116
Nsbsg126
I01
sbsg114
g120
sg133
F105.05819422514901
sg116
g107
(g121
g109
Ntp216
Rp217
(dp218
g125
Nsg126
I00
sg127
S'Flood_Control'
p219
sg116
Nsbsg126
I01
sbsg145
(lp220
g203
ag217
ag206
ag213
ag209
asg147
I5
sba(itree
PTree
p221
(dp222
g106
g107
(g108
g109
Ntp223
Rp224
(dp225
g113
I0
sg125
g107
(g108
g109
Ntp226
Rp227
(dp228
g113
I0
sg125
g107
(g121
g109
Ntp229
Rp230
(dp231
g125
Nsg126
I00
sg127
S'Hedge_80'
p232
sg116
Nsbsg114
g115
sg133
F526.1734506174021
sg116
g107
(g121
g109
Ntp233
Rp234
(dp235
g125
Nsg126
I00
sg127
S'Flood_Control'
p236
sg116
Nsbsg126
I01
sbsg114
g115
sg133
F293.7196441290076
sg116
g107
(g121
g109
Ntp237
Rp238
(dp239
g125
Nsg126
I00
sg127
S'Hedge_60'
p240
sg116
Nsbsg126
I01
sbsg145
(lp241
g224
ag238
ag227
ag234
ag230
asg147
I5
sbag221
a(itree
PTree
p242
(dp243
g106
g107
(g108
g109
Ntp244
Rp245
(dp246
g113
I0
sg125
g107
(g108
g109
Ntp247
Rp248
(dp249
g113
I1
sg125
g107
(g121
g109
Ntp250
Rp251
(dp252
g125
Nsg126
I00
sg127
S'Release_Demand'
p253
sg116
Nsbsg114
g120
sg133
F204.73154280678543
sg116
g107
(g121
g109
Ntp254
Rp255
(dp256
g125
Nsg126
I00
sg127
S'Flood_Control'
p257
sg116
Nsbsg126
I01
sbsg114
g115
sg133
F405.67903818750676
sg116
g107
(g121
g109
Ntp258
Rp259
(dp260
g125
Nsg126
I00
sg127
S'Hedge_70'
p261
sg116
Nsbsg126
I01
sbsg145
(lp262
g245
ag259
ag248
ag255
ag251
asg147
I5
sbag242
ag242
ag242
a(itree
PTree
p263
(dp264
g106
g107
(g108
g109
Ntp265
Rp266
(dp267
g113
I0
sg125
g107
(g108
g109
Ntp268
Rp269
(dp270
g113
I0
sg125
g107
(g121
g109
Ntp271
Rp272
(dp273
g125
Nsg126
I00
sg127
g232
sg116
Nsbsg114
g115
sg133
F522.221321502689
sg116
g107
(g121
g109
Ntp274
Rp275
(dp276
g125
Nsg126
I00
sg127
g236
sg116
Nsbsg126
I01
sbsg114
g115
sg133
F132.1139276035719
sg116
g107
(g121
g109
Ntp277
Rp278
(dp279
g125
Nsg126
I00
sg127
g240
sg116
Nsbsg126
I01
sbsg145
(lp280
g266
ag278
ag269
ag275
ag272
asg147
I5
sba(itree
PTree
p281
(dp282
g106
g107
(g108
g109
Ntp283
Rp284
(dp285
g113
I0
sg125
g107
(g108
g109
Ntp286
Rp287
(dp288
g113
I1
sg125
g107
(g121
g109
Ntp289
Rp290
(dp291
g125
Nsg126
I00
sg127
g253
sg116
Nsbsg114
g120
sg133
F201.88696874417695
sg116
g107
(g121
g109
Ntp292
Rp293
(dp294
g125
Nsg126
I00
sg127
g257
sg116
Nsbsg126
I01
sbsg114
g115
sg133
F309.92859902539755
sg116
g107
(g121
g109
Ntp295
Rp296
(dp297
g125
Nsg126
I00
sg127
g261
sg116
Nsbsg126
I01
sbsg145
(lp298
g284
ag296
ag287
ag293
ag290
asg147
I5
sba(itree
PTree
p299
(dp300
g106
g107
(g108
g109
Ntp301
Rp302
(dp303
g113
I0
sg125
g107
(g108
g109
Ntp304
Rp305
(dp306
g113
I1
sg125
g107
(g121
g109
Ntp307
Rp308
(dp309
g125
Nsg126
I00
sg127
g253
sg116
Nsbsg114
g120
sg133
F165.4897395409051
sg116
g107
(g121
g109
Ntp310
Rp311
(dp312
g125
Nsg126
I00
sg127
g257
sg116
Nsbsg126
I01
sbsg114
g115
sg133
F192.89072913614103
sg116
g107
(g121
g109
Ntp313
Rp314
(dp315
g125
Nsg126
I00
sg127
g261
sg116
Nsbsg126
I01
sbsg145
(lp316
g302
ag314
ag305
ag311
ag308
asg147
I5
sbag299
ag299
a(itree
PTree
p317
(dp318
g106
g107
(g108
g109
Ntp319
Rp320
(dp321
g113
I0
sg125
g107
(g108
g109
Ntp322
Rp323
(dp324
g113
I1
sg125
g107
(g121
g109
Ntp325
Rp326
(dp327
g125
Nsg126
I00
sg127
g253
sg116
Nsbsg114
g120
sg133
F156.82915415955298
sg116
g107
(g121
g109
Ntp328
Rp329
(dp330
g125
Nsg126
I00
sg127
g257
sg116
Nsbsg126
I01
sbsg114
g115
sg133
F265.74782151932317
sg116
g107
(g121
g109
Ntp331
Rp332
(dp333
g125
Nsg126
I00
sg127
g261
sg116
Nsbsg126
I01
sbsg145
(lp334
g320
ag332
ag323
ag329
ag326
asg147
I5
sbag317
ag317
a(itree
PTree
p335
(dp336
g106
g107
(g108
g109
Ntp337
Rp338
(dp339
g113
I0
sg125
g107
(g108
g109
Ntp340
Rp341
(dp342
g113
I1
sg125
g107
(g121
g109
Ntp343
Rp344
(dp345
g125
Nsg126
I00
sg127
g253
sg116
Nsbsg114
g120
sg133
F119.99773341256834
sg116
g107
(g121
g109
Ntp346
Rp347
(dp348
g125
Nsg126
I00
sg127
g257
sg116
Nsbsg126
I01
sbsg114
g115
sg133
F367.2360150829983
sg116
g107
(g121
g109
Ntp349
Rp350
(dp351
g125
Nsg126
I00
sg127
g261
sg116
Nsbsg126
I01
sbsg145
(lp352
g338
ag350
ag341
ag347
ag344
asg147
I5
sbag335
a(itree
PTree
p353
(dp354
g106
g107
(g108
g109
Ntp355
Rp356
(dp357
g113
I0
sg125
g107
(g108
g109
Ntp358
Rp359
(dp360
g113
I1
sg125
g107
(g121
g109
Ntp361
Rp362
(dp363
g125
Nsg126
I00
sg127
g253
sg116
Nsbsg114
g120
sg133
F99.24122544891158
sg116
g107
(g121
g109
Ntp364
Rp365
(dp366
g125
Nsg126
I00
sg127
g257
sg116
Nsbsg126
I01
sbsg114
g115
sg133
F258.5395719865573
sg116
g107
(g121
g109
Ntp367
Rp368
(dp369
g125
Nsg126
I00
sg127
g261
sg116
Nsbsg126
I01
sbsg145
(lp370
g356
ag368
ag359
ag365
ag362
asg147
I5
sbag353
ag353
a(itree
PTree
p371
(dp372
g106
g107
(g108
g109
Ntp373
Rp374
(dp375
g113
I0
sg125
g107
(g108
g109
Ntp376
Rp377
(dp378
g113
I1
sg125
g107
(g121
g109
Ntp379
Rp380
(dp381
g125
Nsg126
I00
sg127
g253
sg116
Nsbsg114
g120
sg133
F108.60660048332964
sg116
g107
(g121
g109
Ntp382
Rp383
(dp384
g125
Nsg126
I00
sg127
g257
sg116
Nsbsg126
I01
sbsg114
g115
sg133
F287.7151711767834
sg116
g107
(g121
g109
Ntp385
Rp386
(dp387
g125
Nsg126
I00
sg127
g261
sg116
Nsbsg126
I01
sbsg145
(lp388
g374
ag386
ag377
ag383
ag380
asg147
I5
sbag371
ag371
ag371
ag371
a(itree
PTree
p389
(dp390
g106
g107
(g108
g109
Ntp391
Rp392
(dp393
g113
I1
sg125
g107
(g108
g109
Ntp394
Rp395
(dp396
g113
I1
sg125
g107
(g108
g109
Ntp397
Rp398
(dp399
g113
I0
sg125
g107
(g121
g109
Ntp400
Rp401
(dp402
g125
Nsg126
I00
sg127
S'Release_Demand'
p403
sg116
Nsbsg114
g115
sg133
F763.530915358064
sg116
g107
(g121
g109
Ntp404
Rp405
(dp406
g125
Nsg126
I00
sg127
S'Hedge_80'
p407
sg116
Nsbsg126
I01
sbsg114
g120
sg133
F100.69870864775766
sg116
g107
(g121
g109
Ntp408
Rp409
(dp410
g125
Nsg126
I00
sg127
S'Flood_Control'
p411
sg116
Nsbsg126
I01
sbsg114
g120
sg133
F62.31088198865973
sg116
g107
(g121
g109
Ntp412
Rp413
(dp414
g125
Nsg126
I00
sg127
S'Hedge_80'
p415
sg116
Nsbsg126
I01
sbsg145
(lp416
g392
ag413
ag395
ag409
ag398
ag405
ag401
asg147
I7
sbag389
ag389
a(itree
PTree
p417
(dp418
g106
g107
(g108
g109
Ntp419
Rp420
(dp421
g113
I1
sg125
g107
(g108
g109
Ntp422
Rp423
(dp424
g113
I1
sg125
g107
(g108
g109
Ntp425
Rp426
(dp427
g113
I0
sg125
g107
(g121
g109
Ntp428
Rp429
(dp430
g125
Nsg126
I00
sg127
g403
sg116
Nsbsg114
g115
sg133
F763.530915358064
sg116
g107
(g121
g109
Ntp431
Rp432
(dp433
g125
Nsg126
I00
sg127
g407
sg116
Nsbsg126
I01
sbsg114
g120
sg133
F96.85492305371456
sg116
g107
(g121
g109
Ntp434
Rp435
(dp436
g125
Nsg126
I00
sg127
g411
sg116
Nsbsg126
I01
sbsg114
g120
sg133
F70.39927652083409
sg116
g107
(g121
g109
Ntp437
Rp438
(dp439
g125
Nsg126
I00
sg127
g415
sg116
Nsbsg126
I01
sbsg145
(lp440
g420
ag438
ag423
ag435
ag426
ag432
ag429
asg147
I7
sbag417
ag417
a(itree
PTree
p441
(dp442
g106
g107
(g108
g109
Ntp443
Rp444
(dp445
g113
I1
sg125
g107
(g108
g109
Ntp446
Rp447
(dp448
g113
I1
sg125
g107
(g121
g109
Ntp449
Rp450
(dp451
g125
Nsg126
I00
sg127
S'Hedge_90'
p452
sg116
Nsbsg114
g120
sg133
F105.08572339884451
sg116
g107
(g121
g109
Ntp453
Rp454
(dp455
g125
Nsg126
I00
sg127
S'Flood_Control'
p456
sg116
Nsbsg126
I01
sbsg114
g120
sg133
F77.9967684953697
sg116
g107
(g121
g109
Ntp457
Rp458
(dp459
g125
Nsg126
I00
sg127
S'Hedge_90'
p460
sg116
Nsbsg126
I01
sbsg145
(lp461
g444
ag458
ag447
ag454
ag450
asg147
I5
sbag441
ag441
ag441
ag441
ag441
ag441
ag441
ag441
ag441
ag441
ag441
ag441
ag441
ag441
ag441
ag441
ag441
ag441
ag441
a(itree
PTree
p462
(dp463
g106
g107
(g108
g109
Ntp464
Rp465
(dp466
g113
I0
sg125
g107
(g108
g109
Ntp467
Rp468
(dp469
g113
I1
sg125
g107
(g108
g109
Ntp470
Rp471
(dp472
g113
I1
sg125
g107
(g121
g109
Ntp473
Rp474
(dp475
g125
Nsg126
I00
sg127
S'Hedge_90'
p476
sg116
Nsbsg114
g120
sg133
F149.50138464710102
sg116
g107
(g121
g109
Ntp477
Rp478
(dp479
g125
Nsg126
I00
sg127
S'Flood_Control'
p480
sg116
Nsbsg126
I01
sbsg114
g120
sg133
F72.36420013914339
sg116
g107
(g121
g109
Ntp481
Rp482
(dp483
g125
Nsg126
I00
sg127
S'Release_Demand'
p484
sg116
Nsbsg126
I01
sbsg114
g115
sg133
F307.78248807346284
sg116
g107
(g121
g109
Ntp485
Rp486
(dp487
g125
Nsg126
I00
sg127
S'Hedge_80'
p488
sg116
Nsbsg126
I01
sbsg145
(lp489
g465
ag486
ag468
ag482
ag471
ag478
ag474
asg147
I7
sbag462
a(itree
PTree
p490
(dp491
g106
g107
(g108
g109
Ntp492
Rp493
(dp494
g113
I1
sg125
g107
(g108
g109
Ntp495
Rp496
(dp497
g113
I1
sg125
g107
(g108
g109
Ntp498
Rp499
(dp500
g113
I1
sg125
g107
(g121
g109
Ntp501
Rp502
(dp503
g125
Nsg126
I00
sg127
S'Hedge_90'
p504
sg116
Nsbsg114
g120
sg133
F186.34381000476878
sg116
g107
(g121
g109
Ntp505
Rp506
(dp507
g125
Nsg126
I00
sg127
S'Release_Demand'
p508
sg116
Nsbsg126
I01
sbsg114
g120
sg133
F95.7260417490159
sg116
g107
(g121
g109
Ntp509
Rp510
(dp511
g125
Nsg126
I00
sg127
S'Flood_Control'
p512
sg116
Nsbsg126
I01
sbsg114
g120
sg133
F81.4294000250086
sg116
g107
(g121
g109
Ntp513
Rp514
(dp515
g125
Nsg126
I00
sg127
S'Hedge_90'
p516
sg116
Nsbsg126
I01
sbsg145
(lp517
g493
ag514
ag496
ag510
ag499
ag506
ag502
asg147
I7
sbag490
a(itree
PTree
p518
(dp519
g106
g107
(g108
g109
Ntp520
Rp521
(dp522
g113
I0
sg125
g107
(g108
g109
Ntp523
Rp524
(dp525
g113
I1
sg125
g107
(g108
g109
Ntp526
Rp527
(dp528
g113
I1
sg125
g107
(g121
g109
Ntp529
Rp530
(dp531
g125
Nsg126
I00
sg127
g476
sg116
Nsbsg114
g120
sg133
F103.88668513234863
sg116
g107
(g121
g109
Ntp532
Rp533
(dp534
g125
Nsg126
I00
sg127
g480
sg116
Nsbsg126
I01
sbsg114
g120
sg133
F32.27971155192873
sg116
g107
(g121
g109
Ntp535
Rp536
(dp537
g125
Nsg126
I00
sg127
g484
sg116
Nsbsg126
I01
sbsg114
g115
sg133
F324.8544022691916
sg116
g107
(g121
g109
Ntp538
Rp539
(dp540
g125
Nsg126
I00
sg127
g488
sg116
Nsbsg126
I01
sbsg145
(lp541
g521
ag539
ag524
ag536
ag527
ag533
ag530
asg147
I7
sbag518
ag518
ag518
ag518
ag518
ag518
ag518
a(itree
PTree
p542
(dp543
g106
g107
(g108
g109
Ntp544
Rp545
(dp546
g113
I1
sg125
g107
(g108
g109
Ntp547
Rp548
(dp549
g113
I1
sg125
g107
(g108
g109
Ntp550
Rp551
(dp552
g113
I0
sg125
g107
(g121
g109
Ntp553
Rp554
(dp555
g125
Nsg126
I00
sg127
S'Release_Demand'
p556
sg116
Nsbsg114
g115
sg133
F538.1405453580983
sg116
g107
(g121
g109
Ntp557
Rp558
(dp559
g125
Nsg126
I00
sg127
S'Hedge_80'
p560
sg116
Nsbsg126
I01
sbsg114
g120
sg133
F94.95707593337612
sg116
g107
(g121
g109
Ntp561
Rp562
(dp563
g125
Nsg126
I00
sg127
S'Flood_Control'
p564
sg116
Nsbsg126
I01
sbsg114
g120
sg133
F75.92296768040414
sg116
g107
(g121
g109
Ntp565
Rp566
(dp567
g125
Nsg126
I00
sg127
S'Hedge_90'
p568
sg116
Nsbsg126
I01
sbsg145
(lp569
g545
ag566
ag548
ag562
ag551
ag558
ag554
asg147
I7
sbag542
ag542
ag542
a(itree
PTree
p570
(dp571
g106
g107
(g108
g109
Ntp572
Rp573
(dp574
g113
I0
sg125
g107
(g108
g109
Ntp575
Rp576
(dp577
g113
I1
sg125
g107
(g108
g109
Ntp578
Rp579
(dp580
g113
I1
sg125
g107
(g121
g109
Ntp581
Rp582
(dp583
g125
Nsg126
I00
sg127
g476
sg116
Nsbsg114
g120
sg133
F134.34566543157013
sg116
g107
(g121
g109
Ntp584
Rp585
(dp586
g125
Nsg126
I00
sg127
g480
sg116
Nsbsg126
I01
sbsg114
g120
sg133
F38.05663817772797
sg116
g107
(g121
g109
Ntp587
Rp588
(dp589
g125
Nsg126
I00
sg127
g484
sg116
Nsbsg126
I01
sbsg114
g115
sg133
F421.90422907765776
sg116
g107
(g121
g109
Ntp590
Rp591
(dp592
g125
Nsg126
I00
sg127
g488
sg116
Nsbsg126
I01
sbsg145
(lp593
g573
ag591
ag576
ag588
ag579
ag585
ag582
asg147
I7
sbag570
ag570
ag570
ag570
ag570
ag570
ag570
ag570
ag570
ag570
ag570
ag570
ag570
ag570
ag570
ag570
ag570
ag570
ag570
ag570
ag570
ag570
ag570
a(itree
PTree
p594
(dp595
g106
g107
(g108
g109
Ntp596
Rp597
(dp598
g113
I0
sg125
g107
(g108
g109
Ntp599
Rp600
(dp601
g113
I1
sg125
g107
(g108
g109
Ntp602
Rp603
(dp604
g113
I1
sg125
g107
(g121
g109
Ntp605
Rp606
(dp607
g125
Nsg126
I00
sg127
g476
sg116
Nsbsg114
g120
sg133
F122.48625191538378
sg116
g107
(g121
g109
Ntp608
Rp609
(dp610
g125
Nsg126
I00
sg127
g480
sg116
Nsbsg126
I01
sbsg114
g120
sg133
F76.26806793566949
sg116
g107
(g121
g109
Ntp611
Rp612
(dp613
g125
Nsg126
I00
sg127
g484
sg116
Nsbsg126
I01
sbsg114
g115
sg133
F386.48254040825356
sg116
g107
(g121
g109
Ntp614
Rp615
(dp616
g125
Nsg126
I00
sg127
g488
sg116
Nsbsg126
I01
sbsg145
(lp617
g597
ag615
ag600
ag612
ag603
ag609
ag606
asg147
I7
sbag594
ag594
a(itree
PTree
p618
(dp619
g106
g107
(g108
g109
Ntp620
Rp621
(dp622
g113
I0
sg125
g107
(g108
g109
Ntp623
Rp624
(dp625
g113
I1
sg125
g107
(g108
g109
Ntp626
Rp627
(dp628
g113
I1
sg125
g107
(g121
g109
Ntp629
Rp630
(dp631
g125
Nsg126
I00
sg127
g476
sg116
Nsbsg114
g120
sg133
F97.6901592939642
sg116
g107
(g121
g109
Ntp632
Rp633
(dp634
g125
Nsg126
I00
sg127
g480
sg116
Nsbsg126
I01
sbsg114
g120
sg133
F68.35377796060406
sg116
g107
(g121
g109
Ntp635
Rp636
(dp637
g125
Nsg126
I00
sg127
g484
sg116
Nsbsg126
I01
sbsg114
g115
sg133
F356.26164887011277
sg116
g107
(g121
g109
Ntp638
Rp639
(dp640
g125
Nsg126
I00
sg127
g488
sg116
Nsbsg126
I01
sbsg145
(lp641
g621
ag639
ag624
ag636
ag627
ag633
ag630
asg147
I7
sbag618
ag618
ag618
ag618
ag618
ag618
ag618
ag618
ag618
ag618
ag618
ag618
ag618
ag618
ag618
ag618
ag618
ag618
ag618
ag618
ag618
ag618
ag618
ag618
ag618
ag618
ag618
ag618
ag618
ag618
ag618
ag618
ag618
ag618
ag618
ag618
ag618
ag618
ag618
ag618
ag618
ag618
ag618
ag618
ag618
ag618
ag618
ag618
ag618
ag618
ag618
ag618
ag618
ag618
ag618
ag618
ag618
ag618
ag618
ag618
ag618
ag618
ag618
ag618
ag618
ag618
ag618
ag618
ag618
ag618
ag618
ag618
ag618
ag618
ag618
ag618
ag618
ag618
ag618
ag618
ag618
ag618
ag618
ag618
ag618
ag618
ag618
ag618
ag618
ag618
ag618
ag618
ag618
ag618
ag618
ag618
ag618
ag618
ag618
ag618
ag618
ag618
ag618
ag618
ag618
ag618
ag618
ag618
ag618
ag618
ag618
ag618
ag618
ag618
ag618
ag618
ag618
ag618
ag618
ag618
ag618
ag618
ag618
a(itree
PTree
p642
(dp643
g106
g107
(g108
g109
Ntp644
Rp645
(dp646
g113
I0
sg125
g107
(g108
g109
Ntp647
Rp648
(dp649
g113
I1
sg125
g107
(g108
g109
Ntp650
Rp651
(dp652
g113
I1
sg125
g107
(g121
g109
Ntp653
Rp654
(dp655
g125
Nsg126
I00
sg127
g476
sg116
Nsbsg114
g120
sg133
F92.51624949028015
sg116
g107
(g121
g109
Ntp656
Rp657
(dp658
g125
Nsg126
I00
sg127
g480
sg116
Nsbsg126
I01
sbsg114
g120
sg133
F62.36947103939426
sg116
g107
(g121
g109
Ntp659
Rp660
(dp661
g125
Nsg126
I00
sg127
g484
sg116
Nsbsg126
I01
sbsg114
g115
sg133
F356.26164887011277
sg116
g107
(g121
g109
Ntp662
Rp663
(dp664
g125
Nsg126
I00
sg127
g488
sg116
Nsbsg126
I01
sbsg145
(lp665
g645
ag663
ag648
ag660
ag651
ag657
ag654
asg147
I7
sbag642
ag642
ag642
a(itree
PTree
p666
(dp667
g106
g107
(g108
g109
Ntp668
Rp669
(dp670
g113
I0
sg125
g107
(g108
g109
Ntp671
Rp672
(dp673
g113
I1
sg125
g107
(g108
g109
Ntp674
Rp675
(dp676
g113
I1
sg125
g107
(g121
g109
Ntp677
Rp678
(dp679
g125
Nsg126
I00
sg127
g476
sg116
Nsbsg114
g120
sg133
F92.51624949028015
sg116
g107
(g121
g109
Ntp680
Rp681
(dp682
g125
Nsg126
I00
sg127
g480
sg116
Nsbsg126
I01
sbsg114
g120
sg133
F84.42699157676026
sg116
g107
(g121
g109
Ntp683
Rp684
(dp685
g125
Nsg126
I00
sg127
g484
sg116
Nsbsg126
I01
sbsg114
g115
sg133
F356.26164887011277
sg116
g107
(g121
g109
Ntp686
Rp687
(dp688
g125
Nsg126
I00
sg127
g488
sg116
Nsbsg126
I01
sbsg145
(lp689
g669
ag687
ag672
ag684
ag675
ag681
ag678
asg147
I7
sbag666
ag666
ag666
ag666
ag666
a(itree
PTree
p690
(dp691
g106
g107
(g108
g109
Ntp692
Rp693
(dp694
g113
I0
sg125
g107
(g108
g109
Ntp695
Rp696
(dp697
g113
I1
sg125
g107
(g108
g109
Ntp698
Rp699
(dp700
g113
I1
sg125
g107
(g121
g109
Ntp701
Rp702
(dp703
g125
Nsg126
I00
sg127
S'Release_Demand'
p704
sg116
Nsbsg114
g120
sg133
F96.50322391238889
sg116
g107
(g121
g109
Ntp705
Rp706
(dp707
g125
Nsg126
I00
sg127
S'Flood_Control'
p708
sg116
Nsbsg126
I01
sbsg114
g120
sg133
F26.246523446344025
sg116
g107
(g121
g109
Ntp709
Rp710
(dp711
g125
Nsg126
I00
sg127
S'Release_Demand'
p712
sg116
Nsbsg126
I01
sbsg114
g115
sg133
F431.097647476429
sg116
g107
(g121
g109
Ntp713
Rp714
(dp715
g125
Nsg126
I00
sg127
S'Hedge_80'
p716
sg116
Nsbsg126
I01
sbsg145
(lp717
g693
ag714
ag696
ag710
ag699
ag706
ag702
asg147
I7
sbag690
ag690
ag690
a(itree
PTree
p718
(dp719
g106
g107
(g108
g109
Ntp720
Rp721
(dp722
g113
I0
sg125
g107
(g108
g109
Ntp723
Rp724
(dp725
g113
I1
sg125
g107
(g108
g109
Ntp726
Rp727
(dp728
g113
I1
sg125
g107
(g121
g109
Ntp729
Rp730
(dp731
g125
Nsg126
I00
sg127
g704
sg116
Nsbsg114
g120
sg133
F93.0083711257666
sg116
g107
(g121
g109
Ntp732
Rp733
(dp734
g125
Nsg126
I00
sg127
g708
sg116
Nsbsg126
I01
sbsg114
g120
sg133
F31.420619502880513
sg116
g107
(g121
g109
Ntp735
Rp736
(dp737
g125
Nsg126
I00
sg127
g712
sg116
Nsbsg126
I01
sbsg114
g115
sg133
F415.66476047543046
sg116
g107
(g121
g109
Ntp738
Rp739
(dp740
g125
Nsg126
I00
sg127
g716
sg116
Nsbsg126
I01
sbsg145
(lp741
g721
ag739
ag724
ag736
ag727
ag733
ag730
asg147
I7
sba(itree
PTree
p742
(dp743
g106
g107
(g108
g109
Ntp744
Rp745
(dp746
g113
I0
sg125
g107
(g108
g109
Ntp747
Rp748
(dp749
g113
I1
sg125
g107
(g108
g109
Ntp750
Rp751
(dp752
g113
I1
sg125
g107
(g121
g109
Ntp753
Rp754
(dp755
g125
Nsg126
I00
sg127
g704
sg116
Nsbsg114
g120
sg133
F93.0083711257666
sg116
g107
(g121
g109
Ntp756
Rp757
(dp758
g125
Nsg126
I00
sg127
g708
sg116
Nsbsg126
I01
sbsg114
g120
sg133
F48.68515909156519
sg116
g107
(g121
g109
Ntp759
Rp760
(dp761
g125
Nsg126
I00
sg127
g712
sg116
Nsbsg126
I01
sbsg114
g115
sg133
F392.13665899442697
sg116
g107
(g121
g109
Ntp762
Rp763
(dp764
g125
Nsg126
I00
sg127
g716
sg116
Nsbsg126
I01
sbsg145
(lp765
g745
ag763
ag748
ag760
ag751
ag757
ag754
asg147
I7
sbag742
ag742
ag742
ag742
ag742
ag742
ag742
ag742
ag742
ag742
ag742
ag742
ag742
ag742
ag742
ag742
ag742
a(itree
PTree
p766
(dp767
g106
g107
(g108
g109
Ntp768
Rp769
(dp770
g113
I0
sg125
g107
(g108
g109
Ntp771
Rp772
(dp773
g113
I1
sg125
g107
(g108
g109
Ntp774
Rp775
(dp776
g113
I1
sg125
g107
(g121
g109
Ntp777
Rp778
(dp779
g125
Nsg126
I00
sg127
g704
sg116
Nsbsg114
g120
sg133
F93.0083711257666
sg116
g107
(g121
g109
Ntp780
Rp781
(dp782
g125
Nsg126
I00
sg127
g708
sg116
Nsbsg126
I01
sbsg114
g120
sg133
F81.530711350501
sg116
g107
(g121
g109
Ntp783
Rp784
(dp785
g125
Nsg126
I00
sg127
g712
sg116
Nsbsg126
I01
sbsg114
g115
sg133
F392.13665899442697
sg116
g107
(g121
g109
Ntp786
Rp787
(dp788
g125
Nsg126
I00
sg127
g716
sg116
Nsbsg126
I01
sbsg145
(lp789
g769
ag787
ag772
ag784
ag775
ag781
ag778
asg147
I7
sbag766
ag766
ag766
ag766
ag766
ag766
ag766
ag766
ag766
ag766
ag766
ag766
ag766
ag766
ag766
ag766
ag766
ag766
ag766
ag766
ag766
ag766
ag766
ag766
ag766
ag766
ag766
ag766
ag766
ag766
ag766
ag766
ag766
ag766
ag766
ag766
ag766
ag766
ag766
ag766
ag766
ag766
ag766
ag766
ag766
ag766
ag766
ag766
ag766
ag766
ag766
ag766
ag766
ag766
ag766
ag766
ag766
ag766
ag766
ag766
ag766
ag766
ag766
ag766
ag766
ag766
ag766
ag766
ag766
ag766
ag766
ag766
ag766
ag766
ag766
ag766
ag766
ag766
ag766
ag766
ag766
ag766
ag766
ag766
ag766
ag766
ag766
ag766
ag766
ag766
ag766
ag766
ag766
ag766
ag766
ag766
ag766
ag766
ag766
ag766
ag766
ag766
ag766
ag766
ag766
ag766
ag766
ag766
ag766
ag766
ag766
ag766
ag766
ag766
ag766
ag766
ag766
ag766
ag766
ag766
ag766
ag766
ag766
ag766
ag766
ag766
ag766
ag766
ag766
ag766
ag766
ag766
ag766
ag766
ag766
ag766
ag766
ag766
ag766
ag766
ag766
ag766
ag766
ag766
ag766
ag766
ag766
ag766
ag766
ag766
ag766
ag766
ag766
ag766
ag766
ag766
ag766
ag766
ag766
ag766
ag766
ag766
ag766
ag766
ag766
ag766
ag766
ag766
ag766
ag766
ag766
ag766
ag766
ag766
ag766
ag766
ag766
ag766
ag766
ag766
ag766
ag766
ag766
ag766
ag766
ag766
ag766
ag766
ag766
ag766
ag766
ag766
ag766
ag766
ag766
ag766
ag766
ag766
ag766
ag766
ag766
ag766
ag766
ag766
ag766
ag766
ag766
ag766
ag766
ag766
ag766
ag766
ag766
ag766
ag766
ag766
ag766
ag766
ag766
ag766
ag766
ag766
ag766
ag766
ag766
ag766
ag766
ag766
ag766
ag766
ag766
ag766
ag766
ag766
a(itree
PTree
p790
(dp791
g106
g107
(g108
g109
Ntp792
Rp793
(dp794
g113
I0
sg125
g107
(g108
g109
Ntp795
Rp796
(dp797
g113
I1
sg125
g107
(g108
g109
Ntp798
Rp799
(dp800
g113
I1
sg125
g107
(g121
g109
Ntp801
Rp802
(dp803
g125
Nsg126
I00
sg127
S'Release_Demand'
p804
sg116
Nsbsg114
g120
sg133
F94.44248221083517
sg116
g107
(g121
g109
Ntp805
Rp806
(dp807
g125
Nsg126
I00
sg127
S'Flood_Control'
p808
sg116
Nsbsg126
I01
sbsg114
g120
sg133
F73.91043411809221
sg116
g107
(g121
g109
Ntp809
Rp810
(dp811
g125
Nsg126
I00
sg127
g484
sg116
Nsbsg126
I01
sbsg114
g115
sg133
F428.39560778051964
sg116
g107
(g121
g109
Ntp812
Rp813
(dp814
g125
Nsg126
I00
sg127
S'Hedge_80'
p815
sg116
Nsbsg126
I01
sbsg145
(lp816
g793
ag813
ag796
ag810
ag799
ag806
ag802
asg147
I7
sbag790
ag790
ag790
ag790
asS'time'
p817
(lp818
I57
aI86
aI116
aI145
aI174
aI203
aI233
aI263
aI294
aI324
aI355
aI385
aI416
aI447
aI478
aI508
aI539
aI569
aI600
aI630
aI660
aI690
aI721
aI751
aI782
aI812
aI843
aI873
aI903
aI934
aI964
aI995
aI1025
aI1056
aI1085
aI1115
aI1145
aI1175
aI1206
aI1236
aI1266
aI1296
aI1326
aI1357
aI1388
aI1418
aI1449
aI1479
aI1510
aI1541
aI1572
aI1602
aI1633
aI1664
aI1696
aI1727
aI1758
aI1789
aI1820
aI1852
aI1883
aI1915
aI1946
aI1978
aI2010
aI2041
aI2073
aI2104
aI2136
aI2168
aI2200
aI2231
aI2263
aI2295
aI2326
aI2357
aI2388
aI2420
aI2452
aI2484
aI2515
aI2547
aI2579
aI2610
aI2642
aI2673
aI2705
aI2736
aI2767
aI2799
aI2830
aI2862
aI2894
aI2925
aI2956
aI2988
aI3020
aI3052
aI3084
aI3117
aI3149
aI3181
aI3212
aI3244
aI3275
aI3307
aI3339
aI3370
aI3402
aI3434
aI3465
aI3497
aI3528
aI3560
aI3591
aI3622
aI3654
aI3686
aI3718
aI3750
aI3781
aI3813
aI3845
aI3876
aI3908
aI3940
aI3972
aI4003
aI4035
aI4066
aI4098
aI4129
aI4161
aI4192
aI4224
aI4255
aI4287
aI4318
aI4350
aI4381
aI4413
aI4444
aI4477
aI4508
aI4540
aI4571
aI4603
aI4634
aI4666
aI4697
aI4729
aI4760
aI4792
aI4824
aI4855
aI4887
aI4919
aI4951
aI4983
aI5014
aI5045
aI5078
aI5109
aI5141
aI5173
aI5204
aI5235
aI5267
aI5299
aI5330
aI5362
aI5393
aI5425
aI5456
aI5487
aI5518
aI5550
aI5581
aI5612
aI5642
aI5674
aI5706
aI5737
aI5768
aI5800
aI5831
aI5862
aI5894
aI5925
aI5957
aI5988
aI6020
aI6051
aI6083
aI6114
aI6146
aI6178
aI6208
aI6240
aI6271
aI6303
aI6334
aI6366
aI6397
aI6428
aI6460
aI6491
aI6523
aI6554
aI6586
aI6617
aI6649
aI6681
aI6712
aI6743
aI6774
aI6806
aI6838
aI6869
aI6901
aI6933
aI6964
aI6995
aI7027
aI7059
aI7090
aI7122
aI7153
aI7185
aI7216
aI7248
aI7279
aI7310
aI7342
aI7374
aI7405
aI7437
aI7469
aI7500
aI7532
aI7562
aI7594
aI7625
aI7656
aI7688
aI7719
aI7750
aI7781
aI7812
aI7843
aI7875
aI7906
aI7937
aI7968
aI8000
aI8031
aI8061
aI8092
aI8124
aI8155
aI8186
aI8218
aI8249
aI8280
aI8311
aI8343
aI8374
aI8405
aI8436
aI8467
aI8498
aI8529
aI8560
aI8591
aI8622
aI8653
aI8684
aI8715
aI8747
aI8778
aI8809
aI8840
aI8871
aI8902
aI8932
aI8964
aI8995
aI9026
aI9058
aI9089
aI9120
aI9152
aI9183
aI9215
aI9247
aI9279
aI9310
aI9342
aI9374
aI9406
aI9437
aI9469
aI9501
aI9533
aI9564
aI9596
aI9628
aI9660
aI9691
aI9724
aI9756
aI9788
aI9820
aI9852
aI9885
aI9917
aI9948
aI9980
aI10012
aI10044
aI10076
aI10108
aI10141
aI10173
aI10205
aI10237
aI10269
aI10301
aI10333
aI10365
aI10396
aI10428
aI10460
aI10492
aI10523
aI10555
aI10587
aI10619
aI10651
aI10682
aI10715
aI10747
aI10779
aI10810
aI10841
aI10873
aI10905
aI10937
aI10969
aI11000
aI11032
aI11064
aI11096
aI11128
aI11159
aI11192
aI11224
aI11255
aI11287
aI11320
aI11351
aI11383
aI11415
aI11446
aI11478
aI11510
aI11542
aI11574
aI11606
aI11638
aI11670
aI11702
aI11734
aI11766
aI11797
aI11829
aI11860
aI11892
aI11924
aI11956
aI11988
aI12020
aI12051
aI12083
aI12115
aI12147
aI12179
aI12212
aI12243
aI12275
aI12307
aI12339
aI12371
aI12403
aI12435
aI12467
aI12499
aI12530
aI12562
aI12594
aI12625
aI12657
aI12688
aI12720
aI12751
aI12783
aI12815
aI12848
aI12879
aI12911
aI12943
aI12974
aI13006
aI13038
aI13070
aI13102
aI13133
aI13165
aI13197
aI13229
aI13260
aI13292
aI13324
aI13357
aI13388
aI13420
aI13452
aI13484
aI13516
aI13548
aI13580
aI13612
aI13644
aI13676
aI13708
aI13740
aI13771
aI13803
aI13834
aI13866
aI13897
aI13928
aI13960
aI13992
aI14024
aI14056
aI14088
aI14119
aI14151
aI14182
aI14213
aI14245
aI14276
aI14307
aI14338
aI14369
aI14401
aI14432
aI14463
aI14494
aI14527
aI14558
aI14589
aI14621
aI14652
aI14683
aI14714
aI14746
aI14777
aI14808
aI14839
aI14871
aI14902
aI14933
aI14964
aI14995
aI15026
aI15056
aI15087
aI15119
aI15150
aI15182
aI15214
aI15246
aI15277
aI15308
aI15339
aI15370
aI15401
aI15431
aI15463
aI15494
aI15525
aI15556
aI15587
aI15618
aI15649
aI15680
aI15712
aI15743
as.