(dp0
S'nfe'
p1
(lp2
I50
aI100
aI150
aI200
aI250
aI300
aI350
aI400
aI450
aI500
aI550
aI600
aI650
aI700
aI750
aI800
aI850
aI900
aI950
aI1000
aI1050
aI1100
aI1150
aI1200
aI1250
aI1300
aI1350
aI1400
aI1450
aI1500
aI1550
aI1600
aI1650
aI1700
aI1750
aI1800
aI1850
aI1900
aI1950
aI2000
aI2050
aI2100
aI2150
aI2200
aI2250
aI2300
aI2350
aI2400
aI2450
aI2500
aI2550
aI2600
aI2650
aI2700
aI2750
aI2800
aI2850
aI2900
aI2950
aI3000
aI3050
aI3100
aI3150
aI3200
aI3250
aI3300
aI3350
aI3400
aI3450
aI3500
aI3550
aI3600
aI3650
aI3700
aI3750
aI3800
aI3850
aI3900
aI3950
aI4000
aI4050
aI4100
aI4150
aI4200
aI4250
aI4300
aI4350
aI4400
aI4450
aI4500
aI4550
aI4600
aI4650
aI4700
aI4750
aI4800
aI4850
aI4900
aI4950
aI5000
aI5050
aI5100
aI5150
aI5200
aI5250
aI5300
aI5350
aI5400
aI5450
aI5500
aI5550
aI5600
aI5650
aI5700
aI5750
aI5800
aI5850
aI5900
aI5950
aI6000
aI6050
aI6100
aI6150
aI6200
aI6250
aI6300
aI6350
aI6400
aI6450
aI6500
aI6550
aI6600
aI6650
aI6700
aI6750
aI6800
aI6850
aI6900
aI6950
aI7000
aI7050
aI7100
aI7150
aI7200
aI7250
aI7300
aI7350
aI7400
aI7450
aI7500
aI7550
aI7600
aI7650
aI7700
aI7750
aI7800
aI7850
aI7900
aI7950
aI8000
aI8050
aI8100
aI8150
aI8200
aI8250
aI8300
aI8350
aI8400
aI8450
aI8500
aI8550
aI8600
aI8650
aI8700
aI8750
aI8800
aI8850
aI8900
aI8950
aI9000
aI9050
aI9100
aI9150
aI9200
aI9250
aI9300
aI9350
aI9400
aI9450
aI9500
aI9550
aI9600
aI9650
aI9700
aI9750
aI9800
aI9850
aI9900
aI9950
aI10000
aI10050
aI10100
aI10150
aI10200
aI10250
aI10300
aI10350
aI10400
aI10450
aI10500
aI10550
aI10600
aI10650
aI10700
aI10750
aI10800
aI10850
aI10900
aI10950
aI11000
aI11050
aI11100
aI11150
aI11200
aI11250
aI11300
aI11350
aI11400
aI11450
aI11500
aI11550
aI11600
aI11650
aI11700
aI11750
aI11800
aI11850
aI11900
aI11950
aI12000
aI12050
aI12100
aI12150
aI12200
aI12250
aI12300
aI12350
aI12400
aI12450
aI12500
aI12550
aI12600
aI12650
aI12700
aI12750
aI12800
aI12850
aI12900
aI12950
aI13000
aI13050
aI13100
aI13150
aI13200
aI13250
aI13300
aI13350
aI13400
aI13450
aI13500
aI13550
aI13600
aI13650
aI13700
aI13750
aI13800
aI13850
aI13900
aI13950
aI14000
aI14050
aI14100
aI14150
aI14200
aI14250
aI14300
aI14350
aI14400
aI14450
aI14500
aI14550
aI14600
aI14650
aI14700
aI14750
aI14800
aI14850
aI14900
aI14950
aI15000
aI15050
aI15100
aI15150
aI15200
aI15250
aI15300
aI15350
aI15400
aI15450
aI15500
aI15550
aI15600
aI15650
aI15700
aI15750
aI15800
aI15850
aI15900
aI15950
aI16000
aI16050
aI16100
aI16150
aI16200
aI16250
aI16300
aI16350
aI16400
aI16450
aI16500
aI16550
aI16600
aI16650
aI16700
aI16750
aI16800
aI16850
aI16900
aI16950
aI17000
aI17050
aI17100
aI17150
aI17200
aI17250
aI17300
aI17350
aI17400
aI17450
aI17500
aI17550
aI17600
aI17650
aI17700
aI17750
aI17800
aI17850
aI17900
aI17950
aI18000
aI18050
aI18100
aI18150
aI18200
aI18250
aI18300
aI18350
aI18400
aI18450
aI18500
aI18550
aI18600
aI18650
aI18700
aI18750
aI18800
aI18850
aI18900
aI18950
aI19000
aI19050
aI19100
aI19150
aI19200
aI19250
aI19300
aI19350
aI19400
aI19450
aI19500
aI19550
aI19600
aI19650
aI19700
aI19750
aI19800
aI19850
aI19900
aI19950
aI20000
aI20050
aI20100
aI20150
aI20200
aI20250
aI20300
aI20350
aI20400
aI20450
aI20500
aI20550
aI20600
aI20650
aI20700
aI20750
aI20800
aI20850
aI20900
aI20950
aI21000
aI21050
aI21100
aI21150
aI21200
aI21250
aI21300
aI21350
aI21400
aI21450
aI21500
aI21550
aI21600
aI21650
aI21700
aI21750
aI21800
aI21850
aI21900
aI21950
aI22000
aI22050
aI22100
aI22150
aI22200
aI22250
aI22300
aI22350
aI22400
aI22450
aI22500
aI22550
aI22600
aI22650
aI22700
aI22750
aI22800
aI22850
aI22900
aI22950
aI23000
aI23050
aI23100
aI23150
aI23200
aI23250
aI23300
aI23350
aI23400
aI23450
aI23500
aI23550
aI23600
aI23650
aI23700
aI23750
aI23800
aI23850
aI23900
aI23950
aI24000
aI24050
aI24100
aI24150
aI24200
aI24250
aI24300
aI24350
aI24400
aI24450
aI24500
aI24550
aI24600
aI24650
aI24700
aI24750
aI24800
aI24850
aI24900
aI24950
aI25000
asS'best_f'
p3
(lp4
cnumpy.core.multiarray
scalar
p5
(cnumpy
dtype
p6
(S'f8'
p7
I0
I1
tp8
Rp9
(I3
S'<'
p10
NNNI-1
I-1
I0
tp11
bS'Y\xe0pU8\xcb\xfe?'
p12
tp13
Rp14
ag14
ag5
(g9
S'\xee\xa5\xa5\x89I\xaa\xf1?'
p15
tp16
Rp17
ag5
(g9
S'\xf6^\xf8\xdc=\xb8\xeb?'
p18
tp19
Rp20
ag5
(g9
S'\x9euHH\xe5\x0c\xe8?'
p21
tp22
Rp23
ag5
(g9
S'p\x99\xc2\xb0\x1e\xee\xe3?'
p24
tp25
Rp26
ag5
(g9
S'\xc4\xae\xd8G\xc7\xd0\xe2?'
p27
tp28
Rp29
ag5
(g9
S'\x84D~!\x9c\xc0\xdf?'
p30
tp31
Rp32
ag32
ag32
ag32
ag5
(g9
S'\x86\xc9\x00~z\x97\xdf?'
p33
tp34
Rp35
ag35
ag35
ag35
ag35
ag35
ag35
ag35
ag35
ag35
ag35
ag35
ag35
ag35
ag35
ag35
ag35
ag5
(g9
S'\xe8hV\xc0\xac\x93\xdf?'
p36
tp37
Rp38
ag38
ag38
ag38
ag38
ag38
ag38
ag38
ag38
ag38
ag38
ag38
ag38
ag38
ag38
ag38
ag38
ag38
ag38
ag38
ag38
ag38
ag38
ag38
ag38
ag38
ag38
ag38
ag38
ag38
ag38
ag38
ag38
ag38
ag38
ag38
ag38
ag38
ag38
ag38
ag38
ag38
ag38
ag38
ag38
ag38
ag38
ag38
ag38
ag38
ag38
ag38
ag38
ag38
ag38
ag38
ag38
ag38
ag38
ag38
ag38
ag38
ag38
ag38
ag38
ag38
ag38
ag38
ag38
ag38
ag38
ag38
ag38
ag38
ag38
ag38
ag38
ag38
ag38
ag38
ag38
ag38
ag38
ag38
ag38
ag38
ag38
ag38
ag38
ag38
ag38
ag38
ag38
ag38
ag38
ag38
ag38
ag38
ag38
ag38
ag38
ag38
ag38
ag38
ag38
ag38
ag38
ag38
ag5
(g9
S'6q>\x97\xa0\x1b\xdd?'
p39
tp40
Rp41
ag41
ag5
(g9
S'>G\x0c\x88\xe2\x9d\xdb?'
p42
tp43
Rp44
ag5
(g9
S'\\j\x9a\x0f\x84N\xdb?'
p45
tp46
Rp47
ag47
ag47
ag47
ag47
ag47
ag47
ag47
ag47
ag47
ag47
ag47
ag47
ag47
ag47
ag47
ag47
ag47
ag47
ag47
ag47
ag47
ag47
ag47
ag47
ag47
ag5
(g9
S'&\x83_r\x0b\x02\xdb?'
p48
tp49
Rp50
ag50
ag50
ag50
ag50
ag50
ag50
ag50
ag50
ag50
ag50
ag50
ag50
ag50
ag50
ag50
ag50
ag50
ag50
ag50
ag50
ag50
ag50
ag50
ag50
ag50
ag50
ag50
ag50
ag50
ag50
ag50
ag50
ag50
ag50
ag50
ag50
ag50
ag50
ag50
ag50
ag50
ag50
ag50
ag50
ag50
ag50
ag50
ag50
ag5
(g9
S'\xe2B\x1f(\x07\xa3\xda?'
p51
tp52
Rp53
ag53
ag53
ag5
(g9
S'\x10\xabF\x00__\xda?'
p54
tp55
Rp56
ag56
ag56
ag56
ag56
ag56
ag56
ag56
ag56
ag5
(g9
S'C\xef\x85\xad\xc6\xe5\xd9?'
p57
tp58
Rp59
ag59
ag5
(g9
S'[\x91X\xc3\xf7\xe4\xd9?'
p60
tp61
Rp62
ag62
ag62
ag62
ag5
(g9
S'W\x81W\xfeY$\xd8?'
p63
tp64
Rp65
ag65
ag65
ag65
ag65
ag65
ag65
ag65
ag65
ag65
ag65
ag65
ag65
ag65
ag65
ag65
ag65
ag5
(g9
S'\xfd\x97\x0e\xcb\x190\xd6?'
p66
tp67
Rp68
ag68
ag68
ag68
ag68
ag68
ag68
ag68
ag68
ag68
ag68
ag68
ag68
ag68
ag68
ag68
ag68
ag68
ag68
ag68
ag68
ag68
ag68
ag68
ag68
ag68
ag68
ag68
ag68
ag68
ag68
ag68
ag5
(g9
S'\xf6\x96k\xef\xde\x05\xd6?'
p69
tp70
Rp71
ag71
ag71
ag71
ag71
ag71
ag71
ag71
ag71
ag71
ag71
ag71
ag71
ag71
ag71
ag71
ag71
ag71
ag71
ag71
ag71
ag71
ag71
ag71
ag71
ag71
ag71
ag71
ag71
ag71
ag71
ag5
(g9
S'\xe6`:HS\xa1\xd5?'
p72
tp73
Rp74
ag74
ag74
ag74
ag74
ag74
ag74
ag74
ag74
ag74
ag74
ag74
ag74
ag74
ag74
ag74
ag74
ag74
ag74
ag74
ag74
ag74
ag74
ag74
ag74
ag74
ag74
ag74
ag74
ag74
ag74
ag74
ag74
ag74
ag74
ag74
ag74
ag74
ag74
ag74
ag74
ag74
ag74
ag74
ag74
ag74
ag74
ag74
ag74
ag74
ag74
ag74
ag74
ag74
ag74
ag74
ag74
ag74
ag74
ag74
ag74
ag74
ag74
ag74
ag74
ag74
ag74
ag74
ag74
ag74
ag74
ag74
ag74
ag74
ag74
ag74
ag74
ag74
ag74
ag74
ag74
ag74
ag74
ag74
ag74
ag74
ag74
ag74
ag74
ag74
ag74
ag74
ag74
ag74
ag74
ag74
ag74
ag74
ag74
ag74
ag74
ag74
ag74
ag74
ag74
ag74
ag74
ag74
ag74
ag74
ag74
ag5
(g9
S'!\xe6\n\xb8O\x9a\xd5?'
p75
tp76
Rp77
ag77
ag77
ag5
(g9
S'\xda\xbf\xc8\x05\xb7\x91\xd5?'
p78
tp79
Rp80
ag80
ag80
ag80
ag80
ag80
ag80
ag80
ag80
ag80
ag80
ag80
ag80
ag80
ag80
ag80
ag80
ag80
ag80
ag80
ag80
ag80
ag80
ag80
ag80
ag80
ag80
ag80
ag80
ag80
ag80
ag5
(g9
S'\x9c\xba2\xe6W\x97\xd2?'
p81
tp82
Rp83
ag83
ag83
ag83
ag83
ag83
ag83
ag83
ag83
ag83
ag83
ag83
ag83
ag83
ag83
ag83
ag83
ag83
ag83
ag5
(g9
S'\x97\x05\x01\x8d\x17/\xd0?'
p84
tp85
Rp86
ag86
ag86
ag86
ag86
ag86
ag86
ag86
ag86
ag86
ag86
ag86
ag86
ag86
ag86
ag86
ag86
ag86
ag86
ag86
ag86
ag86
ag86
ag86
asS'best_P'
p87
(lp88
(itree
PTree
p89
(dp90
S'root'
p91
ccopy_reg
_reconstructor
p92
(ctree
Feature
p93
c__builtin__
object
p94
Ntp95
Rp96
(dp97
S'index'
p98
I0
sS'name'
p99
S'Storage'
p100
sS'l'
p101
g92
(ctree
Action
p102
g94
Ntp103
Rp104
(dp105
S'r'
p106
NsS'is_feature'
p107
I00
sS'value'
p108
S'Flood_Control'
p109
sg101
Nsbsg106
g92
(g102
g94
Ntp110
Rp111
(dp112
g106
Nsg107
I00
sg108
S'Hedge_50'
p113
sg101
NsbsS'threshold'
p114
F653.721171066754
sg107
I01
sbsS'L'
p115
(lp116
g96
ag104
ag111
asS'N'
p117
I3
sbag89
a(itree
PTree
p118
(dp119
g91
g92
(g93
g94
Ntp120
Rp121
(dp122
g98
I1
sg106
g92
(g102
g94
Ntp123
Rp124
(dp125
g106
Nsg107
I00
sg108
S'Hedge_70'
p126
sg101
Nsbsg99
S'Day'
p127
sg114
F163.32152430754022
sg101
g92
(g102
g94
Ntp128
Rp129
(dp130
g106
Nsg107
I00
sg108
S'Flood_Control'
p131
sg101
Nsbsg107
I01
sbsg115
(lp132
g121
ag129
ag124
asg117
I3
sba(itree
PTree
p133
(dp134
g91
g92
(g93
g94
Ntp135
Rp136
(dp137
g98
I1
sg106
g92
(g102
g94
Ntp138
Rp139
(dp140
g106
Nsg107
I00
sg108
S'Release_Demand'
p141
sg101
Nsbsg99
g127
sg114
F160.41720088442264
sg101
g92
(g102
g94
Ntp142
Rp143
(dp144
g106
Nsg107
I00
sg108
g131
sg101
Nsbsg107
I01
sbsg115
(lp145
g136
ag143
ag139
asg117
I3
sba(itree
PTree
p146
(dp147
g91
g92
(g93
g94
Ntp148
Rp149
(dp150
g98
I1
sg106
g92
(g102
g94
Ntp151
Rp152
(dp153
g106
Nsg107
I00
sg108
g141
sg101
Nsbsg99
g127
sg114
F145.14620498989092
sg101
g92
(g102
g94
Ntp154
Rp155
(dp156
g106
Nsg107
I00
sg108
g131
sg101
Nsbsg107
I01
sbsg115
(lp157
g149
ag155
ag152
asg117
I3
sba(itree
PTree
p158
(dp159
g91
g92
(g93
g94
Ntp160
Rp161
(dp162
g98
I1
sg106
g92
(g102
g94
Ntp163
Rp164
(dp165
g106
Nsg107
I00
sg108
S'Release_Demand'
p166
sg101
Nsbsg99
g127
sg114
F121.51297126130576
sg101
g92
(g102
g94
Ntp167
Rp168
(dp169
g106
Nsg107
I00
sg108
S'Flood_Control'
p170
sg101
Nsbsg107
I01
sbsg115
(lp171
g161
ag168
ag164
asg117
I3
sba(itree
PTree
p172
(dp173
g91
g92
(g93
g94
Ntp174
Rp175
(dp176
g98
I1
sg106
g92
(g102
g94
Ntp177
Rp178
(dp179
g106
Nsg107
I00
sg108
g166
sg101
Nsbsg99
g127
sg114
F105.05164825387456
sg101
g92
(g102
g94
Ntp180
Rp181
(dp182
g106
Nsg107
I00
sg108
g170
sg101
Nsbsg107
I01
sbsg115
(lp183
g175
ag181
ag178
asg117
I3
sba(itree
PTree
p184
(dp185
g91
g92
(g93
g94
Ntp186
Rp187
(dp188
g98
I1
sg106
g92
(g102
g94
Ntp189
Rp190
(dp191
g106
Nsg107
I00
sg108
S'Hedge_90'
p192
sg101
Nsbsg99
g127
sg114
F118.91882159893275
sg101
g92
(g102
g94
Ntp193
Rp194
(dp195
g106
Nsg107
I00
sg108
S'Flood_Control'
p196
sg101
Nsbsg107
I01
sbsg115
(lp197
g187
ag194
ag190
asg117
I3
sbag184
ag184
ag184
a(itree
PTree
p198
(dp199
g91
g92
(g93
g94
Ntp200
Rp201
(dp202
g98
I1
sg106
g92
(g102
g94
Ntp203
Rp204
(dp205
g106
Nsg107
I00
sg108
S'Hedge_90'
p206
sg101
Nsbsg99
g127
sg114
F113.00824016907912
sg101
g92
(g102
g94
Ntp207
Rp208
(dp209
g106
Nsg107
I00
sg108
S'Flood_Control'
p210
sg101
Nsbsg107
I01
sbsg115
(lp211
g201
ag208
ag204
asg117
I3
sbag198
ag198
ag198
ag198
ag198
ag198
ag198
ag198
ag198
ag198
ag198
ag198
ag198
ag198
ag198
ag198
a(itree
PTree
p212
(dp213
g91
g92
(g93
g94
Ntp214
Rp215
(dp216
g98
I1
sg106
g92
(g102
g94
Ntp217
Rp218
(dp219
g106
Nsg107
I00
sg108
S'Hedge_90'
p220
sg101
Nsbsg99
g127
sg114
F114.91399990616189
sg101
g92
(g102
g94
Ntp221
Rp222
(dp223
g106
Nsg107
I00
sg108
S'Flood_Control'
p224
sg101
Nsbsg107
I01
sbsg115
(lp225
g215
ag222
ag218
asg117
I3
sbag212
ag212
ag212
ag212
ag212
ag212
ag212
ag212
ag212
ag212
ag212
ag212
ag212
ag212
ag212
ag212
ag212
ag212
ag212
ag212
ag212
ag212
ag212
ag212
ag212
ag212
ag212
ag212
ag212
ag212
ag212
ag212
ag212
ag212
ag212
ag212
ag212
ag212
ag212
ag212
ag212
ag212
ag212
ag212
ag212
ag212
ag212
ag212
ag212
ag212
ag212
ag212
ag212
ag212
ag212
ag212
ag212
ag212
ag212
ag212
ag212
ag212
ag212
ag212
ag212
ag212
ag212
ag212
ag212
ag212
ag212
ag212
ag212
ag212
ag212
ag212
ag212
ag212
ag212
ag212
ag212
ag212
ag212
ag212
ag212
ag212
ag212
ag212
ag212
ag212
ag212
ag212
ag212
ag212
ag212
ag212
ag212
ag212
ag212
ag212
ag212
ag212
ag212
ag212
ag212
ag212
ag212
a(itree
PTree
p226
(dp227
g91
g92
(g93
g94
Ntp228
Rp229
(dp230
g98
I1
sg106
g92
(g102
g94
Ntp231
Rp232
(dp233
g106
Nsg107
I00
sg108
S'Release_Demand'
p234
sg101
Nsbsg99
g127
sg114
F113.78785041896323
sg101
g92
(g93
g94
Ntp235
Rp236
(dp237
g98
I0
sg106
g92
(g102
g94
Ntp238
Rp239
(dp240
g106
Nsg107
I00
sg108
S'Flood_Control'
p241
sg101
Nsbsg99
g100
sg114
F432.9435874664726
sg101
g92
(g102
g94
Ntp242
Rp243
(dp244
g106
Nsg107
I00
sg108
S'Release_Demand'
p245
sg101
Nsbsg107
I01
sbsg107
I01
sbsg115
(lp246
g229
ag236
ag243
ag239
ag232
asg117
I5
sbag226
a(itree
PTree
p247
(dp248
g91
g92
(g93
g94
Ntp249
Rp250
(dp251
g98
I1
sg106
g92
(g102
g94
Ntp252
Rp253
(dp254
g106
Nsg107
I00
sg108
g234
sg101
Nsbsg99
g127
sg114
F172.3419127631641
sg101
g92
(g93
g94
Ntp255
Rp256
(dp257
g98
I0
sg106
g92
(g102
g94
Ntp258
Rp259
(dp260
g106
Nsg107
I00
sg108
g241
sg101
Nsbsg99
g100
sg114
F405.00009257809154
sg101
g92
(g102
g94
Ntp261
Rp262
(dp263
g106
Nsg107
I00
sg108
g245
sg101
Nsbsg107
I01
sbsg107
I01
sbsg115
(lp264
g250
ag256
ag262
ag259
ag253
asg117
I5
sba(itree
PTree
p265
(dp266
g91
g92
(g93
g94
Ntp267
Rp268
(dp269
g98
I1
sg106
g92
(g102
g94
Ntp270
Rp271
(dp272
g106
Nsg107
I00
sg108
g234
sg101
Nsbsg99
g127
sg114
F175.94627284285457
sg101
g92
(g93
g94
Ntp273
Rp274
(dp275
g98
I0
sg106
g92
(g102
g94
Ntp276
Rp277
(dp278
g106
Nsg107
I00
sg108
g241
sg101
Nsbsg99
g100
sg114
F399.0036412878605
sg101
g92
(g102
g94
Ntp279
Rp280
(dp281
g106
Nsg107
I00
sg108
g245
sg101
Nsbsg107
I01
sbsg107
I01
sbsg115
(lp282
g268
ag274
ag280
ag277
ag271
asg117
I5
sbag265
ag265
ag265
ag265
ag265
ag265
ag265
ag265
ag265
ag265
ag265
ag265
ag265
ag265
ag265
ag265
ag265
ag265
ag265
ag265
ag265
ag265
ag265
ag265
ag265
a(itree
PTree
p283
(dp284
g91
g92
(g93
g94
Ntp285
Rp286
(dp287
g98
I1
sg106
g92
(g102
g94
Ntp288
Rp289
(dp290
g106
Nsg107
I00
sg108
g234
sg101
Nsbsg99
g127
sg114
F158.8674472227776
sg101
g92
(g93
g94
Ntp291
Rp292
(dp293
g98
I0
sg106
g92
(g102
g94
Ntp294
Rp295
(dp296
g106
Nsg107
I00
sg108
g241
sg101
Nsbsg99
g100
sg114
F371.97266193783787
sg101
g92
(g102
g94
Ntp297
Rp298
(dp299
g106
Nsg107
I00
sg108
g245
sg101
Nsbsg107
I01
sbsg107
I01
sbsg115
(lp300
g286
ag292
ag298
ag295
ag289
asg117
I5
sbag283
ag283
ag283
ag283
ag283
ag283
ag283
ag283
ag283
ag283
ag283
ag283
ag283
ag283
ag283
ag283
ag283
ag283
ag283
ag283
ag283
ag283
ag283
ag283
ag283
ag283
ag283
ag283
ag283
ag283
ag283
ag283
ag283
ag283
ag283
ag283
ag283
ag283
ag283
ag283
ag283
ag283
ag283
ag283
ag283
ag283
ag283
ag283
a(itree
PTree
p301
(dp302
g91
g92
(g93
g94
Ntp303
Rp304
(dp305
g98
I1
sg106
g92
(g102
g94
Ntp306
Rp307
(dp308
g106
Nsg107
I00
sg108
g234
sg101
Nsbsg99
g127
sg114
F158.8674472227776
sg101
g92
(g93
g94
Ntp309
Rp310
(dp311
g98
I0
sg106
g92
(g102
g94
Ntp312
Rp313
(dp314
g106
Nsg107
I00
sg108
g241
sg101
Nsbsg99
g100
sg114
F395.9245328300027
sg101
g92
(g102
g94
Ntp315
Rp316
(dp317
g106
Nsg107
I00
sg108
g245
sg101
Nsbsg107
I01
sbsg107
I01
sbsg115
(lp318
g304
ag310
ag316
ag313
ag307
asg117
I5
sbag301
ag301
a(itree
PTree
p319
(dp320
g91
g92
(g93
g94
Ntp321
Rp322
(dp323
g98
I1
sg106
g92
(g102
g94
Ntp324
Rp325
(dp326
g106
Nsg107
I00
sg108
S'Hedge_90'
p327
sg101
Nsbsg99
g127
sg114
F142.94635968793165
sg101
g92
(g93
g94
Ntp328
Rp329
(dp330
g98
I0
sg106
g92
(g102
g94
Ntp331
Rp332
(dp333
g106
Nsg107
I00
sg108
g241
sg101
Nsbsg99
g100
sg114
F417.02576713952425
sg101
g92
(g102
g94
Ntp334
Rp335
(dp336
g106
Nsg107
I00
sg108
S'Hedge_50'
p337
sg101
Nsbsg107
I01
sbsg107
I01
sbsg115
(lp338
g322
ag329
ag335
ag332
ag325
asg117
I5
sbag319
ag319
ag319
ag319
ag319
ag319
ag319
ag319
a(itree
PTree
p339
(dp340
g91
g92
(g93
g94
Ntp341
Rp342
(dp343
g98
I1
sg106
g92
(g102
g94
Ntp344
Rp345
(dp346
g106
Nsg107
I00
sg108
S'Release_Demand'
p347
sg101
Nsbsg99
g127
sg114
F154.24108462816667
sg101
g92
(g93
g94
Ntp348
Rp349
(dp350
g98
I0
sg106
g92
(g102
g94
Ntp351
Rp352
(dp353
g106
Nsg107
I00
sg108
S'Flood_Control'
p354
sg101
Nsbsg99
g100
sg114
F354.77775613370534
sg101
g92
(g102
g94
Ntp355
Rp356
(dp357
g106
Nsg107
I00
sg108
S'Hedge_90'
p358
sg101
Nsbsg107
I01
sbsg107
I01
sbsg115
(lp359
g342
ag349
ag356
ag352
ag345
asg117
I5
sbag339
a(itree
PTree
p360
(dp361
g91
g92
(g93
g94
Ntp362
Rp363
(dp364
g98
I1
sg106
g92
(g102
g94
Ntp365
Rp366
(dp367
g106
Nsg107
I00
sg108
g347
sg101
Nsbsg99
g127
sg114
F166.98510409171934
sg101
g92
(g93
g94
Ntp368
Rp369
(dp370
g98
I0
sg106
g92
(g102
g94
Ntp371
Rp372
(dp373
g106
Nsg107
I00
sg108
g354
sg101
Nsbsg99
g100
sg114
F383.9521622979836
sg101
g92
(g102
g94
Ntp374
Rp375
(dp376
g106
Nsg107
I00
sg108
g358
sg101
Nsbsg107
I01
sbsg107
I01
sbsg115
(lp377
g363
ag369
ag375
ag372
ag366
asg117
I5
sbag360
ag360
ag360
a(itree
PTree
p378
(dp379
g91
g92
(g93
g94
Ntp380
Rp381
(dp382
g98
I1
sg106
g92
(g102
g94
Ntp383
Rp384
(dp385
g106
Nsg107
I00
sg108
S'Hedge_90'
p386
sg101
Nsbsg99
g127
sg114
F165.93775110003338
sg101
g92
(g93
g94
Ntp387
Rp388
(dp389
g98
I0
sg106
g92
(g102
g94
Ntp390
Rp391
(dp392
g106
Nsg107
I00
sg108
g241
sg101
Nsbsg99
g100
sg114
F417.02576713952425
sg101
g92
(g102
g94
Ntp393
Rp394
(dp395
g106
Nsg107
I00
sg108
S'Hedge_80'
p396
sg101
Nsbsg107
I01
sbsg107
I01
sbsg115
(lp397
g381
ag388
ag394
ag391
ag384
asg117
I5
sbag378
ag378
ag378
ag378
ag378
ag378
ag378
ag378
ag378
ag378
ag378
ag378
ag378
ag378
ag378
ag378
a(itree
PTree
p398
(dp399
g91
g92
(g93
g94
Ntp400
Rp401
(dp402
g98
I1
sg106
g92
(g102
g94
Ntp403
Rp404
(dp405
g106
Nsg107
I00
sg108
S'Hedge_90'
p406
sg101
Nsbsg99
g127
sg114
F172.3376410542738
sg101
g92
(g93
g94
Ntp407
Rp408
(dp409
g98
I0
sg106
g92
(g102
g94
Ntp410
Rp411
(dp412
g106
Nsg107
I00
sg108
S'Flood_Control'
p413
sg101
Nsbsg99
g100
sg114
F409.8811580798697
sg101
g92
(g102
g94
Ntp414
Rp415
(dp416
g106
Nsg107
I00
sg108
S'Hedge_70'
p417
sg101
Nsbsg107
I01
sbsg107
I01
sbsg115
(lp418
g401
ag408
ag415
ag411
ag404
asg117
I5
sbag398
ag398
ag398
ag398
ag398
ag398
ag398
ag398
ag398
ag398
ag398
ag398
ag398
ag398
ag398
ag398
ag398
ag398
ag398
ag398
ag398
ag398
ag398
ag398
ag398
ag398
ag398
ag398
ag398
ag398
ag398
a(itree
PTree
p419
(dp420
g91
g92
(g93
g94
Ntp421
Rp422
(dp423
g98
I1
sg106
g92
(g102
g94
Ntp424
Rp425
(dp426
g106
Nsg107
I00
sg108
g406
sg101
Nsbsg99
g127
sg114
F171.94709856135114
sg101
g92
(g93
g94
Ntp427
Rp428
(dp429
g98
I0
sg106
g92
(g102
g94
Ntp430
Rp431
(dp432
g106
Nsg107
I00
sg108
g413
sg101
Nsbsg99
g100
sg114
F409.8811580798697
sg101
g92
(g102
g94
Ntp433
Rp434
(dp435
g106
Nsg107
I00
sg108
g417
sg101
Nsbsg107
I01
sbsg107
I01
sbsg115
(lp436
g422
ag428
ag434
ag431
ag425
asg117
I5
sbag419
ag419
ag419
ag419
ag419
ag419
ag419
ag419
ag419
ag419
ag419
ag419
ag419
ag419
ag419
ag419
ag419
ag419
ag419
ag419
ag419
ag419
ag419
ag419
ag419
ag419
ag419
ag419
ag419
ag419
a(itree
PTree
p437
(dp438
g91
g92
(g93
g94
Ntp439
Rp440
(dp441
g98
I1
sg106
g92
(g102
g94
Ntp442
Rp443
(dp444
g106
Nsg107
I00
sg108
S'Hedge_90'
p445
sg101
Nsbsg99
g127
sg114
F126.90304838875763
sg101
g92
(g93
g94
Ntp446
Rp447
(dp448
g98
I0
sg106
g92
(g102
g94
Ntp449
Rp450
(dp451
g106
Nsg107
I00
sg108
g354
sg101
Nsbsg99
g100
sg114
F424.5626852362436
sg101
g92
(g102
g94
Ntp452
Rp453
(dp454
g106
Nsg107
I00
sg108
S'Hedge_70'
p455
sg101
Nsbsg107
I01
sbsg107
I01
sbsg115
(lp456
g440
ag447
ag453
ag450
ag443
asg117
I5
sbag437
ag437
ag437
ag437
ag437
ag437
ag437
ag437
ag437
ag437
ag437
ag437
ag437
ag437
ag437
ag437
ag437
ag437
ag437
ag437
ag437
ag437
ag437
ag437
ag437
ag437
ag437
ag437
ag437
ag437
ag437
ag437
ag437
ag437
ag437
ag437
ag437
ag437
ag437
ag437
ag437
ag437
ag437
ag437
ag437
ag437
ag437
ag437
ag437
ag437
ag437
ag437
ag437
ag437
ag437
ag437
ag437
ag437
ag437
ag437
ag437
ag437
ag437
ag437
ag437
ag437
ag437
ag437
ag437
ag437
ag437
ag437
ag437
ag437
ag437
ag437
ag437
ag437
ag437
ag437
ag437
ag437
ag437
ag437
ag437
ag437
ag437
ag437
ag437
ag437
ag437
ag437
ag437
ag437
ag437
ag437
ag437
ag437
ag437
ag437
ag437
ag437
ag437
ag437
ag437
ag437
ag437
ag437
ag437
ag437
a(itree
PTree
p457
(dp458
g91
g92
(g93
g94
Ntp459
Rp460
(dp461
g98
I1
sg106
g92
(g102
g94
Ntp462
Rp463
(dp464
g106
Nsg107
I00
sg108
g406
sg101
Nsbsg99
g127
sg114
F171.94709856135114
sg101
g92
(g93
g94
Ntp465
Rp466
(dp467
g98
I0
sg106
g92
(g102
g94
Ntp468
Rp469
(dp470
g106
Nsg107
I00
sg108
g413
sg101
Nsbsg99
g100
sg114
F425.25655264963825
sg101
g92
(g102
g94
Ntp471
Rp472
(dp473
g106
Nsg107
I00
sg108
g417
sg101
Nsbsg107
I01
sbsg107
I01
sbsg115
(lp474
g460
ag466
ag472
ag469
ag463
asg117
I5
sbag457
ag457
a(itree
PTree
p475
(dp476
g91
g92
(g93
g94
Ntp477
Rp478
(dp479
g98
I1
sg106
g92
(g102
g94
Ntp480
Rp481
(dp482
g106
Nsg107
I00
sg108
S'Hedge_90'
p483
sg101
Nsbsg99
g127
sg114
F170.2522912110557
sg101
g92
(g93
g94
Ntp484
Rp485
(dp486
g98
I1
sg106
g92
(g102
g94
Ntp487
Rp488
(dp489
g106
Nsg107
I00
sg108
S'Hedge_80'
p490
sg101
Nsbsg99
g127
sg114
F281.7854176972714
sg101
g92
(g93
g94
Ntp491
Rp492
(dp493
g98
I0
sg106
g92
(g102
g94
Ntp494
Rp495
(dp496
g106
Nsg107
I00
sg108
S'Flood_Control'
p497
sg101
Nsbsg99
g100
sg114
F421.7948402817512
sg101
g92
(g102
g94
Ntp498
Rp499
(dp500
g106
Nsg107
I00
sg108
S'Hedge_70'
p501
sg101
Nsbsg107
I01
sbsg107
I01
sbsg107
I01
sbsg115
(lp502
g478
ag485
ag492
ag499
ag495
ag488
ag481
asg117
I7
sbag475
ag475
ag475
ag475
ag475
ag475
ag475
ag475
ag475
ag475
ag475
ag475
ag475
ag475
ag475
ag475
ag475
ag475
ag475
ag475
ag475
ag475
ag475
ag475
ag475
ag475
ag475
ag475
ag475
ag475
a(itree
PTree
p503
(dp504
g91
g92
(g93
g94
Ntp505
Rp506
(dp507
g98
I1
sg106
g92
(g102
g94
Ntp508
Rp509
(dp510
g106
Nsg107
I00
sg108
S'Release_Demand'
p511
sg101
Nsbsg99
g127
sg114
F115.60552767073524
sg101
g92
(g93
g94
Ntp512
Rp513
(dp514
g98
I1
sg106
g92
(g102
g94
Ntp515
Rp516
(dp517
g106
Nsg107
I00
sg108
S'Flood_Control'
p518
sg101
Nsbsg99
g127
sg114
F81.28589338392474
sg101
g92
(g93
g94
Ntp519
Rp520
(dp521
g98
I0
sg106
g92
(g102
g94
Ntp522
Rp523
(dp524
g106
Nsg107
I00
sg108
S'Hedge_90'
p525
sg101
Nsbsg99
g100
sg114
F422.46407957658323
sg101
g92
(g102
g94
Ntp526
Rp527
(dp528
g106
Nsg107
I00
sg108
S'Hedge_50'
p529
sg101
Nsbsg107
I01
sbsg107
I01
sbsg107
I01
sbsg115
(lp530
g506
ag513
ag520
ag527
ag523
ag516
ag509
asg117
I7
sbag503
ag503
ag503
ag503
ag503
ag503
ag503
ag503
ag503
ag503
ag503
ag503
ag503
ag503
ag503
ag503
ag503
ag503
a(itree
PTree
p531
(dp532
g91
g92
(g93
g94
Ntp533
Rp534
(dp535
g98
I1
sg106
g92
(g102
g94
Ntp536
Rp537
(dp538
g106
Nsg107
I00
sg108
g511
sg101
Nsbsg99
g127
sg114
F94.47211503915142
sg101
g92
(g93
g94
Ntp539
Rp540
(dp541
g98
I1
sg106
g92
(g102
g94
Ntp542
Rp543
(dp544
g106
Nsg107
I00
sg108
g518
sg101
Nsbsg99
g127
sg114
F78.98692924971111
sg101
g92
(g93
g94
Ntp545
Rp546
(dp547
g98
I0
sg106
g92
(g102
g94
Ntp548
Rp549
(dp550
g106
Nsg107
I00
sg108
g525
sg101
Nsbsg99
g100
sg114
F428.2028288050541
sg101
g92
(g102
g94
Ntp551
Rp552
(dp553
g106
Nsg107
I00
sg108
g529
sg101
Nsbsg107
I01
sbsg107
I01
sbsg107
I01
sbsg115
(lp554
g534
ag540
ag546
ag552
ag549
ag543
ag537
asg117
I7
sbag531
ag531
ag531
ag531
ag531
ag531
ag531
ag531
ag531
ag531
ag531
ag531
ag531
ag531
ag531
ag531
ag531
ag531
ag531
ag531
ag531
ag531
ag531
asS'time'
p555
(lp556
I56
aI83
aI110
aI138
aI166
aI194
aI223
aI251
aI280
aI308
aI336
aI364
aI392
aI420
aI448
aI476
aI504
aI532
aI561
aI589
aI617
aI645
aI673
aI701
aI729
aI758
aI786
aI814
aI842
aI870
aI898
aI926
aI954
aI982
aI1010
aI1039
aI1067
aI1096
aI1124
aI1152
aI1180
aI1208
aI1236
aI1265
aI1293
aI1322
aI1350
aI1378
aI1407
aI1435
aI1463
aI1491
aI1520
aI1548
aI1576
aI1605
aI1633
aI1661
aI1690
aI1718
aI1746
aI1774
aI1803
aI1830
aI1859
aI1887
aI1915
aI1944
aI1972
aI2000
aI2029
aI2057
aI2085
aI2114
aI2142
aI2170
aI2199
aI2227
aI2255
aI2283
aI2312
aI2340
aI2368
aI2397
aI2425
aI2453
aI2481
aI2509
aI2538
aI2566
aI2595
aI2623
aI2652
aI2680
aI2708
aI2737
aI2765
aI2793
aI2822
aI2850
aI2878
aI2907
aI2935
aI2963
aI2991
aI3020
aI3048
aI3076
aI3104
aI3132
aI3160
aI3189
aI3217
aI3245
aI3274
aI3303
aI3331
aI3359
aI3388
aI3416
aI3444
aI3473
aI3501
aI3529
aI3557
aI3586
aI3614
aI3643
aI3671
aI3699
aI3728
aI3756
aI3784
aI3813
aI3841
aI3869
aI3897
aI3926
aI3954
aI3983
aI4011
aI4040
aI4068
aI4096
aI4125
aI4153
aI4182
aI4210
aI4238
aI4267
aI4295
aI4323
aI4352
aI4380
aI4408
aI4437
aI4465
aI4493
aI4522
aI4550
aI4578
aI4606
aI4635
aI4663
aI4691
aI4720
aI4749
aI4777
aI4805
aI4834
aI4862
aI4891
aI4919
aI4947
aI4976
aI5004
aI5033
aI5061
aI5089
aI5118
aI5146
aI5174
aI5203
aI5231
aI5259
aI5287
aI5316
aI5344
aI5373
aI5401
aI5429
aI5458
aI5486
aI5514
aI5542
aI5570
aI5598
aI5627
aI5655
aI5683
aI5711
aI5740
aI5768
aI5796
aI5825
aI5853
aI5881
aI5909
aI5938
aI5966
aI5994
aI6022
aI6051
aI6079
aI6107
aI6136
aI6164
aI6192
aI6220
aI6249
aI6277
aI6305
aI6334
aI6362
aI6390
aI6418
aI6446
aI6475
aI6503
aI6531
aI6560
aI6587
aI6615
aI6644
aI6672
aI6701
aI6730
aI6758
aI6786
aI6815
aI6843
aI6871
aI6900
aI6929
aI6957
aI6985
aI7014
aI7042
aI7070
aI7099
aI7127
aI7156
aI7185
aI7214
aI7243
aI7272
aI7300
aI7329
aI7357
aI7386
aI7414
aI7443
aI7472
aI7501
aI7529
aI7558
aI7587
aI7615
aI7643
aI7672
aI7701
aI7729
aI7758
aI7787
aI7815
aI7844
aI7872
aI7901
aI7929
aI7958
aI7986
aI8015
aI8043
aI8072
aI8101
aI8129
aI8158
aI8187
aI8215
aI8243
aI8271
aI8300
aI8329
aI8358
aI8386
aI8415
aI8443
aI8471
aI8500
aI8529
aI8557
aI8586
aI8614
aI8643
aI8672
aI8701
aI8729
aI8758
aI8787
aI8815
aI8844
aI8872
aI8901
aI8929
aI8958
aI8986
aI9015
aI9043
aI9072
aI9101
aI9129
aI9158
aI9186
aI9215
aI9243
aI9272
aI9301
aI9330
aI9358
aI9387
aI9416
aI9445
aI9474
aI9502
aI9531
aI9559
aI9587
aI9616
aI9645
aI9673
aI9702
aI9731
aI9759
aI9788
aI9817
aI9845
aI9875
aI9903
aI9932
aI9961
aI9989
aI10018
aI10047
aI10075
aI10104
aI10133
aI10162
aI10190
aI10219
aI10248
aI10276
aI10305
aI10334
aI10363
aI10392
aI10420
aI10448
aI10477
aI10506
aI10534
aI10563
aI10591
aI10620
aI10648
aI10677
aI10706
aI10734
aI10763
aI10792
aI10820
aI10848
aI10877
aI10905
aI10934
aI10962
aI10991
aI11020
aI11048
aI11076
aI11105
aI11134
aI11162
aI11190
aI11219
aI11248
aI11276
aI11305
aI11334
aI11363
aI11392
aI11420
aI11448
aI11477
aI11506
aI11535
aI11563
aI11592
aI11620
aI11648
aI11677
aI11705
aI11734
aI11763
aI11792
aI11820
aI11849
aI11878
aI11906
aI11935
aI11963
aI11992
aI12021
aI12049
aI12077
aI12107
aI12135
aI12163
aI12191
aI12221
aI12249
aI12278
aI12307
aI12335
aI12363
aI12392
aI12421
aI12450
aI12478
aI12507
aI12536
aI12565
aI12594
aI12622
aI12651
aI12680
aI12709
aI12737
aI12767
aI12795
aI12824
aI12853
aI12882
aI12910
aI12939
aI12968
aI12996
aI13025
aI13054
aI13083
aI13112
aI13141
aI13169
aI13198
aI13227
aI13255
aI13284
aI13313
aI13342
aI13370
aI13399
aI13428
aI13456
aI13485
aI13513
aI13542
aI13571
aI13600
aI13629
aI13657
aI13686
aI13714
aI13743
aI13771
aI13800
aI13828
aI13857
aI13886
aI13914
aI13943
aI13973
aI14001
aI14029
aI14058
aI14087
aI14115
aI14144
aI14173
aI14201
aI14230
aI14259
as.