(dp0
S'nfe'
p1
(lp2
I50
aI100
aI150
aI200
aI250
aI300
aI350
aI400
aI450
aI500
aI550
aI600
aI650
aI700
aI750
aI800
aI850
aI900
aI950
aI1000
aI1050
aI1100
aI1150
aI1200
aI1250
aI1300
aI1350
aI1400
aI1450
aI1500
aI1550
aI1600
aI1650
aI1700
aI1750
aI1800
aI1850
aI1900
aI1950
aI2000
aI2050
aI2100
aI2150
aI2200
aI2250
aI2300
aI2350
aI2400
aI2450
aI2500
aI2550
aI2600
aI2650
aI2700
aI2750
aI2800
aI2850
aI2900
aI2950
aI3000
aI3050
aI3100
aI3150
aI3200
aI3250
aI3300
aI3350
aI3400
aI3450
aI3500
aI3550
aI3600
aI3650
aI3700
aI3750
aI3800
aI3850
aI3900
aI3950
aI4000
aI4050
aI4100
aI4150
aI4200
aI4250
aI4300
aI4350
aI4400
aI4450
aI4500
aI4550
aI4600
aI4650
aI4700
aI4750
aI4800
aI4850
aI4900
aI4950
aI5000
aI5050
aI5100
aI5150
aI5200
aI5250
aI5300
aI5350
aI5400
aI5450
aI5500
aI5550
aI5600
aI5650
aI5700
aI5750
aI5800
aI5850
aI5900
aI5950
aI6000
aI6050
aI6100
aI6150
aI6200
aI6250
aI6300
aI6350
aI6400
aI6450
aI6500
aI6550
aI6600
aI6650
aI6700
aI6750
aI6800
aI6850
aI6900
aI6950
aI7000
aI7050
aI7100
aI7150
aI7200
aI7250
aI7300
aI7350
aI7400
aI7450
aI7500
aI7550
aI7600
aI7650
aI7700
aI7750
aI7800
aI7850
aI7900
aI7950
aI8000
aI8050
aI8100
aI8150
aI8200
aI8250
aI8300
aI8350
aI8400
aI8450
aI8500
aI8550
aI8600
aI8650
aI8700
aI8750
aI8800
aI8850
aI8900
aI8950
aI9000
aI9050
aI9100
aI9150
aI9200
aI9250
aI9300
aI9350
aI9400
aI9450
aI9500
aI9550
aI9600
aI9650
aI9700
aI9750
aI9800
aI9850
aI9900
aI9950
aI10000
aI10050
aI10100
aI10150
aI10200
aI10250
aI10300
aI10350
aI10400
aI10450
aI10500
aI10550
aI10600
aI10650
aI10700
aI10750
aI10800
aI10850
aI10900
aI10950
aI11000
aI11050
aI11100
aI11150
aI11200
aI11250
aI11300
aI11350
aI11400
aI11450
aI11500
aI11550
aI11600
aI11650
aI11700
aI11750
aI11800
aI11850
aI11900
aI11950
aI12000
aI12050
aI12100
aI12150
aI12200
aI12250
aI12300
aI12350
aI12400
aI12450
aI12500
aI12550
aI12600
aI12650
aI12700
aI12750
aI12800
aI12850
aI12900
aI12950
aI13000
aI13050
aI13100
aI13150
aI13200
aI13250
aI13300
aI13350
aI13400
aI13450
aI13500
aI13550
aI13600
aI13650
aI13700
aI13750
aI13800
aI13850
aI13900
aI13950
aI14000
aI14050
aI14100
aI14150
aI14200
aI14250
aI14300
aI14350
aI14400
aI14450
aI14500
aI14550
aI14600
aI14650
aI14700
aI14750
aI14800
aI14850
aI14900
aI14950
aI15000
aI15050
aI15100
aI15150
aI15200
aI15250
aI15300
aI15350
aI15400
aI15450
aI15500
aI15550
aI15600
aI15650
aI15700
aI15750
aI15800
aI15850
aI15900
aI15950
aI16000
aI16050
aI16100
aI16150
aI16200
aI16250
aI16300
aI16350
aI16400
aI16450
aI16500
aI16550
aI16600
aI16650
aI16700
aI16750
aI16800
aI16850
aI16900
aI16950
aI17000
aI17050
aI17100
aI17150
aI17200
aI17250
aI17300
aI17350
aI17400
aI17450
aI17500
aI17550
aI17600
aI17650
aI17700
aI17750
aI17800
aI17850
aI17900
aI17950
aI18000
aI18050
aI18100
aI18150
aI18200
aI18250
aI18300
aI18350
aI18400
aI18450
aI18500
aI18550
aI18600
aI18650
aI18700
aI18750
aI18800
aI18850
aI18900
aI18950
aI19000
aI19050
aI19100
aI19150
aI19200
aI19250
aI19300
aI19350
aI19400
aI19450
aI19500
aI19550
aI19600
aI19650
aI19700
aI19750
aI19800
aI19850
aI19900
aI19950
aI20000
aI20050
aI20100
aI20150
aI20200
aI20250
aI20300
aI20350
aI20400
aI20450
aI20500
aI20550
aI20600
aI20650
aI20700
aI20750
aI20800
aI20850
aI20900
aI20950
aI21000
aI21050
aI21100
aI21150
aI21200
aI21250
aI21300
aI21350
aI21400
aI21450
aI21500
aI21550
aI21600
aI21650
aI21700
aI21750
aI21800
aI21850
aI21900
aI21950
aI22000
aI22050
aI22100
aI22150
aI22200
aI22250
aI22300
aI22350
aI22400
aI22450
aI22500
aI22550
aI22600
aI22650
aI22700
aI22750
aI22800
aI22850
aI22900
aI22950
aI23000
aI23050
aI23100
aI23150
aI23200
aI23250
aI23300
aI23350
aI23400
aI23450
aI23500
aI23550
aI23600
aI23650
aI23700
aI23750
aI23800
aI23850
aI23900
aI23950
aI24000
aI24050
aI24100
aI24150
aI24200
aI24250
aI24300
aI24350
aI24400
aI24450
aI24500
aI24550
aI24600
aI24650
aI24700
aI24750
aI24800
aI24850
aI24900
aI24950
aI25000
asS'best_f'
p3
(lp4
cnumpy.core.multiarray
scalar
p5
(cnumpy
dtype
p6
(S'f8'
p7
I0
I1
tp8
Rp9
(I3
S'<'
p10
NNNI-1
I-1
I0
tp11
bS'\xd4\xcc\x0e\xdf\xdc\xfa\xdf?'
p12
tp13
Rp14
ag14
ag14
ag14
ag5
(g9
S'=\xd5\x87\xf9\xf6\xe1\xdf?'
p15
tp16
Rp17
ag5
(g9
S'\xf9\xaf\x16\xc3g\xad\xdf?'
p18
tp19
Rp20
ag20
ag20
ag5
(g9
S'\t\xe1\xb6E\xf1\xd4\xd9?'
p21
tp22
Rp23
ag5
(g9
S'\x0c?EG\\\x9e\xd5?'
p24
tp25
Rp26
ag5
(g9
S"\x8aY\x8e\xab'\xc2\xd4?"
p27
tp28
Rp29
ag29
ag5
(g9
S'\x1b\x8da\xb4\x96\xf7\xd3?'
p30
tp31
Rp32
ag32
ag32
ag32
ag32
ag32
ag32
ag32
ag32
ag32
ag32
ag5
(g9
S'\x16S\x8f\xe8ev\xd3?'
p33
tp34
Rp35
ag35
ag35
ag35
ag35
ag35
ag35
ag35
ag5
(g9
S'\xca<5\xe3\x06\xe1\xd1?'
p36
tp37
Rp38
ag38
ag38
ag38
ag38
ag38
ag38
ag38
ag38
ag38
ag38
ag38
ag38
ag5
(g9
S'\xe5\xb0\xd0\xc3?\xdb\xd0?'
p39
tp40
Rp41
ag41
ag41
ag41
ag41
ag41
ag41
ag41
ag41
ag41
ag41
ag41
ag41
ag41
ag41
ag41
ag41
ag41
ag41
ag41
ag41
ag41
ag41
ag41
ag41
ag41
ag41
ag41
ag41
ag41
ag41
ag41
ag41
ag41
ag41
ag41
ag41
ag41
ag41
ag5
(g9
S'd\xef\xc2\xde\xc1E\xce?'
p42
tp43
Rp44
ag44
ag44
ag44
ag44
ag44
ag44
ag44
ag44
ag44
ag44
ag44
ag44
ag44
ag44
ag44
ag44
ag5
(g9
S'\xda\xbf\xf4\xcbL\x8e\xc9?'
p45
tp46
Rp47
ag47
ag47
ag47
ag47
ag47
ag5
(g9
S'mI\x19\x87\xdcA\xc9?'
p48
tp49
Rp50
ag50
ag50
ag50
ag50
ag50
ag50
ag50
ag50
ag50
ag50
ag50
ag50
ag50
ag50
ag50
ag50
ag50
ag50
ag50
ag50
ag50
ag5
(g9
S'\xf08\xf2K\x01\x0b\xc9?'
p51
tp52
Rp53
ag53
ag53
ag53
ag53
ag53
ag53
ag53
ag53
ag53
ag53
ag53
ag53
ag53
ag53
ag53
ag53
ag53
ag53
ag53
ag53
ag53
ag53
ag53
ag53
ag53
ag53
ag53
ag53
ag53
ag53
ag53
ag53
ag53
ag53
ag53
ag53
ag53
ag53
ag53
ag53
ag53
ag53
ag53
ag53
ag53
ag53
ag53
ag53
ag53
ag53
ag53
ag53
ag53
ag53
ag53
ag53
ag53
ag53
ag53
ag53
ag53
ag53
ag53
ag53
ag53
ag53
ag53
ag53
ag53
ag53
ag53
ag53
ag5
(g9
S"\xc5\x96h'\x8cl\xc8?"
p54
tp55
Rp56
ag56
ag56
ag56
ag56
ag56
ag56
ag56
ag56
ag56
ag56
ag56
ag56
ag56
ag56
ag5
(g9
S'\xfc\xd9\x99\xd75Y\xc8?'
p57
tp58
Rp59
ag59
ag59
ag59
ag59
ag59
ag59
ag59
ag59
ag59
ag59
ag59
ag59
ag59
ag5
(g9
S'\x1f\xed/\xb8\x00\xc4\xc7?'
p60
tp61
Rp62
ag62
ag62
ag62
ag62
ag62
ag62
ag62
ag62
ag62
ag62
ag62
ag62
ag62
ag62
ag5
(g9
S'r\xc0\xad\xc9\x8b\x01\xc6?'
p63
tp64
Rp65
ag65
ag65
ag65
ag65
ag65
ag65
ag65
ag65
ag65
ag65
ag65
ag65
ag65
ag65
ag65
ag65
ag65
ag65
ag65
ag65
ag65
ag65
ag65
ag65
ag65
ag65
ag65
ag65
ag65
ag65
ag65
ag65
ag65
ag65
ag65
ag65
ag5
(g9
S'f\xbb\x9e\xfe\xc3T\xc5?'
p66
tp67
Rp68
ag68
ag68
ag68
ag68
ag68
ag68
ag68
ag68
ag68
ag68
ag68
ag68
ag68
ag68
ag68
ag68
ag68
ag68
ag68
ag68
ag68
ag68
ag68
ag68
ag68
ag68
ag68
ag68
ag68
ag68
ag68
ag68
ag68
ag68
ag68
ag68
ag68
ag68
ag68
ag68
ag68
ag68
ag68
ag68
ag68
ag68
ag68
ag68
ag68
ag68
ag68
ag68
ag68
ag68
ag68
ag68
ag68
ag68
ag68
ag68
ag68
ag68
ag68
ag68
ag68
ag68
ag68
ag68
ag68
ag68
ag68
ag68
ag68
ag68
ag68
ag68
ag68
ag68
ag68
ag68
ag68
ag68
ag68
ag68
ag68
ag68
ag68
ag68
ag68
ag68
ag68
ag68
ag68
ag68
ag68
ag68
ag68
ag68
ag68
ag68
ag68
ag68
ag68
ag68
ag68
ag68
ag68
ag68
ag68
ag68
ag68
ag68
ag68
ag68
ag68
ag68
ag68
ag68
ag68
ag68
ag68
ag68
ag68
ag68
ag68
ag68
ag68
ag68
ag68
ag68
ag68
ag68
ag68
ag68
ag68
ag68
ag68
ag68
ag68
ag68
ag68
ag68
ag68
ag68
ag68
ag68
ag68
ag68
ag68
ag68
ag68
ag68
ag68
ag68
ag68
ag68
ag68
ag68
ag68
ag68
ag68
ag68
ag68
ag68
ag68
ag68
ag68
ag68
ag68
ag68
ag68
ag68
ag68
ag68
ag68
ag68
ag68
ag68
ag68
ag68
ag68
ag68
ag68
ag68
ag68
ag68
ag68
ag68
ag68
ag68
ag68
ag68
ag68
ag68
ag68
ag68
ag68
ag68
ag68
ag68
ag68
ag68
ag68
ag68
ag68
ag68
ag68
ag68
ag68
ag68
ag68
ag68
ag68
ag68
ag68
ag68
ag68
asS'best_P'
p69
(lp70
(itree
PTree
p71
(dp72
S'root'
p73
ccopy_reg
_reconstructor
p74
(ctree
Feature
p75
c__builtin__
object
p76
Ntp77
Rp78
(dp79
S'index'
p80
I0
sS'name'
p81
S'Storage'
p82
sS'l'
p83
g74
(g75
g76
Ntp84
Rp85
(dp86
g80
I1
sg81
S'Day'
p87
sg83
g74
(ctree
Action
p88
g76
Ntp89
Rp90
(dp91
S'r'
p92
NsS'is_feature'
p93
I00
sS'value'
p94
S'Flood_Control'
p95
sg83
Nsbsg92
g74
(g75
g76
Ntp96
Rp97
(dp98
g80
I1
sg81
g87
sg83
g74
(g88
g76
Ntp99
Rp100
(dp101
g92
Nsg93
I00
sg94
S'Release_Demand'
p102
sg83
Nsbsg92
g74
(g88
g76
Ntp103
Rp104
(dp105
g92
Nsg93
I00
sg94
S'Hedge_90'
p106
sg83
NsbsS'threshold'
p107
F170.28210886237017
sg93
I01
sbsg107
F130.27522780561952
sg93
I01
sbsg92
g74
(g75
g76
Ntp108
Rp109
(dp110
g80
I1
sg81
g87
sg83
g74
(g88
g76
Ntp111
Rp112
(dp113
g92
Nsg93
I00
sg94
S'Release_Demand'
p114
sg83
Nsbsg92
g74
(g88
g76
Ntp115
Rp116
(dp117
g92
Nsg93
I00
sg94
S'Flood_Control'
p118
sg83
Nsbsg107
F335.84110383654564
sg93
I01
sbsg107
F668.1286762183994
sg93
I01
sbsS'L'
p119
(lp120
g78
ag85
ag90
ag97
ag100
ag104
ag109
ag112
ag116
asS'N'
p121
I9
sbag71
ag71
ag71
a(itree
PTree
p122
(dp123
g73
g74
(g75
g76
Ntp124
Rp125
(dp126
g80
I1
sg92
g74
(g88
g76
Ntp127
Rp128
(dp129
g92
Nsg93
I00
sg94
S'Hedge_90'
p130
sg83
Nsbsg81
g87
sg107
F101.33858688291953
sg83
g74
(g88
g76
Ntp131
Rp132
(dp133
g92
Nsg93
I00
sg94
S'Flood_Control'
p134
sg83
Nsbsg93
I01
sbsg119
(lp135
g125
ag132
ag128
asg121
I3
sba(itree
PTree
p136
(dp137
g73
g74
(g75
g76
Ntp138
Rp139
(dp140
g80
I1
sg92
g74
(g88
g76
Ntp141
Rp142
(dp143
g92
Nsg93
I00
sg94
S'Hedge_90'
p144
sg83
Nsbsg81
g87
sg107
F110.54337595074193
sg83
g74
(g88
g76
Ntp145
Rp146
(dp147
g92
Nsg93
I00
sg94
S'Flood_Control'
p148
sg83
Nsbsg93
I01
sbsg119
(lp149
g139
ag146
ag142
asg121
I3
sbag136
ag136
a(itree
PTree
p150
(dp151
g73
g74
(g75
g76
Ntp152
Rp153
(dp154
g80
I1
sg92
g74
(g75
g76
Ntp155
Rp156
(dp157
g80
I1
sg92
g74
(g88
g76
Ntp158
Rp159
(dp160
g92
Nsg93
I00
sg94
S'Hedge_90'
p161
sg83
Nsbsg81
g87
sg107
F102.0119962732289
sg83
g74
(g88
g76
Ntp162
Rp163
(dp164
g92
Nsg93
I00
sg94
S'Flood_Control'
p165
sg83
Nsbsg93
I01
sbsg81
g87
sg107
F17.97410701021617
sg83
g74
(g88
g76
Ntp166
Rp167
(dp168
g92
Nsg93
I00
sg94
S'Hedge_80'
p169
sg83
Nsbsg93
I01
sbsg119
(lp170
g153
ag167
ag156
ag163
ag159
asg121
I5
sba(itree
PTree
p171
(dp172
g73
g74
(g75
g76
Ntp173
Rp174
(dp175
g80
I1
sg92
g74
(g75
g76
Ntp176
Rp177
(dp178
g80
I1
sg92
g74
(g88
g76
Ntp179
Rp180
(dp181
g92
Nsg93
I00
sg94
g161
sg83
Nsbsg81
g87
sg107
F102.0119962732289
sg83
g74
(g88
g76
Ntp182
Rp183
(dp184
g92
Nsg93
I00
sg94
g165
sg83
Nsbsg93
I01
sbsg81
g87
sg107
F45.0911551485145
sg83
g74
(g88
g76
Ntp185
Rp186
(dp187
g92
Nsg93
I00
sg94
g169
sg83
Nsbsg93
I01
sbsg119
(lp188
g174
ag186
ag177
ag183
ag180
asg121
I5
sba(itree
PTree
p189
(dp190
g73
g74
(g75
g76
Ntp191
Rp192
(dp193
g80
I1
sg92
g74
(g75
g76
Ntp194
Rp195
(dp196
g80
I1
sg92
g74
(g88
g76
Ntp197
Rp198
(dp199
g92
Nsg93
I00
sg94
g161
sg83
Nsbsg81
g87
sg107
F98.36551562187036
sg83
g74
(g88
g76
Ntp200
Rp201
(dp202
g92
Nsg93
I00
sg94
g165
sg83
Nsbsg93
I01
sbsg81
g87
sg107
F44.02825398860395
sg83
g74
(g88
g76
Ntp203
Rp204
(dp205
g92
Nsg93
I00
sg94
g169
sg83
Nsbsg93
I01
sbsg119
(lp206
g192
ag204
ag195
ag201
ag198
asg121
I5
sbag189
a(itree
PTree
p207
(dp208
g73
g74
(g75
g76
Ntp209
Rp210
(dp211
g80
I1
sg92
g74
(g75
g76
Ntp212
Rp213
(dp214
g80
I1
sg92
g74
(g88
g76
Ntp215
Rp216
(dp217
g92
Nsg93
I00
sg94
S'Hedge_90'
p218
sg83
Nsbsg81
g87
sg107
F98.36551562187036
sg83
g74
(g88
g76
Ntp219
Rp220
(dp221
g92
Nsg93
I00
sg94
S'Flood_Control'
p222
sg83
Nsbsg93
I01
sbsg81
g87
sg107
F55.197281482283316
sg83
g74
(g88
g76
Ntp223
Rp224
(dp225
g92
Nsg93
I00
sg94
S'Hedge_80'
p226
sg83
Nsbsg93
I01
sbsg119
(lp227
g210
ag224
ag213
ag220
ag216
asg121
I5
sbag207
ag207
ag207
ag207
ag207
ag207
ag207
ag207
ag207
ag207
a(itree
PTree
p228
(dp229
g73
g74
(g75
g76
Ntp230
Rp231
(dp232
g80
I1
sg92
g74
(g75
g76
Ntp233
Rp234
(dp235
g80
I1
sg92
g74
(g88
g76
Ntp236
Rp237
(dp238
g92
Nsg93
I00
sg94
g218
sg83
Nsbsg81
g87
sg107
F97.77353059349508
sg83
g74
(g88
g76
Ntp239
Rp240
(dp241
g92
Nsg93
I00
sg94
g222
sg83
Nsbsg93
I01
sbsg81
g87
sg107
F59.455115902924575
sg83
g74
(g88
g76
Ntp242
Rp243
(dp244
g92
Nsg93
I00
sg94
g226
sg83
Nsbsg93
I01
sbsg119
(lp245
g231
ag243
ag234
ag240
ag237
asg121
I5
sbag228
ag228
ag228
ag228
ag228
ag228
ag228
a(itree
PTree
p246
(dp247
g73
g74
(g75
g76
Ntp248
Rp249
(dp250
g80
I1
sg92
g74
(g75
g76
Ntp251
Rp252
(dp253
g80
I1
sg92
g74
(g88
g76
Ntp254
Rp255
(dp256
g92
Nsg93
I00
sg94
S'Release_Demand'
p257
sg83
Nsbsg81
g87
sg107
F92.46462510400629
sg83
g74
(g88
g76
Ntp258
Rp259
(dp260
g92
Nsg93
I00
sg94
S'Flood_Control'
p261
sg83
Nsbsg93
I01
sbsg81
g87
sg107
F75.86193473192021
sg83
g74
(g88
g76
Ntp262
Rp263
(dp264
g92
Nsg93
I00
sg94
S'Release_Demand'
p265
sg83
Nsbsg93
I01
sbsg119
(lp266
g249
ag263
ag252
ag259
ag255
asg121
I5
sbag246
ag246
ag246
ag246
ag246
ag246
ag246
ag246
ag246
ag246
ag246
ag246
a(itree
PTree
p267
(dp268
g73
g74
(g75
g76
Ntp269
Rp270
(dp271
g80
I1
sg92
g74
(g75
g76
Ntp272
Rp273
(dp274
g80
I1
sg92
g74
(g88
g76
Ntp275
Rp276
(dp277
g92
Nsg93
I00
sg94
g161
sg83
Nsbsg81
g87
sg107
F98.36551562187036
sg83
g74
(g88
g76
Ntp278
Rp279
(dp280
g92
Nsg93
I00
sg94
g165
sg83
Nsbsg93
I01
sbsg81
g87
sg107
F81.94993656581734
sg83
g74
(g88
g76
Ntp281
Rp282
(dp283
g92
Nsg93
I00
sg94
g169
sg83
Nsbsg93
I01
sbsg119
(lp284
g270
ag282
ag273
ag279
ag276
asg121
I5
sbag267
ag267
ag267
ag267
ag267
ag267
ag267
ag267
ag267
ag267
ag267
ag267
ag267
ag267
ag267
ag267
ag267
ag267
ag267
ag267
ag267
ag267
ag267
ag267
ag267
ag267
ag267
ag267
ag267
ag267
ag267
ag267
ag267
ag267
ag267
ag267
ag267
ag267
a(itree
PTree
p285
(dp286
g73
g74
(g75
g76
Ntp287
Rp288
(dp289
g80
I1
sg92
g74
(g75
g76
Ntp290
Rp291
(dp292
g80
I1
sg92
g74
(g88
g76
Ntp293
Rp294
(dp295
g92
Nsg93
I00
sg94
S'Hedge_90'
p296
sg83
Nsbsg81
g87
sg107
F109.63383424312612
sg83
g74
(g88
g76
Ntp297
Rp298
(dp299
g92
Nsg93
I00
sg94
S'Flood_Control'
p300
sg83
Nsbsg93
I01
sbsg81
g87
sg107
F75.29745020953929
sg83
g74
(g88
g76
Ntp301
Rp302
(dp303
g92
Nsg93
I00
sg94
S'Release_Demand'
p304
sg83
Nsbsg93
I01
sbsg119
(lp305
g288
ag302
ag291
ag298
ag294
asg121
I5
sbag285
ag285
ag285
ag285
ag285
ag285
ag285
ag285
ag285
ag285
ag285
ag285
ag285
ag285
ag285
ag285
a(itree
PTree
p306
(dp307
g73
g74
(g75
g76
Ntp308
Rp309
(dp310
g80
I1
sg92
g74
(g75
g76
Ntp311
Rp312
(dp313
g80
I1
sg92
g74
(g75
g76
Ntp314
Rp315
(dp316
g80
I1
sg92
g74
(g88
g76
Ntp317
Rp318
(dp319
g92
Nsg93
I00
sg94
g218
sg83
Nsbsg81
g87
sg107
F121.5441770486295
sg83
g74
(g88
g76
Ntp320
Rp321
(dp322
g92
Nsg93
I00
sg94
S'Hedge_80'
p323
sg83
Nsbsg93
I01
sbsg81
g87
sg107
F94.66832760460508
sg83
g74
(g88
g76
Ntp324
Rp325
(dp326
g92
Nsg93
I00
sg94
S'Flood_Control'
p327
sg83
Nsbsg93
I01
sbsg81
g87
sg107
F76.77586695106937
sg83
g74
(g88
g76
Ntp328
Rp329
(dp330
g92
Nsg93
I00
sg94
S'Release_Demand'
p331
sg83
Nsbsg93
I01
sbsg119
(lp332
g309
ag329
ag312
ag325
ag315
ag321
ag318
asg121
I7
sbag306
ag306
ag306
ag306
ag306
a(itree
PTree
p333
(dp334
g73
g74
(g75
g76
Ntp335
Rp336
(dp337
g80
I1
sg92
g74
(g75
g76
Ntp338
Rp339
(dp340
g80
I1
sg92
g74
(g75
g76
Ntp341
Rp342
(dp343
g80
I1
sg92
g74
(g88
g76
Ntp344
Rp345
(dp346
g92
Nsg93
I00
sg94
g218
sg83
Nsbsg81
g87
sg107
F100.35033318318304
sg83
g74
(g88
g76
Ntp347
Rp348
(dp349
g92
Nsg93
I00
sg94
g323
sg83
Nsbsg93
I01
sbsg81
g87
sg107
F94.66832760460508
sg83
g74
(g88
g76
Ntp350
Rp351
(dp352
g92
Nsg93
I00
sg94
g327
sg83
Nsbsg93
I01
sbsg81
g87
sg107
F75.54791163114159
sg83
g74
(g88
g76
Ntp353
Rp354
(dp355
g92
Nsg93
I00
sg94
g331
sg83
Nsbsg93
I01
sbsg119
(lp356
g336
ag354
ag339
ag351
ag342
ag348
ag345
asg121
I7
sbag333
ag333
ag333
ag333
ag333
ag333
ag333
ag333
ag333
ag333
ag333
ag333
ag333
ag333
ag333
ag333
ag333
ag333
ag333
ag333
ag333
a(itree
PTree
p357
(dp358
g73
g74
(g75
g76
Ntp359
Rp360
(dp361
g80
I1
sg92
g74
(g75
g76
Ntp362
Rp363
(dp364
g80
I1
sg92
g74
(g75
g76
Ntp365
Rp366
(dp367
g80
I1
sg92
g74
(g88
g76
Ntp368
Rp369
(dp370
g92
Nsg93
I00
sg94
g218
sg83
Nsbsg81
g87
sg107
F68.74131247628361
sg83
g74
(g88
g76
Ntp371
Rp372
(dp373
g92
Nsg93
I00
sg94
g323
sg83
Nsbsg93
I01
sbsg81
g87
sg107
F94.5041144508092
sg83
g74
(g88
g76
Ntp374
Rp375
(dp376
g92
Nsg93
I00
sg94
g327
sg83
Nsbsg93
I01
sbsg81
g87
sg107
F75.54791163114159
sg83
g74
(g88
g76
Ntp377
Rp378
(dp379
g92
Nsg93
I00
sg94
g331
sg83
Nsbsg93
I01
sbsg119
(lp380
g360
ag378
ag363
ag375
ag366
ag372
ag369
asg121
I7
sbag357
ag357
ag357
ag357
ag357
ag357
ag357
ag357
ag357
ag357
ag357
ag357
ag357
ag357
ag357
ag357
ag357
ag357
ag357
ag357
ag357
ag357
ag357
ag357
ag357
ag357
ag357
ag357
ag357
ag357
ag357
ag357
ag357
ag357
ag357
ag357
ag357
ag357
ag357
ag357
ag357
ag357
ag357
ag357
ag357
ag357
ag357
ag357
ag357
ag357
ag357
ag357
ag357
ag357
ag357
ag357
ag357
ag357
ag357
ag357
ag357
ag357
ag357
ag357
ag357
ag357
ag357
ag357
ag357
ag357
ag357
ag357
a(itree
PTree
p381
(dp382
g73
g74
(g75
g76
Ntp383
Rp384
(dp385
g80
I1
sg92
g74
(g75
g76
Ntp386
Rp387
(dp388
g80
I1
sg92
g74
(g75
g76
Ntp389
Rp390
(dp391
g80
I1
sg92
g74
(g88
g76
Ntp392
Rp393
(dp394
g92
Nsg93
I00
sg94
g218
sg83
Nsbsg81
g87
sg107
F73.42989794500865
sg83
g74
(g88
g76
Ntp395
Rp396
(dp397
g92
Nsg93
I00
sg94
g323
sg83
Nsbsg93
I01
sbsg81
g87
sg107
F94.5041144508092
sg83
g74
(g88
g76
Ntp398
Rp399
(dp400
g92
Nsg93
I00
sg94
g327
sg83
Nsbsg93
I01
sbsg81
g87
sg107
F77.21200511228646
sg83
g74
(g88
g76
Ntp401
Rp402
(dp403
g92
Nsg93
I00
sg94
g331
sg83
Nsbsg93
I01
sbsg119
(lp404
g384
ag402
ag387
ag399
ag390
ag396
ag393
asg121
I7
sbag381
ag381
ag381
ag381
ag381
ag381
ag381
ag381
ag381
ag381
ag381
ag381
ag381
ag381
a(itree
PTree
p405
(dp406
g73
g74
(g75
g76
Ntp407
Rp408
(dp409
g80
I1
sg92
g74
(g75
g76
Ntp410
Rp411
(dp412
g80
I1
sg92
g74
(g88
g76
Ntp413
Rp414
(dp415
g92
Nsg93
I00
sg94
S'Hedge_90'
p416
sg83
Nsbsg81
g87
sg107
F96.13712631471775
sg83
g74
(g88
g76
Ntp417
Rp418
(dp419
g92
Nsg93
I00
sg94
S'Flood_Control'
p420
sg83
Nsbsg93
I01
sbsg81
g87
sg107
F81.98995761388936
sg83
g74
(g88
g76
Ntp421
Rp422
(dp423
g92
Nsg93
I00
sg94
S'Hedge_90'
p424
sg83
Nsbsg93
I01
sbsg119
(lp425
g408
ag422
ag411
ag418
ag414
asg121
I5
sbag405
ag405
ag405
ag405
ag405
ag405
ag405
ag405
ag405
ag405
ag405
ag405
ag405
a(itree
PTree
p426
(dp427
g73
g74
(g75
g76
Ntp428
Rp429
(dp430
g80
I1
sg92
g74
(g75
g76
Ntp431
Rp432
(dp433
g80
I1
sg92
g74
(g75
g76
Ntp434
Rp435
(dp436
g80
I1
sg92
g74
(g88
g76
Ntp437
Rp438
(dp439
g92
Nsg93
I00
sg94
g218
sg83
Nsbsg81
g87
sg107
F84.55786503971012
sg83
g74
(g88
g76
Ntp440
Rp441
(dp442
g92
Nsg93
I00
sg94
g323
sg83
Nsbsg93
I01
sbsg81
g87
sg107
F94.5041144508092
sg83
g74
(g88
g76
Ntp443
Rp444
(dp445
g92
Nsg93
I00
sg94
g327
sg83
Nsbsg93
I01
sbsg81
g87
sg107
F79.67537259775327
sg83
g74
(g88
g76
Ntp446
Rp447
(dp448
g92
Nsg93
I00
sg94
g331
sg83
Nsbsg93
I01
sbsg119
(lp449
g429
ag447
ag432
ag444
ag435
ag441
ag438
asg121
I7
sbag426
ag426
ag426
ag426
ag426
ag426
ag426
ag426
ag426
ag426
ag426
ag426
ag426
ag426
a(itree
PTree
p450
(dp451
g73
g74
(g75
g76
Ntp452
Rp453
(dp454
g80
I1
sg92
g74
(g75
g76
Ntp455
Rp456
(dp457
g80
I1
sg92
g74
(g88
g76
Ntp458
Rp459
(dp460
g92
Nsg93
I00
sg94
S'Hedge_90'
p461
sg83
Nsbsg81
g87
sg107
F92.00371089110084
sg83
g74
(g88
g76
Ntp462
Rp463
(dp464
g92
Nsg93
I00
sg94
S'Flood_Control'
p465
sg83
Nsbsg93
I01
sbsg81
g87
sg107
F80.37295280624276
sg83
g74
(g88
g76
Ntp466
Rp467
(dp468
g92
Nsg93
I00
sg94
S'Hedge_90'
p469
sg83
Nsbsg93
I01
sbsg119
(lp470
g453
ag467
ag456
ag463
ag459
asg121
I5
sbag450
ag450
ag450
ag450
ag450
ag450
ag450
ag450
ag450
ag450
ag450
ag450
ag450
ag450
ag450
ag450
ag450
ag450
ag450
ag450
ag450
ag450
ag450
ag450
ag450
ag450
ag450
ag450
ag450
ag450
ag450
ag450
ag450
ag450
ag450
ag450
a(itree
PTree
p471
(dp472
g73
g74
(g75
g76
Ntp473
Rp474
(dp475
g80
I1
sg92
g74
(g75
g76
Ntp476
Rp477
(dp478
g80
I1
sg92
g74
(g88
g76
Ntp479
Rp480
(dp481
g92
Nsg93
I00
sg94
g461
sg83
Nsbsg81
g87
sg107
F92.65709700870244
sg83
g74
(g88
g76
Ntp482
Rp483
(dp484
g92
Nsg93
I00
sg94
g300
sg83
Nsbsg93
I01
sbsg81
g87
sg107
F81.62546753245894
sg83
g74
(g88
g76
Ntp485
Rp486
(dp487
g92
Nsg93
I00
sg94
S'Hedge_90'
p488
sg83
Nsbsg93
I01
sbsg119
(lp489
g474
ag486
ag477
ag483
ag480
asg121
I5
sbag471
ag471
ag471
ag471
ag471
ag471
ag471
ag471
ag471
ag471
ag471
ag471
ag471
ag471
ag471
ag471
ag471
ag471
ag471
ag471
ag471
ag471
ag471
ag471
ag471
ag471
ag471
ag471
ag471
ag471
ag471
ag471
ag471
ag471
ag471
ag471
ag471
ag471
ag471
ag471
ag471
ag471
ag471
ag471
ag471
ag471
ag471
ag471
ag471
ag471
ag471
ag471
ag471
ag471
ag471
ag471
ag471
ag471
ag471
ag471
ag471
ag471
ag471
ag471
ag471
ag471
ag471
ag471
ag471
ag471
ag471
ag471
ag471
ag471
ag471
ag471
ag471
ag471
ag471
ag471
ag471
ag471
ag471
ag471
ag471
ag471
ag471
ag471
ag471
ag471
ag471
ag471
ag471
ag471
ag471
ag471
ag471
ag471
ag471
ag471
ag471
ag471
ag471
ag471
ag471
ag471
ag471
ag471
ag471
ag471
ag471
ag471
ag471
ag471
ag471
ag471
ag471
ag471
ag471
ag471
ag471
ag471
ag471
ag471
ag471
ag471
ag471
ag471
ag471
ag471
ag471
ag471
ag471
ag471
ag471
ag471
ag471
ag471
ag471
ag471
ag471
ag471
ag471
ag471
ag471
ag471
ag471
ag471
ag471
ag471
ag471
ag471
ag471
ag471
ag471
ag471
ag471
ag471
ag471
ag471
ag471
ag471
ag471
ag471
ag471
ag471
ag471
ag471
ag471
ag471
ag471
ag471
ag471
ag471
ag471
ag471
ag471
ag471
ag471
ag471
ag471
ag471
ag471
ag471
ag471
ag471
ag471
ag471
ag471
ag471
ag471
ag471
ag471
ag471
ag471
ag471
ag471
ag471
ag471
ag471
ag471
ag471
ag471
ag471
ag471
ag471
ag471
ag471
ag471
ag471
ag471
ag471
ag471
ag471
ag471
ag471
ag471
asS'time'
p490
(lp491
I58
aI87
aI117
aI147
aI177
aI207
aI237
aI267
aI297
aI327
aI356
aI386
aI416
aI446
aI476
aI505
aI535
aI565
aI596
aI626
aI656
aI686
aI716
aI746
aI777
aI806
aI836
aI866
aI897
aI927
aI957
aI988
aI1018
aI1048
aI1079
aI1110
aI1140
aI1170
aI1201
aI1231
aI1262
aI1293
aI1323
aI1354
aI1385
aI1416
aI1446
aI1477
aI1507
aI1538
aI1568
aI1599
aI1629
aI1660
aI1690
aI1721
aI1752
aI1783
aI1814
aI1845
aI1876
aI1907
aI1938
aI1968
aI1999
aI2030
aI2061
aI2092
aI2122
aI2153
aI2183
aI2215
aI2245
aI2276
aI2307
aI2337
aI2369
aI2399
aI2430
aI2461
aI2491
aI2522
aI2553
aI2584
aI2614
aI2645
aI2676
aI2707
aI2737
aI2768
aI2799
aI2829
aI2860
aI2891
aI2921
aI2952
aI2983
aI3014
aI3044
aI3075
aI3106
aI3137
aI3168
aI3198
aI3229
aI3260
aI3291
aI3322
aI3353
aI3383
aI3414
aI3444
aI3475
aI3505
aI3536
aI3568
aI3599
aI3629
aI3660
aI3691
aI3721
aI3752
aI3783
aI3813
aI3844
aI3874
aI3904
aI3936
aI3966
aI3996
aI4027
aI4057
aI4088
aI4119
aI4149
aI4179
aI4209
aI4239
aI4270
aI4301
aI4331
aI4361
aI4392
aI4422
aI4453
aI4483
aI4514
aI4544
aI4574
aI4604
aI4635
aI4666
aI4696
aI4727
aI4757
aI4788
aI4819
aI4850
aI4880
aI4910
aI4941
aI4971
aI5001
aI5032
aI5062
aI5093
aI5124
aI5154
aI5184
aI5215
aI5245
aI5276
aI5306
aI5336
aI5368
aI5398
aI5429
aI5459
aI5490
aI5520
aI5551
aI5581
aI5611
aI5642
aI5672
aI5703
aI5734
aI5764
aI5794
aI5824
aI5855
aI5886
aI5917
aI5948
aI5977
aI6008
aI6038
aI6068
aI6099
aI6130
aI6161
aI6191
aI6221
aI6252
aI6282
aI6312
aI6342
aI6373
aI6403
aI6434
aI6463
aI6494
aI6524
aI6555
aI6585
aI6616
aI6646
aI6677
aI6708
aI6738
aI6768
aI6798
aI6829
aI6860
aI6890
aI6921
aI6951
aI6981
aI7011
aI7042
aI7072
aI7102
aI7133
aI7164
aI7195
aI7225
aI7256
aI7286
aI7317
aI7347
aI7377
aI7407
aI7438
aI7468
aI7499
aI7529
aI7559
aI7590
aI7620
aI7651
aI7682
aI7713
aI7743
aI7773
aI7804
aI7834
aI7864
aI7895
aI7925
aI7956
aI7986
aI8017
aI8047
aI8077
aI8108
aI8139
aI8169
aI8199
aI8230
aI8260
aI8290
aI8321
aI8351
aI8382
aI8412
aI8443
aI8473
aI8504
aI8534
aI8565
aI8595
aI8626
aI8656
aI8686
aI8716
aI8747
aI8777
aI8808
aI8838
aI8868
aI8899
aI8930
aI8960
aI8991
aI9021
aI9052
aI9082
aI9112
aI9143
aI9174
aI9204
aI9235
aI9265
aI9296
aI9327
aI9357
aI9388
aI9418
aI9448
aI9479
aI9509
aI9539
aI9570
aI9600
aI9630
aI9660
aI9691
aI9721
aI9751
aI9781
aI9812
aI9842
aI9872
aI9903
aI9933
aI9963
aI9994
aI10024
aI10055
aI10085
aI10115
aI10145
aI10176
aI10206
aI10236
aI10267
aI10297
aI10327
aI10358
aI10388
aI10418
aI10449
aI10479
aI10510
aI10540
aI10570
aI10600
aI10631
aI10661
aI10691
aI10722
aI10752
aI10782
aI10812
aI10843
aI10873
aI10903
aI10934
aI10964
aI10994
aI11025
aI11055
aI11086
aI11117
aI11147
aI11178
aI11208
aI11239
aI11269
aI11300
aI11330
aI11360
aI11391
aI11421
aI11451
aI11482
aI11512
aI11542
aI11573
aI11603
aI11633
aI11663
aI11693
aI11724
aI11754
aI11784
aI11815
aI11845
aI11876
aI11907
aI11937
aI11967
aI11997
aI12027
aI12057
aI12088
aI12118
aI12148
aI12179
aI12209
aI12240
aI12270
aI12300
aI12330
aI12360
aI12391
aI12422
aI12452
aI12481
aI12512
aI12542
aI12572
aI12603
aI12634
aI12665
aI12695
aI12725
aI12756
aI12786
aI12817
aI12848
aI12879
aI12908
aI12939
aI12970
aI13000
aI13031
aI13062
aI13092
aI13123
aI13153
aI13184
aI13214
aI13245
aI13275
aI13306
aI13336
aI13366
aI13397
aI13427
aI13457
aI13488
aI13518
aI13549
aI13579
aI13610
aI13640
aI13671
aI13701
aI13732
aI13761
aI13792
aI13822
aI13852
aI13883
aI13913
aI13943
aI13974
aI14004
aI14034
aI14065
aI14095
aI14125
aI14156
aI14186
aI14217
aI14247
aI14278
aI14308
aI14338
aI14368
aI14399
aI14429
aI14460
aI14490
aI14521
aI14551
aI14581
aI14611
aI14642
aI14672
aI14703
aI14733
aI14763
aI14794
aI14824
aI14855
aI14885
aI14916
aI14946
aI14977
aI15008
aI15038
aI15068
aI15099
aI15129
aI15159
aI15190
aI15220
aI15250
as.