(dp0
S'nfe'
p1
(lp2
I50
aI100
aI150
aI200
aI250
aI300
aI350
aI400
aI450
aI500
aI550
aI600
aI650
aI700
aI750
aI800
aI850
aI900
aI950
aI1000
aI1050
aI1100
aI1150
aI1200
aI1250
aI1300
aI1350
aI1400
aI1450
aI1500
aI1550
aI1600
aI1650
aI1700
aI1750
aI1800
aI1850
aI1900
aI1950
aI2000
aI2050
aI2100
aI2150
aI2200
aI2250
aI2300
aI2350
aI2400
aI2450
aI2500
aI2550
aI2600
aI2650
aI2700
aI2750
aI2800
aI2850
aI2900
aI2950
aI3000
aI3050
aI3100
aI3150
aI3200
aI3250
aI3300
aI3350
aI3400
aI3450
aI3500
aI3550
aI3600
aI3650
aI3700
aI3750
aI3800
aI3850
aI3900
aI3950
aI4000
aI4050
aI4100
aI4150
aI4200
aI4250
aI4300
aI4350
aI4400
aI4450
aI4500
aI4550
aI4600
aI4650
aI4700
aI4750
aI4800
aI4850
aI4900
aI4950
aI5000
asS'best_f'
p3
(lp4
cnumpy.core.multiarray
scalar
p5
(cnumpy
dtype
p6
(S'f8'
p7
I0
I1
tp8
Rp9
(I3
S'<'
p10
NNNI-1
I-1
I0
tp11
bS'\xc8\x06\x9d\x85\t\x8b\xe0@'
p12
tp13
Rp14
ag5
(g9
S'\xfa\x02G:\x9f}"@'
p15
tp16
Rp17
ag17
ag17
ag5
(g9
S'O\xb8\xe1\x91f\\"@'
p18
tp19
Rp20
ag20
ag20
ag20
ag5
(g9
S'q"\xa2\xce$5"@'
p21
tp22
Rp23
ag23
ag23
ag23
ag23
ag23
ag23
ag23
ag23
ag23
ag23
ag23
ag23
ag23
ag23
ag23
ag23
ag23
ag23
ag23
ag23
ag23
ag23
ag23
ag23
ag23
ag23
ag23
ag23
ag23
ag23
ag23
ag23
ag5
(g9
S'\xb6z\x06\x993P @'
p24
tp25
Rp26
ag26
ag5
(g9
S'\xcf\xb5\xd4\xb9\x1a-\x1d@'
p27
tp28
Rp29
ag29
ag5
(g9
S"\x00'btf\x93\x15@"
p30
tp31
Rp32
ag5
(g9
S'\xfa6\x1b;#\xaf\x14@'
p33
tp34
Rp35
ag35
ag5
(g9
S'~T\x85\x06\xa57\x12@'
p36
tp37
Rp38
ag38
ag5
(g9
S'\xe4(A\xe9\x91\x19\t@'
p39
tp40
Rp41
ag41
ag41
ag41
ag41
ag41
ag41
ag41
ag41
ag41
ag41
ag41
ag41
ag41
ag41
ag41
ag41
ag41
ag41
ag41
ag41
ag41
ag41
ag41
ag41
ag41
ag41
ag41
ag41
ag41
ag41
ag41
ag41
ag41
ag41
ag41
ag41
ag41
ag41
ag41
ag41
ag41
ag5
(g9
S'%-\xc9"r\xf8\x08@'
p42
tp43
Rp44
ag44
ag44
ag44
ag44
ag44
ag44
ag44
asS'best_P'
p45
(lp46
(itree
PTree
p47
(dp48
S'root'
p49
ccopy_reg
_reconstructor
p50
(ctree
Feature
p51
c__builtin__
object
p52
Ntp53
Rp54
(dp55
S'index'
p56
I3
sS'name'
p57
S'AnnQ'
p58
sS'l'
p59
g50
(g51
g52
Ntp60
Rp61
(dp62
g56
I4
sg57
S'LP3'
p63
sg59
g50
(g51
g52
Ntp64
Rp65
(dp66
g56
I1
sg57
S'Inflow'
p67
sg59
g50
(g51
g52
Ntp68
Rp69
(dp70
g56
I5
sg57
S'WYC'
p71
sg59
g50
(g51
g52
Ntp72
Rp73
(dp74
g56
I4
sg57
g63
sg59
g50
(ctree
Action
p75
g52
Ntp76
Rp77
(dp78
S'r'
p79
NsS'is_feature'
p80
I00
sS'value'
p81
S'Release_Demand'
p82
sg59
Nsbsg79
g50
(g75
g52
Ntp83
Rp84
(dp85
g79
Nsg80
I00
sg81
S'Hedge_60'
p86
sg59
NsbsS'threshold'
p87
F235.89858164895568
sg80
I01
sbsg79
g50
(g75
g52
Ntp88
Rp89
(dp90
g79
Nsg80
I00
sg81
S'Hedge_60'
p91
sg59
Nsbsg87
F187.083536371938
sg80
I01
sbsg79
g50
(g75
g52
Ntp92
Rp93
(dp94
g79
Nsg80
I00
sg81
S'Flood_Control'
p95
sg59
Nsbsg87
F38.41445927872063
sg80
I01
sbsg79
g50
(g75
g52
Ntp96
Rp97
(dp98
g79
Nsg80
I00
sg81
S'Release_Demand'
p99
sg59
Nsbsg87
F320.4771126673456
sg80
I01
sbsg79
g50
(g51
g52
Ntp100
Rp101
(dp102
g56
I4
sg57
g63
sg59
g50
(g51
g52
Ntp103
Rp104
(dp105
g56
I1
sg57
g67
sg59
g50
(g75
g52
Ntp106
Rp107
(dp108
g79
Nsg80
I00
sg81
S'Hedge_60'
p109
sg59
Nsbsg79
g50
(g75
g52
Ntp110
Rp111
(dp112
g79
Nsg80
I00
sg81
S'Hedge_90'
p113
sg59
Nsbsg87
F128.03532337981179
sg80
I01
sbsg79
g50
(g75
g52
Ntp114
Rp115
(dp116
g79
Nsg80
I00
sg81
S'Hedge_70'
p117
sg59
Nsbsg87
F185.60489504341717
sg80
I01
sbsg87
F3370.9629005089064
sg80
I01
sbsS'L'
p118
(lp119
g54
ag61
ag65
ag69
ag73
ag77
ag84
ag89
ag93
ag97
ag101
ag104
ag107
ag111
ag115
asS'N'
p120
I15
sba(itree
PTree
p121
(dp122
g49
g50
(g51
g52
Ntp123
Rp124
(dp125
g56
I4
sg79
g50
(g75
g52
Ntp126
Rp127
(dp128
g79
Nsg80
I00
sg81
S'Flood_Control'
p129
sg59
Nsbsg57
g63
sg87
F111.57024820201957
sg59
g50
(g75
g52
Ntp130
Rp131
(dp132
g79
Nsg80
I00
sg81
S'Hedge_80'
p133
sg59
Nsbsg80
I01
sbsg118
(lp134
g124
ag131
ag127
asg120
I3
sbag121
ag121
a(itree
PTree
p135
(dp136
g49
g50
(g51
g52
Ntp137
Rp138
(dp139
g56
I5
sg79
g50
(g51
g52
Ntp140
Rp141
(dp142
g56
I4
sg79
g50
(g75
g52
Ntp143
Rp144
(dp145
g79
Nsg80
I00
sg81
S'Flood_Control'
p146
sg59
Nsbsg57
g63
sg87
F127.455084193455
sg59
g50
(g51
g52
Ntp147
Rp148
(dp149
g56
I1
sg79
g50
(g75
g52
Ntp150
Rp151
(dp152
g79
Nsg80
I00
sg81
S'Hedge_90'
p153
sg59
Nsbsg57
g67
sg87
F146.9079816486974
sg59
g50
(g51
g52
Ntp154
Rp155
(dp156
g56
I3
sg79
g50
(g75
g52
Ntp157
Rp158
(dp159
g79
Nsg80
I00
sg81
S'Hedge_50'
p160
sg59
Nsbsg57
g58
sg87
F3088.4415953845655
sg59
g50
(g75
g52
Ntp161
Rp162
(dp163
g79
Nsg80
I00
sg81
S'Release_Demand'
p164
sg59
Nsbsg80
I01
sbsg80
I01
sbsg80
I01
sbsg57
g71
sg87
F123.49407481113644
sg59
g50
(g51
g52
Ntp165
Rp166
(dp167
g56
I4
sg79
g50
(g51
g52
Ntp168
Rp169
(dp170
g56
I0
sg79
g50
(g75
g52
Ntp171
Rp172
(dp173
g79
Nsg80
I00
sg81
S'Hedge_80'
p174
sg59
Nsbsg57
S'Storage'
p175
sg87
F771.1435995480151
sg59
g50
(g75
g52
Ntp176
Rp177
(dp178
g79
Nsg80
I00
sg81
S'Hedge_60'
p179
sg59
Nsbsg80
I01
sbsg57
g63
sg87
F339.40588982781605
sg59
g50
(g75
g52
Ntp180
Rp181
(dp182
g79
Nsg80
I00
sg81
S'Hedge_70'
p183
sg59
Nsbsg80
I01
sbsg80
I01
sbsg118
(lp184
g138
ag166
ag181
ag169
ag177
ag172
ag141
ag148
ag155
ag162
ag158
ag151
ag144
asg120
I13
sbag135
ag135
ag135
a(itree
PTree
p185
(dp186
g49
g50
(g51
g52
Ntp187
Rp188
(dp189
g56
I5
sg79
g50
(g51
g52
Ntp190
Rp191
(dp192
g56
I4
sg79
g50
(g75
g52
Ntp193
Rp194
(dp195
g79
Nsg80
I00
sg81
g129
sg59
Nsbsg57
g63
sg87
F131.39637787683066
sg59
g50
(g75
g52
Ntp196
Rp197
(dp198
g79
Nsg80
I00
sg81
S'Hedge_70'
p199
sg59
Nsbsg80
I01
sbsg57
g71
sg87
F137.92407129608333
sg59
g50
(g51
g52
Ntp200
Rp201
(dp202
g56
I4
sg79
g50
(g51
g52
Ntp203
Rp204
(dp205
g56
I0
sg79
g50
(g75
g52
Ntp206
Rp207
(dp208
g79
Nsg80
I00
sg81
S'Hedge_80'
p209
sg59
Nsbsg57
g175
sg87
F913.8486566052603
sg59
g50
(g75
g52
Ntp210
Rp211
(dp212
g79
Nsg80
I00
sg81
S'Hedge_70'
p213
sg59
Nsbsg80
I01
sbsg57
g63
sg87
F336.91694936719125
sg59
g50
(g75
g52
Ntp214
Rp215
(dp216
g79
Nsg80
I00
sg81
S'Hedge_90'
p217
sg59
Nsbsg80
I01
sbsg80
I01
sbsg118
(lp218
g188
ag201
ag215
ag204
ag211
ag207
ag191
ag197
ag194
asg120
I9
sbag185
ag185
ag185
ag185
ag185
ag185
ag185
ag185
ag185
ag185
ag185
ag185
ag185
ag185
ag185
ag185
ag185
ag185
ag185
ag185
ag185
ag185
ag185
ag185
ag185
ag185
ag185
ag185
ag185
ag185
ag185
ag185
a(itree
PTree
p219
(dp220
g49
g50
(g51
g52
Ntp221
Rp222
(dp223
g56
I2
sg79
g50
(g75
g52
Ntp224
Rp225
(dp226
g79
Nsg80
I00
sg81
S'Hedge_50'
p227
sg59
Nsbsg57
S'Day'
p228
sg87
F240.05367606302718
sg59
g50
(g75
g52
Ntp229
Rp230
(dp231
g79
Nsg80
I00
sg81
S'Flood_Control'
p232
sg59
Nsbsg80
I01
sbsg118
(lp233
g222
ag230
ag225
asg120
I3
sbag219
a(itree
PTree
p234
(dp235
g49
g50
(g51
g52
Ntp236
Rp237
(dp238
g56
I2
sg79
g50
(g75
g52
Ntp239
Rp240
(dp241
g79
Nsg80
I00
sg81
g227
sg59
Nsbsg57
g228
sg87
F228.5549404772173
sg59
g50
(g75
g52
Ntp242
Rp243
(dp244
g79
Nsg80
I00
sg81
g232
sg59
Nsbsg80
I01
sbsg118
(lp245
g237
ag243
ag240
asg120
I3
sbag234
a(itree
PTree
p246
(dp247
g49
g50
(g51
g52
Ntp248
Rp249
(dp250
g56
I2
sg79
g50
(g75
g52
Ntp251
Rp252
(dp253
g79
Nsg80
I00
sg81
g227
sg59
Nsbsg57
g228
sg87
F202.2468819448084
sg59
g50
(g75
g52
Ntp254
Rp255
(dp256
g79
Nsg80
I00
sg81
g232
sg59
Nsbsg80
I01
sbsg118
(lp257
g249
ag255
ag252
asg120
I3
sba(itree
PTree
p258
(dp259
g49
g50
(g51
g52
Ntp260
Rp261
(dp262
g56
I1
sg79
g50
(g75
g52
Ntp263
Rp264
(dp265
g79
Nsg80
I00
sg81
S'Flood_Control'
p266
sg59
Nsbsg57
g67
sg87
F16.747470120966636
sg59
g50
(g75
g52
Ntp267
Rp268
(dp269
g79
Nsg80
I00
sg81
S'Release_Demand'
p270
sg59
Nsbsg80
I01
sbsg118
(lp271
g261
ag268
ag264
asg120
I3
sbag258
a(itree
PTree
p272
(dp273
g49
g50
(g51
g52
Ntp274
Rp275
(dp276
g56
I1
sg79
g50
(g75
g52
Ntp277
Rp278
(dp279
g79
Nsg80
I00
sg81
g266
sg59
Nsbsg57
g67
sg87
F16.747470120966636
sg59
g50
(g75
g52
Ntp280
Rp281
(dp282
g79
Nsg80
I00
sg81
S'Hedge_90'
p283
sg59
Nsbsg80
I01
sbsg118
(lp284
g275
ag281
ag278
asg120
I3
sbag272
a(itree
PTree
p285
(dp286
g49
g50
(g51
g52
Ntp287
Rp288
(dp289
g56
I2
sg79
g50
(g75
g52
Ntp290
Rp291
(dp292
g79
Nsg80
I00
sg81
S'Hedge_90'
p293
sg59
Nsbsg57
g228
sg87
F175.90095919287683
sg59
g50
(g75
g52
Ntp294
Rp295
(dp296
g79
Nsg80
I00
sg81
g232
sg59
Nsbsg80
I01
sbsg118
(lp297
g288
ag295
ag291
asg120
I3
sbag285
ag285
ag285
ag285
ag285
ag285
ag285
ag285
ag285
ag285
ag285
ag285
ag285
ag285
ag285
ag285
ag285
ag285
ag285
ag285
ag285
ag285
ag285
ag285
ag285
ag285
ag285
ag285
ag285
ag285
ag285
ag285
ag285
ag285
ag285
ag285
ag285
ag285
ag285
ag285
ag285
a(itree
PTree
p298
(dp299
g49
g50
(g51
g52
Ntp300
Rp301
(dp302
g56
I2
sg79
g50
(g75
g52
Ntp303
Rp304
(dp305
g79
Nsg80
I00
sg81
S'Hedge_80'
p306
sg59
Nsbsg57
g228
sg87
F175.83535060186514
sg59
g50
(g75
g52
Ntp307
Rp308
(dp309
g79
Nsg80
I00
sg81
S'Flood_Control'
p310
sg59
Nsbsg80
I01
sbsg118
(lp311
g301
ag308
ag304
asg120
I3
sbag298
ag298
ag298
ag298
ag298
ag298
ag298
asS'time'
p312
(lp313
I12362
aI18699
aI24534
aI30996
aI37259
aI43284
aI49059
aI55224
aI60470
aI66129
aI72229
aI78288
aI84364
aI4298
aI10311
aI16252
aI22576
aI28545
aI33762
aI38987
aI44395
aI50111
aI55551
aI60962
aI67473
aI72968
aI79383
aI85453
aI4747
aI10018
aI16063
aI22240
aI28722
aI35434
aI41451
aI47760
aI54855
aI60752
aI67628
aI74509
aI80854
aI1330
aI8097
aI15180
aI21803
aI28720
aI35324
aI41466
aI48547
aI55386
aI63528
aI70622
aI77819
aI84926
aI5961
aI12556
aI19678
aI26657
aI33262
aI40210
aI48144
aI55125
aI62715
aI70205
aI78029
aI85608
aI6028
aI13028
aI19523
aI26273
aI33624
aI41232
aI49416
aI57256
aI64778
aI71502
aI78807
aI657
aI8440
aI16130
aI23663
aI30978
aI38201
aI44794
aI52300
aI60252
aI67456
aI74048
aI80583
aI1333
aI9029
aI16615
aI24641
aI31255
aI37121
aI42633
aI48128
aI52740
aI56593
aI59636
as.