(dp0
S'nfe'
p1
(lp2
I50
aI100
aI150
aI200
aI250
aI300
aI350
aI400
aI450
aI500
aI550
aI600
aI650
aI700
aI750
aI800
aI850
aI900
aI950
aI1000
aI1050
aI1100
aI1150
aI1200
aI1250
aI1300
aI1350
aI1400
aI1450
aI1500
aI1550
aI1600
aI1650
aI1700
aI1750
aI1800
aI1850
aI1900
aI1950
aI2000
aI2050
aI2100
aI2150
aI2200
aI2250
aI2300
aI2350
aI2400
aI2450
aI2500
aI2550
aI2600
aI2650
aI2700
aI2750
aI2800
aI2850
aI2900
aI2950
aI3000
aI3050
aI3100
aI3150
aI3200
aI3250
aI3300
aI3350
aI3400
aI3450
aI3500
aI3550
aI3600
aI3650
aI3700
aI3750
aI3800
aI3850
aI3900
aI3950
aI4000
aI4050
aI4100
aI4150
aI4200
aI4250
aI4300
aI4350
aI4400
aI4450
aI4500
aI4550
aI4600
aI4650
aI4700
aI4750
aI4800
aI4850
aI4900
aI4950
aI5000
asS'best_f'
p3
(lp4
cnumpy.core.multiarray
scalar
p5
(cnumpy
dtype
p6
(S'f8'
p7
I0
I1
tp8
Rp9
(I3
S'<'
p10
NNNI-1
I-1
I0
tp11
bS'\xfa\x02G:\x9f}"@'
p12
tp13
Rp14
ag14
ag5
(g9
S'\xab\xbdw\xfb\x8er"@'
p15
tp16
Rp17
ag17
ag5
(g9
S'\xd1n\x15\x0c\x1cr"@'
p18
tp19
Rp20
ag20
ag5
(g9
S'\xc9\xe1\xdb\x86\xf5q"@'
p21
tp22
Rp23
ag5
(g9
S'\x1e\xa3\xce"\x83k"@'
p24
tp25
Rp26
ag5
(g9
S'\xd1\xec&\x13\xcag"@'
p27
tp28
Rp29
ag5
(g9
S'\x8d\x11\x8dD\xd5f"@'
p30
tp31
Rp32
ag5
(g9
S'\x97\xee4\xb7\xa3Y"@'
p33
tp34
Rp35
ag35
ag35
ag5
(g9
S'\xc1T\xcd\x94\x19a @'
p36
tp37
Rp38
ag5
(g9
S'\xf2\xfb\x88\x99\x0b\x9a\x1e@'
p39
tp40
Rp41
ag41
ag5
(g9
S'\x8d\xb1X\x16\xdc\r\x1d@'
p42
tp43
Rp44
ag5
(g9
S'\x03\xb4A\xcf<\x01\x1d@'
p45
tp46
Rp47
ag47
ag47
ag47
ag47
ag5
(g9
S'A1\xaf\xc9\x91\xfc\x1c@'
p48
tp49
Rp50
ag50
ag5
(g9
S'\xad&\xab\x08C\xbd\x1c@'
p51
tp52
Rp53
ag5
(g9
S'\xa3-\xc0\xd3\xe4V\x1c@'
p54
tp55
Rp56
ag5
(g9
S'\x90\xd7\x11\xb9@\x00\x1c@'
p57
tp58
Rp59
ag59
ag59
ag59
ag59
ag59
ag5
(g9
S'n\xa8\x81\x83\xd67\x1a@'
p60
tp61
Rp62
ag62
ag5
(g9
S'\xce\x9bmi\xab\x02\x0b@'
p63
tp64
Rp65
ag5
(g9
S'\xaa4\xfb\xd8\x043\n@'
p66
tp67
Rp68
ag68
ag68
ag68
ag68
ag68
ag68
ag68
ag68
ag68
ag68
ag68
ag68
ag68
ag5
(g9
S'\xe4(A\xe9\x91\x19\t@'
p69
tp70
Rp71
ag71
ag71
ag71
ag71
ag71
ag71
ag71
ag71
ag71
ag71
ag71
ag71
ag71
ag71
ag71
ag71
ag71
ag71
ag71
ag71
ag71
ag71
ag71
ag71
ag71
ag71
ag71
ag71
ag71
ag71
ag71
ag71
ag71
ag71
ag71
ag71
ag71
ag71
ag71
ag71
ag71
ag71
ag71
ag71
ag71
ag71
ag71
ag71
ag5
(g9
S'%-\xc9"r\xf8\x08@'
p72
tp73
Rp74
ag74
asS'best_P'
p75
(lp76
(itree
PTree
p77
(dp78
S'root'
p79
ccopy_reg
_reconstructor
p80
(ctree
Feature
p81
c__builtin__
object
p82
Ntp83
Rp84
(dp85
S'index'
p86
I5
sS'name'
p87
S'WYC'
p88
sS'l'
p89
g80
(ctree
Action
p90
g82
Ntp91
Rp92
(dp93
S'r'
p94
NsS'is_feature'
p95
I00
sS'value'
p96
S'Hedge_80'
p97
sg89
Nsbsg94
g80
(g90
g82
Ntp98
Rp99
(dp100
g94
Nsg95
I00
sg96
S'Flood_Control'
p101
sg89
NsbsS'threshold'
p102
F123.9691680183034
sg95
I01
sbsS'L'
p103
(lp104
g84
ag92
ag99
asS'N'
p105
I3
sbag77
a(itree
PTree
p106
(dp107
g79
g80
(g81
g82
Ntp108
Rp109
(dp110
g86
I5
sg94
g80
(g90
g82
Ntp111
Rp112
(dp113
g94
Nsg95
I00
sg96
g101
sg89
Nsbsg87
g88
sg102
F136.35632668414075
sg89
g80
(g90
g82
Ntp114
Rp115
(dp116
g94
Nsg95
I00
sg96
g97
sg89
Nsbsg95
I01
sbsg103
(lp117
g109
ag115
ag112
asg105
I3
sbag106
a(itree
PTree
p118
(dp119
g79
g80
(g81
g82
Ntp120
Rp121
(dp122
g86
I5
sg94
g80
(g90
g82
Ntp123
Rp124
(dp125
g94
Nsg95
I00
sg96
g101
sg89
Nsbsg87
g88
sg102
F135.4271165952987
sg89
g80
(g90
g82
Ntp126
Rp127
(dp128
g94
Nsg95
I00
sg96
S'Hedge_90'
p129
sg89
Nsbsg95
I01
sbsg103
(lp130
g121
ag127
ag124
asg105
I3
sbag118
a(itree
PTree
p131
(dp132
g79
g80
(g81
g82
Ntp133
Rp134
(dp135
g86
I5
sg94
g80
(g90
g82
Ntp136
Rp137
(dp138
g94
Nsg95
I00
sg96
S'Flood_Control'
p139
sg89
Nsbsg87
g88
sg102
F135.12061537580885
sg89
g80
(g90
g82
Ntp140
Rp141
(dp142
g94
Nsg95
I00
sg96
S'Release_Demand'
p143
sg89
Nsbsg95
I01
sbsg103
(lp144
g134
ag141
ag137
asg105
I3
sba(itree
PTree
p145
(dp146
g79
g80
(g81
g82
Ntp147
Rp148
(dp149
g86
I5
sg94
g80
(g90
g82
Ntp150
Rp151
(dp152
g94
Nsg95
I00
sg96
S'Flood_Control'
p153
sg89
Nsbsg87
g88
sg102
F136.91236090655522
sg89
g80
(g90
g82
Ntp154
Rp155
(dp156
g94
Nsg95
I00
sg96
S'Release_Demand'
p157
sg89
Nsbsg95
I01
sbsg103
(lp158
g148
ag155
ag151
asg105
I3
sba(itree
PTree
p159
(dp160
g79
g80
(g81
g82
Ntp161
Rp162
(dp163
g86
I5
sg94
g80
(g90
g82
Ntp164
Rp165
(dp166
g94
Nsg95
I00
sg96
S'Flood_Control'
p167
sg89
Nsbsg87
g88
sg102
F137.8412652256734
sg89
g80
(g90
g82
Ntp168
Rp169
(dp170
g94
Nsg95
I00
sg96
S'Hedge_80'
p171
sg89
Nsbsg95
I01
sbsg103
(lp172
g162
ag169
ag165
asg105
I3
sba(itree
PTree
p173
(dp174
g79
g80
(g81
g82
Ntp175
Rp176
(dp177
g86
I5
sg94
g80
(g90
g82
Ntp178
Rp179
(dp180
g94
Nsg95
I00
sg96
S'Flood_Control'
p181
sg89
Nsbsg87
g88
sg102
F137.9417416755574
sg89
g80
(g90
g82
Ntp182
Rp183
(dp184
g94
Nsg95
I00
sg96
S'Release_Demand'
p185
sg89
Nsbsg95
I01
sbsg103
(lp186
g176
ag183
ag179
asg105
I3
sba(itree
PTree
p187
(dp188
g79
g80
(g81
g82
Ntp189
Rp190
(dp191
g86
I0
sg94
g80
(g90
g82
Ntp192
Rp193
(dp194
g94
Nsg95
I00
sg96
S'Flood_Control'
p195
sg89
Nsbsg87
S'Storage'
p196
sg102
F93.90160276094736
sg89
g80
(g81
g82
Ntp197
Rp198
(dp199
g86
I3
sg94
g80
(g90
g82
Ntp200
Rp201
(dp202
g94
Nsg95
I00
sg96
S'Hedge_80'
p203
sg89
Nsbsg87
S'AnnQ'
p204
sg102
F3292.9360863256784
sg89
g80
(g90
g82
Ntp205
Rp206
(dp207
g94
Nsg95
I00
sg96
S'Flood_Control'
p208
sg89
Nsbsg95
I01
sbsg95
I01
sbsg103
(lp209
g190
ag198
ag206
ag201
ag193
asg105
I5
sbag187
ag187
a(itree
PTree
p210
(dp211
g79
g80
(g81
g82
Ntp212
Rp213
(dp214
g86
I0
sg94
g80
(g90
g82
Ntp215
Rp216
(dp217
g94
Nsg95
I00
sg96
S'Flood_Control'
p218
sg89
Nsbsg87
g196
sg102
F93.90160276094736
sg89
g80
(g81
g82
Ntp219
Rp220
(dp221
g86
I3
sg94
g80
(g90
g82
Ntp222
Rp223
(dp224
g94
Nsg95
I00
sg96
g203
sg89
Nsbsg87
g204
sg102
F3292.9360863256784
sg89
g80
(g90
g82
Ntp225
Rp226
(dp227
g94
Nsg95
I00
sg96
S'Hedge_70'
p228
sg89
Nsbsg95
I01
sbsg95
I01
sbsg103
(lp229
g213
ag220
ag226
ag223
ag216
asg105
I5
sba(itree
PTree
p230
(dp231
g79
g80
(g81
g82
Ntp232
Rp233
(dp234
g86
I0
sg94
g80
(g90
g82
Ntp235
Rp236
(dp237
g94
Nsg95
I00
sg96
g218
sg89
Nsbsg87
g196
sg102
F118.94719448654152
sg89
g80
(g81
g82
Ntp238
Rp239
(dp240
g86
I3
sg94
g80
(g90
g82
Ntp241
Rp242
(dp243
g94
Nsg95
I00
sg96
S'Hedge_80'
p244
sg89
Nsbsg87
g204
sg102
F3383.2461154091748
sg89
g80
(g90
g82
Ntp245
Rp246
(dp247
g94
Nsg95
I00
sg96
S'Hedge_50'
p248
sg89
Nsbsg95
I01
sbsg95
I01
sbsg103
(lp249
g233
ag239
ag246
ag242
ag236
asg105
I5
sbag230
a(itree
PTree
p250
(dp251
g79
g80
(g81
g82
Ntp252
Rp253
(dp254
g86
I0
sg94
g80
(g90
g82
Ntp255
Rp256
(dp257
g94
Nsg95
I00
sg96
g218
sg89
Nsbsg87
g196
sg102
F139.49640178223962
sg89
g80
(g81
g82
Ntp258
Rp259
(dp260
g86
I3
sg94
g80
(g90
g82
Ntp261
Rp262
(dp263
g94
Nsg95
I00
sg96
g244
sg89
Nsbsg87
g204
sg102
F3435.3000164554987
sg89
g80
(g90
g82
Ntp264
Rp265
(dp266
g94
Nsg95
I00
sg96
g248
sg89
Nsbsg95
I01
sbsg95
I01
sbsg103
(lp267
g253
ag259
ag265
ag262
ag256
asg105
I5
sba(itree
PTree
p268
(dp269
g79
g80
(g81
g82
Ntp270
Rp271
(dp272
g86
I0
sg94
g80
(g90
g82
Ntp273
Rp274
(dp275
g94
Nsg95
I00
sg96
g218
sg89
Nsbsg87
g196
sg102
F146.67560188820786
sg89
g80
(g81
g82
Ntp276
Rp277
(dp278
g86
I3
sg94
g80
(g90
g82
Ntp279
Rp280
(dp281
g94
Nsg95
I00
sg96
g203
sg89
Nsbsg87
g204
sg102
F3262.7930007361424
sg89
g80
(g90
g82
Ntp282
Rp283
(dp284
g94
Nsg95
I00
sg96
g228
sg89
Nsbsg95
I01
sbsg95
I01
sbsg103
(lp285
g271
ag277
ag283
ag280
ag274
asg105
I5
sbag268
ag268
ag268
ag268
a(itree
PTree
p286
(dp287
g79
g80
(g81
g82
Ntp288
Rp289
(dp290
g86
I0
sg94
g80
(g90
g82
Ntp291
Rp292
(dp293
g94
Nsg95
I00
sg96
g218
sg89
Nsbsg87
g196
sg102
F146.67560188820786
sg89
g80
(g81
g82
Ntp294
Rp295
(dp296
g86
I3
sg94
g80
(g90
g82
Ntp297
Rp298
(dp299
g94
Nsg95
I00
sg96
g203
sg89
Nsbsg87
g204
sg102
F3401.4131369799843
sg89
g80
(g90
g82
Ntp300
Rp301
(dp302
g94
Nsg95
I00
sg96
g228
sg89
Nsbsg95
I01
sbsg95
I01
sbsg103
(lp303
g289
ag295
ag301
ag298
ag292
asg105
I5
sbag286
a(itree
PTree
p304
(dp305
g79
g80
(g81
g82
Ntp306
Rp307
(dp308
g86
I0
sg94
g80
(g90
g82
Ntp309
Rp310
(dp311
g94
Nsg95
I00
sg96
g218
sg89
Nsbsg87
g196
sg102
F162.46542388210224
sg89
g80
(g81
g82
Ntp312
Rp313
(dp314
g86
I3
sg94
g80
(g90
g82
Ntp315
Rp316
(dp317
g94
Nsg95
I00
sg96
S'Flood_Control'
p318
sg89
Nsbsg87
g204
sg102
F3076.8264326201506
sg89
g80
(g90
g82
Ntp319
Rp320
(dp321
g94
Nsg95
I00
sg96
S'Hedge_50'
p322
sg89
Nsbsg95
I01
sbsg95
I01
sbsg103
(lp323
g307
ag313
ag320
ag316
ag310
asg105
I5
sba(itree
PTree
p324
(dp325
g79
g80
(g81
g82
Ntp326
Rp327
(dp328
g86
I0
sg94
g80
(g90
g82
Ntp329
Rp330
(dp331
g94
Nsg95
I00
sg96
S'Flood_Control'
p332
sg89
Nsbsg87
g196
sg102
F155.38381681423874
sg89
g80
(g81
g82
Ntp333
Rp334
(dp335
g86
I5
sg94
g80
(g90
g82
Ntp336
Rp337
(dp338
g94
Nsg95
I00
sg96
S'Hedge_70'
p339
sg89
Nsbsg87
g88
sg102
F129.7072596067212
sg89
g80
(g90
g82
Ntp340
Rp341
(dp342
g94
Nsg95
I00
sg96
S'Hedge_80'
p343
sg89
Nsbsg95
I01
sbsg95
I01
sbsg103
(lp344
g327
ag334
ag341
ag337
ag330
asg105
I5
sba(itree
PTree
p345
(dp346
g79
g80
(g81
g82
Ntp347
Rp348
(dp349
g86
I0
sg94
g80
(g90
g82
Ntp350
Rp351
(dp352
g94
Nsg95
I00
sg96
S'Flood_Control'
p353
sg89
Nsbsg87
g196
sg102
F152.38002104512336
sg89
g80
(g81
g82
Ntp354
Rp355
(dp356
g86
I0
sg94
g80
(g90
g82
Ntp357
Rp358
(dp359
g94
Nsg95
I00
sg96
S'Hedge_70'
p360
sg89
Nsbsg87
g196
sg102
F70.79110935627256
sg89
g80
(g81
g82
Ntp361
Rp362
(dp363
g86
I3
sg94
g80
(g90
g82
Ntp364
Rp365
(dp366
g94
Nsg95
I00
sg96
S'Release_Demand'
p367
sg89
Nsbsg87
g204
sg102
F3216.0313861664254
sg89
g80
(g90
g82
Ntp368
Rp369
(dp370
g94
Nsg95
I00
sg96
S'Hedge_50'
p371
sg89
Nsbsg95
I01
sbsg95
I01
sbsg95
I01
sbsg103
(lp372
g348
ag355
ag362
ag369
ag365
ag358
ag351
asg105
I7
sbag345
ag345
ag345
ag345
ag345
a(itree
PTree
p373
(dp374
g79
g80
(g81
g82
Ntp375
Rp376
(dp377
g86
I2
sg94
g80
(g90
g82
Ntp378
Rp379
(dp380
g94
Nsg95
I00
sg96
S'Hedge_90'
p381
sg89
Nsbsg87
S'Day'
p382
sg102
F218.97105117854414
sg89
g80
(g90
g82
Ntp383
Rp384
(dp385
g94
Nsg95
I00
sg96
S'Flood_Control'
p386
sg89
Nsbsg95
I01
sbsg103
(lp387
g376
ag384
ag379
asg105
I3
sbag373
a(itree
PTree
p388
(dp389
g79
g80
(g81
g82
Ntp390
Rp391
(dp392
g86
I2
sg94
g80
(g90
g82
Ntp393
Rp394
(dp395
g94
Nsg95
I00
sg96
g381
sg89
Nsbsg87
g382
sg102
F180.91684147335835
sg89
g80
(g90
g82
Ntp396
Rp397
(dp398
g94
Nsg95
I00
sg96
g386
sg89
Nsbsg95
I01
sbsg103
(lp399
g391
ag397
ag394
asg105
I3
sba(itree
PTree
p400
(dp401
g79
g80
(g81
g82
Ntp402
Rp403
(dp404
g86
I2
sg94
g80
(g90
g82
Ntp405
Rp406
(dp407
g94
Nsg95
I00
sg96
g381
sg89
Nsbsg87
g382
sg102
F178.75525346794302
sg89
g80
(g90
g82
Ntp408
Rp409
(dp410
g94
Nsg95
I00
sg96
g386
sg89
Nsbsg95
I01
sbsg103
(lp411
g403
ag409
ag406
asg105
I3
sbag400
ag400
ag400
ag400
ag400
ag400
ag400
ag400
ag400
ag400
ag400
ag400
ag400
a(itree
PTree
p412
(dp413
g79
g80
(g81
g82
Ntp414
Rp415
(dp416
g86
I2
sg94
g80
(g90
g82
Ntp417
Rp418
(dp419
g94
Nsg95
I00
sg96
S'Hedge_90'
p420
sg89
Nsbsg87
g382
sg102
F175.77253062404384
sg89
g80
(g90
g82
Ntp421
Rp422
(dp423
g94
Nsg95
I00
sg96
S'Flood_Control'
p424
sg89
Nsbsg95
I01
sbsg103
(lp425
g415
ag422
ag418
asg105
I3
sbag412
ag412
ag412
ag412
ag412
ag412
ag412
ag412
ag412
ag412
ag412
ag412
ag412
ag412
ag412
ag412
ag412
ag412
ag412
ag412
ag412
ag412
ag412
ag412
ag412
ag412
ag412
ag412
ag412
ag412
ag412
ag412
ag412
ag412
ag412
ag412
ag412
ag412
ag412
ag412
ag412
ag412
ag412
ag412
ag412
ag412
ag412
ag412
a(itree
PTree
p426
(dp427
g79
g80
(g81
g82
Ntp428
Rp429
(dp430
g86
I2
sg94
g80
(g90
g82
Ntp431
Rp432
(dp433
g94
Nsg95
I00
sg96
S'Hedge_80'
p434
sg89
Nsbsg87
g382
sg102
F175.06294698206466
sg89
g80
(g90
g82
Ntp435
Rp436
(dp437
g94
Nsg95
I00
sg96
S'Flood_Control'
p438
sg89
Nsbsg95
I01
sbsg103
(lp439
g429
ag436
ag432
asg105
I3
sbag426
asS'time'
p440
(lp441
I10876
aI16373
aI22359
aI28431
aI34865
aI40471
aI47270
aI54579
aI62772
aI69846
aI75372
aI81863
aI2078
aI9621
aI15815
aI21488
aI28132
aI33164
aI38154
aI43370
aI48290
aI53751
aI59857
aI64931
aI70989
aI77529
aI84597
aI4976
aI10892
aI16393
aI22266
aI28209
aI33873
aI40355
aI46388
aI53653
aI59405
aI64958
aI71716
aI78746
aI84464
aI4141
aI10430
aI17756
aI26618
aI35289
aI41317
aI47420
aI53608
aI59631
aI65417
aI71373
aI77515
aI84658
aI4206
aI12761
aI18853
aI25544
aI31554
aI37379
aI43503
aI51389
aI60493
aI68015
aI73966
aI81605
aI2152
aI7921
aI15391
aI21401
aI28098
aI34166
aI41446
aI49211
aI56125
aI63837
aI69700
aI76586
aI84004
aI6266
aI15211
aI22631
aI28909
aI35971
aI43671
aI50037
aI57564
aI64316
aI70744
aI76774
aI82843
aI4317
aI10379
aI16204
aI22368
aI27730
aI33104
aI37773
aI41859
aI44741
as.