(dp0
S'nfe'
p1
(lp2
I50
aI100
aI150
aI200
aI250
aI300
aI350
aI400
aI450
aI500
aI550
aI600
aI650
aI700
aI750
aI800
aI850
aI900
aI950
aI1000
aI1050
aI1100
aI1150
aI1200
aI1250
aI1300
aI1350
aI1400
aI1450
aI1500
aI1550
aI1600
aI1650
aI1700
aI1750
aI1800
aI1850
aI1900
aI1950
aI2000
aI2050
aI2100
aI2150
aI2200
aI2250
aI2300
aI2350
aI2400
aI2450
aI2500
aI2550
aI2600
aI2650
aI2700
aI2750
aI2800
aI2850
aI2900
aI2950
aI3000
aI3050
aI3100
aI3150
aI3200
aI3250
aI3300
aI3350
aI3400
aI3450
aI3500
aI3550
aI3600
aI3650
aI3700
aI3750
aI3800
aI3850
aI3900
aI3950
aI4000
aI4050
aI4100
aI4150
aI4200
aI4250
aI4300
aI4350
aI4400
aI4450
aI4500
aI4550
aI4600
aI4650
aI4700
aI4750
aI4800
aI4850
aI4900
aI4950
aI5000
asS'best_f'
p3
(lp4
cnumpy.core.multiarray
scalar
p5
(cnumpy
dtype
p6
(S'f8'
p7
I0
I1
tp8
Rp9
(I3
S'<'
p10
NNNI-1
I-1
I0
tp11
bS'\x8bM\x84@U|"@'
p12
tp13
Rp14
ag14
ag5
(g9
S'\x89:\xa0\xa6C$ @'
p15
tp16
Rp17
ag5
(g9
S'i\xb8\x1e{x\xea\x17@'
p18
tp19
Rp20
ag20
ag5
(g9
S'\xd2\x02\xc5\xb9\xb4\x0f\x12@'
p21
tp22
Rp23
ag23
ag5
(g9
S'\xeb\xb9("p\x8a\x10@'
p24
tp25
Rp26
ag26
ag5
(g9
S'\x07\xb3Q\xfe\xe0t\x08@'
p27
tp28
Rp29
ag29
ag29
ag29
ag5
(g9
S'\x91J\x99\x8e\xfd\xc6\x04@'
p30
tp31
Rp32
ag32
ag32
ag32
ag32
ag32
ag32
ag5
(g9
S'!\xd7\x88\x92\xe4K\x03@'
p33
tp34
Rp35
ag35
ag35
ag35
ag35
ag35
ag35
ag35
ag35
ag35
ag35
ag35
ag35
ag35
ag35
ag35
ag35
ag35
ag35
ag35
ag35
ag35
ag35
ag35
ag5
(g9
S',!xeI\xfe\x02@'
p36
tp37
Rp38
ag38
ag38
ag38
ag38
ag38
ag38
ag38
ag38
ag38
ag38
ag38
ag38
ag38
ag38
ag38
ag38
ag38
ag38
ag38
ag38
ag38
ag38
ag38
ag38
ag38
ag38
ag38
ag38
ag5
(g9
S'\xb30\x05\x1bf\x86\x02@'
p39
tp40
Rp41
ag41
ag41
ag41
ag41
ag41
ag41
ag41
ag41
ag41
ag41
ag41
ag41
ag41
ag41
ag41
ag41
ag41
ag41
ag41
ag41
ag41
ag41
ag41
ag41
ag41
ag41
asS'best_P'
p42
(lp43
(itree
PTree
p44
(dp45
S'root'
p46
ccopy_reg
_reconstructor
p47
(ctree
Feature
p48
c__builtin__
object
p49
Ntp50
Rp51
(dp52
S'index'
p53
I5
sS'name'
p54
S'WYC'
p55
sS'l'
p56
g47
(ctree
Action
p57
g49
Ntp58
Rp59
(dp60
S'r'
p61
NsS'is_feature'
p62
I00
sS'value'
p63
S'Hedge_90'
p64
sg56
Nsbsg61
g47
(g57
g49
Ntp65
Rp66
(dp67
g61
Nsg62
I00
sg63
S'Flood_Control'
p68
sg56
NsbsS'threshold'
p69
F132.3644532155724
sg62
I01
sbsS'L'
p70
(lp71
g51
ag59
ag66
asS'N'
p72
I3
sbag44
a(itree
PTree
p73
(dp74
g46
g47
(g48
g49
Ntp75
Rp76
(dp77
g53
I1
sg61
g47
(g57
g49
Ntp78
Rp79
(dp80
g61
Nsg62
I00
sg63
S'Flood_Control'
p81
sg56
Nsbsg54
S'Inflow'
p82
sg69
F10.267430731034638
sg56
g47
(g57
g49
Ntp83
Rp84
(dp85
g61
Nsg62
I00
sg63
S'Release_Demand'
p86
sg56
Nsbsg62
I01
sbsg70
(lp87
g76
ag84
ag79
asg72
I3
sba(itree
PTree
p88
(dp89
g46
g47
(g48
g49
Ntp90
Rp91
(dp92
g53
I1
sg61
g47
(g57
g49
Ntp93
Rp94
(dp95
g61
Nsg62
I00
sg63
g81
sg56
Nsbsg54
g82
sg69
F15.047946292443621
sg56
g47
(g57
g49
Ntp96
Rp97
(dp98
g61
Nsg62
I00
sg63
g86
sg56
Nsbsg62
I01
sbsg70
(lp99
g91
ag97
ag94
asg72
I3
sbag88
a(itree
PTree
p100
(dp101
g46
g47
(g48
g49
Ntp102
Rp103
(dp104
g53
I0
sg61
g47
(g48
g49
Ntp105
Rp106
(dp107
g53
I2
sg61
g47
(g57
g49
Ntp108
Rp109
(dp110
g61
Nsg62
I00
sg63
S'Hedge_70'
p111
sg56
Nsbsg54
S'Day'
p112
sg69
F198.44188956514577
sg56
g47
(g57
g49
Ntp113
Rp114
(dp115
g61
Nsg62
I00
sg63
S'Flood_Control'
p116
sg56
Nsbsg62
I01
sbsg54
S'Storage'
p117
sg69
F30.50185703718634
sg56
g47
(g57
g49
Ntp118
Rp119
(dp120
g61
Nsg62
I00
sg63
S'Hedge_70'
p121
sg56
Nsbsg62
I01
sbsg70
(lp122
g103
ag119
ag106
ag114
ag109
asg72
I5
sbag100
a(itree
PTree
p123
(dp124
g46
g47
(g48
g49
Ntp125
Rp126
(dp127
g53
I1
sg61
g47
(g57
g49
Ntp128
Rp129
(dp130
g61
Nsg62
I00
sg63
g81
sg56
Nsbsg54
g82
sg69
F19.107962546189956
sg56
g47
(g57
g49
Ntp131
Rp132
(dp133
g61
Nsg62
I00
sg63
g86
sg56
Nsbsg62
I01
sbsg70
(lp134
g126
ag132
ag129
asg72
I3
sbag123
a(itree
PTree
p135
(dp136
g46
g47
(g48
g49
Ntp137
Rp138
(dp139
g53
I0
sg61
g47
(g48
g49
Ntp140
Rp141
(dp142
g53
I2
sg61
g47
(g57
g49
Ntp143
Rp144
(dp145
g61
Nsg62
I00
sg63
S'Hedge_70'
p146
sg56
Nsbsg54
g112
sg69
F175.7392838516788
sg56
g47
(g57
g49
Ntp147
Rp148
(dp149
g61
Nsg62
I00
sg63
S'Flood_Control'
p150
sg56
Nsbsg62
I01
sbsg54
g117
sg69
F64.75942705185153
sg56
g47
(g57
g49
Ntp151
Rp152
(dp153
g61
Nsg62
I00
sg63
S'Hedge_50'
p154
sg56
Nsbsg62
I01
sbsg70
(lp155
g138
ag152
ag141
ag148
ag144
asg72
I5
sbag135
ag135
ag135
a(itree
PTree
p156
(dp157
g46
g47
(g48
g49
Ntp158
Rp159
(dp160
g53
I0
sg61
g47
(g48
g49
Ntp161
Rp162
(dp163
g53
I2
sg61
g47
(g57
g49
Ntp164
Rp165
(dp166
g61
Nsg62
I00
sg63
S'Release_Demand'
p167
sg56
Nsbsg54
g112
sg69
F175.75703128136544
sg56
g47
(g57
g49
Ntp168
Rp169
(dp170
g61
Nsg62
I00
sg63
g116
sg56
Nsbsg62
I01
sbsg54
g117
sg69
F102.02419347505969
sg56
g47
(g57
g49
Ntp171
Rp172
(dp173
g61
Nsg62
I00
sg63
S'Hedge_70'
p174
sg56
Nsbsg62
I01
sbsg70
(lp175
g159
ag172
ag162
ag169
ag165
asg72
I5
sbag156
ag156
ag156
ag156
ag156
ag156
a(itree
PTree
p176
(dp177
g46
g47
(g48
g49
Ntp178
Rp179
(dp180
g53
I0
sg61
g47
(g48
g49
Ntp181
Rp182
(dp183
g53
I2
sg61
g47
(g57
g49
Ntp184
Rp185
(dp186
g61
Nsg62
I00
sg63
g167
sg56
Nsbsg54
g112
sg69
F175.75703128136544
sg56
g47
(g57
g49
Ntp187
Rp188
(dp189
g61
Nsg62
I00
sg63
g116
sg56
Nsbsg62
I01
sbsg54
g117
sg69
F124.23742778703568
sg56
g47
(g57
g49
Ntp190
Rp191
(dp192
g61
Nsg62
I00
sg63
g174
sg56
Nsbsg62
I01
sbsg70
(lp193
g179
ag191
ag182
ag188
ag185
asg72
I5
sbag176
ag176
ag176
ag176
ag176
ag176
ag176
ag176
ag176
ag176
ag176
ag176
ag176
ag176
ag176
ag176
ag176
ag176
ag176
ag176
ag176
ag176
ag176
a(itree
PTree
p194
(dp195
g46
g47
(g48
g49
Ntp196
Rp197
(dp198
g53
I0
sg61
g47
(g48
g49
Ntp199
Rp200
(dp201
g53
I2
sg61
g47
(g57
g49
Ntp202
Rp203
(dp204
g61
Nsg62
I00
sg63
g167
sg56
Nsbsg54
g112
sg69
F175.75703128136544
sg56
g47
(g57
g49
Ntp205
Rp206
(dp207
g61
Nsg62
I00
sg63
g116
sg56
Nsbsg62
I01
sbsg54
g117
sg69
F129.35275884615785
sg56
g47
(g57
g49
Ntp208
Rp209
(dp210
g61
Nsg62
I00
sg63
g174
sg56
Nsbsg62
I01
sbsg70
(lp211
g197
ag209
ag200
ag206
ag203
asg72
I5
sbag194
ag194
ag194
ag194
ag194
ag194
ag194
ag194
ag194
ag194
ag194
ag194
ag194
ag194
ag194
ag194
ag194
ag194
ag194
ag194
ag194
ag194
ag194
ag194
ag194
ag194
ag194
ag194
a(itree
PTree
p212
(dp213
g46
g47
(g48
g49
Ntp214
Rp215
(dp216
g53
I0
sg61
g47
(g48
g49
Ntp217
Rp218
(dp219
g53
I2
sg61
g47
(g57
g49
Ntp220
Rp221
(dp222
g61
Nsg62
I00
sg63
S'Hedge_80'
p223
sg56
Nsbsg54
g112
sg69
F177.59285148932562
sg56
g47
(g57
g49
Ntp224
Rp225
(dp226
g61
Nsg62
I00
sg63
S'Flood_Control'
p227
sg56
Nsbsg62
I01
sbsg54
g117
sg69
F138.08657891336
sg56
g47
(g57
g49
Ntp228
Rp229
(dp230
g61
Nsg62
I00
sg63
S'Hedge_80'
p231
sg56
Nsbsg62
I01
sbsg70
(lp232
g215
ag229
ag218
ag225
ag221
asg72
I5
sbag212
ag212
ag212
ag212
ag212
ag212
ag212
ag212
ag212
ag212
ag212
ag212
ag212
ag212
ag212
ag212
ag212
ag212
ag212
ag212
ag212
ag212
ag212
ag212
ag212
ag212
asS'time'
p233
(lp234
I12667
aI18728
aI25092
aI31062
aI37636
aI44021
aI50576
aI57182
aI63756
aI69980
aI76089
aI82193
aI1670
aI8425
aI15164
aI21792
aI28014
aI34344
aI40175
aI46883
aI52745
aI59135
aI65105
aI71380
aI78039
aI84166
aI4068
aI10824
aI17219
aI23546
aI30022
aI36520
aI42968
aI49492
aI55865
aI62700
aI68774
aI75348
aI81680
aI1811
aI8289
aI14296
aI20420
aI26809
aI33754
aI40240
aI47731
aI55887
aI61735
aI68119
aI74849
aI81842
aI1980
aI8735
aI15491
aI21972
aI28596
aI34828
aI41502
aI48104
aI55251
aI61785
aI68280
aI75286
aI81663
aI1726
aI8597
aI15320
aI21696
aI28947
aI35866
aI42112
aI48630
aI56774
aI63648
aI70298
aI77192
aI83312
aI3634
aI10294
aI17184
aI24146
aI30524
aI37477
aI45664
aI52422
aI58907
aI64651
aI70865
aI77127
aI83467
aI3559
aI9749
aI15807
aI21619
aI28169
aI34754
aI40488
aI45803
aI50676
as.