(dp0
S'nfe'
p1
(lp2
I50
aI100
aI150
aI200
aI250
aI300
aI350
aI400
aI450
aI500
aI550
aI600
aI650
aI700
aI750
aI800
aI850
aI900
aI950
aI1000
aI1050
aI1100
aI1150
aI1200
aI1250
aI1300
aI1350
aI1400
aI1450
aI1500
aI1550
aI1600
aI1650
aI1700
aI1750
aI1800
aI1850
aI1900
aI1950
aI2000
aI2050
aI2100
aI2150
aI2200
aI2250
aI2300
aI2350
aI2400
aI2450
aI2500
aI2550
aI2600
aI2650
aI2700
aI2750
aI2800
aI2850
aI2900
aI2950
aI3000
aI3050
aI3100
aI3150
aI3200
aI3250
aI3300
aI3350
aI3400
aI3450
aI3500
aI3550
aI3600
aI3650
aI3700
aI3750
aI3800
aI3850
aI3900
aI3950
aI4000
aI4050
aI4100
aI4150
aI4200
aI4250
aI4300
aI4350
aI4400
aI4450
aI4500
aI4550
aI4600
aI4650
aI4700
aI4750
aI4800
aI4850
aI4900
aI4950
aI5000
asS'best_f'
p3
(lp4
cnumpy.core.multiarray
scalar
p5
(cnumpy
dtype
p6
(S'f8'
p7
I0
I1
tp8
Rp9
(I3
S'<'
p10
NNNI-1
I-1
I0
tp11
bS'\xcd/S\r\xa4\xc2\x17@'
p12
tp13
Rp14
ag5
(g9
S'\x98\xfc\\S\xf4\xdf\x14@'
p15
tp16
Rp17
ag17
ag17
ag17
ag5
(g9
S'\xc4\x100\xe6(\xa0\x13@'
p18
tp19
Rp20
ag5
(g9
S'p\xd3\xe3\xd7\xd79\x12@'
p21
tp22
Rp23
ag5
(g9
S'|\x8d\x14\xc6\x83\xd1\x10@'
p24
tp25
Rp26
ag5
(g9
S'\xef\xa1\x16\xb3\xc3\t\x0f@'
p27
tp28
Rp29
ag5
(g9
S'\xaa4\xfb\xd8\x043\n@'
p30
tp31
Rp32
ag32
ag32
ag32
ag32
ag32
ag32
ag32
ag32
ag32
ag5
(g9
S'\xbf/\xcaX\xb4\xd1\t@'
p33
tp34
Rp35
ag35
ag5
(g9
S'%-\xc9"r\xf8\x08@'
p36
tp37
Rp38
ag38
ag38
ag38
ag38
ag38
ag38
ag38
ag38
ag38
ag38
ag38
ag38
ag38
ag38
ag38
ag38
ag38
ag38
ag38
ag38
ag38
ag38
ag38
ag38
ag38
ag38
ag38
ag38
ag38
ag38
ag38
ag38
ag38
ag38
ag38
ag38
ag38
ag38
ag38
ag38
ag38
ag38
ag38
ag38
ag38
ag38
ag38
ag38
ag38
ag38
ag38
ag38
ag38
ag38
ag38
ag38
ag38
ag38
ag38
ag38
ag38
ag38
ag38
ag38
ag38
ag38
ag38
ag38
ag38
ag38
ag38
ag38
ag38
ag38
ag38
ag38
ag38
ag38
asS'best_P'
p39
(lp40
(itree
PTree
p41
(dp42
S'root'
p43
ccopy_reg
_reconstructor
p44
(ctree
Feature
p45
c__builtin__
object
p46
Ntp47
Rp48
(dp49
S'index'
p50
I4
sS'name'
p51
S'LP3'
p52
sS'l'
p53
g44
(ctree
Action
p54
g46
Ntp55
Rp56
(dp57
S'r'
p58
NsS'is_feature'
p59
I00
sS'value'
p60
S'Hedge_60'
p61
sg53
Nsbsg58
g44
(g45
g46
Ntp62
Rp63
(dp64
g50
I4
sg51
g52
sg53
g44
(g45
g46
Ntp65
Rp66
(dp67
g50
I2
sg51
S'Day'
p68
sg53
g44
(g54
g46
Ntp69
Rp70
(dp71
g58
Nsg59
I00
sg60
S'Flood_Control'
p72
sg53
Nsbsg58
g44
(g54
g46
Ntp73
Rp74
(dp75
g58
Nsg59
I00
sg60
S'Hedge_90'
p76
sg53
NsbsS'threshold'
p77
F190.3276134722584
sg59
I01
sbsg58
g44
(g54
g46
Ntp78
Rp79
(dp80
g58
Nsg59
I00
sg60
S'Flood_Control'
p81
sg53
Nsbsg77
F188.93306170559435
sg59
I01
sbsg77
F129.77751256687966
sg59
I01
sbsS'L'
p82
(lp83
g48
ag56
ag63
ag66
ag70
ag74
ag79
asS'N'
p84
I7
sba(itree
PTree
p85
(dp86
g43
g44
(g45
g46
Ntp87
Rp88
(dp89
g50
I4
sg58
g44
(g45
g46
Ntp90
Rp91
(dp92
g50
I4
sg58
g44
(g54
g46
Ntp93
Rp94
(dp95
g58
Nsg59
I00
sg60
g81
sg53
Nsbsg51
g52
sg77
F201.30992672912947
sg53
g44
(g45
g46
Ntp96
Rp97
(dp98
g50
I2
sg58
g44
(g54
g46
Ntp99
Rp100
(dp101
g58
Nsg59
I00
sg60
g76
sg53
Nsbsg51
g68
sg77
F189.8516697469064
sg53
g44
(g54
g46
Ntp102
Rp103
(dp104
g58
Nsg59
I00
sg60
g72
sg53
Nsbsg59
I01
sbsg59
I01
sbsg51
g52
sg77
F128.14920969783262
sg53
g44
(g54
g46
Ntp105
Rp106
(dp107
g58
Nsg59
I00
sg60
g61
sg53
Nsbsg59
I01
sbsg82
(lp108
g88
ag106
ag91
ag97
ag103
ag100
ag94
asg84
I7
sbag85
ag85
ag85
a(itree
PTree
p109
(dp110
g43
g44
(g45
g46
Ntp111
Rp112
(dp113
g50
I4
sg58
g44
(g45
g46
Ntp114
Rp115
(dp116
g50
I2
sg58
g44
(g54
g46
Ntp117
Rp118
(dp119
g58
Nsg59
I00
sg60
S'Hedge_50'
p120
sg53
Nsbsg51
g68
sg77
F193.37189183930278
sg53
g44
(g54
g46
Ntp121
Rp122
(dp123
g58
Nsg59
I00
sg60
S'Flood_Control'
p124
sg53
Nsbsg59
I01
sbsg51
g52
sg77
F119.9618775275793
sg53
g44
(g54
g46
Ntp125
Rp126
(dp127
g58
Nsg59
I00
sg60
S'Hedge_60'
p128
sg53
Nsbsg59
I01
sbsg82
(lp129
g112
ag126
ag115
ag122
ag118
asg84
I5
sba(itree
PTree
p130
(dp131
g43
g44
(g45
g46
Ntp132
Rp133
(dp134
g50
I2
sg58
g44
(g54
g46
Ntp135
Rp136
(dp137
g58
Nsg59
I00
sg60
S'Hedge_80'
p138
sg53
Nsbsg51
g68
sg77
F198.49309781560294
sg53
g44
(g54
g46
Ntp139
Rp140
(dp141
g58
Nsg59
I00
sg60
S'Flood_Control'
p142
sg53
Nsbsg59
I01
sbsg82
(lp143
g133
ag140
ag136
asg84
I3
sba(itree
PTree
p144
(dp145
g43
g44
(g45
g46
Ntp146
Rp147
(dp148
g50
I2
sg58
g44
(g54
g46
Ntp149
Rp150
(dp151
g58
Nsg59
I00
sg60
S'Release_Demand'
p152
sg53
Nsbsg51
g68
sg77
F189.8516697469064
sg53
g44
(g54
g46
Ntp153
Rp154
(dp155
g58
Nsg59
I00
sg60
S'Flood_Control'
p156
sg53
Nsbsg59
I01
sbsg82
(lp157
g147
ag154
ag150
asg84
I3
sba(itree
PTree
p158
(dp159
g43
g44
(g45
g46
Ntp160
Rp161
(dp162
g50
I4
sg58
g44
(g45
g46
Ntp163
Rp164
(dp165
g50
I2
sg58
g44
(g54
g46
Ntp166
Rp167
(dp168
g58
Nsg59
I00
sg60
S'Hedge_90'
p169
sg53
Nsbsg51
g68
sg77
F188.8017105195836
sg53
g44
(g54
g46
Ntp170
Rp171
(dp172
g58
Nsg59
I00
sg60
g124
sg53
Nsbsg59
I01
sbsg51
g52
sg77
F105.0848191268208
sg53
g44
(g54
g46
Ntp173
Rp174
(dp175
g58
Nsg59
I00
sg60
S'Flood_Control'
p176
sg53
Nsbsg59
I01
sbsg82
(lp177
g161
ag174
ag164
ag171
ag167
asg84
I5
sba(itree
PTree
p178
(dp179
g43
g44
(g45
g46
Ntp180
Rp181
(dp182
g50
I2
sg58
g44
(g54
g46
Ntp183
Rp184
(dp185
g58
Nsg59
I00
sg60
S'Hedge_90'
p186
sg53
Nsbsg51
g68
sg77
F178.99991804632492
sg53
g44
(g54
g46
Ntp187
Rp188
(dp189
g58
Nsg59
I00
sg60
S'Flood_Control'
p190
sg53
Nsbsg59
I01
sbsg82
(lp191
g181
ag188
ag184
asg84
I3
sbag178
ag178
ag178
ag178
ag178
ag178
ag178
ag178
ag178
a(itree
PTree
p192
(dp193
g43
g44
(g45
g46
Ntp194
Rp195
(dp196
g50
I2
sg58
g44
(g54
g46
Ntp197
Rp198
(dp199
g58
Nsg59
I00
sg60
g186
sg53
Nsbsg51
g68
sg77
F177.74096459316223
sg53
g44
(g54
g46
Ntp200
Rp201
(dp202
g58
Nsg59
I00
sg60
g190
sg53
Nsbsg59
I01
sbsg82
(lp203
g195
ag201
ag198
asg84
I3
sbag192
a(itree
PTree
p204
(dp205
g43
g44
(g45
g46
Ntp206
Rp207
(dp208
g50
I2
sg58
g44
(g54
g46
Ntp209
Rp210
(dp211
g58
Nsg59
I00
sg60
S'Hedge_80'
p212
sg53
Nsbsg51
g68
sg77
F175.88268267560002
sg53
g44
(g54
g46
Ntp213
Rp214
(dp215
g58
Nsg59
I00
sg60
S'Flood_Control'
p216
sg53
Nsbsg59
I01
sbsg82
(lp217
g207
ag214
ag210
asg84
I3
sbag204
ag204
ag204
ag204
ag204
ag204
ag204
ag204
ag204
ag204
ag204
ag204
ag204
ag204
ag204
ag204
ag204
ag204
ag204
ag204
ag204
ag204
ag204
ag204
ag204
ag204
ag204
ag204
ag204
ag204
ag204
ag204
ag204
ag204
ag204
ag204
ag204
ag204
ag204
ag204
ag204
ag204
ag204
ag204
ag204
ag204
ag204
ag204
ag204
ag204
ag204
ag204
ag204
ag204
ag204
ag204
ag204
ag204
ag204
ag204
ag204
ag204
ag204
ag204
ag204
ag204
ag204
ag204
ag204
ag204
ag204
ag204
ag204
ag204
ag204
ag204
ag204
ag204
asS'time'
p218
(lp219
I11409
aI17919
aI25564
aI31396
aI36957
aI42433
aI48594
aI55557
aI62106
aI68895
aI75529
aI81716
aI1395
aI7147
aI13060
aI19102
aI25142
aI31090
aI36783
aI42310
aI49134
aI54551
aI59883
aI66170
aI73099
aI80577
aI617
aI6037
aI11356
aI17471
aI23903
aI30223
aI36451
aI42530
aI48570
aI54306
aI60091
aI65956
aI71839
aI77889
aI83833
aI4637
aI12309
aI18939
aI24757
aI30371
aI36163
aI42157
aI48212
aI55011
aI63359
aI70764
aI78381
aI84642
aI4788
aI13257
aI21332
aI27543
aI33647
aI39617
aI45659
aI54427
aI63400
aI70168
aI75935
aI81968
aI1904
aI7613
aI13423
aI19458
aI25569
aI31537
aI38286
aI44393
aI50820
aI57051
aI63113
aI69401
aI75714
aI81776
aI1147
aI6793
aI12647
aI18650
aI25414
aI33651
aI40741
aI47466
aI55067
aI60996
aI67640
aI73829
aI79880
aI85935
aI6205
aI12981
aI18692
aI24380
aI29675
aI34503
as.