(dp0
S'nfe'
p1
(lp2
I50
aI100
aI150
aI200
aI250
aI300
aI350
aI400
aI450
aI500
aI550
aI600
aI650
aI700
aI750
aI800
aI850
aI900
aI950
aI1000
aI1050
aI1100
aI1150
aI1200
aI1250
aI1300
aI1350
aI1400
aI1450
aI1500
aI1550
aI1600
aI1650
aI1700
aI1750
aI1800
aI1850
aI1900
aI1950
aI2000
aI2050
aI2100
aI2150
aI2200
aI2250
aI2300
aI2350
aI2400
aI2450
aI2500
aI2550
aI2600
aI2650
aI2700
aI2750
aI2800
aI2850
aI2900
aI2950
aI3000
aI3050
aI3100
aI3150
aI3200
aI3250
aI3300
aI3350
aI3400
aI3450
aI3500
aI3550
aI3600
aI3650
aI3700
aI3750
aI3800
aI3850
aI3900
aI3950
aI4000
aI4050
aI4100
aI4150
aI4200
aI4250
aI4300
aI4350
aI4400
aI4450
aI4500
aI4550
aI4600
aI4650
aI4700
aI4750
aI4800
aI4850
aI4900
aI4950
aI5000
asS'best_f'
p3
(lp4
cnumpy.core.multiarray
scalar
p5
(cnumpy
dtype
p6
(S'f8'
p7
I0
I1
tp8
Rp9
(I3
S'<'
p10
NNNI-1
I-1
I0
tp11
bS'\xfa\x02G:\x9f}"@'
p12
tp13
Rp14
ag5
(g9
S'\x95\x17a\xf5\xd7v"@'
p15
tp16
Rp17
ag17
ag5
(g9
S't\xcdM\xd4|\xa2\x0f@'
p18
tp19
Rp20
ag5
(g9
S'\x90\xae\xa4=\xe4=\x0c@'
p21
tp22
Rp23
ag23
ag23
ag23
ag23
ag23
ag23
ag23
ag5
(g9
S'\xf0\x95gk\xb1t\t@'
p24
tp25
Rp26
ag26
ag26
ag26
ag5
(g9
S'\x00\x9f\xc6\xdb\xe4J\t@'
p27
tp28
Rp29
ag29
ag29
ag29
ag29
ag29
ag29
ag29
ag29
ag29
ag5
(g9
S'%-\xc9"r\xf8\x08@'
p30
tp31
Rp32
ag32
ag32
ag32
ag32
ag32
ag32
ag32
ag32
ag32
ag32
ag32
ag32
ag32
ag32
ag5
(g9
S'\xdb\xf8\x92\x88\x88\xe9\x08@'
p33
tp34
Rp35
ag35
ag35
ag35
ag35
ag35
ag35
ag35
ag35
ag35
ag35
ag35
ag35
ag35
ag35
ag35
ag35
ag35
ag35
ag35
ag35
ag35
ag35
ag5
(g9
S'\xae\x9f\x0c\x08H\xc2\x08@'
p36
tp37
Rp38
ag38
ag38
ag38
ag38
ag38
ag38
ag38
ag38
ag38
ag38
ag38
ag38
ag38
ag5
(g9
S'\xab\x1d:{R\x90\x08@'
p39
tp40
Rp41
ag5
(g9
S'\xc2]O\xa7\xa0\x8f\x08@'
p42
tp43
Rp44
ag5
(g9
S'\x8b\xf4\x83\xf8\xf1"\x08@'
p45
tp46
Rp47
ag47
ag47
ag47
ag47
ag47
ag47
ag47
ag47
ag47
ag47
ag47
ag47
ag47
ag47
ag47
ag47
ag47
ag47
ag47
asS'best_P'
p48
(lp49
(itree
PTree
p50
(dp51
S'root'
p52
ccopy_reg
_reconstructor
p53
(ctree
Feature
p54
c__builtin__
object
p55
Ntp56
Rp57
(dp58
S'index'
p59
I2
sS'name'
p60
S'Day'
p61
sS'l'
p62
g53
(ctree
Action
p63
g55
Ntp64
Rp65
(dp66
S'r'
p67
NsS'is_feature'
p68
I00
sS'value'
p69
S'Flood_Control'
p70
sg62
Nsbsg67
g53
(g63
g55
Ntp71
Rp72
(dp73
g67
Nsg68
I00
sg69
S'Flood_Control'
p74
sg62
NsbsS'threshold'
p75
F4.647485146421124
sg68
I01
sbsS'L'
p76
(lp77
g57
ag65
ag72
asS'N'
p78
I3
sba(itree
PTree
p79
(dp80
g52
g53
(g54
g55
Ntp81
Rp82
(dp83
g59
I0
sg67
g53
(g63
g55
Ntp84
Rp85
(dp86
g67
Nsg68
I00
sg69
S'Hedge_80'
p87
sg62
Nsbsg60
S'Storage'
p88
sg75
F905.5163568218304
sg62
g53
(g63
g55
Ntp89
Rp90
(dp91
g67
Nsg68
I00
sg69
S'Flood_Control'
p92
sg62
Nsbsg68
I01
sbsg76
(lp93
g82
ag90
ag85
asg78
I3
sbag79
a(itree
PTree
p94
(dp95
g52
g53
(g54
g55
Ntp96
Rp97
(dp98
g59
I2
sg67
g53
(g63
g55
Ntp99
Rp100
(dp101
g67
Nsg68
I00
sg69
S'Hedge_90'
p102
sg62
Nsbsg60
g61
sg75
F189.97214383048012
sg62
g53
(g63
g55
Ntp103
Rp104
(dp105
g67
Nsg68
I00
sg69
S'Flood_Control'
p106
sg62
Nsbsg68
I01
sbsg76
(lp107
g97
ag104
ag100
asg78
I3
sba(itree
PTree
p108
(dp109
g52
g53
(g54
g55
Ntp110
Rp111
(dp112
g59
I2
sg67
g53
(g63
g55
Ntp113
Rp114
(dp115
g67
Nsg68
I00
sg69
S'Hedge_70'
p116
sg62
Nsbsg60
g61
sg75
F181.68349621308116
sg62
g53
(g63
g55
Ntp117
Rp118
(dp119
g67
Nsg68
I00
sg69
S'Flood_Control'
p120
sg62
Nsbsg68
I01
sbsg76
(lp121
g111
ag118
ag114
asg78
I3
sbag108
ag108
ag108
ag108
ag108
ag108
ag108
a(itree
PTree
p122
(dp123
g52
g53
(g54
g55
Ntp124
Rp125
(dp126
g59
I2
sg67
g53
(g63
g55
Ntp127
Rp128
(dp129
g67
Nsg68
I00
sg69
S'Hedge_90'
p130
sg62
Nsbsg60
g61
sg75
F176.486904583612
sg62
g53
(g63
g55
Ntp131
Rp132
(dp133
g67
Nsg68
I00
sg69
S'Flood_Control'
p134
sg62
Nsbsg68
I01
sbsg76
(lp135
g125
ag132
ag128
asg78
I3
sbag122
ag122
ag122
a(itree
PTree
p136
(dp137
g52
g53
(g54
g55
Ntp138
Rp139
(dp140
g59
I2
sg67
g53
(g63
g55
Ntp141
Rp142
(dp143
g67
Nsg68
I00
sg69
S'Hedge_80'
p144
sg62
Nsbsg60
g61
sg75
F363.18176804814345
sg62
g53
(g54
g55
Ntp145
Rp146
(dp147
g59
I2
sg67
g53
(g63
g55
Ntp148
Rp149
(dp150
g67
Nsg68
I00
sg69
S'Hedge_80'
p151
sg62
Nsbsg60
g61
sg75
F176.66517627555447
sg62
g53
(g63
g55
Ntp152
Rp153
(dp154
g67
Nsg68
I00
sg69
S'Flood_Control'
p155
sg62
Nsbsg68
I01
sbsg68
I01
sbsg76
(lp156
g139
ag146
ag153
ag149
ag142
asg78
I5
sbag136
ag136
ag136
ag136
ag136
ag136
ag136
ag136
ag136
a(itree
PTree
p157
(dp158
g52
g53
(g54
g55
Ntp159
Rp160
(dp161
g59
I2
sg67
g53
(g63
g55
Ntp162
Rp163
(dp164
g67
Nsg68
I00
sg69
S'Hedge_80'
p165
sg62
Nsbsg60
g61
sg75
F175.33131121602693
sg62
g53
(g63
g55
Ntp166
Rp167
(dp168
g67
Nsg68
I00
sg69
S'Flood_Control'
p169
sg62
Nsbsg68
I01
sbsg76
(lp170
g160
ag167
ag163
asg78
I3
sbag157
ag157
ag157
ag157
ag157
ag157
ag157
ag157
ag157
ag157
ag157
ag157
ag157
ag157
a(itree
PTree
p171
(dp172
g52
g53
(g54
g55
Ntp173
Rp174
(dp175
g59
I2
sg67
g53
(g63
g55
Ntp176
Rp177
(dp178
g67
Nsg68
I00
sg69
S'Hedge_90'
p179
sg62
Nsbsg60
g61
sg75
F296.9105881560472
sg62
g53
(g54
g55
Ntp180
Rp181
(dp182
g59
I2
sg67
g53
(g63
g55
Ntp183
Rp184
(dp185
g67
Nsg68
I00
sg69
S'Hedge_80'
p186
sg62
Nsbsg60
g61
sg75
F176.6535768776532
sg62
g53
(g63
g55
Ntp187
Rp188
(dp189
g67
Nsg68
I00
sg69
g134
sg62
Nsbsg68
I01
sbsg68
I01
sbsg76
(lp190
g174
ag181
ag188
ag184
ag177
asg78
I5
sbag171
ag171
ag171
ag171
ag171
ag171
ag171
ag171
ag171
ag171
ag171
ag171
ag171
ag171
ag171
ag171
ag171
ag171
ag171
ag171
ag171
ag171
a(itree
PTree
p191
(dp192
g52
g53
(g54
g55
Ntp193
Rp194
(dp195
g59
I2
sg67
g53
(g63
g55
Ntp196
Rp197
(dp198
g67
Nsg68
I00
sg69
g179
sg62
Nsbsg60
g61
sg75
F273.4488948200843
sg62
g53
(g54
g55
Ntp199
Rp200
(dp201
g59
I2
sg67
g53
(g63
g55
Ntp202
Rp203
(dp204
g67
Nsg68
I00
sg69
g186
sg62
Nsbsg60
g61
sg75
F176.6535768776532
sg62
g53
(g63
g55
Ntp205
Rp206
(dp207
g67
Nsg68
I00
sg69
g134
sg62
Nsbsg68
I01
sbsg68
I01
sbsg76
(lp208
g194
ag200
ag206
ag203
ag197
asg78
I5
sbag191
ag191
ag191
ag191
ag191
ag191
ag191
ag191
ag191
ag191
ag191
ag191
ag191
a(itree
PTree
p209
(dp210
g52
g53
(g54
g55
Ntp211
Rp212
(dp213
g59
I2
sg67
g53
(g63
g55
Ntp214
Rp215
(dp216
g67
Nsg68
I00
sg69
g179
sg62
Nsbsg60
g61
sg75
F244.4602379382553
sg62
g53
(g54
g55
Ntp217
Rp218
(dp219
g59
I2
sg67
g53
(g63
g55
Ntp220
Rp221
(dp222
g67
Nsg68
I00
sg69
g186
sg62
Nsbsg60
g61
sg75
F175.67119689615146
sg62
g53
(g63
g55
Ntp223
Rp224
(dp225
g67
Nsg68
I00
sg69
g134
sg62
Nsbsg68
I01
sbsg68
I01
sbsg76
(lp226
g212
ag218
ag224
ag221
ag215
asg78
I5
sba(itree
PTree
p227
(dp228
g52
g53
(g54
g55
Ntp229
Rp230
(dp231
g59
I2
sg67
g53
(g63
g55
Ntp232
Rp233
(dp234
g67
Nsg68
I00
sg69
g179
sg62
Nsbsg60
g61
sg75
F222.29697146886744
sg62
g53
(g54
g55
Ntp235
Rp236
(dp237
g59
I2
sg67
g53
(g63
g55
Ntp238
Rp239
(dp240
g67
Nsg68
I00
sg69
S'Hedge_70'
p241
sg62
Nsbsg60
g61
sg75
F175.93564980824326
sg62
g53
(g63
g55
Ntp242
Rp243
(dp244
g67
Nsg68
I00
sg69
g134
sg62
Nsbsg68
I01
sbsg68
I01
sbsg76
(lp245
g230
ag236
ag243
ag239
ag233
asg78
I5
sba(itree
PTree
p246
(dp247
g52
g53
(g54
g55
Ntp248
Rp249
(dp250
g59
I2
sg67
g53
(g63
g55
Ntp251
Rp252
(dp253
g67
Nsg68
I00
sg69
g179
sg62
Nsbsg60
g61
sg75
F258.2614668278537
sg62
g53
(g54
g55
Ntp254
Rp255
(dp256
g59
I2
sg67
g53
(g63
g55
Ntp257
Rp258
(dp259
g67
Nsg68
I00
sg69
g241
sg62
Nsbsg60
g61
sg75
F175.03771665650902
sg62
g53
(g63
g55
Ntp260
Rp261
(dp262
g67
Nsg68
I00
sg69
g134
sg62
Nsbsg68
I01
sbsg68
I01
sbsg76
(lp263
g249
ag255
ag261
ag258
ag252
asg78
I5
sbag246
ag246
ag246
ag246
ag246
ag246
ag246
ag246
ag246
ag246
ag246
ag246
ag246
ag246
ag246
ag246
ag246
ag246
ag246
asS'time'
p264
(lp265
I12335
aI18825
aI24724
aI31019
aI37215
aI43790
aI50306
aI57104
aI63924
aI70589
aI76830
aI82767
aI2853
aI9634
aI16236
aI22464
aI28872
aI34977
aI41210
aI47068
aI53395
aI59624
aI65331
aI72007
aI78894
aI85083
aI4640
aI11008
aI17607
aI24085
aI30655
aI37261
aI44177
aI51725
aI58530
aI65033
aI71158
aI77788
aI83848
aI4083
aI10719
aI16865
aI23316
aI29831
aI36279
aI42544
aI50145
aI56707
aI62642
aI68933
aI75782
aI82640
aI2638
aI9103
aI15671
aI22221
aI28862
aI35412
aI41518
aI48605
aI54899
aI61434
aI67773
aI74219
aI80467
aI39
aI7224
aI13811
aI20004
aI26480
aI33675
aI40140
aI46347
aI52351
aI58485
aI64930
aI71462
aI78621
aI85437
aI5592
aI11946
aI18505
aI25503
aI31904
aI38053
aI44276
aI51028
aI57819
aI64973
aI71497
aI78279
aI84944
aI4871
aI11288
aI18035
aI24299
aI30644
aI36413
aI41983
aI47285
as.