(dp0
S'nfe'
p1
(lp2
I50
aI100
aI150
aI200
aI250
aI300
aI350
aI400
aI450
aI500
aI550
aI600
aI650
aI700
aI750
aI800
aI850
aI900
aI950
aI1000
aI1050
aI1100
aI1150
aI1200
aI1250
aI1300
aI1350
aI1400
aI1450
aI1500
aI1550
aI1600
aI1650
aI1700
aI1750
aI1800
aI1850
aI1900
aI1950
aI2000
aI2050
aI2100
aI2150
aI2200
aI2250
aI2300
aI2350
aI2400
aI2450
aI2500
aI2550
aI2600
aI2650
aI2700
aI2750
aI2800
aI2850
aI2900
aI2950
aI3000
aI3050
aI3100
aI3150
aI3200
aI3250
aI3300
aI3350
aI3400
aI3450
aI3500
aI3550
aI3600
aI3650
aI3700
aI3750
aI3800
aI3850
aI3900
aI3950
aI4000
aI4050
aI4100
aI4150
aI4200
aI4250
aI4300
aI4350
aI4400
aI4450
aI4500
aI4550
aI4600
aI4650
aI4700
aI4750
aI4800
aI4850
aI4900
aI4950
aI5000
asS'best_f'
p3
(lp4
cnumpy.core.multiarray
scalar
p5
(cnumpy
dtype
p6
(S'f8'
p7
I0
I1
tp8
Rp9
(I3
S'<'
p10
NNNI-1
I-1
I0
tp11
bS'3N\x05E\xd4y"@'
p12
tp13
Rp14
ag5
(g9
S'G\x19\xa8\xe7\x18q"@'
p15
tp16
Rp17
ag17
ag17
ag5
(g9
S'/\xec\x92\xf5\xacR"@'
p18
tp19
Rp20
ag20
ag5
(g9
S"\x03'\xadX\x14f\x11@"
p21
tp22
Rp23
ag23
ag23
ag23
ag23
ag23
ag23
ag23
ag23
ag23
ag23
ag23
ag23
ag23
ag5
(g9
S'\x04Ia\xf7\xb6_\n@'
p24
tp25
Rp26
ag26
ag26
ag26
ag26
ag26
ag26
ag26
ag26
ag26
ag26
ag5
(g9
S'\xbf/\xcaX\xb4\xd1\t@'
p27
tp28
Rp29
ag29
ag5
(g9
S'\xf0\x95gk\xb1t\t@'
p30
tp31
Rp32
ag32
ag5
(g9
S'\xe4(A\xe9\x91\x19\t@'
p33
tp34
Rp35
ag35
ag35
ag35
ag35
ag35
ag35
ag35
ag35
ag35
ag35
ag35
ag35
ag35
ag35
ag35
ag35
ag35
ag35
ag35
ag5
(g9
S'%-\xc9"r\xf8\x08@'
p36
tp37
Rp38
ag38
ag38
ag38
ag38
ag38
ag38
ag38
ag38
ag38
ag38
ag38
ag38
ag38
ag38
ag38
ag38
ag38
ag38
ag38
ag38
ag38
ag38
ag38
ag38
ag38
ag38
ag38
ag38
ag38
ag38
ag38
ag38
ag38
ag38
ag38
ag38
ag38
ag38
ag38
ag38
ag38
ag38
ag38
ag38
asS'best_P'
p39
(lp40
(itree
PTree
p41
(dp42
S'root'
p43
ccopy_reg
_reconstructor
p44
(ctree
Feature
p45
c__builtin__
object
p46
Ntp47
Rp48
(dp49
S'index'
p50
I3
sS'name'
p51
S'AnnQ'
p52
sS'l'
p53
g44
(g45
g46
Ntp54
Rp55
(dp56
g50
I4
sg51
S'LP3'
p57
sg53
g44
(g45
g46
Ntp58
Rp59
(dp60
g50
I4
sg51
g57
sg53
g44
(ctree
Action
p61
g46
Ntp62
Rp63
(dp64
S'r'
p65
NsS'is_feature'
p66
I00
sS'value'
p67
S'Release_Demand'
p68
sg53
Nsbsg65
g44
(g45
g46
Ntp69
Rp70
(dp71
g50
I3
sg51
g52
sg53
g44
(g61
g46
Ntp72
Rp73
(dp74
g65
Nsg66
I00
sg67
S'Flood_Control'
p75
sg53
Nsbsg65
g44
(g61
g46
Ntp76
Rp77
(dp78
g65
Nsg66
I00
sg67
S'Release_Demand'
p79
sg53
NsbsS'threshold'
p80
F2348.8907973996843
sg66
I01
sbsg80
F112.3598735328781
sg66
I01
sbsg65
g44
(g61
g46
Ntp81
Rp82
(dp83
g65
Nsg66
I00
sg67
S'Flood_Control'
p84
sg53
Nsbsg80
F133.16341426057826
sg66
I01
sbsg65
g44
(g61
g46
Ntp85
Rp86
(dp87
g65
Nsg66
I00
sg67
S'Flood_Control'
p88
sg53
Nsbsg80
F3388.8232377147806
sg66
I01
sbsS'L'
p89
(lp90
g48
ag55
ag59
ag63
ag70
ag73
ag77
ag82
ag86
asS'N'
p91
I9
sba(itree
PTree
p92
(dp93
g43
g44
(g45
g46
Ntp94
Rp95
(dp96
g50
I4
sg65
g44
(g61
g46
Ntp97
Rp98
(dp99
g65
Nsg66
I00
sg67
S'Flood_Control'
p100
sg53
Nsbsg51
g57
sg80
F122.033239396921
sg53
g44
(g61
g46
Ntp101
Rp102
(dp103
g65
Nsg66
I00
sg67
S'Hedge_70'
p104
sg53
Nsbsg66
I01
sbsg89
(lp105
g95
ag102
ag98
asg91
I3
sbag92
ag92
a(itree
PTree
p106
(dp107
g43
g44
(g45
g46
Ntp108
Rp109
(dp110
g50
I4
sg65
g44
(g61
g46
Ntp111
Rp112
(dp113
g65
Nsg66
I00
sg67
g100
sg53
Nsbsg51
g57
sg80
F128.97157063573954
sg53
g44
(g61
g46
Ntp114
Rp115
(dp116
g65
Nsg66
I00
sg67
g104
sg53
Nsbsg66
I01
sbsg89
(lp117
g109
ag115
ag112
asg91
I3
sbag106
a(itree
PTree
p118
(dp119
g43
g44
(g45
g46
Ntp120
Rp121
(dp122
g50
I1
sg65
g44
(g61
g46
Ntp123
Rp124
(dp125
g65
Nsg66
I00
sg67
S'Flood_Control'
p126
sg53
Nsbsg51
S'Inflow'
p127
sg80
F18.58373573960432
sg53
g44
(g61
g46
Ntp128
Rp129
(dp130
g65
Nsg66
I00
sg67
S'Release_Demand'
p131
sg53
Nsbsg66
I01
sbsg89
(lp132
g121
ag129
ag124
asg91
I3
sbag118
ag118
ag118
ag118
ag118
ag118
ag118
ag118
ag118
ag118
ag118
ag118
ag118
a(itree
PTree
p133
(dp134
g43
g44
(g45
g46
Ntp135
Rp136
(dp137
g50
I2
sg65
g44
(g61
g46
Ntp138
Rp139
(dp140
g65
Nsg66
I00
sg67
S'Hedge_70'
p141
sg53
Nsbsg51
S'Day'
p142
sg80
F175.73188593372612
sg53
g44
(g61
g46
Ntp143
Rp144
(dp145
g65
Nsg66
I00
sg67
S'Flood_Control'
p146
sg53
Nsbsg66
I01
sbsg89
(lp147
g136
ag144
ag139
asg91
I3
sbag133
ag133
ag133
ag133
ag133
ag133
ag133
ag133
ag133
ag133
a(itree
PTree
p148
(dp149
g43
g44
(g45
g46
Ntp150
Rp151
(dp152
g50
I2
sg65
g44
(g61
g46
Ntp153
Rp154
(dp155
g65
Nsg66
I00
sg67
S'Hedge_90'
p156
sg53
Nsbsg51
g142
sg80
F177.44787420805287
sg53
g44
(g61
g46
Ntp157
Rp158
(dp159
g65
Nsg66
I00
sg67
g146
sg53
Nsbsg66
I01
sbsg89
(lp160
g151
ag158
ag154
asg91
I3
sbag148
a(itree
PTree
p161
(dp162
g43
g44
(g45
g46
Ntp163
Rp164
(dp165
g50
I2
sg65
g44
(g61
g46
Ntp166
Rp167
(dp168
g65
Nsg66
I00
sg67
S'Hedge_90'
p169
sg53
Nsbsg51
g142
sg80
F176.65281440200255
sg53
g44
(g61
g46
Ntp170
Rp171
(dp172
g65
Nsg66
I00
sg67
g146
sg53
Nsbsg66
I01
sbsg89
(lp173
g164
ag171
ag167
asg91
I3
sbag161
a(itree
PTree
p174
(dp175
g43
g44
(g45
g46
Ntp176
Rp177
(dp178
g50
I2
sg65
g44
(g61
g46
Ntp179
Rp180
(dp181
g65
Nsg66
I00
sg67
S'Hedge_90'
p182
sg53
Nsbsg51
g142
sg80
F175.72173327585367
sg53
g44
(g61
g46
Ntp183
Rp184
(dp185
g65
Nsg66
I00
sg67
S'Flood_Control'
p186
sg53
Nsbsg66
I01
sbsg89
(lp187
g177
ag184
ag180
asg91
I3
sbag174
ag174
ag174
ag174
ag174
ag174
ag174
ag174
ag174
ag174
ag174
ag174
ag174
ag174
ag174
ag174
ag174
ag174
ag174
a(itree
PTree
p188
(dp189
g43
g44
(g45
g46
Ntp190
Rp191
(dp192
g50
I2
sg65
g44
(g61
g46
Ntp193
Rp194
(dp195
g65
Nsg66
I00
sg67
S'Hedge_80'
p196
sg53
Nsbsg51
g142
sg80
F175.46607810447068
sg53
g44
(g61
g46
Ntp197
Rp198
(dp199
g65
Nsg66
I00
sg67
S'Flood_Control'
p200
sg53
Nsbsg66
I01
sbsg89
(lp201
g191
ag198
ag194
asg91
I3
sbag188
ag188
ag188
ag188
ag188
ag188
ag188
ag188
ag188
ag188
ag188
ag188
ag188
ag188
ag188
ag188
ag188
ag188
ag188
ag188
ag188
ag188
ag188
ag188
ag188
ag188
ag188
ag188
ag188
ag188
ag188
ag188
ag188
ag188
ag188
ag188
ag188
ag188
ag188
ag188
ag188
ag188
ag188
ag188
asS'time'
p202
(lp203
I12865
aI18940
aI24207
aI29844
aI35860
aI42531
aI49316
aI56600
aI63036
aI69887
aI76949
aI82754
aI2048
aI7644
aI13267
aI19871
aI25752
aI31052
aI36840
aI42566
aI48873
aI54097
aI60042
aI65254
aI71656
aI78021
aI84837
aI5049
aI10359
aI16561
aI24005
aI30104
aI36699
aI43177
aI49375
aI55868
aI62475
aI68368
aI74866
aI82329
aI3522
aI10320
aI16242
aI22075
aI28157
aI34177
aI40511
aI46752
aI54109
aI62166
aI68244
aI74388
aI80753
aI2469
aI8731
aI14695
aI20623
aI26967
aI33742
aI41707
aI48221
aI53985
aI60458
aI66821
aI72891
aI80412
aI86388
aI5887
aI11929
aI19461
aI26563
aI34706
aI41644
aI48027
aI54668
aI62597
aI68586
aI75973
aI84080
aI6802
aI14674
aI20581
aI26430
aI33629
aI41241
aI48358
aI56351
aI63877
aI70059
aI76201
aI82279
aI1768
aI7918
aI14865
aI21277
aI26851
aI32153
aI37018
aI40769
aI45374
as.