(dp0
S'nfe'
p1
(lp2
I50
aI100
aI150
aI200
aI250
aI300
aI350
aI400
aI450
aI500
aI550
aI600
aI650
aI700
aI750
aI800
aI850
aI900
aI950
aI1000
aI1050
aI1100
aI1150
aI1200
aI1250
aI1300
aI1350
aI1400
aI1450
aI1500
aI1550
aI1600
aI1650
aI1700
aI1750
aI1800
aI1850
aI1900
aI1950
aI2000
aI2050
aI2100
aI2150
aI2200
aI2250
aI2300
aI2350
aI2400
aI2450
aI2500
aI2550
aI2600
aI2650
aI2700
aI2750
aI2800
aI2850
aI2900
aI2950
aI3000
aI3050
aI3100
aI3150
aI3200
aI3250
aI3300
aI3350
aI3400
aI3450
aI3500
aI3550
aI3600
aI3650
aI3700
aI3750
aI3800
aI3850
aI3900
aI3950
aI4000
aI4050
aI4100
aI4150
aI4200
aI4250
aI4300
aI4350
aI4400
aI4450
aI4500
aI4550
aI4600
aI4650
aI4700
aI4750
aI4800
aI4850
aI4900
aI4950
aI5000
asS'best_f'
p3
(lp4
cnumpy.core.multiarray
scalar
p5
(cnumpy
dtype
p6
(S'f8'
p7
I0
I1
tp8
Rp9
(I3
S'<'
p10
NNNI-1
I-1
I0
tp11
bS'\xad^\xc4\x0f\x88l\x14@'
p12
tp13
Rp14
ag5
(g9
S'\x1b\xc0!\x8e\x95\x11\x12@'
p15
tp16
Rp17
ag17
ag17
ag5
(g9
S'`\x92b0\xb5\xb4\x10@'
p18
tp19
Rp20
ag5
(g9
S'm\xe1\xeb-\xa0t\x0e@'
p21
tp22
Rp23
ag23
ag23
ag23
ag23
ag23
ag23
ag23
ag23
ag5
(g9
S'v\x89$8\xfd\xf0\n@'
p24
tp25
Rp26
ag26
ag5
(g9
S'o\x05\t\x9e\x1e\xa0\t@'
p27
tp28
Rp29
ag29
ag29
ag29
ag29
ag29
ag29
ag29
ag5
(g9
S'\x00\x9f\xc6\xdb\xe4J\t@'
p30
tp31
Rp32
ag32
ag32
ag32
ag32
ag32
ag32
ag32
ag32
ag32
ag32
ag32
ag32
ag32
ag32
ag5
(g9
S'%-\xc9"r\xf8\x08@'
p33
tp34
Rp35
ag35
ag35
ag35
ag35
ag35
ag35
ag35
ag35
ag35
ag35
ag35
ag35
ag35
ag35
ag35
ag35
ag35
ag35
ag35
ag35
ag35
ag35
ag35
ag35
ag35
ag35
ag35
ag35
ag35
ag35
ag35
ag35
ag35
ag35
ag35
ag35
ag35
ag35
ag35
ag35
ag35
ag35
ag35
ag35
ag35
ag35
ag35
ag35
ag35
ag35
ag35
ag35
ag35
ag35
ag35
ag35
ag35
ag35
ag35
ag35
asS'best_P'
p36
(lp37
(itree
PTree
p38
(dp39
S'root'
p40
ccopy_reg
_reconstructor
p41
(ctree
Feature
p42
c__builtin__
object
p43
Ntp44
Rp45
(dp46
S'index'
p47
I2
sS'name'
p48
S'Day'
p49
sS'l'
p50
g41
(g42
g43
Ntp51
Rp52
(dp53
g47
I2
sg48
g49
sg50
g41
(g42
g43
Ntp54
Rp55
(dp56
g47
I5
sg48
S'WYC'
p57
sg50
g41
(ctree
Action
p58
g43
Ntp59
Rp60
(dp61
S'r'
p62
NsS'is_feature'
p63
I00
sS'value'
p64
S'Hedge_90'
p65
sg50
Nsbsg62
g41
(g58
g43
Ntp66
Rp67
(dp68
g62
Nsg63
I00
sg64
S'Flood_Control'
p69
sg50
NsbsS'threshold'
p70
F125.33176179818153
sg63
I01
sbsg62
g41
(g42
g43
Ntp71
Rp72
(dp73
g47
I0
sg48
S'Storage'
p74
sg50
g41
(g58
g43
Ntp75
Rp76
(dp77
g62
Nsg63
I00
sg64
S'Hedge_80'
p78
sg50
Nsbsg62
g41
(g58
g43
Ntp79
Rp80
(dp81
g62
Nsg63
I00
sg64
S'Hedge_50'
p82
sg50
Nsbsg70
F628.6906188021037
sg63
I01
sbsg70
F200.02598844713054
sg63
I01
sbsg62
g41
(g42
g43
Ntp83
Rp84
(dp85
g47
I4
sg48
S'LP3'
p86
sg50
g41
(g42
g43
Ntp87
Rp88
(dp89
g47
I0
sg48
g74
sg50
g41
(g58
g43
Ntp90
Rp91
(dp92
g62
Nsg63
I00
sg64
S'Hedge_90'
p93
sg50
Nsbsg62
g41
(g58
g43
Ntp94
Rp95
(dp96
g62
Nsg63
I00
sg64
S'Hedge_70'
p97
sg50
Nsbsg70
F82.6652146717024
sg63
I01
sbsg62
g41
(g58
g43
Ntp98
Rp99
(dp100
g62
Nsg63
I00
sg64
S'Hedge_70'
p101
sg50
Nsbsg70
F336.3368985000103
sg63
I01
sbsg70
F304.10478492261103
sg63
I01
sbsS'L'
p102
(lp103
g45
ag52
ag55
ag60
ag67
ag72
ag76
ag80
ag84
ag88
ag91
ag95
ag99
asS'N'
p104
I13
sba(itree
PTree
p105
(dp106
g40
g41
(g42
g43
Ntp107
Rp108
(dp109
g47
I2
sg62
g41
(g42
g43
Ntp110
Rp111
(dp112
g47
I4
sg62
g41
(g58
g43
Ntp113
Rp114
(dp115
g62
Nsg63
I00
sg64
g101
sg50
Nsbsg48
g86
sg70
F297.1043867929601
sg50
g41
(g42
g43
Ntp116
Rp117
(dp118
g47
I0
sg62
g41
(g58
g43
Ntp119
Rp120
(dp121
g62
Nsg63
I00
sg64
g97
sg50
Nsbsg48
g74
sg70
F28.817041312656418
sg50
g41
(g58
g43
Ntp122
Rp123
(dp124
g62
Nsg63
I00
sg64
g93
sg50
Nsbsg63
I01
sbsg63
I01
sbsg48
g49
sg70
F332.3206354140863
sg50
g41
(g42
g43
Ntp125
Rp126
(dp127
g47
I2
sg62
g41
(g42
g43
Ntp128
Rp129
(dp130
g47
I0
sg62
g41
(g58
g43
Ntp131
Rp132
(dp133
g62
Nsg63
I00
sg64
g82
sg50
Nsbsg48
g74
sg70
F802.4969730435042
sg50
g41
(g58
g43
Ntp134
Rp135
(dp136
g62
Nsg63
I00
sg64
g78
sg50
Nsbsg63
I01
sbsg48
g49
sg70
F193.82475539279594
sg50
g41
(g42
g43
Ntp137
Rp138
(dp139
g47
I5
sg62
g41
(g58
g43
Ntp140
Rp141
(dp142
g62
Nsg63
I00
sg64
g69
sg50
Nsbsg48
g57
sg70
F136.79888784320354
sg50
g41
(g58
g43
Ntp143
Rp144
(dp145
g62
Nsg63
I00
sg64
g65
sg50
Nsbsg63
I01
sbsg63
I01
sbsg63
I01
sbsg102
(lp146
g108
ag126
ag138
ag144
ag141
ag129
ag135
ag132
ag111
ag117
ag123
ag120
ag114
asg104
I13
sbag105
ag105
a(itree
PTree
p147
(dp148
g40
g41
(g42
g43
Ntp149
Rp150
(dp151
g47
I2
sg62
g41
(g42
g43
Ntp152
Rp153
(dp154
g47
I4
sg62
g41
(g58
g43
Ntp155
Rp156
(dp157
g62
Nsg63
I00
sg64
g101
sg50
Nsbsg48
g86
sg70
F316.1415165681433
sg50
g41
(g42
g43
Ntp158
Rp159
(dp160
g47
I0
sg62
g41
(g58
g43
Ntp161
Rp162
(dp163
g62
Nsg63
I00
sg64
g97
sg50
Nsbsg48
g74
sg70
F39.55027064341222
sg50
g41
(g58
g43
Ntp164
Rp165
(dp166
g62
Nsg63
I00
sg64
g93
sg50
Nsbsg63
I01
sbsg63
I01
sbsg48
g49
sg70
F358.6558681582693
sg50
g41
(g42
g43
Ntp167
Rp168
(dp169
g47
I2
sg62
g41
(g42
g43
Ntp170
Rp171
(dp172
g47
I0
sg62
g41
(g58
g43
Ntp173
Rp174
(dp175
g62
Nsg63
I00
sg64
g82
sg50
Nsbsg48
g74
sg70
F691.7872410147768
sg50
g41
(g58
g43
Ntp176
Rp177
(dp178
g62
Nsg63
I00
sg64
g78
sg50
Nsbsg63
I01
sbsg48
g49
sg70
F181.19934545442652
sg50
g41
(g42
g43
Ntp179
Rp180
(dp181
g47
I5
sg62
g41
(g58
g43
Ntp182
Rp183
(dp184
g62
Nsg63
I00
sg64
g69
sg50
Nsbsg48
g57
sg70
F131.04991656809023
sg50
g41
(g58
g43
Ntp185
Rp186
(dp187
g62
Nsg63
I00
sg64
g65
sg50
Nsbsg63
I01
sbsg63
I01
sbsg63
I01
sbsg102
(lp188
g150
ag168
ag180
ag186
ag183
ag171
ag177
ag174
ag153
ag159
ag165
ag162
ag156
asg104
I13
sba(itree
PTree
p189
(dp190
g40
g41
(g42
g43
Ntp191
Rp192
(dp193
g47
I2
sg62
g41
(g42
g43
Ntp194
Rp195
(dp196
g47
I4
sg62
g41
(g58
g43
Ntp197
Rp198
(dp199
g62
Nsg63
I00
sg64
g101
sg50
Nsbsg48
g86
sg70
F331.37046689802685
sg50
g41
(g42
g43
Ntp200
Rp201
(dp202
g47
I0
sg62
g41
(g58
g43
Ntp203
Rp204
(dp205
g62
Nsg63
I00
sg64
g97
sg50
Nsbsg48
g74
sg70
F106.84580293574447
sg50
g41
(g58
g43
Ntp206
Rp207
(dp208
g62
Nsg63
I00
sg64
g93
sg50
Nsbsg63
I01
sbsg63
I01
sbsg48
g49
sg70
F302.1096742084674
sg50
g41
(g42
g43
Ntp209
Rp210
(dp211
g47
I2
sg62
g41
(g42
g43
Ntp212
Rp213
(dp214
g47
I0
sg62
g41
(g58
g43
Ntp215
Rp216
(dp217
g62
Nsg63
I00
sg64
g82
sg50
Nsbsg48
g74
sg70
F858.4412334691992
sg50
g41
(g58
g43
Ntp218
Rp219
(dp220
g62
Nsg63
I00
sg64
g78
sg50
Nsbsg63
I01
sbsg48
g49
sg70
F180.1290077302681
sg50
g41
(g42
g43
Ntp221
Rp222
(dp223
g47
I5
sg62
g41
(g58
g43
Ntp224
Rp225
(dp226
g62
Nsg63
I00
sg64
g69
sg50
Nsbsg48
g57
sg70
F130.06976798945232
sg50
g41
(g58
g43
Ntp227
Rp228
(dp229
g62
Nsg63
I00
sg64
g65
sg50
Nsbsg63
I01
sbsg63
I01
sbsg63
I01
sbsg102
(lp230
g192
ag210
ag222
ag228
ag225
ag213
ag219
ag216
ag195
ag201
ag207
ag204
ag198
asg104
I13
sbag189
ag189
ag189
ag189
ag189
ag189
ag189
ag189
a(itree
PTree
p231
(dp232
g40
g41
(g42
g43
Ntp233
Rp234
(dp235
g47
I2
sg62
g41
(g58
g43
Ntp236
Rp237
(dp238
g62
Nsg63
I00
sg64
S'Hedge_70'
p239
sg50
Nsbsg48
g49
sg70
F177.63196737134933
sg50
g41
(g58
g43
Ntp240
Rp241
(dp242
g62
Nsg63
I00
sg64
S'Flood_Control'
p243
sg50
Nsbsg63
I01
sbsg102
(lp244
g234
ag241
ag237
asg104
I3
sbag231
a(itree
PTree
p245
(dp246
g40
g41
(g42
g43
Ntp247
Rp248
(dp249
g47
I2
sg62
g41
(g58
g43
Ntp250
Rp251
(dp252
g62
Nsg63
I00
sg64
S'Hedge_80'
p253
sg50
Nsbsg48
g49
sg70
F177.51659546634167
sg50
g41
(g58
g43
Ntp254
Rp255
(dp256
g62
Nsg63
I00
sg64
S'Flood_Control'
p257
sg50
Nsbsg63
I01
sbsg102
(lp258
g248
ag255
ag251
asg104
I3
sbag245
ag245
ag245
ag245
ag245
ag245
ag245
a(itree
PTree
p259
(dp260
g40
g41
(g42
g43
Ntp261
Rp262
(dp263
g47
I2
sg62
g41
(g58
g43
Ntp264
Rp265
(dp266
g62
Nsg63
I00
sg64
S'Hedge_80'
p267
sg50
Nsbsg48
g49
sg70
F176.5056920398078
sg50
g41
(g58
g43
Ntp268
Rp269
(dp270
g62
Nsg63
I00
sg64
S'Flood_Control'
p271
sg50
Nsbsg63
I01
sbsg102
(lp272
g262
ag269
ag265
asg104
I3
sbag259
ag259
ag259
ag259
ag259
ag259
ag259
ag259
ag259
ag259
ag259
ag259
ag259
ag259
a(itree
PTree
p273
(dp274
g40
g41
(g42
g43
Ntp275
Rp276
(dp277
g47
I4
sg62
g41
(g58
g43
Ntp278
Rp279
(dp280
g62
Nsg63
I00
sg64
S'Hedge_60'
p281
sg50
Nsbsg48
g86
sg70
F332.66232387732146
sg50
g41
(g42
g43
Ntp282
Rp283
(dp284
g47
I4
sg62
g41
(g58
g43
Ntp285
Rp286
(dp287
g62
Nsg63
I00
sg64
S'Hedge_60'
p288
sg50
Nsbsg48
g86
sg70
F325.6902015857572
sg50
g41
(g42
g43
Ntp289
Rp290
(dp291
g47
I2
sg62
g41
(g58
g43
Ntp292
Rp293
(dp294
g62
Nsg63
I00
sg64
S'Hedge_80'
p295
sg50
Nsbsg48
g49
sg70
F175.44951942156158
sg50
g41
(g58
g43
Ntp296
Rp297
(dp298
g62
Nsg63
I00
sg64
S'Flood_Control'
p299
sg50
Nsbsg63
I01
sbsg63
I01
sbsg63
I01
sbsg102
(lp300
g276
ag283
ag290
ag297
ag293
ag286
ag279
asg104
I7
sbag273
ag273
ag273
ag273
ag273
ag273
ag273
ag273
ag273
ag273
ag273
ag273
ag273
ag273
ag273
ag273
ag273
ag273
ag273
ag273
ag273
ag273
ag273
ag273
ag273
ag273
ag273
ag273
ag273
ag273
ag273
ag273
ag273
ag273
ag273
ag273
ag273
ag273
ag273
ag273
ag273
ag273
ag273
ag273
ag273
ag273
ag273
ag273
ag273
ag273
ag273
ag273
ag273
ag273
ag273
ag273
ag273
ag273
ag273
ag273
asS'time'
p301
(lp302
I13091
aI19371
aI25917
aI32329
aI38178
aI44604
aI50416
aI56976
aI63061
aI69206
aI75039
aI81032
aI1135
aI7749
aI13760
aI20573
aI27205
aI33239
aI38999
aI44982
aI50530
aI56610
aI62827
aI68448
aI74884
aI81550
aI911
aI6799
aI13427
aI19795
aI26115
aI32505
aI38927
aI46018
aI52193
aI58557
aI65525
aI72006
aI78470
aI85683
aI5889
aI12664
aI19490
aI26055
aI32672
aI39179
aI46173
aI51553
aI57954
aI64462
aI71552
aI78095
aI84839
aI5483
aI13190
aI19914
aI26446
aI32995
aI39148
aI45405
aI51577
aI57076
aI63793
aI70044
aI76246
aI82749
aI4671
aI12035
aI19148
aI25986
aI32502
aI38772
aI45697
aI52375
aI58431
aI65157
aI71664
aI78377
aI85393
aI5517
aI12352
aI18623
aI25049
aI32079
aI38663
aI44980
aI51805
aI58173
aI64650
aI71065
aI77710
aI84202
aI4136
aI11516
aI18129
aI24841
aI30980
aI36555
aI42133
aI47603
as.