(dp0
S'nfe'
p1
(lp2
I50
aI100
aI150
aI200
aI250
aI300
aI350
aI400
aI450
aI500
aI550
aI600
aI650
aI700
aI750
aI800
aI850
aI900
aI950
aI1000
aI1050
aI1100
aI1150
aI1200
aI1250
aI1300
aI1350
aI1400
aI1450
aI1500
aI1550
aI1600
aI1650
aI1700
aI1750
aI1800
aI1850
aI1900
aI1950
aI2000
aI2050
aI2100
aI2150
aI2200
aI2250
aI2300
aI2350
aI2400
aI2450
aI2500
aI2550
aI2600
aI2650
aI2700
aI2750
aI2800
aI2850
aI2900
aI2950
aI3000
aI3050
aI3100
aI3150
aI3200
aI3250
aI3300
aI3350
aI3400
aI3450
aI3500
aI3550
aI3600
aI3650
aI3700
aI3750
aI3800
aI3850
aI3900
aI3950
aI4000
aI4050
aI4100
aI4150
aI4200
aI4250
aI4300
aI4350
aI4400
aI4450
aI4500
aI4550
aI4600
aI4650
aI4700
aI4750
aI4800
aI4850
aI4900
aI4950
aI5000
asS'best_f'
p3
(lp4
cnumpy.core.multiarray
scalar
p5
(cnumpy
dtype
p6
(S'f8'
p7
I0
I1
tp8
Rp9
(I3
S'<'
p10
NNNI-1
I-1
I0
tp11
bS'4\x02M\xd5\xc2|"@'
p12
tp13
Rp14
ag5
(g9
S'\xe4K\xe8\xa9P\xf7\x19@'
p15
tp16
Rp17
ag17
ag5
(g9
S'\xd2t\xe9\x0fd\xc5\x16@'
p18
tp19
Rp20
ag5
(g9
S'\xbc<\x9a\xf8UU\x0f@'
p21
tp22
Rp23
ag23
ag23
ag5
(g9
S'\xd9\x13\xddX\x14-\r@'
p24
tp25
Rp26
ag26
ag26
ag5
(g9
S'gz\x9f\xca\xb9\xc7\xff?'
p27
tp28
Rp29
ag29
ag29
ag29
ag29
ag29
ag29
ag29
ag29
ag29
ag29
ag29
ag29
ag29
ag29
ag29
ag29
ag29
ag29
ag29
ag29
ag29
ag29
ag29
ag29
ag29
ag29
ag29
ag29
ag29
ag29
ag29
ag29
ag29
ag29
ag29
ag29
ag29
ag29
ag29
ag29
ag29
ag29
ag29
ag29
ag29
ag29
ag29
ag29
ag29
ag29
ag29
ag29
ag29
ag29
ag29
ag29
ag29
ag29
ag29
ag29
ag29
ag29
ag29
ag29
ag29
ag29
ag29
ag29
ag29
ag29
ag29
ag29
ag29
ag29
ag29
ag29
ag29
ag29
ag29
ag29
ag5
(g9
S'P|\xa0\xd1*<\xf8?'
p30
tp31
Rp32
ag32
ag32
ag32
ag32
ag32
ag32
ag32
ag32
asS'best_P'
p33
(lp34
(itree
PTree
p35
(dp36
S'root'
p37
ccopy_reg
_reconstructor
p38
(ctree
Feature
p39
c__builtin__
object
p40
Ntp41
Rp42
(dp43
S'index'
p44
I2
sS'name'
p45
S'Day'
p46
sS'l'
p47
g38
(ctree
Action
p48
g40
Ntp49
Rp50
(dp51
S'r'
p52
NsS'is_feature'
p53
I00
sS'value'
p54
S'Flood_Control'
p55
sg47
Nsbsg52
g38
(g48
g40
Ntp56
Rp57
(dp58
g52
Nsg53
I00
sg54
S'Hedge_90'
p59
sg47
NsbsS'threshold'
p60
F286.26493236210376
sg53
I01
sbsS'L'
p61
(lp62
g42
ag50
ag57
asS'N'
p63
I3
sba(itree
PTree
p64
(dp65
g37
g38
(g39
g40
Ntp66
Rp67
(dp68
g44
I2
sg52
g38
(g39
g40
Ntp69
Rp70
(dp71
g44
I0
sg52
g38
(g48
g40
Ntp72
Rp73
(dp74
g52
Nsg53
I00
sg54
S'Hedge_80'
p75
sg47
Nsbsg45
S'Storage'
p76
sg60
F57.434490181968464
sg47
g38
(g48
g40
Ntp77
Rp78
(dp79
g52
Nsg53
I00
sg54
S'Release_Demand'
p80
sg47
Nsbsg53
I01
sbsg45
g46
sg60
F218.39731912736335
sg47
g38
(g48
g40
Ntp81
Rp82
(dp83
g52
Nsg53
I00
sg54
S'Flood_Control'
p84
sg47
Nsbsg53
I01
sbsg61
(lp85
g67
ag82
ag70
ag78
ag73
asg63
I5
sbag64
a(itree
PTree
p86
(dp87
g37
g38
(g39
g40
Ntp88
Rp89
(dp90
g44
I2
sg52
g38
(g39
g40
Ntp91
Rp92
(dp93
g44
I5
sg52
g38
(g39
g40
Ntp94
Rp95
(dp96
g44
I2
sg52
g38
(g48
g40
Ntp97
Rp98
(dp99
g52
Nsg53
I00
sg54
S'Release_Demand'
p100
sg47
Nsbsg45
g46
sg60
F313.79236824914494
sg47
g38
(g48
g40
Ntp101
Rp102
(dp103
g52
Nsg53
I00
sg54
S'Hedge_70'
p104
sg47
Nsbsg53
I01
sbsg45
S'WYC'
p105
sg60
F131.4482212689087
sg47
g38
(g48
g40
Ntp106
Rp107
(dp108
g52
Nsg53
I00
sg54
S'Release_Demand'
p109
sg47
Nsbsg53
I01
sbsg45
g46
sg60
F264.27345293669504
sg47
g38
(g39
g40
Ntp110
Rp111
(dp112
g44
I1
sg52
g38
(g48
g40
Ntp113
Rp114
(dp115
g52
Nsg53
I00
sg54
S'Flood_Control'
p116
sg47
Nsbsg45
S'Inflow'
p117
sg60
F13.095349042814453
sg47
g38
(g48
g40
Ntp118
Rp119
(dp120
g52
Nsg53
I00
sg54
S'Hedge_80'
p121
sg47
Nsbsg53
I01
sbsg53
I01
sbsg61
(lp122
g89
ag111
ag119
ag114
ag92
ag107
ag95
ag102
ag98
asg63
I9
sba(itree
PTree
p123
(dp124
g37
g38
(g39
g40
Ntp125
Rp126
(dp127
g44
I2
sg52
g38
(g39
g40
Ntp128
Rp129
(dp130
g44
I0
sg52
g38
(g48
g40
Ntp131
Rp132
(dp133
g52
Nsg53
I00
sg54
g75
sg47
Nsbsg45
g76
sg60
F136.48208830097954
sg47
g38
(g48
g40
Ntp134
Rp135
(dp136
g52
Nsg53
I00
sg54
g80
sg47
Nsbsg53
I01
sbsg45
g46
sg60
F187.66082017814534
sg47
g38
(g48
g40
Ntp137
Rp138
(dp139
g52
Nsg53
I00
sg54
g84
sg47
Nsbsg53
I01
sbsg61
(lp140
g126
ag138
ag129
ag135
ag132
asg63
I5
sbag123
ag123
a(itree
PTree
p141
(dp142
g37
g38
(g39
g40
Ntp143
Rp144
(dp145
g44
I2
sg52
g38
(g39
g40
Ntp146
Rp147
(dp148
g44
I5
sg52
g38
(g39
g40
Ntp149
Rp150
(dp151
g44
I2
sg52
g38
(g48
g40
Ntp152
Rp153
(dp154
g52
Nsg53
I00
sg54
g100
sg47
Nsbsg45
g46
sg60
F316.43829898882996
sg47
g38
(g48
g40
Ntp155
Rp156
(dp157
g52
Nsg53
I00
sg54
g104
sg47
Nsbsg53
I01
sbsg45
g105
sg60
F131.4482212689087
sg47
g38
(g48
g40
Ntp158
Rp159
(dp160
g52
Nsg53
I00
sg54
g109
sg47
Nsbsg53
I01
sbsg45
g46
sg60
F229.59838836520424
sg47
g38
(g39
g40
Ntp161
Rp162
(dp163
g44
I1
sg52
g38
(g48
g40
Ntp164
Rp165
(dp166
g52
Nsg53
I00
sg54
g116
sg47
Nsbsg45
g117
sg60
F16.04677254804933
sg47
g38
(g48
g40
Ntp167
Rp168
(dp169
g52
Nsg53
I00
sg54
g121
sg47
Nsbsg53
I01
sbsg53
I01
sbsg61
(lp170
g144
ag162
ag168
ag165
ag147
ag159
ag150
ag156
ag153
asg63
I9
sbag141
ag141
a(itree
PTree
p171
(dp172
g37
g38
(g39
g40
Ntp173
Rp174
(dp175
g44
I2
sg52
g38
(g39
g40
Ntp176
Rp177
(dp178
g44
I5
sg52
g38
(g39
g40
Ntp179
Rp180
(dp181
g44
I2
sg52
g38
(g48
g40
Ntp182
Rp183
(dp184
g52
Nsg53
I00
sg54
g100
sg47
Nsbsg45
g46
sg60
F316.43829898882996
sg47
g38
(g48
g40
Ntp185
Rp186
(dp187
g52
Nsg53
I00
sg54
g104
sg47
Nsbsg53
I01
sbsg45
g105
sg60
F131.4482212689087
sg47
g38
(g48
g40
Ntp188
Rp189
(dp190
g52
Nsg53
I00
sg54
g109
sg47
Nsbsg53
I01
sbsg45
g46
sg60
F189.45667530914147
sg47
g38
(g39
g40
Ntp191
Rp192
(dp193
g44
I1
sg52
g38
(g48
g40
Ntp194
Rp195
(dp196
g52
Nsg53
I00
sg54
g116
sg47
Nsbsg45
g117
sg60
F16.279453793580103
sg47
g38
(g48
g40
Ntp197
Rp198
(dp199
g52
Nsg53
I00
sg54
g121
sg47
Nsbsg53
I01
sbsg53
I01
sbsg61
(lp200
g174
ag192
ag198
ag195
ag177
ag189
ag180
ag186
ag183
asg63
I9
sbag171
ag171
ag171
ag171
ag171
ag171
ag171
ag171
ag171
ag171
ag171
ag171
ag171
ag171
ag171
ag171
ag171
ag171
ag171
ag171
ag171
ag171
ag171
ag171
ag171
ag171
ag171
ag171
ag171
ag171
ag171
ag171
ag171
ag171
ag171
ag171
ag171
ag171
ag171
ag171
ag171
ag171
ag171
ag171
ag171
ag171
ag171
ag171
ag171
ag171
ag171
ag171
ag171
ag171
ag171
ag171
ag171
ag171
ag171
ag171
ag171
ag171
ag171
ag171
ag171
ag171
ag171
ag171
ag171
ag171
ag171
ag171
ag171
ag171
ag171
ag171
ag171
ag171
ag171
ag171
a(itree
PTree
p201
(dp202
g37
g38
(g39
g40
Ntp203
Rp204
(dp205
g44
I2
sg52
g38
(g39
g40
Ntp206
Rp207
(dp208
g44
I5
sg52
g38
(g39
g40
Ntp209
Rp210
(dp211
g44
I2
sg52
g38
(g48
g40
Ntp212
Rp213
(dp214
g52
Nsg53
I00
sg54
g100
sg47
Nsbsg45
g46
sg60
F280.7450149021148
sg47
g38
(g48
g40
Ntp215
Rp216
(dp217
g52
Nsg53
I00
sg54
g104
sg47
Nsbsg53
I01
sbsg45
g105
sg60
F143.01513211312786
sg47
g38
(g48
g40
Ntp218
Rp219
(dp220
g52
Nsg53
I00
sg54
g109
sg47
Nsbsg53
I01
sbsg45
g46
sg60
F175.8724706092969
sg47
g38
(g39
g40
Ntp221
Rp222
(dp223
g44
I1
sg52
g38
(g48
g40
Ntp224
Rp225
(dp226
g52
Nsg53
I00
sg54
g116
sg47
Nsbsg45
g117
sg60
F16.279453793580103
sg47
g38
(g48
g40
Ntp227
Rp228
(dp229
g52
Nsg53
I00
sg54
g121
sg47
Nsbsg53
I01
sbsg53
I01
sbsg61
(lp230
g204
ag222
ag228
ag225
ag207
ag219
ag210
ag216
ag213
asg63
I9
sbag201
ag201
ag201
ag201
ag201
ag201
ag201
ag201
asS'time'
p231
(lp232
I12782
aI19182
aI25835
aI32415
aI38780
aI45229
aI51699
aI57249
aI63847
aI70409
aI76557
aI83065
aI2891
aI8661
aI15202
aI21861
aI27936
aI34371
aI40459
aI46509
aI52607
aI58800
aI64586
aI70803
aI77134
aI83580
aI2826
aI8569
aI14973
aI22029
aI28870
aI35772
aI42894
aI49526
aI56670
aI63523
aI70728
aI77731
aI84967
aI5257
aI12364
aI19091
aI25529
aI32452
aI38906
aI45993
aI53977
aI60369
aI67267
aI74637
aI82169
aI3309
aI10218
aI17038
aI23630
aI30224
aI36929
aI44016
aI51371
aI58865
aI66314
aI73622
aI80257
aI806
aI8229
aI14580
aI21515
aI29750
aI37355
aI44294
aI52720
aI59992
aI66664
aI73805
aI81183
aI1037
aI8433
aI15385
aI22077
aI29176
aI37227
aI44000
aI50419
aI57165
aI63956
aI70476
aI77192
aI83528
aI3460
aI10140
aI17031
aI24537
aI31293
aI37489
aI42974
aI48273
aI52811
aI56918
aI61477
aI64119
as.