(dp0
S'nfe'
p1
(lp2
I50
aI100
aI150
aI200
aI250
aI300
aI350
aI400
aI450
aI500
aI550
aI600
aI650
aI700
aI750
aI800
aI850
aI900
aI950
aI1000
aI1050
aI1100
aI1150
aI1200
aI1250
aI1300
aI1350
aI1400
aI1450
aI1500
aI1550
aI1600
aI1650
aI1700
aI1750
aI1800
aI1850
aI1900
aI1950
aI2000
aI2050
aI2100
aI2150
aI2200
aI2250
aI2300
aI2350
aI2400
aI2450
aI2500
aI2550
aI2600
aI2650
aI2700
aI2750
aI2800
aI2850
aI2900
aI2950
aI3000
aI3050
aI3100
aI3150
aI3200
aI3250
aI3300
aI3350
aI3400
aI3450
aI3500
aI3550
aI3600
aI3650
aI3700
aI3750
aI3800
aI3850
aI3900
aI3950
aI4000
aI4050
aI4100
aI4150
aI4200
aI4250
aI4300
aI4350
aI4400
aI4450
aI4500
aI4550
aI4600
aI4650
aI4700
aI4750
aI4800
aI4850
aI4900
aI4950
aI5000
asS'best_f'
p3
(lp4
cnumpy.core.multiarray
scalar
p5
(cnumpy
dtype
p6
(S'f8'
p7
I0
I1
tp8
Rp9
(I3
S'<'
p10
NNNI-1
I-1
I0
tp11
bS'\xfa\x02G:\x9f}"@'
p12
tp13
Rp14
ag5
(g9
S'\x86>\xb1\xc7\xb5\xee\x14@'
p15
tp16
Rp17
ag17
ag17
ag17
ag17
ag5
(g9
S'`\xc7qX1\x80\x10@'
p18
tp19
Rp20
ag20
ag20
ag5
(g9
S'\x96k\xad.k\xe7\r@'
p21
tp22
Rp23
ag23
ag5
(g9
S'\xf2\x10\xf8l\x03a\r@'
p24
tp25
Rp26
ag26
ag26
ag5
(g9
S'\xb6\x91\xc2\xe4\xb4S\r@'
p27
tp28
Rp29
ag29
ag29
ag5
(g9
S'H-h\xbaQ\xe5\x0b@'
p30
tp31
Rp32
ag5
(g9
S'\xccp\x1f!A\x83\x0b@'
p33
tp34
Rp35
ag35
ag5
(g9
S'\x87SM@\xa0\\\x0b@'
p36
tp37
Rp38
ag38
ag5
(g9
S'\x0eW?\xdd\xb0\xc0\t@'
p39
tp40
Rp41
ag41
ag5
(g9
S'\x00\x9f\xc6\xdb\xe4J\t@'
p42
tp43
Rp44
ag44
ag44
ag44
ag44
ag44
ag44
ag44
ag44
ag5
(g9
S'%-\xc9"r\xf8\x08@'
p45
tp46
Rp47
ag47
ag47
ag47
ag47
ag47
ag47
ag47
ag47
ag47
ag47
ag47
ag47
ag47
ag47
ag47
ag47
ag47
ag47
ag47
ag47
ag47
ag47
ag47
ag47
ag47
ag47
ag47
ag47
ag47
ag47
ag47
ag47
ag47
ag47
ag47
ag47
ag47
ag47
ag5
(g9
S'\xfb\x16\xfdPv\xa8\x08@'
p48
tp49
Rp50
ag50
ag50
ag50
ag50
ag50
ag5
(g9
S'\x99\x8d7\x13\xc4n\x08@'
p51
tp52
Rp53
ag53
ag53
ag53
ag53
ag53
ag53
ag53
ag53
ag53
ag53
ag53
ag53
ag53
ag53
ag53
ag53
ag53
ag53
ag53
ag53
ag53
asS'best_P'
p54
(lp55
(itree
PTree
p56
(dp57
S'root'
p58
ccopy_reg
_reconstructor
p59
(ctree
Feature
p60
c__builtin__
object
p61
Ntp62
Rp63
(dp64
S'index'
p65
I4
sS'name'
p66
S'LP3'
p67
sS'l'
p68
g59
(ctree
Action
p69
g61
Ntp70
Rp71
(dp72
S'r'
p73
NsS'is_feature'
p74
I00
sS'value'
p75
S'Flood_Control'
p76
sg68
Nsbsg73
g59
(g69
g61
Ntp77
Rp78
(dp79
g73
Nsg74
I00
sg75
S'Flood_Control'
p80
sg68
NsbsS'threshold'
p81
F140.5965252998196
sg74
I01
sbsS'L'
p82
(lp83
g63
ag71
ag78
asS'N'
p84
I3
sba(itree
PTree
p85
(dp86
g58
g59
(g60
g61
Ntp87
Rp88
(dp89
g65
I2
sg73
g59
(g69
g61
Ntp90
Rp91
(dp92
g73
Nsg74
I00
sg75
S'Hedge_90'
p93
sg68
Nsbsg66
S'Day'
p94
sg81
F204.0279933379284
sg68
g59
(g69
g61
Ntp95
Rp96
(dp97
g73
Nsg74
I00
sg75
S'Flood_Control'
p98
sg68
Nsbsg74
I01
sbsg82
(lp99
g88
ag96
ag91
asg84
I3
sbag85
ag85
ag85
ag85
a(itree
PTree
p100
(dp101
g58
g59
(g60
g61
Ntp102
Rp103
(dp104
g65
I2
sg73
g59
(g69
g61
Ntp105
Rp106
(dp107
g73
Nsg74
I00
sg75
S'Release_Demand'
p108
sg68
Nsbsg66
g94
sg81
F188.2451254546906
sg68
g59
(g60
g61
Ntp109
Rp110
(dp111
g65
I5
sg73
g59
(g69
g61
Ntp112
Rp113
(dp114
g73
Nsg74
I00
sg75
S'Hedge_90'
p115
sg68
Nsbsg66
S'WYC'
p116
sg81
F173.50244026599606
sg68
g59
(g69
g61
Ntp117
Rp118
(dp119
g73
Nsg74
I00
sg75
S'Flood_Control'
p120
sg68
Nsbsg74
I01
sbsg74
I01
sbsg82
(lp121
g103
ag110
ag118
ag113
ag106
asg84
I5
sbag100
ag100
a(itree
PTree
p122
(dp123
g58
g59
(g60
g61
Ntp124
Rp125
(dp126
g65
I2
sg73
g59
(g69
g61
Ntp127
Rp128
(dp129
g73
Nsg74
I00
sg75
g93
sg68
Nsbsg66
g94
sg81
F186.94297402981562
sg68
g59
(g69
g61
Ntp130
Rp131
(dp132
g73
Nsg74
I00
sg75
g98
sg68
Nsbsg74
I01
sbsg82
(lp133
g125
ag131
ag128
asg84
I3
sbag122
a(itree
PTree
p134
(dp135
g58
g59
(g60
g61
Ntp136
Rp137
(dp138
g65
I2
sg73
g59
(g60
g61
Ntp139
Rp140
(dp141
g65
I3
sg73
g59
(g69
g61
Ntp142
Rp143
(dp144
g73
Nsg74
I00
sg75
S'Release_Demand'
p145
sg68
Nsbsg66
S'AnnQ'
p146
sg81
F3306.6389117860826
sg68
g59
(g60
g61
Ntp147
Rp148
(dp149
g65
I4
sg73
g59
(g69
g61
Ntp150
Rp151
(dp152
g73
Nsg74
I00
sg75
S'Hedge_50'
p153
sg68
Nsbsg66
g67
sg81
F223.94796795056502
sg68
g59
(g60
g61
Ntp154
Rp155
(dp156
g65
I2
sg73
g59
(g69
g61
Ntp157
Rp158
(dp159
g73
Nsg74
I00
sg75
S'Release_Demand'
p160
sg68
Nsbsg66
g94
sg81
F251.0450268578044
sg68
g59
(g60
g61
Ntp161
Rp162
(dp163
g65
I1
sg73
g59
(g69
g61
Ntp164
Rp165
(dp166
g73
Nsg74
I00
sg75
S'Hedge_70'
p167
sg68
Nsbsg66
S'Inflow'
p168
sg81
F139.02084840346797
sg68
g59
(g69
g61
Ntp169
Rp170
(dp171
g73
Nsg74
I00
sg75
S'Hedge_90'
p172
sg68
Nsbsg74
I01
sbsg74
I01
sbsg74
I01
sbsg74
I01
sbsg66
g94
sg81
F182.7744075103795
sg68
g59
(g69
g61
Ntp173
Rp174
(dp175
g73
Nsg74
I00
sg75
S'Flood_Control'
p176
sg68
Nsbsg74
I01
sbsg82
(lp177
g137
ag174
ag140
ag148
ag155
ag162
ag170
ag165
ag158
ag151
ag143
asg84
I11
sbag134
ag134
a(itree
PTree
p178
(dp179
g58
g59
(g60
g61
Ntp180
Rp181
(dp182
g65
I2
sg73
g59
(g69
g61
Ntp183
Rp184
(dp185
g73
Nsg74
I00
sg75
S'Hedge_80'
p186
sg68
Nsbsg66
g94
sg81
F186.41178265281027
sg68
g59
(g60
g61
Ntp187
Rp188
(dp189
g65
I4
sg73
g59
(g69
g61
Ntp190
Rp191
(dp192
g73
Nsg74
I00
sg75
S'Hedge_90'
p193
sg68
Nsbsg66
g67
sg81
F332.9043154023965
sg68
g59
(g69
g61
Ntp194
Rp195
(dp196
g73
Nsg74
I00
sg75
S'Flood_Control'
p197
sg68
Nsbsg74
I01
sbsg74
I01
sbsg82
(lp198
g181
ag188
ag195
ag191
ag184
asg84
I5
sbag178
ag178
a(itree
PTree
p199
(dp200
g58
g59
(g60
g61
Ntp201
Rp202
(dp203
g65
I2
sg73
g59
(g69
g61
Ntp204
Rp205
(dp206
g73
Nsg74
I00
sg75
g93
sg68
Nsbsg66
g94
sg81
F182.65787141918946
sg68
g59
(g69
g61
Ntp207
Rp208
(dp209
g73
Nsg74
I00
sg75
g98
sg68
Nsbsg74
I01
sbsg82
(lp210
g202
ag208
ag205
asg84
I3
sba(itree
PTree
p211
(dp212
g58
g59
(g60
g61
Ntp213
Rp214
(dp215
g65
I2
sg73
g59
(g69
g61
Ntp216
Rp217
(dp218
g73
Nsg74
I00
sg75
S'Hedge_80'
p219
sg68
Nsbsg66
g94
sg81
F182.65787141918946
sg68
g59
(g69
g61
Ntp220
Rp221
(dp222
g73
Nsg74
I00
sg75
g98
sg68
Nsbsg74
I01
sbsg82
(lp223
g214
ag221
ag217
asg84
I3
sbag211
a(itree
PTree
p224
(dp225
g58
g59
(g60
g61
Ntp226
Rp227
(dp228
g65
I2
sg73
g59
(g69
g61
Ntp229
Rp230
(dp231
g73
Nsg74
I00
sg75
S'Hedge_70'
p232
sg68
Nsbsg66
g94
sg81
F188.2451254546906
sg68
g59
(g60
g61
Ntp233
Rp234
(dp235
g65
I2
sg73
g59
(g69
g61
Ntp236
Rp237
(dp238
g73
Nsg74
I00
sg75
S'Release_Demand'
p239
sg68
Nsbsg66
g94
sg81
F178.9363398343707
sg68
g59
(g60
g61
Ntp240
Rp241
(dp242
g65
I4
sg73
g59
(g69
g61
Ntp243
Rp244
(dp245
g73
Nsg74
I00
sg75
S'Hedge_90'
p246
sg68
Nsbsg66
g67
sg81
F297.9426824736892
sg68
g59
(g69
g61
Ntp247
Rp248
(dp249
g73
Nsg74
I00
sg75
S'Flood_Control'
p250
sg68
Nsbsg74
I01
sbsg74
I01
sbsg74
I01
sbsg82
(lp251
g227
ag234
ag241
ag248
ag244
ag237
ag230
asg84
I7
sbag224
a(itree
PTree
p252
(dp253
g58
g59
(g60
g61
Ntp254
Rp255
(dp256
g65
I2
sg73
g59
(g60
g61
Ntp257
Rp258
(dp259
g65
I3
sg73
g59
(g69
g61
Ntp260
Rp261
(dp262
g73
Nsg74
I00
sg75
S'Hedge_70'
p263
sg68
Nsbsg66
g146
sg81
F2744.5610661591763
sg68
g59
(g60
g61
Ntp264
Rp265
(dp266
g65
I4
sg73
g59
(g69
g61
Ntp267
Rp268
(dp269
g73
Nsg74
I00
sg75
S'Hedge_60'
p270
sg68
Nsbsg66
g67
sg81
F329.80227947596296
sg68
g59
(g69
g61
Ntp271
Rp272
(dp273
g73
Nsg74
I00
sg75
S'Hedge_80'
p274
sg68
Nsbsg74
I01
sbsg74
I01
sbsg66
g94
sg81
F175.9097082424033
sg68
g59
(g69
g61
Ntp275
Rp276
(dp277
g73
Nsg74
I00
sg75
S'Flood_Control'
p278
sg68
Nsbsg74
I01
sbsg82
(lp279
g255
ag276
ag258
ag265
ag272
ag268
ag261
asg84
I7
sbag252
a(itree
PTree
p280
(dp281
g58
g59
(g60
g61
Ntp282
Rp283
(dp284
g65
I2
sg73
g59
(g69
g61
Ntp285
Rp286
(dp287
g73
Nsg74
I00
sg75
S'Hedge_80'
p288
sg68
Nsbsg66
g94
sg81
F176.47498834946327
sg68
g59
(g69
g61
Ntp289
Rp290
(dp291
g73
Nsg74
I00
sg75
S'Flood_Control'
p292
sg68
Nsbsg74
I01
sbsg82
(lp293
g283
ag290
ag286
asg84
I3
sbag280
ag280
ag280
ag280
ag280
ag280
ag280
ag280
a(itree
PTree
p294
(dp295
g58
g59
(g60
g61
Ntp296
Rp297
(dp298
g65
I2
sg73
g59
(g69
g61
Ntp299
Rp300
(dp301
g73
Nsg74
I00
sg75
g288
sg68
Nsbsg66
g94
sg81
F175.0847216651451
sg68
g59
(g69
g61
Ntp302
Rp303
(dp304
g73
Nsg74
I00
sg75
g292
sg68
Nsbsg74
I01
sbsg82
(lp305
g297
ag303
ag300
asg84
I3
sbag294
ag294
ag294
ag294
ag294
ag294
ag294
ag294
ag294
ag294
ag294
ag294
ag294
ag294
ag294
ag294
ag294
ag294
ag294
ag294
ag294
ag294
ag294
ag294
ag294
ag294
ag294
ag294
ag294
ag294
ag294
ag294
ag294
ag294
ag294
ag294
ag294
ag294
a(itree
PTree
p306
(dp307
g58
g59
(g60
g61
Ntp308
Rp309
(dp310
g65
I2
sg73
g59
(g60
g61
Ntp311
Rp312
(dp313
g65
I2
sg73
g59
(g69
g61
Ntp314
Rp315
(dp316
g73
Nsg74
I00
sg75
S'Hedge_90'
p317
sg68
Nsbsg66
g94
sg81
F234.0488223873332
sg68
g59
(g69
g61
Ntp318
Rp319
(dp320
g73
Nsg74
I00
sg75
S'Hedge_80'
p321
sg68
Nsbsg74
I01
sbsg66
g94
sg81
F175.9097082424033
sg68
g59
(g69
g61
Ntp322
Rp323
(dp324
g73
Nsg74
I00
sg75
g278
sg68
Nsbsg74
I01
sbsg82
(lp325
g309
ag323
ag312
ag319
ag315
asg84
I5
sbag306
ag306
ag306
ag306
ag306
a(itree
PTree
p326
(dp327
g58
g59
(g60
g61
Ntp328
Rp329
(dp330
g65
I2
sg73
g59
(g60
g61
Ntp331
Rp332
(dp333
g65
I2
sg73
g59
(g69
g61
Ntp334
Rp335
(dp336
g73
Nsg74
I00
sg75
g317
sg68
Nsbsg66
g94
sg81
F263.77856970868714
sg68
g59
(g69
g61
Ntp337
Rp338
(dp339
g73
Nsg74
I00
sg75
g321
sg68
Nsbsg74
I01
sbsg66
g94
sg81
F175.9097082424033
sg68
g59
(g69
g61
Ntp340
Rp341
(dp342
g73
Nsg74
I00
sg75
g278
sg68
Nsbsg74
I01
sbsg82
(lp343
g329
ag341
ag332
ag338
ag335
asg84
I5
sbag326
ag326
ag326
ag326
ag326
ag326
ag326
ag326
ag326
ag326
ag326
ag326
ag326
ag326
ag326
ag326
ag326
ag326
ag326
ag326
ag326
asS'time'
p344
(lp345
I12532
aI18719
aI25114
aI31398
aI37271
aI43345
aI49750
aI55515
aI61804
aI68108
aI74263
aI80058
aI86396
aI6519
aI12972
aI18971
aI25659
aI31796
aI37900
aI43403
aI49682
aI55576
aI61553
aI67531
aI73811
aI80516
aI85966
aI5527
aI11296
aI17501
aI23944
aI30155
aI36595
aI42853
aI49236
aI55521
aI61855
aI68733
aI74906
aI81365
aI936
aI7502
aI13958
aI19943
aI26981
aI33587
aI40015
aI46282
aI52438
aI58634
aI64628
aI70927
aI77940
aI84143
aI4271
aI10754
aI17117
aI23447
aI30009
aI36188
aI42151
aI48575
aI55177
aI61832
aI68152
aI74214
aI80871
aI437
aI6429
aI12634
aI18667
aI24718
aI31126
aI38748
aI44727
aI50674
aI56839
aI63461
aI69923
aI76789
aI83016
aI2803
aI10324
aI16669
aI23253
aI30512
aI36908
aI44160
aI50624
aI57678
aI64780
aI71581
aI78097
aI84864
aI4907
aI11876
aI18765
aI25803
aI32521
aI38189
as.