(dp0
S'nfe'
p1
(lp2
I50
aI100
aI150
aI200
aI250
aI300
aI350
aI400
aI450
aI500
aI550
aI600
aI650
aI700
aI750
aI800
aI850
aI900
aI950
aI1000
aI1050
aI1100
aI1150
aI1200
aI1250
aI1300
aI1350
aI1400
aI1450
aI1500
aI1550
aI1600
aI1650
aI1700
aI1750
aI1800
aI1850
aI1900
aI1950
aI2000
aI2050
aI2100
aI2150
aI2200
aI2250
aI2300
aI2350
aI2400
aI2450
aI2500
aI2550
aI2600
aI2650
aI2700
aI2750
aI2800
aI2850
aI2900
aI2950
aI3000
aI3050
aI3100
aI3150
aI3200
aI3250
aI3300
aI3350
aI3400
aI3450
aI3500
aI3550
aI3600
aI3650
aI3700
aI3750
aI3800
aI3850
aI3900
aI3950
aI4000
aI4050
aI4100
aI4150
aI4200
aI4250
aI4300
aI4350
aI4400
aI4450
aI4500
aI4550
aI4600
aI4650
aI4700
aI4750
aI4800
aI4850
aI4900
aI4950
aI5000
asS'best_f'
p3
(lp4
cnumpy.core.multiarray
scalar
p5
(cnumpy
dtype
p6
(S'f8'
p7
I0
I1
tp8
Rp9
(I3
S'<'
p10
NNNI-1
I-1
I0
tp11
bS'\xfa\x02G:\x9f}"@'
p12
tp13
Rp14
ag5
(g9
S'g\xf8\x7f\xfa}l"@'
p15
tp16
Rp17
ag5
(g9
S'\x00\x05\xc7\xf6#T\x17@'
p18
tp19
Rp20
ag20
ag5
(g9
S'\x90\x08\xad\xbd \x98\x14@'
p21
tp22
Rp23
ag5
(g9
S'\xfa{\xa99}3\x13@'
p24
tp25
Rp26
ag5
(g9
S"\xe7#f\xfe'&\x13@"
p27
tp28
Rp29
ag5
(g9
S'v;\xe3\xec\x18\xaf\x11@'
p30
tp31
Rp32
ag5
(g9
S'ug\x90\xff:\x1b\x0b@'
p33
tp34
Rp35
ag35
ag35
ag35
ag35
ag5
(g9
S'\xaa4\xfb\xd8\x043\n@'
p36
tp37
Rp38
ag38
ag38
ag38
ag38
ag38
ag38
ag38
ag5
(g9
S'\xf0\x95gk\xb1t\t@'
p39
tp40
Rp41
ag41
ag5
(g9
S'\xe4(A\xe9\x91\x19\t@'
p42
tp43
Rp44
ag44
ag44
ag44
ag44
ag44
ag44
ag44
ag44
ag44
ag44
ag44
ag44
ag44
ag44
ag44
ag44
ag44
ag44
ag44
ag44
ag44
ag44
ag44
ag44
ag44
ag44
ag44
ag44
ag44
ag44
ag5
(g9
S'%-\xc9"r\xf8\x08@'
p45
tp46
Rp47
ag47
ag47
ag47
ag47
ag47
ag47
ag47
ag47
ag47
ag47
ag47
ag47
ag47
ag47
ag47
ag47
ag47
ag47
ag47
ag47
ag47
ag47
ag47
ag47
ag47
ag47
ag47
ag47
ag47
ag47
ag47
ag47
ag47
ag47
ag47
ag47
ag47
ag47
ag47
ag47
ag47
ag47
ag47
ag47
ag47
asS'best_P'
p48
(lp49
(itree
PTree
p50
(dp51
S'root'
p52
ccopy_reg
_reconstructor
p53
(ctree
Feature
p54
c__builtin__
object
p55
Ntp56
Rp57
(dp58
S'index'
p59
I0
sS'name'
p60
S'Storage'
p61
sS'l'
p62
g53
(ctree
Action
p63
g55
Ntp64
Rp65
(dp66
S'r'
p67
NsS'is_feature'
p68
I00
sS'value'
p69
S'Flood_Control'
p70
sg62
Nsbsg67
g53
(g63
g55
Ntp71
Rp72
(dp73
g67
Nsg68
I00
sg69
S'Hedge_50'
p74
sg62
NsbsS'threshold'
p75
F981.2576995428585
sg68
I01
sbsS'L'
p76
(lp77
g57
ag65
ag72
asS'N'
p78
I3
sba(itree
PTree
p79
(dp80
g52
g53
(g54
g55
Ntp81
Rp82
(dp83
g59
I0
sg67
g53
(g63
g55
Ntp84
Rp85
(dp86
g67
Nsg68
I00
sg69
S'Flood_Control'
p87
sg62
Nsbsg60
g61
sg75
F25.777451975409345
sg62
g53
(g63
g55
Ntp88
Rp89
(dp90
g67
Nsg68
I00
sg69
S'Hedge_50'
p91
sg62
Nsbsg68
I01
sbsg76
(lp92
g82
ag89
ag85
asg78
I3
sba(itree
PTree
p93
(dp94
g52
g53
(g54
g55
Ntp95
Rp96
(dp97
g59
I0
sg67
g53
(g63
g55
Ntp98
Rp99
(dp100
g67
Nsg68
I00
sg69
S'Release_Demand'
p101
sg62
Nsbsg60
g61
sg75
F990.5683021923013
sg62
g53
(g54
g55
Ntp102
Rp103
(dp104
g59
I0
sg67
g53
(g54
g55
Ntp105
Rp106
(dp107
g59
I2
sg67
g53
(g63
g55
Ntp108
Rp109
(dp110
g67
Nsg68
I00
sg69
S'Hedge_70'
p111
sg62
Nsbsg60
S'Day'
p112
sg75
F205.2749993815574
sg62
g53
(g63
g55
Ntp113
Rp114
(dp115
g67
Nsg68
I00
sg69
S'Flood_Control'
p116
sg62
Nsbsg68
I01
sbsg60
g61
sg75
F59.686533265397884
sg62
g53
(g54
g55
Ntp117
Rp118
(dp119
g59
I3
sg67
g53
(g63
g55
Ntp120
Rp121
(dp122
g67
Nsg68
I00
sg69
S'Hedge_60'
p123
sg62
Nsbsg60
S'AnnQ'
p124
sg75
F2663.1248771974565
sg62
g53
(g63
g55
Ntp125
Rp126
(dp127
g67
Nsg68
I00
sg69
S'Hedge_80'
p128
sg62
Nsbsg68
I01
sbsg68
I01
sbsg68
I01
sbsg76
(lp129
g96
ag103
ag118
ag126
ag121
ag106
ag114
ag109
ag99
asg78
I9
sbag93
a(itree
PTree
p130
(dp131
g52
g53
(g54
g55
Ntp132
Rp133
(dp134
g59
I0
sg67
g53
(g63
g55
Ntp135
Rp136
(dp137
g67
Nsg68
I00
sg69
g101
sg62
Nsbsg60
g61
sg75
F982.420189720198
sg62
g53
(g54
g55
Ntp138
Rp139
(dp140
g59
I0
sg67
g53
(g54
g55
Ntp141
Rp142
(dp143
g59
I2
sg67
g53
(g63
g55
Ntp144
Rp145
(dp146
g67
Nsg68
I00
sg69
g111
sg62
Nsbsg60
g112
sg75
F192.42913619572963
sg62
g53
(g63
g55
Ntp147
Rp148
(dp149
g67
Nsg68
I00
sg69
g116
sg62
Nsbsg68
I01
sbsg60
g61
sg75
F41.194718718321546
sg62
g53
(g54
g55
Ntp150
Rp151
(dp152
g59
I3
sg67
g53
(g63
g55
Ntp153
Rp154
(dp155
g67
Nsg68
I00
sg69
g123
sg62
Nsbsg60
g124
sg75
F2364.6825017319707
sg62
g53
(g63
g55
Ntp156
Rp157
(dp158
g67
Nsg68
I00
sg69
g128
sg62
Nsbsg68
I01
sbsg68
I01
sbsg68
I01
sbsg76
(lp159
g133
ag139
ag151
ag157
ag154
ag142
ag148
ag145
ag136
asg78
I9
sba(itree
PTree
p160
(dp161
g52
g53
(g54
g55
Ntp162
Rp163
(dp164
g59
I0
sg67
g53
(g54
g55
Ntp165
Rp166
(dp167
g59
I2
sg67
g53
(g63
g55
Ntp168
Rp169
(dp170
g67
Nsg68
I00
sg69
S'Hedge_60'
p171
sg62
Nsbsg60
g112
sg75
F210.05549546049977
sg62
g53
(g63
g55
Ntp172
Rp173
(dp174
g67
Nsg68
I00
sg69
S'Hedge_70'
p175
sg62
Nsbsg68
I01
sbsg60
g61
sg75
F987.203664830889
sg62
g53
(g54
g55
Ntp176
Rp177
(dp178
g59
I0
sg67
g53
(g54
g55
Ntp179
Rp180
(dp181
g59
I2
sg67
g53
(g63
g55
Ntp182
Rp183
(dp184
g67
Nsg68
I00
sg69
S'Hedge_50'
p185
sg62
Nsbsg60
g112
sg75
F177.66047491601876
sg62
g53
(g63
g55
Ntp186
Rp187
(dp188
g67
Nsg68
I00
sg69
g116
sg62
Nsbsg68
I01
sbsg60
g61
sg75
F60.75705671084405
sg62
g53
(g54
g55
Ntp189
Rp190
(dp191
g59
I3
sg67
g53
(g63
g55
Ntp192
Rp193
(dp194
g67
Nsg68
I00
sg69
g123
sg62
Nsbsg60
g124
sg75
F2756.39499750885
sg62
g53
(g63
g55
Ntp195
Rp196
(dp197
g67
Nsg68
I00
sg69
S'Hedge_50'
p198
sg62
Nsbsg68
I01
sbsg68
I01
sbsg68
I01
sbsg76
(lp199
g163
ag177
ag190
ag196
ag193
ag180
ag187
ag183
ag166
ag173
ag169
asg78
I11
sba(itree
PTree
p200
(dp201
g52
g53
(g54
g55
Ntp202
Rp203
(dp204
g59
I2
sg67
g53
(g63
g55
Ntp205
Rp206
(dp207
g67
Nsg68
I00
sg69
S'Hedge_90'
p208
sg62
Nsbsg60
g112
sg75
F199.46386604215374
sg62
g53
(g63
g55
Ntp209
Rp210
(dp211
g67
Nsg68
I00
sg69
S'Flood_Control'
p212
sg62
Nsbsg68
I01
sbsg76
(lp213
g203
ag210
ag206
asg78
I3
sba(itree
PTree
p214
(dp215
g52
g53
(g54
g55
Ntp216
Rp217
(dp218
g59
I2
sg67
g53
(g63
g55
Ntp219
Rp220
(dp221
g67
Nsg68
I00
sg69
S'Hedge_70'
p222
sg62
Nsbsg60
g112
sg75
F196.79183699515363
sg62
g53
(g63
g55
Ntp223
Rp224
(dp225
g67
Nsg68
I00
sg69
S'Flood_Control'
p226
sg62
Nsbsg68
I01
sbsg76
(lp227
g217
ag224
ag220
asg78
I3
sba(itree
PTree
p228
(dp229
g52
g53
(g54
g55
Ntp230
Rp231
(dp232
g59
I2
sg67
g53
(g63
g55
Ntp233
Rp234
(dp235
g67
Nsg68
I00
sg69
S'Hedge_80'
p236
sg62
Nsbsg60
g112
sg75
F181.70173600767086
sg62
g53
(g63
g55
Ntp237
Rp238
(dp239
g67
Nsg68
I00
sg69
S'Flood_Control'
p240
sg62
Nsbsg68
I01
sbsg76
(lp241
g231
ag238
ag234
asg78
I3
sbag228
ag228
ag228
ag228
a(itree
PTree
p242
(dp243
g52
g53
(g54
g55
Ntp244
Rp245
(dp246
g59
I2
sg67
g53
(g63
g55
Ntp247
Rp248
(dp249
g67
Nsg68
I00
sg69
g208
sg62
Nsbsg60
g112
sg75
F178.79978074462235
sg62
g53
(g63
g55
Ntp250
Rp251
(dp252
g67
Nsg68
I00
sg69
g212
sg62
Nsbsg68
I01
sbsg76
(lp253
g245
ag251
ag248
asg78
I3
sbag242
ag242
ag242
ag242
ag242
ag242
ag242
a(itree
PTree
p254
(dp255
g52
g53
(g54
g55
Ntp256
Rp257
(dp258
g59
I2
sg67
g53
(g63
g55
Ntp259
Rp260
(dp261
g67
Nsg68
I00
sg69
S'Hedge_90'
p262
sg62
Nsbsg60
g112
sg75
F176.8016922381635
sg62
g53
(g63
g55
Ntp263
Rp264
(dp265
g67
Nsg68
I00
sg69
S'Flood_Control'
p266
sg62
Nsbsg68
I01
sbsg76
(lp267
g257
ag264
ag260
asg78
I3
sbag254
a(itree
PTree
p268
(dp269
g52
g53
(g54
g55
Ntp270
Rp271
(dp272
g59
I2
sg67
g53
(g63
g55
Ntp273
Rp274
(dp275
g67
Nsg68
I00
sg69
g262
sg62
Nsbsg60
g112
sg75
F175.6909334443902
sg62
g53
(g63
g55
Ntp276
Rp277
(dp278
g67
Nsg68
I00
sg69
S'Flood_Control'
p279
sg62
Nsbsg68
I01
sbsg76
(lp280
g271
ag277
ag274
asg78
I3
sbag268
ag268
ag268
ag268
ag268
ag268
ag268
ag268
ag268
ag268
ag268
ag268
ag268
ag268
ag268
ag268
ag268
ag268
ag268
ag268
ag268
ag268
ag268
ag268
ag268
ag268
ag268
ag268
ag268
ag268
a(itree
PTree
p281
(dp282
g52
g53
(g54
g55
Ntp283
Rp284
(dp285
g59
I2
sg67
g53
(g63
g55
Ntp286
Rp287
(dp288
g67
Nsg68
I00
sg69
S'Hedge_80'
p289
sg62
Nsbsg60
g112
sg75
F175.09033960024266
sg62
g53
(g63
g55
Ntp290
Rp291
(dp292
g67
Nsg68
I00
sg69
g212
sg62
Nsbsg68
I01
sbsg76
(lp293
g284
ag291
ag287
asg78
I3
sbag281
ag281
ag281
ag281
ag281
ag281
ag281
ag281
ag281
ag281
ag281
ag281
ag281
ag281
ag281
ag281
ag281
ag281
ag281
ag281
ag281
ag281
ag281
ag281
ag281
ag281
ag281
ag281
ag281
ag281
ag281
ag281
ag281
ag281
ag281
ag281
ag281
ag281
ag281
ag281
ag281
ag281
ag281
ag281
ag281
asS'time'
p294
(lp295
I11078
aI16626
aI22370
aI28002
aI34025
aI39763
aI45508
aI52367
aI58447
aI66282
aI72262
aI78223
aI84370
aI4023
aI9940
aI15883
aI22146
aI29048
aI36782
aI43727
aI50735
aI56165
aI61612
aI67403
aI72852
aI79069
aI85611
aI6263
aI13009
aI19800
aI26205
aI32331
aI38558
aI44731
aI51593
aI57587
aI63496
aI69393
aI75429
aI81555
aI1294
aI7696
aI13698
aI19805
aI25534
aI31274
aI37269
aI43637
aI50013
aI58356
aI67441
aI74465
aI80787
aI430
aI6232
aI12198
aI19081
aI25188
aI31444
aI37342
aI43661
aI49595
aI55481
aI61266
aI68502
aI74624
aI80764
aI739
aI9714
aI16993
aI23766
aI30105
aI36267
aI42346
aI48419
aI54810
aI61313
aI67301
aI73551
aI79668
aI85531
aI4893
aI10639
aI18778
aI25454
aI31405
aI37417
aI43349
aI49469
aI55426
aI61308
aI67582
aI73952
aI80282
aI86280
aI6054
aI12064
aI17840
aI23700
aI29367
as.