(dp0
S'nfe'
p1
(lp2
I50
aI100
aI150
aI200
aI250
aI300
aI350
aI400
aI450
aI500
aI550
aI600
aI650
aI700
aI750
aI800
aI850
aI900
aI950
aI1000
aI1050
aI1100
aI1150
aI1200
aI1250
aI1300
aI1350
aI1400
aI1450
aI1500
aI1550
aI1600
aI1650
aI1700
aI1750
aI1800
aI1850
aI1900
aI1950
aI2000
aI2050
aI2100
aI2150
aI2200
aI2250
aI2300
aI2350
aI2400
aI2450
aI2500
aI2550
aI2600
aI2650
aI2700
aI2750
aI2800
aI2850
aI2900
aI2950
aI3000
aI3050
aI3100
aI3150
aI3200
aI3250
aI3300
aI3350
aI3400
aI3450
aI3500
aI3550
aI3600
aI3650
aI3700
aI3750
aI3800
aI3850
aI3900
aI3950
aI4000
aI4050
aI4100
aI4150
aI4200
aI4250
aI4300
aI4350
aI4400
aI4450
aI4500
aI4550
aI4600
aI4650
aI4700
aI4750
aI4800
aI4850
aI4900
aI4950
aI5000
aI5050
aI5100
aI5150
aI5200
aI5250
aI5300
aI5350
aI5400
aI5450
aI5500
aI5550
aI5600
aI5650
aI5700
aI5750
aI5800
aI5850
aI5900
aI5950
aI6000
aI6050
aI6100
aI6150
aI6200
aI6250
aI6300
aI6350
aI6400
aI6450
aI6500
aI6550
aI6600
aI6650
aI6700
aI6750
aI6800
aI6850
aI6900
aI6950
aI7000
aI7050
aI7100
aI7150
aI7200
aI7250
aI7300
aI7350
aI7400
aI7450
aI7500
aI7550
aI7600
aI7650
aI7700
aI7750
aI7800
aI7850
aI7900
aI7950
aI8000
aI8050
aI8100
aI8150
aI8200
aI8250
aI8300
aI8350
aI8400
aI8450
aI8500
aI8550
aI8600
aI8650
aI8700
aI8750
aI8800
aI8850
aI8900
aI8950
aI9000
aI9050
aI9100
aI9150
aI9200
aI9250
aI9300
aI9350
aI9400
aI9450
aI9500
aI9550
aI9600
aI9650
aI9700
aI9750
aI9800
aI9850
aI9900
aI9950
aI10000
aI10050
aI10100
aI10150
aI10200
aI10250
aI10300
aI10350
aI10400
aI10450
aI10500
aI10550
aI10600
aI10650
aI10700
aI10750
aI10800
aI10850
aI10900
aI10950
aI11000
aI11050
aI11100
aI11150
aI11200
aI11250
aI11300
aI11350
aI11400
aI11450
aI11500
aI11550
aI11600
aI11650
aI11700
aI11750
aI11800
aI11850
aI11900
aI11950
aI12000
aI12050
aI12100
aI12150
aI12200
aI12250
aI12300
aI12350
aI12400
aI12450
aI12500
aI12550
aI12600
aI12650
aI12700
aI12750
aI12800
aI12850
aI12900
aI12950
aI13000
aI13050
aI13100
aI13150
aI13200
aI13250
aI13300
aI13350
aI13400
aI13450
aI13500
aI13550
aI13600
aI13650
aI13700
aI13750
aI13800
aI13850
aI13900
aI13950
aI14000
aI14050
aI14100
aI14150
aI14200
aI14250
aI14300
aI14350
aI14400
aI14450
aI14500
aI14550
aI14600
aI14650
aI14700
aI14750
aI14800
aI14850
aI14900
aI14950
aI15000
aI15050
aI15100
aI15150
aI15200
aI15250
aI15300
aI15350
aI15400
aI15450
aI15500
aI15550
aI15600
aI15650
aI15700
aI15750
aI15800
aI15850
aI15900
aI15950
aI16000
aI16050
aI16100
aI16150
aI16200
aI16250
aI16300
aI16350
aI16400
aI16450
aI16500
aI16550
aI16600
aI16650
aI16700
aI16750
aI16800
aI16850
aI16900
aI16950
aI17000
aI17050
aI17100
aI17150
aI17200
aI17250
aI17300
aI17350
aI17400
aI17450
aI17500
aI17550
aI17600
aI17650
aI17700
aI17750
aI17800
aI17850
aI17900
aI17950
aI18000
aI18050
aI18100
aI18150
aI18200
aI18250
aI18300
aI18350
aI18400
aI18450
aI18500
aI18550
aI18600
aI18650
aI18700
aI18750
aI18800
aI18850
aI18900
aI18950
aI19000
aI19050
aI19100
aI19150
aI19200
aI19250
aI19300
aI19350
aI19400
aI19450
aI19500
aI19550
aI19600
aI19650
aI19700
aI19750
aI19800
aI19850
aI19900
aI19950
aI20000
aI20050
aI20100
aI20150
aI20200
aI20250
aI20300
aI20350
aI20400
aI20450
aI20500
aI20550
aI20600
aI20650
aI20700
aI20750
aI20800
aI20850
aI20900
aI20950
aI21000
aI21050
aI21100
aI21150
aI21200
aI21250
aI21300
aI21350
aI21400
aI21450
aI21500
aI21550
aI21600
aI21650
aI21700
aI21750
aI21800
aI21850
aI21900
aI21950
aI22000
aI22050
aI22100
aI22150
aI22200
aI22250
aI22300
aI22350
aI22400
aI22450
aI22500
aI22550
aI22600
aI22650
aI22700
aI22750
aI22800
aI22850
aI22900
aI22950
aI23000
aI23050
aI23100
aI23150
aI23200
aI23250
aI23300
aI23350
aI23400
aI23450
aI23500
aI23550
aI23600
aI23650
aI23700
aI23750
aI23800
aI23850
aI23900
aI23950
aI24000
aI24050
aI24100
aI24150
aI24200
aI24250
aI24300
aI24350
aI24400
aI24450
aI24500
aI24550
aI24600
aI24650
aI24700
aI24750
aI24800
aI24850
aI24900
aI24950
aI25000
asS'best_f'
p3
(lp4
cnumpy.core.multiarray
scalar
p5
(cnumpy
dtype
p6
(S'f8'
p7
I0
I1
tp8
Rp9
(I3
S'<'
p10
NNNI-1
I-1
I0
tp11
bS'\x1cC\xf7\r\x88!\xce?'
p12
tp13
Rp14
ag5
(g9
S'\xf5\x05\xf8\x98\xe9\xc2\xcc?'
p15
tp16
Rp17
ag5
(g9
S'o\\\xc2_\xc7B\xcb?'
p18
tp19
Rp20
ag5
(g9
S'\x1c\xef[`t\x02\xca?'
p21
tp22
Rp23
ag23
ag5
(g9
S'cq&\xc4l\x97\xc3?'
p24
tp25
Rp26
ag26
ag5
(g9
S'\x87\x80\x9b\xe6d\xe4\xc1?'
p27
tp28
Rp29
ag29
ag5
(g9
S'\xeb\xdd\xc6\xca*5\xc1?'
p30
tp31
Rp32
ag32
ag32
ag32
ag32
ag32
ag32
ag5
(g9
S'\x11K\xd6\xb9\xf1\x13\xc1?'
p33
tp34
Rp35
ag35
ag35
ag35
ag5
(g9
S'\xd5n\xf1_\x93\x13\xc1?'
p36
tp37
Rp38
ag38
ag38
ag38
ag38
ag5
(g9
S'\x07\xd7M\xce,\x07\xc1?'
p39
tp40
Rp41
ag41
ag41
ag41
ag41
ag41
ag41
ag41
ag41
ag41
ag41
ag41
ag41
ag41
ag41
ag41
ag41
ag41
ag41
ag41
ag41
ag41
ag41
ag41
ag41
ag41
ag41
ag41
ag41
ag41
ag41
ag41
ag41
ag41
ag41
ag41
ag41
ag41
ag41
ag41
ag41
ag41
ag41
ag41
ag41
ag5
(g9
S'\xe8\xc4\xe4\x98\xee\x05\xc1?'
p42
tp43
Rp44
ag44
ag44
ag44
ag44
ag44
ag44
ag44
ag44
ag44
ag44
ag44
ag44
ag44
ag44
ag44
ag44
ag44
ag44
ag44
ag44
ag44
ag44
ag44
ag44
ag44
ag44
ag44
ag44
ag44
ag44
ag44
ag44
ag44
ag44
ag44
ag44
ag44
ag44
ag44
ag44
ag44
ag44
ag44
ag44
ag44
ag44
ag44
ag44
ag44
ag44
ag44
ag44
ag44
ag44
ag44
ag44
ag44
ag44
ag44
ag44
ag44
ag44
ag44
ag44
ag44
ag44
ag44
ag44
ag44
ag44
ag44
ag44
ag44
ag44
ag44
ag44
ag44
ag44
ag44
ag44
ag44
ag44
ag44
ag44
ag44
ag44
ag44
ag44
ag44
ag44
ag44
ag44
ag44
ag44
ag44
ag44
ag44
ag44
ag44
ag44
ag44
ag44
ag44
ag44
ag44
ag44
ag44
ag44
ag44
ag44
ag44
ag44
ag44
ag44
ag44
ag44
ag44
ag44
ag44
ag44
ag44
ag44
ag44
ag44
ag44
ag44
ag44
ag44
ag44
ag44
ag44
ag44
ag44
ag44
ag44
ag44
ag44
ag44
ag44
ag44
ag44
ag44
ag44
ag44
ag44
ag44
ag44
ag44
ag44
ag44
ag44
ag44
ag44
ag44
ag44
ag44
ag44
ag44
ag44
ag44
ag44
ag44
ag44
ag44
ag44
ag44
ag44
ag44
ag44
ag44
ag44
ag44
ag44
ag44
ag44
ag44
ag44
ag44
ag44
ag44
ag44
ag44
ag44
ag44
ag44
ag44
ag44
ag44
ag44
ag44
ag44
ag44
ag44
ag44
ag44
ag44
ag44
ag44
ag44
ag44
ag44
ag44
ag44
ag44
ag44
ag44
ag44
ag44
ag44
ag44
ag44
ag44
ag44
ag44
ag44
ag44
ag44
ag44
ag44
ag44
ag44
ag44
ag44
ag44
ag44
ag44
ag44
ag44
ag44
ag44
ag44
ag44
ag44
ag44
ag44
ag44
ag44
ag44
ag44
ag44
ag44
ag44
ag44
ag44
ag44
ag44
ag44
ag44
ag44
ag44
ag44
ag44
ag44
ag44
ag44
ag44
ag44
ag44
ag44
ag44
ag44
ag44
ag44
ag44
ag44
ag44
ag44
ag44
ag44
ag44
ag44
ag44
ag44
ag44
ag44
ag44
ag44
ag44
ag44
ag44
ag44
ag44
ag44
ag44
ag44
ag44
ag44
ag44
ag44
ag44
ag44
ag44
ag44
ag44
ag44
ag44
ag44
ag44
ag44
ag44
ag44
ag44
ag44
ag44
ag44
ag44
ag44
ag44
ag44
ag44
ag44
ag44
ag44
ag44
ag44
ag44
ag44
ag44
ag44
ag44
ag44
ag44
ag44
ag44
ag44
ag44
ag44
ag44
ag44
ag44
ag44
ag44
ag44
ag44
ag44
ag44
ag44
ag44
ag44
ag44
ag44
ag44
ag44
ag44
ag44
ag44
ag44
ag44
ag44
ag44
ag44
ag44
ag44
ag44
ag44
ag44
ag44
ag44
ag44
ag44
ag44
ag44
ag44
ag44
ag44
ag44
ag44
ag44
ag44
ag44
ag44
ag44
ag44
ag44
ag44
ag44
ag44
ag44
ag44
ag44
ag44
ag44
ag44
ag44
ag44
ag44
ag44
ag44
ag44
ag44
ag44
ag44
ag44
ag44
ag44
ag44
ag44
ag44
ag44
ag44
ag44
ag44
ag44
ag44
ag44
ag44
ag44
ag44
ag44
ag44
ag44
ag44
ag44
ag44
ag44
ag44
ag44
ag44
ag44
ag44
ag44
ag44
ag44
ag44
ag44
ag44
ag44
ag44
ag44
asS'best_P'
p45
(lp46
(itree
PTree
p47
(dp48
S'root'
p49
ccopy_reg
_reconstructor
p50
(ctree
Feature
p51
c__builtin__
object
p52
Ntp53
Rp54
(dp55
S'index'
p56
I0
sS'name'
p57
S'Storage'
p58
sS'l'
p59
g50
(ctree
Action
p60
g52
Ntp61
Rp62
(dp63
S'r'
p64
NsS'is_feature'
p65
I00
sS'value'
p66
S'Hedge_90'
p67
sg59
Nsbsg64
g50
(g60
g52
Ntp68
Rp69
(dp70
g64
Nsg65
I00
sg66
S'Release_Demand'
p71
sg59
NsbsS'threshold'
p72
F881.8963866815698
sg65
I01
sbsS'L'
p73
(lp74
g54
ag62
ag69
asS'N'
p75
I3
sba(itree
PTree
p76
(dp77
g49
g50
(g51
g52
Ntp78
Rp79
(dp80
g56
I1
sg64
g50
(g60
g52
Ntp81
Rp82
(dp83
g64
Nsg65
I00
sg66
S'Hedge_90'
p84
sg59
Nsbsg57
S'Day'
p85
sg72
F233.42924159471016
sg59
g50
(g60
g52
Ntp86
Rp87
(dp88
g64
Nsg65
I00
sg66
S'Hedge_80'
p89
sg59
Nsbsg65
I01
sbsg73
(lp90
g79
ag87
ag82
asg75
I3
sba(itree
PTree
p91
(dp92
g49
g50
(g51
g52
Ntp93
Rp94
(dp95
g56
I0
sg64
g50
(g60
g52
Ntp96
Rp97
(dp98
g64
Nsg65
I00
sg66
g71
sg59
Nsbsg57
g58
sg72
F716.15280102637
sg59
g50
(g60
g52
Ntp99
Rp100
(dp101
g64
Nsg65
I00
sg66
S'Hedge_90'
p102
sg59
Nsbsg65
I01
sbsg73
(lp103
g94
ag100
ag97
asg75
I3
sba(itree
PTree
p104
(dp105
g49
g50
(g51
g52
Ntp106
Rp107
(dp108
g56
I0
sg64
g50
(g60
g52
Ntp109
Rp110
(dp111
g64
Nsg65
I00
sg66
S'Hedge_90'
p112
sg59
Nsbsg57
g58
sg72
F551.1367588564182
sg59
g50
(g60
g52
Ntp113
Rp114
(dp115
g64
Nsg65
I00
sg66
S'Hedge_80'
p116
sg59
Nsbsg65
I01
sbsg73
(lp117
g107
ag114
ag110
asg75
I3
sbag104
a(itree
PTree
p118
(dp119
g49
g50
(g51
g52
Ntp120
Rp121
(dp122
g56
I0
sg64
g50
(g60
g52
Ntp123
Rp124
(dp125
g64
Nsg65
I00
sg66
S'Release_Demand'
p126
sg59
Nsbsg57
g58
sg72
F282.3139021490457
sg59
g50
(g60
g52
Ntp127
Rp128
(dp129
g64
Nsg65
I00
sg66
S'Hedge_70'
p130
sg59
Nsbsg65
I01
sbsg73
(lp131
g121
ag128
ag124
asg75
I3
sbag118
a(itree
PTree
p132
(dp133
g49
g50
(g51
g52
Ntp134
Rp135
(dp136
g56
I0
sg64
g50
(g60
g52
Ntp137
Rp138
(dp139
g64
Nsg65
I00
sg66
S'Release_Demand'
p140
sg59
Nsbsg57
g58
sg72
F512.168872218394
sg59
g50
(g60
g52
Ntp141
Rp142
(dp143
g64
Nsg65
I00
sg66
S'Hedge_80'
p144
sg59
Nsbsg65
I01
sbsg73
(lp145
g135
ag142
ag138
asg75
I3
sbag132
a(itree
PTree
p146
(dp147
g49
g50
(g51
g52
Ntp148
Rp149
(dp150
g56
I0
sg64
g50
(g60
g52
Ntp151
Rp152
(dp153
g64
Nsg65
I00
sg66
g140
sg59
Nsbsg57
g58
sg72
F451.1851779895075
sg59
g50
(g60
g52
Ntp154
Rp155
(dp156
g64
Nsg65
I00
sg66
g144
sg59
Nsbsg65
I01
sbsg73
(lp157
g149
ag155
ag152
asg75
I3
sbag146
ag146
ag146
ag146
ag146
ag146
a(itree
PTree
p158
(dp159
g49
g50
(g51
g52
Ntp160
Rp161
(dp162
g56
I0
sg64
g50
(g60
g52
Ntp163
Rp164
(dp165
g64
Nsg65
I00
sg66
S'Release_Demand'
p166
sg59
Nsbsg57
g58
sg72
F483.147239487683
sg59
g50
(g60
g52
Ntp167
Rp168
(dp169
g64
Nsg65
I00
sg66
S'Hedge_80'
p170
sg59
Nsbsg65
I01
sbsg73
(lp171
g161
ag168
ag164
asg75
I3
sbag158
ag158
ag158
a(itree
PTree
p172
(dp173
g49
g50
(g51
g52
Ntp174
Rp175
(dp176
g56
I0
sg64
g50
(g60
g52
Ntp177
Rp178
(dp179
g64
Nsg65
I00
sg66
S'Release_Demand'
p180
sg59
Nsbsg57
g58
sg72
F477.3114477970341
sg59
g50
(g60
g52
Ntp181
Rp182
(dp183
g64
Nsg65
I00
sg66
g116
sg59
Nsbsg65
I01
sbsg73
(lp184
g175
ag182
ag178
asg75
I3
sbag172
ag172
ag172
ag172
a(itree
PTree
p185
(dp186
g49
g50
(g51
g52
Ntp187
Rp188
(dp189
g56
I0
sg64
g50
(g60
g52
Ntp190
Rp191
(dp192
g64
Nsg65
I00
sg66
S'Release_Demand'
p193
sg59
Nsbsg57
g58
sg72
F481.9037782239702
sg59
g50
(g60
g52
Ntp194
Rp195
(dp196
g64
Nsg65
I00
sg66
S'Hedge_80'
p197
sg59
Nsbsg65
I01
sbsg73
(lp198
g188
ag195
ag191
asg75
I3
sbag185
ag185
ag185
ag185
ag185
ag185
ag185
ag185
ag185
ag185
ag185
ag185
ag185
ag185
ag185
ag185
ag185
ag185
ag185
ag185
ag185
ag185
ag185
ag185
ag185
ag185
ag185
ag185
ag185
ag185
ag185
ag185
ag185
ag185
ag185
ag185
ag185
ag185
ag185
ag185
ag185
ag185
ag185
ag185
a(itree
PTree
p199
(dp200
g49
g50
(g51
g52
Ntp201
Rp202
(dp203
g56
I0
sg64
g50
(g60
g52
Ntp204
Rp205
(dp206
g64
Nsg65
I00
sg66
S'Release_Demand'
p207
sg59
Nsbsg57
g58
sg72
F480.7218262885643
sg59
g50
(g60
g52
Ntp208
Rp209
(dp210
g64
Nsg65
I00
sg66
S'Hedge_80'
p211
sg59
Nsbsg65
I01
sbsg73
(lp212
g202
ag209
ag205
asg75
I3
sbag199
ag199
ag199
ag199
ag199
ag199
ag199
ag199
ag199
ag199
ag199
ag199
ag199
ag199
ag199
ag199
ag199
ag199
ag199
ag199
ag199
ag199
ag199
ag199
ag199
ag199
ag199
ag199
ag199
ag199
ag199
ag199
ag199
ag199
ag199
ag199
ag199
ag199
ag199
ag199
ag199
ag199
ag199
ag199
ag199
ag199
ag199
ag199
ag199
ag199
ag199
ag199
ag199
ag199
ag199
ag199
ag199
ag199
ag199
ag199
ag199
ag199
ag199
ag199
ag199
ag199
ag199
ag199
ag199
ag199
ag199
ag199
ag199
ag199
ag199
ag199
ag199
ag199
ag199
ag199
ag199
ag199
ag199
ag199
ag199
ag199
ag199
ag199
ag199
ag199
ag199
ag199
ag199
ag199
ag199
ag199
ag199
ag199
ag199
ag199
ag199
ag199
ag199
ag199
ag199
ag199
ag199
ag199
ag199
ag199
ag199
ag199
ag199
ag199
ag199
ag199
ag199
ag199
ag199
ag199
ag199
ag199
ag199
ag199
ag199
ag199
ag199
ag199
ag199
ag199
ag199
ag199
ag199
ag199
ag199
ag199
ag199
ag199
ag199
ag199
ag199
ag199
ag199
ag199
ag199
ag199
ag199
ag199
ag199
ag199
ag199
ag199
ag199
ag199
ag199
ag199
ag199
ag199
ag199
ag199
ag199
ag199
ag199
ag199
ag199
ag199
ag199
ag199
ag199
ag199
ag199
ag199
ag199
ag199
ag199
ag199
ag199
ag199
ag199
ag199
ag199
ag199
ag199
ag199
ag199
ag199
ag199
ag199
ag199
ag199
ag199
ag199
ag199
ag199
ag199
ag199
ag199
ag199
ag199
ag199
ag199
ag199
ag199
ag199
ag199
ag199
ag199
ag199
ag199
ag199
ag199
ag199
ag199
ag199
ag199
ag199
ag199
ag199
ag199
ag199
ag199
ag199
ag199
ag199
ag199
ag199
ag199
ag199
ag199
ag199
ag199
ag199
ag199
ag199
ag199
ag199
ag199
ag199
ag199
ag199
ag199
ag199
ag199
ag199
ag199
ag199
ag199
ag199
ag199
ag199
ag199
ag199
ag199
ag199
ag199
ag199
ag199
ag199
ag199
ag199
ag199
ag199
ag199
ag199
ag199
ag199
ag199
ag199
ag199
ag199
ag199
ag199
ag199
ag199
ag199
ag199
ag199
ag199
ag199
ag199
ag199
ag199
ag199
ag199
ag199
ag199
ag199
ag199
ag199
ag199
ag199
ag199
ag199
ag199
ag199
ag199
ag199
ag199
ag199
ag199
ag199
ag199
ag199
ag199
ag199
ag199
ag199
ag199
ag199
ag199
ag199
ag199
ag199
ag199
ag199
ag199
ag199
ag199
ag199
ag199
ag199
ag199
ag199
ag199
ag199
ag199
ag199
ag199
ag199
ag199
ag199
ag199
ag199
ag199
ag199
ag199
ag199
ag199
ag199
ag199
ag199
ag199
ag199
ag199
ag199
ag199
ag199
ag199
ag199
ag199
ag199
ag199
ag199
ag199
ag199
ag199
ag199
ag199
ag199
ag199
ag199
ag199
ag199
ag199
ag199
ag199
ag199
ag199
ag199
ag199
ag199
ag199
ag199
ag199
ag199
ag199
ag199
ag199
ag199
ag199
ag199
ag199
ag199
ag199
ag199
ag199
ag199
ag199
ag199
ag199
ag199
ag199
ag199
ag199
ag199
ag199
ag199
ag199
ag199
ag199
ag199
ag199
ag199
ag199
ag199
ag199
ag199
ag199
ag199
ag199
ag199
ag199
ag199
ag199
ag199
ag199
ag199
ag199
ag199
ag199
ag199
ag199
ag199
ag199
ag199
ag199
ag199
ag199
ag199
asS'time'
p213
(lp214
I104
aI156
aI209
aI261
aI311
aI360
aI409
aI457
aI507
aI554
aI604
aI653
aI702
aI749
aI798
aI847
aI898
aI946
aI987
aI1035
aI1083
aI1132
aI1179
aI1227
aI1277
aI1323
aI1372
aI1421
aI1469
aI1517
aI1565
aI1614
aI1663
aI1711
aI1759
aI1807
aI1854
aI1903
aI1950
aI1997
aI2044
aI2092
aI2139
aI2187
aI2234
aI2284
aI2333
aI2381
aI2429
aI2476
aI2523
aI2571
aI2619
aI2668
aI2716
aI2764
aI2812
aI2861
aI2908
aI2956
aI3004
aI3054
aI3103
aI3153
aI3201
aI3249
aI3297
aI3346
aI3394
aI3442
aI3490
aI3539
aI3589
aI3638
aI3686
aI3736
aI3785
aI3832
aI3881
aI3935
aI3990
aI4044
aI4097
aI4152
aI4206
aI4262
aI4315
aI4369
aI4414
aI4463
aI4513
aI4563
aI4611
aI4660
aI4709
aI4758
aI4813
aI4868
aI4922
aI4977
aI5031
aI5086
aI5140
aI5193
aI5244
aI5290
aI5339
aI5387
aI5436
aI5483
aI5531
aI5579
aI5627
aI5676
aI5725
aI5773
aI5822
aI5869
aI5917
aI5964
aI6014
aI6062
aI6110
aI6158
aI6206
aI6254
aI6302
aI6351
aI6397
aI6444
aI6492
aI6542
aI6589
aI6636
aI6683
aI6732
aI6780
aI6828
aI6876
aI6924
aI6971
aI7020
aI7068
aI7116
aI7167
aI7215
aI7264
aI7311
aI7357
aI7406
aI7455
aI7502
aI7551
aI7600
aI7649
aI7699
aI7749
aI7798
aI7847
aI7897
aI7946
aI7996
aI8046
aI8095
aI8144
aI8193
aI8242
aI8291
aI8341
aI8387
aI8435
aI8484
aI8532
aI8581
aI8629
aI8677
aI8727
aI8771
aI8786
aI8836
aI8884
aI8933
aI8980
aI9029
aI9079
aI9127
aI9176
aI9225
aI9274
aI9322
aI9371
aI9419
aI9468
aI9516
aI9566
aI9616
aI9664
aI9713
aI9762
aI9810
aI9857
aI9907
aI9956
aI10004
aI10053
aI10102
aI10150
aI10198
aI10246
aI10295
aI10342
aI10392
aI10441
aI10489
aI10537
aI10585
aI10610
aI10652
aI10708
aI10762
aI10815
aI10870
aI10924
aI10978
aI11031
aI11085
aI11139
aI11192
aI11246
aI11300
aI11354
aI11407
aI11464
aI11518
aI11573
aI11625
aI11673
aI11721
aI11769
aI11818
aI11867
aI11916
aI11964
aI12012
aI12060
aI12109
aI12157
aI12206
aI12254
aI12303
aI12352
aI12401
aI12450
aI12497
aI12546
aI12594
aI12639
aI12683
aI12731
aI12779
aI12827
aI12875
aI12924
aI12973
aI13021
aI13071
aI13119
aI13168
aI13223
aI13279
aI13334
aI13388
aI13439
aI13486
aI13535
aI13585
aI13635
aI13683
aI13732
aI13781
aI13831
aI13878
aI13926
aI13975
aI14024
aI14073
aI14121
aI14169
aI14218
aI14266
aI14315
aI14364
aI14411
aI14460
aI14507
aI14552
aI14600
aI14648
aI14691
aI14718
aI14768
aI14815
aI14863
aI14912
aI14960
aI15007
aI15056
aI15101
aI15148
aI15196
aI15244
aI15291
aI15339
aI15387
aI15436
aI15483
aI15531
aI15578
aI15625
aI15672
aI15721
aI15768
aI15818
aI15866
aI15914
aI15962
aI16012
aI16060
aI16108
aI16156
aI16203
aI16251
aI16300
aI16348
aI16396
aI16443
aI16491
aI16539
aI16589
aI16639
aI16689
aI16738
aI16787
aI16837
aI16886
aI16936
aI16986
aI17036
aI17086
aI17136
aI17187
aI17236
aI17286
aI17336
aI17384
aI17431
aI17481
aI17529
aI17578
aI17627
aI17676
aI17724
aI17772
aI17820
aI17870
aI17918
aI17966
aI18014
aI18061
aI18109
aI18157
aI18205
aI18253
aI18301
aI18351
aI18400
aI18450
aI18498
aI18545
aI18592
aI18639
aI18687
aI18736
aI18784
aI18840
aI18895
aI18949
aI19004
aI19058
aI19105
aI19160
aI19206
aI19255
aI19304
aI19352
aI19401
aI19448
aI19491
aI19533
aI19580
aI19628
aI19675
aI19723
aI19772
aI19821
aI19869
aI19917
aI19962
aI20010
aI20056
aI20101
aI20145
aI20194
aI20242
aI20290
aI20339
aI20387
aI20435
aI20482
aI20529
aI20579
aI20627
aI20677
aI20725
aI20774
aI20823
aI20872
aI20919
aI20964
aI21010
aI21059
aI21106
aI21153
aI21200
aI21248
aI21296
aI21334
aI21349
aI21365
aI21406
aI21460
aI21513
aI21569
aI21624
aI21676
aI21721
aI21767
aI21815
aI21861
aI21876
aI21891
aI21905
aI21933
aI21981
aI22030
aI22080
aI22127
aI22176
aI22223
aI22270
aI22316
aI22365
aI22419
aI22474
aI22529
aI22584
aI22639
aI22693
aI22747
aI22801
aI22855
aI22908
aI22964
aI23018
aI23073
aI23128
aI23183
aI23238
aI23293
aI23349
aI23402
aI23457
aI23511
aI23566
aI23621
aI23675
aI23729
aI23783
aI23832
aI23880
aI23927
aI23975
aI24015
aI24031
aI24070
aI24118
aI24162
aI24209
aI24258
aI24308
as.