(dp0
S'nfe'
p1
(lp2
I50
aI100
aI150
aI200
aI250
aI300
aI350
aI400
aI450
aI500
aI550
aI600
aI650
aI700
aI750
aI800
aI850
aI900
aI950
aI1000
aI1050
aI1100
aI1150
aI1200
aI1250
aI1300
aI1350
aI1400
aI1450
aI1500
aI1550
aI1600
aI1650
aI1700
aI1750
aI1800
aI1850
aI1900
aI1950
aI2000
aI2050
aI2100
aI2150
aI2200
aI2250
aI2300
aI2350
aI2400
aI2450
aI2500
aI2550
aI2600
aI2650
aI2700
aI2750
aI2800
aI2850
aI2900
aI2950
aI3000
aI3050
aI3100
aI3150
aI3200
aI3250
aI3300
aI3350
aI3400
aI3450
aI3500
aI3550
aI3600
aI3650
aI3700
aI3750
aI3800
aI3850
aI3900
aI3950
aI4000
aI4050
aI4100
aI4150
aI4200
aI4250
aI4300
aI4350
aI4400
aI4450
aI4500
aI4550
aI4600
aI4650
aI4700
aI4750
aI4800
aI4850
aI4900
aI4950
aI5000
aI5050
aI5100
aI5150
aI5200
aI5250
aI5300
aI5350
aI5400
aI5450
aI5500
aI5550
aI5600
aI5650
aI5700
aI5750
aI5800
aI5850
aI5900
aI5950
aI6000
aI6050
aI6100
aI6150
aI6200
aI6250
aI6300
aI6350
aI6400
aI6450
aI6500
aI6550
aI6600
aI6650
aI6700
aI6750
aI6800
aI6850
aI6900
aI6950
aI7000
aI7050
aI7100
aI7150
aI7200
aI7250
aI7300
aI7350
aI7400
aI7450
aI7500
aI7550
aI7600
aI7650
aI7700
aI7750
aI7800
aI7850
aI7900
aI7950
aI8000
aI8050
aI8100
aI8150
aI8200
aI8250
aI8300
aI8350
aI8400
aI8450
aI8500
aI8550
aI8600
aI8650
aI8700
aI8750
aI8800
aI8850
aI8900
aI8950
aI9000
aI9050
aI9100
aI9150
aI9200
aI9250
aI9300
aI9350
aI9400
aI9450
aI9500
aI9550
aI9600
aI9650
aI9700
aI9750
aI9800
aI9850
aI9900
aI9950
aI10000
aI10050
aI10100
aI10150
aI10200
aI10250
aI10300
aI10350
aI10400
aI10450
aI10500
aI10550
aI10600
aI10650
aI10700
aI10750
aI10800
aI10850
aI10900
aI10950
aI11000
aI11050
aI11100
aI11150
aI11200
aI11250
aI11300
aI11350
aI11400
aI11450
aI11500
aI11550
aI11600
aI11650
aI11700
aI11750
aI11800
aI11850
aI11900
aI11950
aI12000
aI12050
aI12100
aI12150
aI12200
aI12250
aI12300
aI12350
aI12400
aI12450
aI12500
aI12550
aI12600
aI12650
aI12700
aI12750
aI12800
aI12850
aI12900
aI12950
aI13000
aI13050
aI13100
aI13150
aI13200
aI13250
aI13300
aI13350
aI13400
aI13450
aI13500
aI13550
aI13600
aI13650
aI13700
aI13750
aI13800
aI13850
aI13900
aI13950
aI14000
aI14050
aI14100
aI14150
aI14200
aI14250
aI14300
aI14350
aI14400
aI14450
aI14500
aI14550
aI14600
aI14650
aI14700
aI14750
aI14800
aI14850
aI14900
aI14950
aI15000
aI15050
aI15100
aI15150
aI15200
aI15250
aI15300
aI15350
aI15400
aI15450
aI15500
aI15550
aI15600
aI15650
aI15700
aI15750
aI15800
aI15850
aI15900
aI15950
aI16000
aI16050
aI16100
aI16150
aI16200
aI16250
aI16300
aI16350
aI16400
aI16450
aI16500
aI16550
aI16600
aI16650
aI16700
aI16750
aI16800
aI16850
aI16900
aI16950
aI17000
aI17050
aI17100
aI17150
aI17200
aI17250
aI17300
aI17350
aI17400
aI17450
aI17500
aI17550
aI17600
aI17650
aI17700
aI17750
aI17800
aI17850
aI17900
aI17950
aI18000
aI18050
aI18100
aI18150
aI18200
aI18250
aI18300
aI18350
aI18400
aI18450
aI18500
aI18550
aI18600
aI18650
aI18700
aI18750
aI18800
aI18850
aI18900
aI18950
aI19000
aI19050
aI19100
aI19150
aI19200
aI19250
aI19300
aI19350
aI19400
aI19450
aI19500
aI19550
aI19600
aI19650
aI19700
aI19750
aI19800
aI19850
aI19900
aI19950
aI20000
aI20050
aI20100
aI20150
aI20200
aI20250
aI20300
aI20350
aI20400
aI20450
aI20500
aI20550
aI20600
aI20650
aI20700
aI20750
aI20800
aI20850
aI20900
aI20950
aI21000
aI21050
aI21100
aI21150
aI21200
aI21250
aI21300
aI21350
aI21400
aI21450
aI21500
aI21550
aI21600
aI21650
aI21700
aI21750
aI21800
aI21850
aI21900
aI21950
aI22000
aI22050
aI22100
aI22150
aI22200
aI22250
aI22300
aI22350
aI22400
aI22450
aI22500
aI22550
aI22600
aI22650
aI22700
aI22750
aI22800
aI22850
aI22900
aI22950
aI23000
aI23050
aI23100
aI23150
aI23200
aI23250
aI23300
aI23350
aI23400
aI23450
aI23500
aI23550
aI23600
aI23650
aI23700
aI23750
aI23800
aI23850
aI23900
aI23950
aI24000
aI24050
aI24100
aI24150
aI24200
aI24250
aI24300
aI24350
aI24400
aI24450
aI24500
aI24550
aI24600
aI24650
aI24700
aI24750
aI24800
aI24850
aI24900
aI24950
aI25000
asS'best_f'
p3
(lp4
cnumpy.core.multiarray
scalar
p5
(cnumpy
dtype
p6
(S'f8'
p7
I0
I1
tp8
Rp9
(I3
S'<'
p10
NNNI-1
I-1
I0
tp11
bS'\xf9\x1cr\x8a\xca\xbb\xc4?'
p12
tp13
Rp14
ag5
(g9
S'=fn-\xe0\x9b\xc1?'
p15
tp16
Rp17
ag17
ag17
ag5
(g9
S'\xab\xd0a\x90\x1b\x1a\xc1?'
p18
tp19
Rp20
ag20
ag20
ag20
ag20
ag20
ag20
ag5
(g9
S'C\xe3\xbabK\x16\xc1?'
p21
tp22
Rp23
ag5
(g9
S'-v\xeeb"\x0e\xc1?'
p24
tp25
Rp26
ag26
ag26
ag26
ag26
ag5
(g9
S'\xc1U\x1d\xab\x86\x0c\xc1?'
p27
tp28
Rp29
ag29
ag29
ag29
ag29
ag29
ag29
ag29
ag29
ag29
ag29
ag29
ag29
ag29
ag29
ag29
ag29
ag29
ag29
ag29
ag29
ag5
(g9
S'\x07\xd7M\xce,\x07\xc1?'
p30
tp31
Rp32
ag32
ag32
ag32
ag32
ag32
ag32
ag32
ag32
ag32
ag32
ag32
ag32
ag32
ag32
ag32
ag32
ag32
ag32
ag32
ag32
ag32
ag32
ag32
ag32
ag32
ag32
ag32
ag32
ag32
ag32
ag32
ag5
(g9
S'\xe8\xc4\xe4\x98\xee\x05\xc1?'
p33
tp34
Rp35
ag35
ag35
ag35
ag35
ag35
ag35
ag35
ag35
ag35
ag35
ag35
ag35
ag35
ag35
ag35
ag35
ag35
ag35
ag35
ag35
ag35
ag35
ag35
ag35
ag35
ag35
ag35
ag35
ag35
ag35
ag35
ag35
ag35
ag35
ag35
ag35
ag35
ag35
ag35
ag35
ag35
ag35
ag35
ag35
ag35
ag35
ag35
ag35
ag35
ag35
ag35
ag35
ag35
ag35
ag35
ag35
ag35
ag35
ag35
ag35
ag35
ag35
ag35
ag35
ag35
ag35
ag35
ag35
ag35
ag35
ag35
ag35
ag35
ag35
ag35
ag35
ag35
ag35
ag35
ag35
ag35
ag35
ag35
ag35
ag35
ag35
ag35
ag35
ag35
ag35
ag35
ag35
ag35
ag35
ag35
ag35
ag35
ag35
ag35
ag35
ag35
ag35
ag35
ag35
ag35
ag35
ag35
ag35
ag35
ag35
ag35
ag35
ag35
ag35
ag35
ag35
ag35
ag35
ag35
ag35
ag35
ag35
ag35
ag35
ag35
ag35
ag35
ag35
ag35
ag35
ag35
ag35
ag35
ag35
ag35
ag35
ag35
ag35
ag35
ag35
ag35
ag35
ag35
ag35
ag35
ag35
ag35
ag35
ag35
ag35
ag35
ag35
ag35
ag35
ag35
ag35
ag35
ag35
ag35
ag35
ag35
ag35
ag35
ag35
ag35
ag35
ag35
ag35
ag35
ag35
ag35
ag35
ag35
ag35
ag35
ag35
ag35
ag35
ag35
ag35
ag35
ag35
ag35
ag35
ag35
ag35
ag35
ag35
ag35
ag35
ag35
ag35
ag35
ag35
ag35
ag35
ag35
ag35
ag35
ag35
ag35
ag35
ag35
ag35
ag35
ag35
ag35
ag35
ag35
ag35
ag35
ag35
ag35
ag35
ag35
ag35
ag35
ag35
ag35
ag35
ag35
ag35
ag35
ag35
ag35
ag35
ag35
ag35
ag35
ag35
ag35
ag35
ag35
ag35
ag35
ag35
ag35
ag35
ag35
ag35
ag35
ag35
ag35
ag35
ag35
ag35
ag35
ag35
ag35
ag35
ag35
ag35
ag35
ag35
ag35
ag35
ag35
ag35
ag35
ag35
ag35
ag35
ag35
ag35
ag35
ag35
ag35
ag35
ag35
ag35
ag35
ag35
ag35
ag35
ag35
ag35
ag35
ag35
ag35
ag35
ag35
ag35
ag35
ag35
ag35
ag35
ag35
ag35
ag35
ag35
ag35
ag35
ag35
ag35
ag35
ag35
ag35
ag35
ag35
ag35
ag35
ag35
ag35
ag35
ag35
ag35
ag35
ag35
ag35
ag35
ag35
ag35
ag35
ag35
ag35
ag35
ag35
ag35
ag35
ag35
ag35
ag35
ag35
ag35
ag35
ag35
ag35
ag35
ag35
ag35
ag35
ag35
ag35
ag35
ag35
ag35
ag35
ag35
ag35
ag35
ag35
ag35
ag35
ag35
ag35
ag35
ag35
ag35
ag35
ag35
ag35
ag35
ag35
ag35
ag35
ag35
ag35
ag35
ag35
ag35
ag35
ag35
ag35
ag35
ag35
ag35
ag35
ag35
ag35
ag35
ag35
ag35
ag35
ag35
ag35
ag35
ag35
ag35
ag35
ag35
ag35
ag35
ag35
ag35
ag35
ag35
ag35
ag35
ag35
ag35
ag35
ag35
ag35
ag35
ag35
ag35
ag35
ag35
ag35
ag35
ag35
ag35
ag35
ag35
ag35
ag35
ag35
ag35
ag35
ag35
ag35
ag35
ag35
ag35
ag35
ag35
ag35
ag35
ag35
ag35
ag35
ag35
ag35
ag35
ag35
ag35
ag35
ag35
ag35
asS'best_P'
p36
(lp37
(itree
PTree
p38
(dp39
S'root'
p40
ccopy_reg
_reconstructor
p41
(ctree
Feature
p42
c__builtin__
object
p43
Ntp44
Rp45
(dp46
S'index'
p47
I0
sS'name'
p48
S'Storage'
p49
sS'l'
p50
g41
(ctree
Action
p51
g43
Ntp52
Rp53
(dp54
S'r'
p55
NsS'is_feature'
p56
I00
sS'value'
p57
S'Hedge_70'
p58
sg50
Nsbsg55
g41
(g51
g43
Ntp59
Rp60
(dp61
g55
Nsg56
I00
sg57
S'Release_Demand'
p62
sg50
NsbsS'threshold'
p63
F310.61617368985594
sg56
I01
sbsS'L'
p64
(lp65
g45
ag53
ag60
asS'N'
p66
I3
sba(itree
PTree
p67
(dp68
g40
g41
(g42
g43
Ntp69
Rp70
(dp71
g47
I0
sg55
g41
(g51
g43
Ntp72
Rp73
(dp74
g55
Nsg56
I00
sg57
S'Release_Demand'
p75
sg50
Nsbsg48
g49
sg63
F503.79967945631665
sg50
g41
(g51
g43
Ntp76
Rp77
(dp78
g55
Nsg56
I00
sg57
S'Hedge_80'
p79
sg50
Nsbsg56
I01
sbsg64
(lp80
g70
ag77
ag73
asg66
I3
sbag67
ag67
a(itree
PTree
p81
(dp82
g40
g41
(g42
g43
Ntp83
Rp84
(dp85
g47
I0
sg55
g41
(g51
g43
Ntp86
Rp87
(dp88
g55
Nsg56
I00
sg57
g75
sg50
Nsbsg48
g49
sg63
F487.01949574950964
sg50
g41
(g51
g43
Ntp89
Rp90
(dp91
g55
Nsg56
I00
sg57
S'Hedge_80'
p92
sg50
Nsbsg56
I01
sbsg64
(lp93
g84
ag90
ag87
asg66
I3
sbag81
ag81
ag81
ag81
ag81
ag81
a(itree
PTree
p94
(dp95
g40
g41
(g42
g43
Ntp96
Rp97
(dp98
g47
I0
sg55
g41
(g51
g43
Ntp99
Rp100
(dp101
g55
Nsg56
I00
sg57
S'Release_Demand'
p102
sg50
Nsbsg48
g49
sg63
F483.87403402801687
sg50
g41
(g51
g43
Ntp103
Rp104
(dp105
g55
Nsg56
I00
sg57
S'Hedge_80'
p106
sg50
Nsbsg56
I01
sbsg64
(lp107
g97
ag104
ag100
asg66
I3
sba(itree
PTree
p108
(dp109
g40
g41
(g42
g43
Ntp110
Rp111
(dp112
g47
I0
sg55
g41
(g51
g43
Ntp113
Rp114
(dp115
g55
Nsg56
I00
sg57
g75
sg50
Nsbsg48
g49
sg63
F481.1035180863533
sg50
g41
(g51
g43
Ntp116
Rp117
(dp118
g55
Nsg56
I00
sg57
g92
sg50
Nsbsg56
I01
sbsg64
(lp119
g111
ag117
ag114
asg66
I3
sbag108
ag108
ag108
ag108
a(itree
PTree
p120
(dp121
g40
g41
(g42
g43
Ntp122
Rp123
(dp124
g47
I0
sg55
g41
(g51
g43
Ntp125
Rp126
(dp127
g55
Nsg56
I00
sg57
S'Release_Demand'
p128
sg50
Nsbsg48
g49
sg63
F480.2401939090461
sg50
g41
(g51
g43
Ntp129
Rp130
(dp131
g55
Nsg56
I00
sg57
S'Hedge_80'
p132
sg50
Nsbsg56
I01
sbsg64
(lp133
g123
ag130
ag126
asg66
I3
sbag120
ag120
ag120
ag120
ag120
ag120
ag120
ag120
ag120
ag120
ag120
ag120
ag120
ag120
ag120
ag120
ag120
ag120
ag120
ag120
a(itree
PTree
p134
(dp135
g40
g41
(g42
g43
Ntp136
Rp137
(dp138
g47
I0
sg55
g41
(g51
g43
Ntp139
Rp140
(dp141
g55
Nsg56
I00
sg57
S'Release_Demand'
p142
sg50
Nsbsg48
g49
sg63
F481.70148060664945
sg50
g41
(g51
g43
Ntp143
Rp144
(dp145
g55
Nsg56
I00
sg57
S'Hedge_80'
p146
sg50
Nsbsg56
I01
sbsg64
(lp147
g137
ag144
ag140
asg66
I3
sbag134
ag134
ag134
ag134
ag134
ag134
ag134
ag134
ag134
ag134
ag134
ag134
ag134
ag134
ag134
ag134
ag134
ag134
ag134
ag134
ag134
ag134
ag134
ag134
ag134
ag134
ag134
ag134
ag134
ag134
ag134
a(itree
PTree
p148
(dp149
g40
g41
(g42
g43
Ntp150
Rp151
(dp152
g47
I0
sg55
g41
(g51
g43
Ntp153
Rp154
(dp155
g55
Nsg56
I00
sg57
g102
sg50
Nsbsg48
g49
sg63
F480.8177739799055
sg50
g41
(g51
g43
Ntp156
Rp157
(dp158
g55
Nsg56
I00
sg57
S'Hedge_80'
p159
sg50
Nsbsg56
I01
sbsg64
(lp160
g151
ag157
ag154
asg66
I3
sbag148
ag148
ag148
ag148
ag148
ag148
ag148
ag148
ag148
ag148
ag148
ag148
ag148
ag148
ag148
ag148
ag148
ag148
ag148
ag148
ag148
ag148
ag148
ag148
ag148
ag148
ag148
ag148
ag148
ag148
ag148
ag148
ag148
ag148
ag148
ag148
ag148
ag148
ag148
ag148
ag148
ag148
ag148
ag148
ag148
ag148
ag148
ag148
ag148
ag148
ag148
ag148
ag148
ag148
ag148
ag148
ag148
ag148
ag148
ag148
ag148
ag148
ag148
ag148
ag148
ag148
ag148
ag148
ag148
ag148
ag148
ag148
ag148
ag148
ag148
ag148
ag148
ag148
ag148
ag148
ag148
ag148
ag148
ag148
ag148
ag148
ag148
ag148
ag148
ag148
ag148
ag148
ag148
ag148
ag148
ag148
ag148
ag148
ag148
ag148
ag148
ag148
ag148
ag148
ag148
ag148
ag148
ag148
ag148
ag148
ag148
ag148
ag148
ag148
ag148
ag148
ag148
ag148
ag148
ag148
ag148
ag148
ag148
ag148
ag148
ag148
ag148
ag148
ag148
ag148
ag148
ag148
ag148
ag148
ag148
ag148
ag148
ag148
ag148
ag148
ag148
ag148
ag148
ag148
ag148
ag148
ag148
ag148
ag148
ag148
ag148
ag148
ag148
ag148
ag148
ag148
ag148
ag148
ag148
ag148
ag148
ag148
ag148
ag148
ag148
ag148
ag148
ag148
ag148
ag148
ag148
ag148
ag148
ag148
ag148
ag148
ag148
ag148
ag148
ag148
ag148
ag148
ag148
ag148
ag148
ag148
ag148
ag148
ag148
ag148
ag148
ag148
ag148
ag148
ag148
ag148
ag148
ag148
ag148
ag148
ag148
ag148
ag148
ag148
ag148
ag148
ag148
ag148
ag148
ag148
ag148
ag148
ag148
ag148
ag148
ag148
ag148
ag148
ag148
ag148
ag148
ag148
ag148
ag148
ag148
ag148
ag148
ag148
ag148
ag148
ag148
ag148
ag148
ag148
ag148
ag148
ag148
ag148
ag148
ag148
ag148
ag148
ag148
ag148
ag148
ag148
ag148
ag148
ag148
ag148
ag148
ag148
ag148
ag148
ag148
ag148
ag148
ag148
ag148
ag148
ag148
ag148
ag148
ag148
ag148
ag148
ag148
ag148
ag148
ag148
ag148
ag148
ag148
ag148
ag148
ag148
ag148
ag148
ag148
ag148
ag148
ag148
ag148
ag148
ag148
ag148
ag148
ag148
ag148
ag148
ag148
ag148
ag148
ag148
ag148
ag148
ag148
ag148
ag148
ag148
ag148
ag148
ag148
ag148
ag148
ag148
ag148
ag148
ag148
ag148
ag148
ag148
ag148
ag148
ag148
ag148
ag148
ag148
ag148
ag148
ag148
ag148
ag148
ag148
ag148
ag148
ag148
ag148
ag148
ag148
ag148
ag148
ag148
ag148
ag148
ag148
ag148
ag148
ag148
ag148
ag148
ag148
ag148
ag148
ag148
ag148
ag148
ag148
ag148
ag148
ag148
ag148
ag148
ag148
ag148
ag148
ag148
ag148
ag148
ag148
ag148
ag148
ag148
ag148
ag148
ag148
ag148
ag148
ag148
ag148
ag148
ag148
ag148
ag148
ag148
ag148
ag148
ag148
ag148
ag148
ag148
ag148
ag148
ag148
ag148
ag148
ag148
ag148
ag148
ag148
ag148
ag148
ag148
ag148
ag148
ag148
ag148
ag148
ag148
ag148
ag148
ag148
ag148
ag148
ag148
ag148
ag148
ag148
ag148
ag148
ag148
ag148
ag148
ag148
ag148
ag148
ag148
ag148
ag148
ag148
ag148
ag148
ag148
ag148
ag148
ag148
ag148
ag148
ag148
asS'time'
p161
(lp162
I103
aI150
aI202
aI252
aI302
aI354
aI405
aI454
aI506
aI556
aI607
aI659
aI709
aI759
aI810
aI861
aI910
aI961
aI1012
aI1063
aI1112
aI1164
aI1214
aI1264
aI1315
aI1365
aI1416
aI1467
aI1518
aI1570
aI1621
aI1672
aI1724
aI1774
aI1825
aI1876
aI1928
aI1978
aI2029
aI2080
aI2132
aI2182
aI2232
aI2285
aI2336
aI2386
aI2438
aI2488
aI2537
aI2585
aI2635
aI2684
aI2725
aI2775
aI2825
aI2868
aI2919
aI2969
aI3017
aI3067
aI3116
aI3167
aI3215
aI3267
aI3317
aI3361
aI3410
aI3461
aI3513
aI3562
aI3613
aI3664
aI3715
aI3765
aI3815
aI3864
aI3914
aI3964
aI4015
aI4066
aI4117
aI4168
aI4218
aI4269
aI4319
aI4370
aI4420
aI4471
aI4522
aI4574
aI4625
aI4676
aI4726
aI4774
aI4827
aI4877
aI4927
aI4973
aI5024
aI5074
aI5125
aI5176
aI5227
aI5277
aI5328
aI5380
aI5431
aI5481
aI5532
aI5582
aI5632
aI5682
aI5732
aI5784
aI5837
aI5888
aI5934
aI5983
aI6035
aI6086
aI6137
aI6189
aI6240
aI6291
aI6341
aI6386
aI6436
aI6482
aI6532
aI6582
aI6632
aI6682
aI6728
aI6777
aI6826
aI6876
aI6926
aI6978
aI7028
aI7079
aI7130
aI7181
aI7231
aI7282
aI7327
aI7377
aI7426
aI7476
aI7527
aI7577
aI7628
aI7681
aI7733
aI7783
aI7833
aI7886
aI7936
aI7987
aI8037
aI8087
aI8138
aI8188
aI8240
aI8293
aI8342
aI8392
aI8443
aI8492
aI8543
aI8591
aI8641
aI8692
aI8742
aI8792
aI8844
aI8896
aI8948
aI8995
aI9042
aI9094
aI9137
aI9182
aI9234
aI9285
aI9336
aI9387
aI9437
aI9488
aI9539
aI9591
aI9641
aI9693
aI9746
aI9798
aI9851
aI9902
aI9954
aI10006
aI10056
aI10106
aI10159
aI10209
aI10254
aI10305
aI10354
aI10405
aI10452
aI10504
aI10548
aI10599
aI10645
aI10690
aI10714
aI10761
aI10812
aI10862
aI10907
aI10954
aI11005
aI11057
aI11108
aI11159
aI11210
aI11260
aI11312
aI11362
aI11412
aI11461
aI11508
aI11558
aI11608
aI11658
aI11705
aI11754
aI11805
aI11856
aI11908
aI11960
aI12011
aI12062
aI12112
aI12162
aI12213
aI12263
aI12314
aI12365
aI12417
aI12463
aI12503
aI12554
aI12604
aI12657
aI12708
aI12759
aI12811
aI12861
aI12912
aI12964
aI13016
aI13065
aI13114
aI13165
aI13216
aI13264
aI13314
aI13365
aI13416
aI13467
aI13516
aI13567
aI13617
aI13667
aI13718
aI13767
aI13818
aI13868
aI13918
aI13969
aI14020
aI14071
aI14122
aI14173
aI14223
aI14273
aI14323
aI14372
aI14423
aI14471
aI14522
aI14571
aI14622
aI14674
aI14723
aI14771
aI14823
aI14873
aI14923
aI14974
aI15025
aI15075
aI15126
aI15177
aI15227
aI15275
aI15326
aI15377
aI15430
aI15477
aI15529
aI15578
aI15630
aI15682
aI15732
aI15782
aI15832
aI15880
aI15931
aI15983
aI16032
aI16084
aI16134
aI16183
aI16233
aI16285
aI16336
aI16387
aI16437
aI16487
aI16538
aI16589
aI16639
aI16690
aI16738
aI16787
aI16838
aI16890
aI16941
aI16992
aI17042
aI17094
aI17146
aI17196
aI17248
aI17299
aI17351
aI17401
aI17452
aI17503
aI17555
aI17605
aI17657
aI17707
aI17758
aI17808
aI17857
aI17907
aI17957
aI18007
aI18059
aI18109
aI18161
aI18213
aI18265
aI18316
aI18366
aI18416
aI18467
aI18516
aI18566
aI18617
aI18667
aI18718
aI18768
aI18820
aI18871
aI18921
aI18972
aI19022
aI19073
aI19122
aI19173
aI19224
aI19275
aI19327
aI19380
aI19429
aI19480
aI19531
aI19581
aI19633
aI19683
aI19735
aI19785
aI19836
aI19886
aI19937
aI19987
aI20039
aI20091
aI20140
aI20189
aI20240
aI20291
aI20341
aI20392
aI20443
aI20494
aI20545
aI20592
aI20645
aI20696
aI20744
aI20794
aI20846
aI20899
aI20950
aI21000
aI21052
aI21099
aI21150
aI21203
aI21254
aI21306
aI21352
aI21394
aI21439
aI21482
aI21520
aI21571
aI21623
aI21674
aI21727
aI21779
aI21830
aI21874
aI21923
aI21974
aI22024
aI22074
aI22123
aI22174
aI22223
aI22273
aI22323
aI22372
aI22424
aI22474
aI22524
aI22573
aI22625
aI22676
aI22727
aI22779
aI22831
aI22882
aI22934
aI22986
aI23037
aI23087
aI23137
aI23188
aI23236
aI23287
aI23339
aI23390
aI23440
aI23489
aI23539
aI23591
aI23639
aI23689
aI23739
aI23789
aI23840
aI23890
aI23940
aI23988
aI24037
aI24088
aI24138
aI24187
aI24235
aI24281
aI24332
aI24383
aI24434
aI24483
aI24534
aI24584
aI24634
aI24685
aI24736
aI24787
aI24837
aI24888
aI24939
aI24989
aI25040
aI25090
aI25140
as.