(dp0
S'nfe'
p1
(lp2
I50
aI100
aI150
aI200
aI250
aI300
aI350
aI400
aI450
aI500
aI550
aI600
aI650
aI700
aI750
aI800
aI850
aI900
aI950
aI1000
aI1050
aI1100
aI1150
aI1200
aI1250
aI1300
aI1350
aI1400
aI1450
aI1500
aI1550
aI1600
aI1650
aI1700
aI1750
aI1800
aI1850
aI1900
aI1950
aI2000
aI2050
aI2100
aI2150
aI2200
aI2250
aI2300
aI2350
aI2400
aI2450
aI2500
aI2550
aI2600
aI2650
aI2700
aI2750
aI2800
aI2850
aI2900
aI2950
aI3000
aI3050
aI3100
aI3150
aI3200
aI3250
aI3300
aI3350
aI3400
aI3450
aI3500
aI3550
aI3600
aI3650
aI3700
aI3750
aI3800
aI3850
aI3900
aI3950
aI4000
aI4050
aI4100
aI4150
aI4200
aI4250
aI4300
aI4350
aI4400
aI4450
aI4500
aI4550
aI4600
aI4650
aI4700
aI4750
aI4800
aI4850
aI4900
aI4950
aI5000
aI5050
aI5100
aI5150
aI5200
aI5250
aI5300
aI5350
aI5400
aI5450
aI5500
aI5550
aI5600
aI5650
aI5700
aI5750
aI5800
aI5850
aI5900
aI5950
aI6000
aI6050
aI6100
aI6150
aI6200
aI6250
aI6300
aI6350
aI6400
aI6450
aI6500
aI6550
aI6600
aI6650
aI6700
aI6750
aI6800
aI6850
aI6900
aI6950
aI7000
aI7050
aI7100
aI7150
aI7200
aI7250
aI7300
aI7350
aI7400
aI7450
aI7500
aI7550
aI7600
aI7650
aI7700
aI7750
aI7800
aI7850
aI7900
aI7950
aI8000
aI8050
aI8100
aI8150
aI8200
aI8250
aI8300
aI8350
aI8400
aI8450
aI8500
aI8550
aI8600
aI8650
aI8700
aI8750
aI8800
aI8850
aI8900
aI8950
aI9000
aI9050
aI9100
aI9150
aI9200
aI9250
aI9300
aI9350
aI9400
aI9450
aI9500
aI9550
aI9600
aI9650
aI9700
aI9750
aI9800
aI9850
aI9900
aI9950
aI10000
aI10050
aI10100
aI10150
aI10200
aI10250
aI10300
aI10350
aI10400
aI10450
aI10500
aI10550
aI10600
aI10650
aI10700
aI10750
aI10800
aI10850
aI10900
aI10950
aI11000
aI11050
aI11100
aI11150
aI11200
aI11250
aI11300
aI11350
aI11400
aI11450
aI11500
aI11550
aI11600
aI11650
aI11700
aI11750
aI11800
aI11850
aI11900
aI11950
aI12000
aI12050
aI12100
aI12150
aI12200
aI12250
aI12300
aI12350
aI12400
aI12450
aI12500
aI12550
aI12600
aI12650
aI12700
aI12750
aI12800
aI12850
aI12900
aI12950
aI13000
aI13050
aI13100
aI13150
aI13200
aI13250
aI13300
aI13350
aI13400
aI13450
aI13500
aI13550
aI13600
aI13650
aI13700
aI13750
aI13800
aI13850
aI13900
aI13950
aI14000
aI14050
aI14100
aI14150
aI14200
aI14250
aI14300
aI14350
aI14400
aI14450
aI14500
aI14550
aI14600
aI14650
aI14700
aI14750
aI14800
aI14850
aI14900
aI14950
aI15000
aI15050
aI15100
aI15150
aI15200
aI15250
aI15300
aI15350
aI15400
aI15450
aI15500
aI15550
aI15600
aI15650
aI15700
aI15750
aI15800
aI15850
aI15900
aI15950
aI16000
aI16050
aI16100
aI16150
aI16200
aI16250
aI16300
aI16350
aI16400
aI16450
aI16500
aI16550
aI16600
aI16650
aI16700
aI16750
aI16800
aI16850
aI16900
aI16950
aI17000
aI17050
aI17100
aI17150
aI17200
aI17250
aI17300
aI17350
aI17400
aI17450
aI17500
aI17550
aI17600
aI17650
aI17700
aI17750
aI17800
aI17850
aI17900
aI17950
aI18000
aI18050
aI18100
aI18150
aI18200
aI18250
aI18300
aI18350
aI18400
aI18450
aI18500
aI18550
aI18600
aI18650
aI18700
aI18750
aI18800
aI18850
aI18900
aI18950
aI19000
aI19050
aI19100
aI19150
aI19200
aI19250
aI19300
aI19350
aI19400
aI19450
aI19500
aI19550
aI19600
aI19650
aI19700
aI19750
aI19800
aI19850
aI19900
aI19950
aI20000
aI20050
aI20100
aI20150
aI20200
aI20250
aI20300
aI20350
aI20400
aI20450
aI20500
aI20550
aI20600
aI20650
aI20700
aI20750
aI20800
aI20850
aI20900
aI20950
aI21000
aI21050
aI21100
aI21150
aI21200
aI21250
aI21300
aI21350
aI21400
aI21450
aI21500
aI21550
aI21600
aI21650
aI21700
aI21750
aI21800
aI21850
aI21900
aI21950
aI22000
aI22050
aI22100
aI22150
aI22200
aI22250
aI22300
aI22350
aI22400
aI22450
aI22500
aI22550
aI22600
aI22650
aI22700
aI22750
aI22800
aI22850
aI22900
aI22950
aI23000
aI23050
aI23100
aI23150
aI23200
aI23250
aI23300
aI23350
aI23400
aI23450
aI23500
aI23550
aI23600
aI23650
aI23700
aI23750
aI23800
aI23850
aI23900
aI23950
aI24000
aI24050
aI24100
aI24150
aI24200
aI24250
aI24300
aI24350
aI24400
aI24450
aI24500
aI24550
aI24600
aI24650
aI24700
aI24750
aI24800
aI24850
aI24900
aI24950
aI25000
asS'best_f'
p3
(lp4
cnumpy.core.multiarray
scalar
p5
(cnumpy
dtype
p6
(S'f8'
p7
I0
I1
tp8
Rp9
(I3
S'<'
p10
NNNI-1
I-1
I0
tp11
bS'#5\xf9/\xd1\xa7\xe6?'
p12
tp13
Rp14
ag5
(g9
S'\x88B\xdd*\x85G\xe5?'
p15
tp16
Rp17
ag5
(g9
S'\xa1\x95tqq\xd3\xab?'
p18
tp19
Rp20
ag20
ag20
ag20
ag20
ag20
ag20
ag20
ag20
ag5
(g9
S'\x8e\xf8\xe5\xe9\\\x8b\xa7?'
p21
tp22
Rp23
ag23
ag23
ag23
ag23
ag5
(g9
S'\x01c\xc4\xca\xb3{\xa4?'
p24
tp25
Rp26
ag26
ag26
ag26
ag26
ag26
ag26
ag26
ag26
ag5
(g9
S"\x18A'\x12>\xc2\xa1?"
p27
tp28
Rp29
ag29
ag29
ag5
(g9
S'\xa8\x1e\xcc\xf4\xab+\xa1?'
p30
tp31
Rp32
ag32
ag32
ag32
ag32
ag32
ag32
ag5
(g9
S'd\xd7\xb5z\xae#\xa1?'
p33
tp34
Rp35
ag35
ag35
ag35
ag35
ag35
ag35
ag35
ag35
ag35
ag35
ag35
ag35
ag35
ag35
ag35
ag35
ag35
ag5
(g9
S'`\x91\xca\x8c\x1f\xad\xa0?'
p36
tp37
Rp38
ag38
ag38
ag38
ag38
ag38
ag38
ag38
ag38
ag38
ag38
ag38
ag38
ag38
ag38
ag38
ag38
ag38
ag38
ag38
ag5
(g9
S'kd\xcf\x10%\xa9\xa0?'
p39
tp40
Rp41
ag41
ag5
(g9
S'o\x0e$\xa8\t\xa7\xa0?'
p42
tp43
Rp44
ag44
ag44
ag44
ag5
(g9
S'T\x8e\t\xf1\xb8_\xa0?'
p45
tp46
Rp47
ag47
ag47
ag47
ag47
ag47
ag47
ag47
ag47
ag47
ag47
ag47
ag47
ag47
ag47
ag47
ag47
ag47
ag47
ag47
ag47
ag5
(g9
S'\xee\xca\x1a\xcb:\x17\xa0?'
p48
tp49
Rp50
ag50
ag50
ag50
ag50
ag50
ag50
ag50
ag50
ag50
ag50
ag50
ag50
ag50
ag50
ag50
ag50
ag50
ag50
ag50
ag50
ag50
ag50
ag50
ag50
ag50
ag50
ag50
ag50
ag50
ag50
ag50
ag50
ag50
ag50
ag50
ag50
ag50
ag50
ag50
ag50
ag5
(g9
S'\xa8\xd4Ou\xd9\x15\xa0?'
p51
tp52
Rp53
ag53
ag53
ag53
ag53
ag53
ag53
ag53
ag53
ag53
ag53
ag53
ag53
ag53
ag53
ag53
ag53
ag53
ag53
ag53
ag53
ag53
ag53
ag53
ag53
ag53
ag53
ag53
ag53
ag53
ag53
ag53
ag53
ag53
ag53
ag53
ag53
ag53
ag5
(g9
S'\xd7\xaa\xe2\xd9\xf7\r\xa0?'
p54
tp55
Rp56
ag56
ag56
ag56
ag56
ag56
ag56
ag56
ag56
ag56
ag56
ag56
ag56
ag56
ag56
ag56
ag56
ag56
ag56
ag56
ag56
ag56
ag56
ag56
ag56
ag56
ag56
ag56
ag56
ag56
ag56
ag56
ag56
ag56
ag56
ag56
ag56
ag56
ag56
ag56
ag56
ag56
ag56
ag56
ag56
ag56
ag56
ag56
ag56
ag56
ag56
ag56
ag56
ag56
ag56
ag56
ag56
ag56
ag56
ag56
ag56
ag56
ag56
ag56
ag56
ag56
ag56
ag56
ag56
ag56
ag56
ag56
ag56
ag56
ag56
ag56
ag56
ag56
ag56
ag56
ag56
ag56
ag56
ag56
ag56
ag56
ag56
ag56
ag56
ag56
ag56
ag56
ag56
ag56
ag56
ag56
ag56
ag56
ag56
ag56
ag56
ag56
ag56
ag56
ag56
ag56
ag56
ag56
ag56
ag56
ag56
ag56
ag56
ag56
ag56
ag56
ag56
ag56
ag56
ag56
ag56
ag56
ag56
ag56
ag56
ag56
ag56
ag56
ag56
ag56
ag56
ag56
ag56
ag56
ag56
ag56
ag56
ag56
ag56
ag56
ag56
ag56
ag56
ag56
ag56
ag56
ag56
ag56
ag56
ag56
ag56
ag56
ag56
ag56
ag56
ag56
ag56
ag56
ag56
ag56
ag56
ag56
ag56
ag56
ag56
ag56
ag56
ag56
ag56
ag56
ag56
ag56
ag56
ag56
ag56
ag56
ag56
ag56
ag56
ag56
ag56
ag56
ag56
ag56
ag56
ag56
ag56
ag56
ag56
ag56
ag56
ag56
ag56
ag56
ag56
ag56
ag56
ag56
ag56
ag56
ag56
ag56
ag56
ag56
ag56
ag56
ag56
ag56
ag56
ag56
ag56
ag56
ag5
(g9
S'\x05c\xc8c\xb0\x08\xa0?'
p57
tp58
Rp59
ag59
ag59
ag59
ag59
ag59
ag59
ag59
ag59
ag59
ag59
ag59
ag59
ag59
ag59
ag59
ag59
ag59
ag59
ag59
ag59
ag59
ag59
ag59
ag59
ag59
ag59
ag59
ag59
ag59
ag59
ag59
ag59
ag59
ag59
ag59
ag59
ag59
ag59
ag59
ag59
ag59
ag59
ag59
ag59
ag59
ag59
ag59
ag59
ag59
ag59
ag59
ag59
ag59
ag59
ag59
ag59
ag59
ag59
ag59
ag59
ag59
ag59
ag59
ag59
ag59
ag59
ag59
ag59
ag59
ag59
ag59
ag59
ag59
ag59
ag59
ag59
ag59
ag59
ag59
ag59
ag59
ag59
ag59
ag59
ag59
ag59
ag59
ag59
ag59
ag59
ag59
ag59
ag59
ag59
ag59
ag59
ag59
ag59
ag59
ag59
ag59
ag59
ag59
ag59
ag59
ag59
ag59
ag59
asS'best_P'
p60
(lp61
(itree
PTree
p62
(dp63
S'root'
p64
ccopy_reg
_reconstructor
p65
(ctree
Feature
p66
c__builtin__
object
p67
Ntp68
Rp69
(dp70
S'index'
p71
I0
sS'name'
p72
S'Storage'
p73
sS'l'
p74
g65
(ctree
Action
p75
g67
Ntp76
Rp77
(dp78
S'r'
p79
NsS'is_feature'
p80
I00
sS'value'
p81
S'Hedge_80'
p82
sg74
Nsbsg79
g65
(g66
g67
Ntp83
Rp84
(dp85
g71
I1
sg72
S'Day'
p86
sg74
g65
(g75
g67
Ntp87
Rp88
(dp89
g79
Nsg80
I00
sg81
S'Flood_Control'
p90
sg74
Nsbsg79
g65
(g75
g67
Ntp91
Rp92
(dp93
g79
Nsg80
I00
sg81
S'Hedge_80'
p94
sg74
NsbsS'threshold'
p95
F307.56629326559977
sg80
I01
sbsg95
F435.31561948626205
sg80
I01
sbsS'L'
p96
(lp97
g69
ag77
ag84
ag88
ag92
asS'N'
p98
I5
sba(itree
PTree
p99
(dp100
g64
g65
(g66
g67
Ntp101
Rp102
(dp103
g71
I0
sg79
g65
(g66
g67
Ntp104
Rp105
(dp106
g71
I1
sg79
g65
(g75
g67
Ntp107
Rp108
(dp109
g79
Nsg80
I00
sg81
g94
sg74
Nsbsg72
g86
sg95
F316.72066518111075
sg74
g65
(g75
g67
Ntp110
Rp111
(dp112
g79
Nsg80
I00
sg81
g90
sg74
Nsbsg80
I01
sbsg72
g73
sg95
F512.8582730099163
sg74
g65
(g75
g67
Ntp113
Rp114
(dp115
g79
Nsg80
I00
sg81
g82
sg74
Nsbsg80
I01
sbsg96
(lp116
g102
ag114
ag105
ag111
ag108
asg98
I5
sba(itree
PTree
p117
(dp118
g64
g65
(g66
g67
Ntp119
Rp120
(dp121
g71
I2
sg79
g65
(g75
g67
Ntp122
Rp123
(dp124
g79
Nsg80
I00
sg81
S'Flood_Control'
p125
sg74
Nsbsg72
S'Inflow'
p126
sg95
F62.834917172588234
sg74
g65
(g66
g67
Ntp127
Rp128
(dp129
g71
I1
sg79
g65
(g75
g67
Ntp130
Rp131
(dp132
g79
Nsg80
I00
sg81
S'Release_Demand'
p133
sg74
Nsbsg72
g86
sg95
F281.5618119584928
sg74
g65
(g66
g67
Ntp134
Rp135
(dp136
g71
I0
sg79
g65
(g75
g67
Ntp137
Rp138
(dp139
g79
Nsg80
I00
sg81
S'Release_Demand'
p140
sg74
Nsbsg72
g73
sg95
F616.8103266458781
sg74
g65
(g75
g67
Ntp141
Rp142
(dp143
g79
Nsg80
I00
sg81
S'Hedge_90'
p144
sg74
Nsbsg80
I01
sbsg80
I01
sbsg80
I01
sbsg96
(lp145
g120
ag128
ag135
ag142
ag138
ag131
ag123
asg98
I7
sbag117
ag117
ag117
ag117
ag117
ag117
ag117
ag117
a(itree
PTree
p146
(dp147
g64
g65
(g66
g67
Ntp148
Rp149
(dp150
g71
I2
sg79
g65
(g75
g67
Ntp151
Rp152
(dp153
g79
Nsg80
I00
sg81
g125
sg74
Nsbsg72
g126
sg95
F57.52951878592586
sg74
g65
(g66
g67
Ntp154
Rp155
(dp156
g71
I1
sg79
g65
(g75
g67
Ntp157
Rp158
(dp159
g79
Nsg80
I00
sg81
g133
sg74
Nsbsg72
g86
sg95
F325.70859744502536
sg74
g65
(g66
g67
Ntp160
Rp161
(dp162
g71
I0
sg79
g65
(g75
g67
Ntp163
Rp164
(dp165
g79
Nsg80
I00
sg81
g140
sg74
Nsbsg72
g73
sg95
F519.9449122386756
sg74
g65
(g75
g67
Ntp166
Rp167
(dp168
g79
Nsg80
I00
sg81
g144
sg74
Nsbsg80
I01
sbsg80
I01
sbsg80
I01
sbsg96
(lp169
g149
ag155
ag161
ag167
ag164
ag158
ag152
asg98
I7
sbag146
ag146
ag146
ag146
a(itree
PTree
p170
(dp171
g64
g65
(g66
g67
Ntp172
Rp173
(dp174
g71
I2
sg79
g65
(g75
g67
Ntp175
Rp176
(dp177
g79
Nsg80
I00
sg81
g125
sg74
Nsbsg72
g126
sg95
F57.52951878592586
sg74
g65
(g66
g67
Ntp178
Rp179
(dp180
g71
I1
sg79
g65
(g75
g67
Ntp181
Rp182
(dp183
g79
Nsg80
I00
sg81
g133
sg74
Nsbsg72
g86
sg95
F361.98165556644085
sg74
g65
(g66
g67
Ntp184
Rp185
(dp186
g71
I0
sg79
g65
(g75
g67
Ntp187
Rp188
(dp189
g79
Nsg80
I00
sg81
g140
sg74
Nsbsg72
g73
sg95
F520.0764898914377
sg74
g65
(g75
g67
Ntp190
Rp191
(dp192
g79
Nsg80
I00
sg81
g144
sg74
Nsbsg80
I01
sbsg80
I01
sbsg80
I01
sbsg96
(lp193
g173
ag179
ag185
ag191
ag188
ag182
ag176
asg98
I7
sbag170
ag170
ag170
ag170
ag170
ag170
ag170
ag170
a(itree
PTree
p194
(dp195
g64
g65
(g66
g67
Ntp196
Rp197
(dp198
g71
I2
sg79
g65
(g75
g67
Ntp199
Rp200
(dp201
g79
Nsg80
I00
sg81
g125
sg74
Nsbsg72
g126
sg95
F66.36787314396602
sg74
g65
(g66
g67
Ntp202
Rp203
(dp204
g71
I1
sg79
g65
(g75
g67
Ntp205
Rp206
(dp207
g79
Nsg80
I00
sg81
g133
sg74
Nsbsg72
g86
sg95
F361.98165556644085
sg74
g65
(g66
g67
Ntp208
Rp209
(dp210
g71
I0
sg79
g65
(g75
g67
Ntp211
Rp212
(dp213
g79
Nsg80
I00
sg81
g140
sg74
Nsbsg72
g73
sg95
F586.0079234279402
sg74
g65
(g75
g67
Ntp214
Rp215
(dp216
g79
Nsg80
I00
sg81
g144
sg74
Nsbsg80
I01
sbsg80
I01
sbsg80
I01
sbsg96
(lp217
g197
ag203
ag209
ag215
ag212
ag206
ag200
asg98
I7
sbag194
ag194
a(itree
PTree
p218
(dp219
g64
g65
(g66
g67
Ntp220
Rp221
(dp222
g71
I2
sg79
g65
(g75
g67
Ntp223
Rp224
(dp225
g79
Nsg80
I00
sg81
g125
sg74
Nsbsg72
g126
sg95
F52.908988419471285
sg74
g65
(g66
g67
Ntp226
Rp227
(dp228
g71
I1
sg79
g65
(g75
g67
Ntp229
Rp230
(dp231
g79
Nsg80
I00
sg81
g133
sg74
Nsbsg72
g86
sg95
F361.15711773152907
sg74
g65
(g66
g67
Ntp232
Rp233
(dp234
g71
I0
sg79
g65
(g75
g67
Ntp235
Rp236
(dp237
g79
Nsg80
I00
sg81
g140
sg74
Nsbsg72
g73
sg95
F605.4953219896386
sg74
g65
(g75
g67
Ntp238
Rp239
(dp240
g79
Nsg80
I00
sg81
g144
sg74
Nsbsg80
I01
sbsg80
I01
sbsg80
I01
sbsg96
(lp241
g221
ag227
ag233
ag239
ag236
ag230
ag224
asg98
I7
sbag218
ag218
ag218
ag218
ag218
ag218
a(itree
PTree
p242
(dp243
g64
g65
(g66
g67
Ntp244
Rp245
(dp246
g71
I2
sg79
g65
(g75
g67
Ntp247
Rp248
(dp249
g79
Nsg80
I00
sg81
g125
sg74
Nsbsg72
g126
sg95
F58.49154350603771
sg74
g65
(g66
g67
Ntp250
Rp251
(dp252
g71
I1
sg79
g65
(g75
g67
Ntp253
Rp254
(dp255
g79
Nsg80
I00
sg81
g133
sg74
Nsbsg72
g86
sg95
F361.15711773152907
sg74
g65
(g66
g67
Ntp256
Rp257
(dp258
g71
I0
sg79
g65
(g75
g67
Ntp259
Rp260
(dp261
g79
Nsg80
I00
sg81
g140
sg74
Nsbsg72
g73
sg95
F700.1062056667719
sg74
g65
(g75
g67
Ntp262
Rp263
(dp264
g79
Nsg80
I00
sg81
g144
sg74
Nsbsg80
I01
sbsg80
I01
sbsg80
I01
sbsg96
(lp265
g245
ag251
ag257
ag263
ag260
ag254
ag248
asg98
I7
sbag242
ag242
ag242
ag242
ag242
ag242
ag242
ag242
ag242
ag242
ag242
ag242
ag242
ag242
ag242
ag242
ag242
a(itree
PTree
p266
(dp267
g64
g65
(g66
g67
Ntp268
Rp269
(dp270
g71
I2
sg79
g65
(g75
g67
Ntp271
Rp272
(dp273
g79
Nsg80
I00
sg81
S'Flood_Control'
p274
sg74
Nsbsg72
g126
sg95
F54.2666942974921
sg74
g65
(g66
g67
Ntp275
Rp276
(dp277
g71
I0
sg79
g65
(g75
g67
Ntp278
Rp279
(dp280
g79
Nsg80
I00
sg81
S'Release_Demand'
p281
sg74
Nsbsg72
g73
sg95
F630.2821572056332
sg74
g65
(g75
g67
Ntp282
Rp283
(dp284
g79
Nsg80
I00
sg81
S'Hedge_90'
p285
sg74
Nsbsg80
I01
sbsg80
I01
sbsg96
(lp286
g269
ag276
ag283
ag279
ag272
asg98
I5
sbag266
ag266
ag266
ag266
ag266
ag266
ag266
ag266
ag266
ag266
ag266
ag266
ag266
ag266
ag266
ag266
ag266
ag266
ag266
a(itree
PTree
p287
(dp288
g64
g65
(g66
g67
Ntp289
Rp290
(dp291
g71
I2
sg79
g65
(g75
g67
Ntp292
Rp293
(dp294
g79
Nsg80
I00
sg81
g274
sg74
Nsbsg72
g126
sg95
F63.37465467146624
sg74
g65
(g66
g67
Ntp295
Rp296
(dp297
g71
I0
sg79
g65
(g75
g67
Ntp298
Rp299
(dp300
g79
Nsg80
I00
sg81
g281
sg74
Nsbsg72
g73
sg95
F630.2821572056332
sg74
g65
(g75
g67
Ntp301
Rp302
(dp303
g79
Nsg80
I00
sg81
g285
sg74
Nsbsg80
I01
sbsg80
I01
sbsg96
(lp304
g290
ag296
ag302
ag299
ag293
asg98
I5
sbag287
a(itree
PTree
p305
(dp306
g64
g65
(g66
g67
Ntp307
Rp308
(dp309
g71
I2
sg79
g65
(g75
g67
Ntp310
Rp311
(dp312
g79
Nsg80
I00
sg81
g274
sg74
Nsbsg72
g126
sg95
F72.85132415015336
sg74
g65
(g66
g67
Ntp313
Rp314
(dp315
g71
I0
sg79
g65
(g75
g67
Ntp316
Rp317
(dp318
g79
Nsg80
I00
sg81
g281
sg74
Nsbsg72
g73
sg95
F630.2821572056332
sg74
g65
(g75
g67
Ntp319
Rp320
(dp321
g79
Nsg80
I00
sg81
g285
sg74
Nsbsg80
I01
sbsg80
I01
sbsg96
(lp322
g308
ag314
ag320
ag317
ag311
asg98
I5
sbag305
ag305
ag305
a(itree
PTree
p323
(dp324
g64
g65
(g66
g67
Ntp325
Rp326
(dp327
g71
I2
sg79
g65
(g75
g67
Ntp328
Rp329
(dp330
g79
Nsg80
I00
sg81
g274
sg74
Nsbsg72
g126
sg95
F77.39019999402846
sg74
g65
(g66
g67
Ntp331
Rp332
(dp333
g71
I0
sg79
g65
(g75
g67
Ntp334
Rp335
(dp336
g79
Nsg80
I00
sg81
g140
sg74
Nsbsg72
g73
sg95
F665.1626794038438
sg74
g65
(g75
g67
Ntp337
Rp338
(dp339
g79
Nsg80
I00
sg81
S'Hedge_90'
p340
sg74
Nsbsg80
I01
sbsg80
I01
sbsg96
(lp341
g326
ag332
ag338
ag335
ag329
asg98
I5
sbag323
ag323
ag323
ag323
ag323
ag323
ag323
ag323
ag323
ag323
ag323
ag323
ag323
ag323
ag323
ag323
ag323
ag323
ag323
ag323
a(itree
PTree
p342
(dp343
g64
g65
(g66
g67
Ntp344
Rp345
(dp346
g71
I2
sg79
g65
(g75
g67
Ntp347
Rp348
(dp349
g79
Nsg80
I00
sg81
g274
sg74
Nsbsg72
g126
sg95
F65.16846143249424
sg74
g65
(g66
g67
Ntp350
Rp351
(dp352
g71
I1
sg79
g65
(g75
g67
Ntp353
Rp354
(dp355
g79
Nsg80
I00
sg81
S'Release_Demand'
p356
sg74
Nsbsg72
g86
sg95
F364.6710208103154
sg74
g65
(g66
g67
Ntp357
Rp358
(dp359
g71
I0
sg79
g65
(g75
g67
Ntp360
Rp361
(dp362
g79
Nsg80
I00
sg81
S'Release_Demand'
p363
sg74
Nsbsg72
g73
sg95
F677.5462024377159
sg74
g65
(g75
g67
Ntp364
Rp365
(dp366
g79
Nsg80
I00
sg81
S'Hedge_90'
p367
sg74
Nsbsg80
I01
sbsg80
I01
sbsg80
I01
sbsg96
(lp368
g345
ag351
ag358
ag365
ag361
ag354
ag348
asg98
I7
sbag342
ag342
ag342
ag342
ag342
ag342
ag342
ag342
ag342
ag342
ag342
ag342
ag342
ag342
ag342
ag342
ag342
ag342
ag342
ag342
ag342
ag342
ag342
ag342
ag342
ag342
ag342
ag342
ag342
ag342
ag342
ag342
ag342
ag342
ag342
ag342
ag342
ag342
ag342
ag342
a(itree
PTree
p369
(dp370
g64
g65
(g66
g67
Ntp371
Rp372
(dp373
g71
I2
sg79
g65
(g75
g67
Ntp374
Rp375
(dp376
g79
Nsg80
I00
sg81
g274
sg74
Nsbsg72
g126
sg95
F75.77643597815553
sg74
g65
(g66
g67
Ntp377
Rp378
(dp379
g71
I0
sg79
g65
(g75
g67
Ntp380
Rp381
(dp382
g79
Nsg80
I00
sg81
g140
sg74
Nsbsg72
g73
sg95
F679.2939563333262
sg74
g65
(g75
g67
Ntp383
Rp384
(dp385
g79
Nsg80
I00
sg81
g340
sg74
Nsbsg80
I01
sbsg80
I01
sbsg96
(lp386
g372
ag378
ag384
ag381
ag375
asg98
I5
sbag369
ag369
ag369
ag369
ag369
ag369
ag369
ag369
ag369
ag369
ag369
ag369
ag369
ag369
ag369
ag369
ag369
ag369
ag369
ag369
ag369
ag369
ag369
ag369
ag369
ag369
ag369
ag369
ag369
ag369
ag369
ag369
ag369
ag369
ag369
ag369
ag369
a(itree
PTree
p387
(dp388
g64
g65
(g66
g67
Ntp389
Rp390
(dp391
g71
I2
sg79
g65
(g75
g67
Ntp392
Rp393
(dp394
g79
Nsg80
I00
sg81
g274
sg74
Nsbsg72
g126
sg95
F77.34839788984037
sg74
g65
(g66
g67
Ntp395
Rp396
(dp397
g71
I0
sg79
g65
(g75
g67
Ntp398
Rp399
(dp400
g79
Nsg80
I00
sg81
S'Release_Demand'
p401
sg74
Nsbsg72
g73
sg95
F678.7408935898683
sg74
g65
(g75
g67
Ntp402
Rp403
(dp404
g79
Nsg80
I00
sg81
S'Hedge_90'
p405
sg74
Nsbsg80
I01
sbsg80
I01
sbsg96
(lp406
g390
ag396
ag403
ag399
ag393
asg98
I5
sbag387
ag387
ag387
ag387
ag387
ag387
ag387
ag387
ag387
ag387
ag387
ag387
ag387
ag387
ag387
ag387
ag387
ag387
ag387
ag387
ag387
ag387
ag387
ag387
ag387
ag387
ag387
ag387
ag387
ag387
ag387
ag387
ag387
ag387
ag387
ag387
ag387
ag387
ag387
ag387
ag387
ag387
ag387
ag387
ag387
ag387
ag387
ag387
ag387
ag387
ag387
ag387
ag387
ag387
ag387
ag387
ag387
ag387
ag387
ag387
ag387
ag387
ag387
ag387
ag387
ag387
ag387
ag387
ag387
ag387
ag387
ag387
ag387
ag387
ag387
ag387
ag387
ag387
ag387
ag387
ag387
ag387
ag387
ag387
ag387
ag387
ag387
ag387
ag387
ag387
ag387
ag387
ag387
ag387
ag387
ag387
ag387
ag387
ag387
ag387
ag387
ag387
ag387
ag387
ag387
ag387
ag387
ag387
ag387
ag387
ag387
ag387
ag387
ag387
ag387
ag387
ag387
ag387
ag387
ag387
ag387
ag387
ag387
ag387
ag387
ag387
ag387
ag387
ag387
ag387
ag387
ag387
ag387
ag387
ag387
ag387
ag387
ag387
ag387
ag387
ag387
ag387
ag387
ag387
ag387
ag387
ag387
ag387
ag387
ag387
ag387
ag387
ag387
ag387
ag387
ag387
ag387
ag387
ag387
ag387
ag387
ag387
ag387
ag387
ag387
ag387
ag387
ag387
ag387
ag387
ag387
ag387
ag387
ag387
ag387
ag387
ag387
ag387
ag387
ag387
ag387
ag387
ag387
ag387
ag387
ag387
ag387
ag387
ag387
ag387
ag387
ag387
ag387
ag387
ag387
ag387
ag387
ag387
ag387
ag387
ag387
ag387
ag387
ag387
ag387
ag387
ag387
ag387
ag387
ag387
ag387
a(itree
PTree
p407
(dp408
g64
g65
(g66
g67
Ntp409
Rp410
(dp411
g71
I2
sg79
g65
(g75
g67
Ntp412
Rp413
(dp414
g79
Nsg80
I00
sg81
g274
sg74
Nsbsg72
g126
sg95
F75.45865586545105
sg74
g65
(g66
g67
Ntp415
Rp416
(dp417
g71
I0
sg79
g65
(g75
g67
Ntp418
Rp419
(dp420
g79
Nsg80
I00
sg81
g140
sg74
Nsbsg72
g73
sg95
F679.7353902453095
sg74
g65
(g75
g67
Ntp421
Rp422
(dp423
g79
Nsg80
I00
sg81
g340
sg74
Nsbsg80
I01
sbsg80
I01
sbsg96
(lp424
g410
ag416
ag422
ag419
ag413
asg98
I5
sbag407
ag407
ag407
ag407
ag407
ag407
ag407
ag407
ag407
ag407
ag407
ag407
ag407
ag407
ag407
ag407
ag407
ag407
ag407
ag407
ag407
ag407
ag407
ag407
ag407
ag407
ag407
ag407
ag407
ag407
ag407
ag407
ag407
ag407
ag407
ag407
ag407
ag407
ag407
ag407
ag407
ag407
ag407
ag407
ag407
ag407
ag407
ag407
ag407
ag407
ag407
ag407
ag407
ag407
ag407
ag407
ag407
ag407
ag407
ag407
ag407
ag407
ag407
ag407
ag407
ag407
ag407
ag407
ag407
ag407
ag407
ag407
ag407
ag407
ag407
ag407
ag407
ag407
ag407
ag407
ag407
ag407
ag407
ag407
ag407
ag407
ag407
ag407
ag407
ag407
ag407
ag407
ag407
ag407
ag407
ag407
ag407
ag407
ag407
ag407
ag407
ag407
ag407
ag407
ag407
ag407
ag407
ag407
asS'time'
p425
(lp426
I53
aI81
aI107
aI134
aI159
aI184
aI209
aI235
aI261
aI287
aI314
aI339
aI365
aI391
aI418
aI445
aI471
aI497
aI523
aI548
aI573
aI600
aI626
aI651
aI677
aI704
aI730
aI755
aI782
aI808
aI834
aI859
aI886
aI912
aI938
aI964
aI990
aI1016
aI1043
aI1070
aI1097
aI1123
aI1150
aI1176
aI1203
aI1230
aI1256
aI1283
aI1310
aI1336
aI1361
aI1388
aI1414
aI1441
aI1468
aI1495
aI1522
aI1548
aI1574
aI1600
aI1626
aI1652
aI1678
aI1704
aI1730
aI1757
aI1783
aI1809
aI1833
aI1856
aI1878
aI1901
aI1923
aI1946
aI1971
aI1998
aI2023
aI2049
aI2075
aI2100
aI2126
aI2151
aI2178
aI2204
aI2230
aI2256
aI2280
aI2306
aI2332
aI2358
aI2384
aI2409
aI2435
aI2462
aI2488
aI2514
aI2540
aI2567
aI2592
aI2618
aI2644
aI2670
aI2696
aI2722
aI2748
aI2773
aI2799
aI2826
aI2852
aI2878
aI2903
aI2928
aI2955
aI2980
aI3007
aI3032
aI3057
aI3083
aI3110
aI3137
aI3161
aI3187
aI3213
aI3238
aI3264
aI3289
aI3315
aI3341
aI3367
aI3393
aI3417
aI3443
aI3469
aI3495
aI3520
aI3546
aI3572
aI3597
aI3622
aI3648
aI3673
aI3700
aI3725
aI3751
aI3777
aI3803
aI3828
aI3854
aI3879
aI3905
aI3931
aI3956
aI3981
aI4008
aI4034
aI4061
aI4087
aI4113
aI4138
aI4164
aI4189
aI4214
aI4240
aI4265
aI4292
aI4318
aI4344
aI4368
aI4393
aI4419
aI4445
aI4471
aI4496
aI4522
aI4547
aI4573
aI4598
aI4624
aI4650
aI4676
aI4702
aI4727
aI4753
aI4779
aI4805
aI4830
aI4857
aI4883
aI4909
aI4935
aI4961
aI4986
aI5013
aI5039
aI5065
aI5090
aI5116
aI5142
aI5167
aI5193
aI5219
aI5246
aI5271
aI5297
aI5323
aI5348
aI5373
aI5398
aI5423
aI5448
aI5474
aI5500
aI5526
aI5552
aI5578
aI5604
aI5630
aI5655
aI5681
aI5706
aI5732
aI5758
aI5783
aI5808
aI5834
aI5860
aI5885
aI5911
aI5937
aI5963
aI5989
aI6015
aI6040
aI6067
aI6093
aI6119
aI6146
aI6171
aI6198
aI6225
aI6250
aI6276
aI6302
aI6328
aI6355
aI6381
aI6406
aI6433
aI6459
aI6485
aI6511
aI6537
aI6564
aI6590
aI6617
aI6644
aI6671
aI6696
aI6721
aI6746
aI6772
aI6798
aI6824
aI6851
aI6876
aI6902
aI6928
aI6954
aI6980
aI7005
aI7032
aI7058
aI7084
aI7111
aI7137
aI7163
aI7189
aI7216
aI7243
aI7269
aI7296
aI7322
aI7348
aI7373
aI7399
aI7424
aI7450
aI7475
aI7500
aI7525
aI7550
aI7575
aI7600
aI7626
aI7652
aI7677
aI7703
aI7729
aI7756
aI7782
aI7809
aI7836
aI7862
aI7888
aI7914
aI7939
aI7964
aI7991
aI8016
aI8042
aI8067
aI8092
aI8117
aI8143
aI8169
aI8196
aI8221
aI8246
aI8272
aI8298
aI8323
aI8347
aI8373
aI8399
aI8425
aI8450
aI8475
aI8500
aI8526
aI8551
aI8577
aI8602
aI8629
aI8655
aI8680
aI8705
aI8731
aI8757
aI8783
aI8809
aI8835
aI8860
aI8885
aI8912
aI8938
aI8964
aI8990
aI9016
aI9042
aI9067
aI9094
aI9120
aI9147
aI9173
aI9199
aI9225
aI9252
aI9278
aI9305
aI9329
aI9355
aI9380
aI9405
aI9431
aI9457
aI9482
aI9508
aI9533
aI9558
aI9584
aI9610
aI9637
aI9664
aI9691
aI9717
aI9743
aI9769
aI9794
aI9819
aI9844
aI9870
aI9895
aI9921
aI9946
aI9971
aI9996
aI10022
aI10048
aI10072
aI10098
aI10124
aI10149
aI10175
aI10200
aI10226
aI10251
aI10276
aI10302
aI10328
aI10353
aI10379
aI10405
aI10430
aI10456
aI10482
aI10506
aI10532
aI10558
aI10583
aI10608
aI10634
aI10659
aI10685
aI10710
aI10735
aI10761
aI10787
aI10812
aI10838
aI10862
aI10887
aI10913
aI10938
aI10963
aI10988
aI11013
aI11036
aI11061
aI11087
aI11112
aI11138
aI11164
aI11189
aI11215
aI11240
aI11265
aI11290
aI11314
aI11340
aI11365
aI11391
aI11416
aI11442
aI11466
aI11492
aI11518
aI11542
aI11568
aI11593
aI11617
aI11642
aI11668
aI11693
aI11719
aI11745
aI11772
aI11798
aI11824
aI11849
aI11874
aI11900
aI11926
aI11951
aI11976
aI12002
aI12027
aI12051
aI12076
aI12102
aI12127
aI12153
aI12180
aI12207
aI12232
aI12258
aI12283
aI12309
aI12334
aI12358
aI12383
aI12408
aI12434
aI12460
aI12484
aI12510
aI12536
aI12561
aI12586
aI12611
aI12636
aI12662
aI12687
aI12712
aI12738
aI12763
aI12788
aI12814
aI12839
aI12864
aI12889
as.