(dp0
S'nfe'
p1
(lp2
I50
aI100
aI150
aI200
aI250
aI300
aI350
aI400
aI450
aI500
aI550
aI600
aI650
aI700
aI750
aI800
aI850
aI900
aI950
aI1000
aI1050
aI1100
aI1150
aI1200
aI1250
aI1300
aI1350
aI1400
aI1450
aI1500
aI1550
aI1600
aI1650
aI1700
aI1750
aI1800
aI1850
aI1900
aI1950
aI2000
aI2050
aI2100
aI2150
aI2200
aI2250
aI2300
aI2350
aI2400
aI2450
aI2500
aI2550
aI2600
aI2650
aI2700
aI2750
aI2800
aI2850
aI2900
aI2950
aI3000
aI3050
aI3100
aI3150
aI3200
aI3250
aI3300
aI3350
aI3400
aI3450
aI3500
aI3550
aI3600
aI3650
aI3700
aI3750
aI3800
aI3850
aI3900
aI3950
aI4000
aI4050
aI4100
aI4150
aI4200
aI4250
aI4300
aI4350
aI4400
aI4450
aI4500
aI4550
aI4600
aI4650
aI4700
aI4750
aI4800
aI4850
aI4900
aI4950
aI5000
aI5050
aI5100
aI5150
aI5200
aI5250
aI5300
aI5350
aI5400
aI5450
aI5500
aI5550
aI5600
aI5650
aI5700
aI5750
aI5800
aI5850
aI5900
aI5950
aI6000
aI6050
aI6100
aI6150
aI6200
aI6250
aI6300
aI6350
aI6400
aI6450
aI6500
aI6550
aI6600
aI6650
aI6700
aI6750
aI6800
aI6850
aI6900
aI6950
aI7000
aI7050
aI7100
aI7150
aI7200
aI7250
aI7300
aI7350
aI7400
aI7450
aI7500
aI7550
aI7600
aI7650
aI7700
aI7750
aI7800
aI7850
aI7900
aI7950
aI8000
aI8050
aI8100
aI8150
aI8200
aI8250
aI8300
aI8350
aI8400
aI8450
aI8500
aI8550
aI8600
aI8650
aI8700
aI8750
aI8800
aI8850
aI8900
aI8950
aI9000
aI9050
aI9100
aI9150
aI9200
aI9250
aI9300
aI9350
aI9400
aI9450
aI9500
aI9550
aI9600
aI9650
aI9700
aI9750
aI9800
aI9850
aI9900
aI9950
aI10000
aI10050
aI10100
aI10150
aI10200
aI10250
aI10300
aI10350
aI10400
aI10450
aI10500
aI10550
aI10600
aI10650
aI10700
aI10750
aI10800
aI10850
aI10900
aI10950
aI11000
aI11050
aI11100
aI11150
aI11200
aI11250
aI11300
aI11350
aI11400
aI11450
aI11500
aI11550
aI11600
aI11650
aI11700
aI11750
aI11800
aI11850
aI11900
aI11950
aI12000
aI12050
aI12100
aI12150
aI12200
aI12250
aI12300
aI12350
aI12400
aI12450
aI12500
aI12550
aI12600
aI12650
aI12700
aI12750
aI12800
aI12850
aI12900
aI12950
aI13000
aI13050
aI13100
aI13150
aI13200
aI13250
aI13300
aI13350
aI13400
aI13450
aI13500
aI13550
aI13600
aI13650
aI13700
aI13750
aI13800
aI13850
aI13900
aI13950
aI14000
aI14050
aI14100
aI14150
aI14200
aI14250
aI14300
aI14350
aI14400
aI14450
aI14500
aI14550
aI14600
aI14650
aI14700
aI14750
aI14800
aI14850
aI14900
aI14950
aI15000
aI15050
aI15100
aI15150
aI15200
aI15250
aI15300
aI15350
aI15400
aI15450
aI15500
aI15550
aI15600
aI15650
aI15700
aI15750
aI15800
aI15850
aI15900
aI15950
aI16000
aI16050
aI16100
aI16150
aI16200
aI16250
aI16300
aI16350
aI16400
aI16450
aI16500
aI16550
aI16600
aI16650
aI16700
aI16750
aI16800
aI16850
aI16900
aI16950
aI17000
aI17050
aI17100
aI17150
aI17200
aI17250
aI17300
aI17350
aI17400
aI17450
aI17500
aI17550
aI17600
aI17650
aI17700
aI17750
aI17800
aI17850
aI17900
aI17950
aI18000
aI18050
aI18100
aI18150
aI18200
aI18250
aI18300
aI18350
aI18400
aI18450
aI18500
aI18550
aI18600
aI18650
aI18700
aI18750
aI18800
aI18850
aI18900
aI18950
aI19000
aI19050
aI19100
aI19150
aI19200
aI19250
aI19300
aI19350
aI19400
aI19450
aI19500
aI19550
aI19600
aI19650
aI19700
aI19750
aI19800
aI19850
aI19900
aI19950
aI20000
aI20050
aI20100
aI20150
aI20200
aI20250
aI20300
aI20350
aI20400
aI20450
aI20500
aI20550
aI20600
aI20650
aI20700
aI20750
aI20800
aI20850
aI20900
aI20950
aI21000
aI21050
aI21100
aI21150
aI21200
aI21250
aI21300
aI21350
aI21400
aI21450
aI21500
aI21550
aI21600
aI21650
aI21700
aI21750
aI21800
aI21850
aI21900
aI21950
aI22000
aI22050
aI22100
aI22150
aI22200
aI22250
aI22300
aI22350
aI22400
aI22450
aI22500
aI22550
aI22600
aI22650
aI22700
aI22750
aI22800
aI22850
aI22900
aI22950
aI23000
aI23050
aI23100
aI23150
aI23200
aI23250
aI23300
aI23350
aI23400
aI23450
aI23500
aI23550
aI23600
aI23650
aI23700
aI23750
aI23800
aI23850
aI23900
aI23950
aI24000
aI24050
aI24100
aI24150
aI24200
aI24250
aI24300
aI24350
aI24400
aI24450
aI24500
aI24550
aI24600
aI24650
aI24700
aI24750
aI24800
aI24850
aI24900
aI24950
aI25000
asS'best_f'
p3
(lp4
cnumpy.core.multiarray
scalar
p5
(cnumpy
dtype
p6
(S'f8'
p7
I0
I1
tp8
Rp9
(I3
S'<'
p10
NNNI-1
I-1
I0
tp11
bS'\xca\xcc.D\xdf\xb9\xde?'
p12
tp13
Rp14
ag5
(g9
S'\xd7\x0f*h\xbf3\xc4?'
p15
tp16
Rp17
ag5
(g9
S'*\xc9\x92\xd94\xd2\xc1?'
p18
tp19
Rp20
ag20
ag20
ag20
ag20
ag20
ag20
ag20
ag5
(g9
S'Mm\xea\xe7J?\xbe?'
p21
tp22
Rp23
ag23
ag23
ag23
ag23
ag23
ag5
(g9
S'U\x1d)8\xec.\xbe?'
p24
tp25
Rp26
ag26
ag26
ag26
ag26
ag26
ag26
ag26
ag26
ag26
ag26
ag26
ag26
ag26
ag26
ag26
ag26
ag26
ag26
ag26
ag26
ag26
ag26
ag26
ag26
ag26
ag26
ag26
ag26
ag26
ag26
ag26
ag26
ag26
ag26
ag26
ag26
ag26
ag26
ag26
ag26
ag26
ag26
ag26
ag26
ag26
ag26
ag26
ag26
ag26
ag26
ag26
ag26
ag26
ag26
ag26
ag26
ag26
ag26
ag26
ag26
ag26
ag26
ag26
ag26
ag26
ag26
ag26
ag26
ag26
ag26
ag26
ag26
ag26
ag26
ag26
ag26
ag26
ag26
ag26
ag26
ag26
ag26
ag26
ag26
ag26
ag26
ag26
ag26
ag26
ag26
ag26
ag26
ag26
ag26
ag26
ag26
ag26
ag26
ag26
ag26
ag26
ag26
ag26
ag26
ag26
ag26
ag26
ag26
ag26
ag26
ag26
ag26
ag26
ag26
ag26
ag26
ag26
ag26
ag26
ag26
ag26
ag26
ag26
ag26
ag26
ag26
ag26
ag26
ag26
ag26
ag26
ag26
ag26
ag26
ag26
ag26
ag26
ag26
ag26
ag26
ag26
ag26
ag26
ag26
ag26
ag26
ag26
ag26
ag26
ag26
ag26
ag26
ag26
ag26
ag26
ag26
ag26
ag26
ag26
ag26
ag26
ag26
ag26
ag26
ag26
ag26
ag26
ag26
ag26
ag26
ag26
ag26
ag26
ag26
ag26
ag26
ag26
ag26
ag26
ag26
ag26
ag26
ag26
ag26
ag26
ag26
ag26
ag26
ag26
ag26
ag26
ag26
ag26
ag26
ag26
ag26
ag26
ag26
ag26
ag26
ag26
ag26
ag26
ag26
ag26
ag26
ag26
ag26
ag26
ag26
ag26
ag26
ag26
ag26
ag26
ag26
ag26
ag26
ag26
ag26
ag26
ag26
ag26
ag26
ag26
ag26
ag26
ag26
ag26
ag26
ag26
ag26
ag26
ag26
ag26
ag26
ag26
ag26
ag26
ag26
ag26
ag26
ag26
ag26
ag26
ag26
ag26
ag26
ag26
ag26
ag26
ag26
ag26
ag26
ag26
ag26
ag26
ag26
ag26
ag26
ag26
ag26
ag26
ag26
ag26
ag26
ag26
ag26
ag26
ag26
ag26
ag26
ag26
ag26
ag26
ag26
ag26
ag26
ag26
ag26
ag26
ag26
ag26
ag26
ag26
ag26
ag26
ag26
ag26
ag26
ag26
ag26
ag26
ag26
ag26
ag26
ag26
ag26
ag26
ag26
ag26
ag26
ag26
ag26
ag26
ag26
ag26
ag26
ag26
ag26
ag26
ag26
ag26
ag26
ag26
ag26
ag26
ag26
ag26
ag26
ag26
ag26
ag26
ag26
ag26
ag26
ag26
ag26
ag26
ag26
ag26
ag26
ag26
ag26
ag26
ag26
ag26
ag26
ag26
ag26
ag26
ag26
ag26
ag26
ag26
ag26
ag26
ag26
ag26
ag26
ag26
ag26
ag26
ag26
ag26
ag26
ag26
ag26
ag26
ag26
ag26
ag26
ag26
ag26
ag26
ag26
ag26
ag26
ag26
ag26
ag26
ag26
ag26
ag26
ag26
ag26
ag26
ag26
ag26
ag26
ag26
ag26
ag26
ag26
ag26
ag26
ag26
ag26
ag26
ag26
ag26
ag26
ag26
ag26
ag26
ag26
ag26
ag26
ag26
ag26
ag26
ag26
ag26
ag26
ag26
ag26
ag26
ag26
ag26
ag26
ag26
ag26
ag26
ag26
ag26
ag26
ag26
ag26
ag26
ag26
ag26
ag26
ag26
ag26
ag26
ag26
ag26
ag26
ag26
ag26
ag26
ag26
ag26
ag26
ag26
ag26
ag26
ag26
ag26
ag26
ag26
ag26
ag26
ag5
(g9
S'\x9c\x8d\xc7X\x7f=\xad?'
p27
tp28
Rp29
ag5
(g9
S'\x99\xdez\xde\x94\x8b\xac?'
p30
tp31
Rp32
ag32
ag32
ag32
ag32
ag32
ag32
ag32
ag32
ag32
ag32
ag32
ag32
ag32
ag32
ag5
(g9
S'\xda\x14\x9d}#$\xab?'
p33
tp34
Rp35
ag5
(g9
S'\x9e\xe2\x81Y\xa9\xda\xa6?'
p36
tp37
Rp38
ag38
ag38
ag5
(g9
S'E\xbd>\x17\xb9\xd1\xa1?'
p39
tp40
Rp41
ag41
ag41
ag41
ag5
(g9
S'N\xea\xa7,rs\xa1?'
p42
tp43
Rp44
ag44
ag44
ag44
ag44
ag44
ag44
ag44
ag44
ag44
ag44
ag44
ag5
(g9
S'Lt\xa5\xe8mj\xa1?'
p45
tp46
Rp47
ag47
ag47
ag47
asS'best_P'
p48
(lp49
(itree
PTree
p50
(dp51
S'root'
p52
ccopy_reg
_reconstructor
p53
(ctree
Feature
p54
c__builtin__
object
p55
Ntp56
Rp57
(dp58
S'index'
p59
I2
sS'name'
p60
S'Inflow'
p61
sS'l'
p62
g53
(ctree
Action
p63
g55
Ntp64
Rp65
(dp66
S'r'
p67
NsS'is_feature'
p68
I00
sS'value'
p69
S'Hedge_80'
p70
sg62
Nsbsg67
g53
(g63
g55
Ntp71
Rp72
(dp73
g67
Nsg68
I00
sg69
S'Flood_Control'
p74
sg62
NsbsS'threshold'
p75
F35.04736961569337
sg68
I01
sbsS'L'
p76
(lp77
g57
ag65
ag72
asS'N'
p78
I3
sba(itree
PTree
p79
(dp80
g52
g53
(g54
g55
Ntp81
Rp82
(dp83
g59
I0
sg67
g53
(g54
g55
Ntp84
Rp85
(dp86
g59
I1
sg67
g53
(g63
g55
Ntp87
Rp88
(dp89
g67
Nsg68
I00
sg69
S'Hedge_90'
p90
sg62
Nsbsg60
S'Day'
p91
sg75
F94.67129624131961
sg62
g53
(g63
g55
Ntp92
Rp93
(dp94
g67
Nsg68
I00
sg69
S'Flood_Control'
p95
sg62
Nsbsg68
I01
sbsg60
S'Storage'
p96
sg75
F611.8560430171674
sg62
g53
(g63
g55
Ntp97
Rp98
(dp99
g67
Nsg68
I00
sg69
S'Hedge_90'
p100
sg62
Nsbsg68
I01
sbsg76
(lp101
g82
ag98
ag85
ag93
ag88
asg78
I5
sba(itree
PTree
p102
(dp103
g52
g53
(g54
g55
Ntp104
Rp105
(dp106
g59
I2
sg67
g53
(g63
g55
Ntp107
Rp108
(dp109
g67
Nsg68
I00
sg69
S'Flood_Control'
p110
sg62
Nsbsg60
g61
sg75
F49.57608244421042
sg62
g53
(g63
g55
Ntp111
Rp112
(dp113
g67
Nsg68
I00
sg69
S'Release_Demand'
p114
sg62
Nsbsg68
I01
sbsg76
(lp115
g105
ag112
ag108
asg78
I3
sbag102
ag102
ag102
ag102
ag102
ag102
ag102
a(itree
PTree
p116
(dp117
g52
g53
(g54
g55
Ntp118
Rp119
(dp120
g59
I2
sg67
g53
(g63
g55
Ntp121
Rp122
(dp123
g67
Nsg68
I00
sg69
S'Flood_Control'
p124
sg62
Nsbsg60
g61
sg75
F74.5462351858137
sg62
g53
(g63
g55
Ntp125
Rp126
(dp127
g67
Nsg68
I00
sg69
S'Hedge_90'
p128
sg62
Nsbsg68
I01
sbsg76
(lp129
g119
ag126
ag122
asg78
I3
sbag116
ag116
ag116
ag116
ag116
a(itree
PTree
p130
(dp131
g52
g53
(g54
g55
Ntp132
Rp133
(dp134
g59
I2
sg67
g53
(g63
g55
Ntp135
Rp136
(dp137
g67
Nsg68
I00
sg69
S'Flood_Control'
p138
sg62
Nsbsg60
g61
sg75
F78.5476540395723
sg62
g53
(g63
g55
Ntp139
Rp140
(dp141
g67
Nsg68
I00
sg69
S'Hedge_90'
p142
sg62
Nsbsg68
I01
sbsg76
(lp143
g133
ag140
ag136
asg78
I3
sbag130
ag130
ag130
ag130
ag130
ag130
ag130
ag130
ag130
ag130
ag130
ag130
ag130
ag130
ag130
ag130
ag130
ag130
ag130
ag130
ag130
ag130
ag130
ag130
ag130
ag130
ag130
ag130
ag130
ag130
ag130
ag130
ag130
ag130
ag130
ag130
ag130
ag130
ag130
ag130
ag130
ag130
ag130
ag130
ag130
ag130
ag130
ag130
ag130
ag130
ag130
ag130
ag130
ag130
ag130
ag130
ag130
ag130
ag130
ag130
ag130
ag130
ag130
ag130
ag130
ag130
ag130
ag130
ag130
ag130
ag130
ag130
ag130
ag130
ag130
ag130
ag130
ag130
ag130
ag130
ag130
ag130
ag130
ag130
ag130
ag130
ag130
ag130
ag130
ag130
ag130
ag130
ag130
ag130
ag130
ag130
ag130
ag130
ag130
ag130
ag130
ag130
ag130
ag130
ag130
ag130
ag130
ag130
ag130
ag130
ag130
ag130
ag130
ag130
ag130
ag130
ag130
ag130
ag130
ag130
ag130
ag130
ag130
ag130
ag130
ag130
ag130
ag130
ag130
ag130
ag130
ag130
ag130
ag130
ag130
ag130
ag130
ag130
ag130
ag130
ag130
ag130
ag130
ag130
ag130
ag130
ag130
ag130
ag130
ag130
ag130
ag130
ag130
ag130
ag130
ag130
ag130
ag130
ag130
ag130
ag130
ag130
ag130
ag130
ag130
ag130
ag130
ag130
ag130
ag130
ag130
ag130
ag130
ag130
ag130
ag130
ag130
ag130
ag130
ag130
ag130
ag130
ag130
ag130
ag130
ag130
ag130
ag130
ag130
ag130
ag130
ag130
ag130
ag130
ag130
ag130
ag130
ag130
ag130
ag130
ag130
ag130
ag130
ag130
ag130
ag130
ag130
ag130
ag130
ag130
ag130
ag130
ag130
ag130
ag130
ag130
ag130
ag130
ag130
ag130
ag130
ag130
ag130
ag130
ag130
ag130
ag130
ag130
ag130
ag130
ag130
ag130
ag130
ag130
ag130
ag130
ag130
ag130
ag130
ag130
ag130
ag130
ag130
ag130
ag130
ag130
ag130
ag130
ag130
ag130
ag130
ag130
ag130
ag130
ag130
ag130
ag130
ag130
ag130
ag130
ag130
ag130
ag130
ag130
ag130
ag130
ag130
ag130
ag130
ag130
ag130
ag130
ag130
ag130
ag130
ag130
ag130
ag130
ag130
ag130
ag130
ag130
ag130
ag130
ag130
ag130
ag130
ag130
ag130
ag130
ag130
ag130
ag130
ag130
ag130
ag130
ag130
ag130
ag130
ag130
ag130
ag130
ag130
ag130
ag130
ag130
ag130
ag130
ag130
ag130
ag130
ag130
ag130
ag130
ag130
ag130
ag130
ag130
ag130
ag130
ag130
ag130
ag130
ag130
ag130
ag130
ag130
ag130
ag130
ag130
ag130
ag130
ag130
ag130
ag130
ag130
ag130
ag130
ag130
ag130
ag130
ag130
ag130
ag130
ag130
ag130
ag130
ag130
ag130
ag130
ag130
ag130
ag130
ag130
ag130
ag130
ag130
ag130
ag130
ag130
ag130
ag130
ag130
ag130
ag130
ag130
ag130
ag130
ag130
ag130
ag130
ag130
ag130
ag130
ag130
ag130
ag130
ag130
ag130
ag130
ag130
ag130
ag130
ag130
ag130
ag130
ag130
ag130
ag130
ag130
ag130
ag130
ag130
ag130
ag130
ag130
ag130
ag130
ag130
ag130
ag130
ag130
ag130
ag130
ag130
ag130
ag130
ag130
ag130
ag130
ag130
ag130
ag130
ag130
ag130
ag130
ag130
ag130
ag130
ag130
ag130
ag130
ag130
ag130
ag130
ag130
ag130
ag130
ag130
ag130
ag130
ag130
ag130
ag130
ag130
ag130
ag130
ag130
ag130
ag130
ag130
ag130
ag130
a(itree
PTree
p144
(dp145
g52
g53
(g54
g55
Ntp146
Rp147
(dp148
g59
I0
sg67
g53
(g54
g55
Ntp149
Rp150
(dp151
g59
I2
sg67
g53
(g63
g55
Ntp152
Rp153
(dp154
g67
Nsg68
I00
sg69
S'Hedge_60'
p155
sg62
Nsbsg60
g61
sg75
F155.2259721986242
sg62
g53
(g54
g55
Ntp156
Rp157
(dp158
g59
I2
sg67
g53
(g63
g55
Ntp159
Rp160
(dp161
g67
Nsg68
I00
sg69
S'Flood_Control'
p162
sg62
Nsbsg60
g61
sg75
F25.304790904593588
sg62
g53
(g63
g55
Ntp163
Rp164
(dp165
g67
Nsg68
I00
sg69
S'Release_Demand'
p166
sg62
Nsbsg68
I01
sbsg68
I01
sbsg60
g96
sg75
F413.23999570755564
sg62
g53
(g54
g55
Ntp167
Rp168
(dp169
g59
I2
sg67
g53
(g54
g55
Ntp170
Rp171
(dp172
g59
I2
sg67
g53
(g63
g55
Ntp173
Rp174
(dp175
g67
Nsg68
I00
sg69
S'Hedge_90'
p176
sg62
Nsbsg60
g61
sg75
F214.82437740786744
sg62
g53
(g63
g55
Ntp177
Rp178
(dp179
g67
Nsg68
I00
sg69
S'Hedge_80'
p180
sg62
Nsbsg68
I01
sbsg60
g61
sg75
F22.53186015809324
sg62
g53
(g63
g55
Ntp181
Rp182
(dp183
g67
Nsg68
I00
sg69
S'Hedge_90'
p184
sg62
Nsbsg68
I01
sbsg68
I01
sbsg76
(lp185
g147
ag168
ag182
ag171
ag178
ag174
ag150
ag157
ag164
ag160
ag153
asg78
I11
sba(itree
PTree
p186
(dp187
g52
g53
(g54
g55
Ntp188
Rp189
(dp190
g59
I0
sg67
g53
(g54
g55
Ntp191
Rp192
(dp193
g59
I2
sg67
g53
(g63
g55
Ntp194
Rp195
(dp196
g67
Nsg68
I00
sg69
g155
sg62
Nsbsg60
g61
sg75
F152.67280731170297
sg62
g53
(g54
g55
Ntp197
Rp198
(dp199
g59
I2
sg67
g53
(g63
g55
Ntp200
Rp201
(dp202
g67
Nsg68
I00
sg69
g162
sg62
Nsbsg60
g61
sg75
F25.304790904593588
sg62
g53
(g63
g55
Ntp203
Rp204
(dp205
g67
Nsg68
I00
sg69
g166
sg62
Nsbsg68
I01
sbsg68
I01
sbsg60
g96
sg75
F429.6292073066113
sg62
g53
(g54
g55
Ntp206
Rp207
(dp208
g59
I2
sg67
g53
(g54
g55
Ntp209
Rp210
(dp211
g59
I2
sg67
g53
(g63
g55
Ntp212
Rp213
(dp214
g67
Nsg68
I00
sg69
g176
sg62
Nsbsg60
g61
sg75
F208.2556829880441
sg62
g53
(g63
g55
Ntp215
Rp216
(dp217
g67
Nsg68
I00
sg69
g180
sg62
Nsbsg68
I01
sbsg60
g61
sg75
F7.7027942076935165
sg62
g53
(g63
g55
Ntp218
Rp219
(dp220
g67
Nsg68
I00
sg69
g184
sg62
Nsbsg68
I01
sbsg68
I01
sbsg76
(lp221
g189
ag207
ag219
ag210
ag216
ag213
ag192
ag198
ag204
ag201
ag195
asg78
I11
sbag186
ag186
ag186
ag186
ag186
ag186
ag186
ag186
ag186
ag186
ag186
ag186
ag186
ag186
a(itree
PTree
p222
(dp223
g52
g53
(g54
g55
Ntp224
Rp225
(dp226
g59
I0
sg67
g53
(g54
g55
Ntp227
Rp228
(dp229
g59
I2
sg67
g53
(g63
g55
Ntp230
Rp231
(dp232
g67
Nsg68
I00
sg69
g155
sg62
Nsbsg60
g61
sg75
F181.05813672864085
sg62
g53
(g54
g55
Ntp233
Rp234
(dp235
g59
I2
sg67
g53
(g63
g55
Ntp236
Rp237
(dp238
g67
Nsg68
I00
sg69
g162
sg62
Nsbsg60
g61
sg75
F26.10555978934117
sg62
g53
(g63
g55
Ntp239
Rp240
(dp241
g67
Nsg68
I00
sg69
g166
sg62
Nsbsg68
I01
sbsg68
I01
sbsg60
g96
sg75
F429.6292073066113
sg62
g53
(g54
g55
Ntp242
Rp243
(dp244
g59
I2
sg67
g53
(g54
g55
Ntp245
Rp246
(dp247
g59
I2
sg67
g53
(g63
g55
Ntp248
Rp249
(dp250
g67
Nsg68
I00
sg69
g176
sg62
Nsbsg60
g61
sg75
F223.52239028273638
sg62
g53
(g63
g55
Ntp251
Rp252
(dp253
g67
Nsg68
I00
sg69
g180
sg62
Nsbsg68
I01
sbsg60
g61
sg75
F33.82187038661721
sg62
g53
(g63
g55
Ntp254
Rp255
(dp256
g67
Nsg68
I00
sg69
g184
sg62
Nsbsg68
I01
sbsg68
I01
sbsg76
(lp257
g225
ag243
ag255
ag246
ag252
ag249
ag228
ag234
ag240
ag237
ag231
asg78
I11
sba(itree
PTree
p258
(dp259
g52
g53
(g54
g55
Ntp260
Rp261
(dp262
g59
I0
sg67
g53
(g54
g55
Ntp263
Rp264
(dp265
g59
I2
sg67
g53
(g63
g55
Ntp266
Rp267
(dp268
g67
Nsg68
I00
sg69
g155
sg62
Nsbsg60
g61
sg75
F166.83377695112267
sg62
g53
(g54
g55
Ntp269
Rp270
(dp271
g59
I2
sg67
g53
(g63
g55
Ntp272
Rp273
(dp274
g67
Nsg68
I00
sg69
g162
sg62
Nsbsg60
g61
sg75
F26.10555978934117
sg62
g53
(g63
g55
Ntp275
Rp276
(dp277
g67
Nsg68
I00
sg69
g166
sg62
Nsbsg68
I01
sbsg68
I01
sbsg60
g96
sg75
F527.1870991396395
sg62
g53
(g54
g55
Ntp278
Rp279
(dp280
g59
I2
sg67
g53
(g54
g55
Ntp281
Rp282
(dp283
g59
I2
sg67
g53
(g63
g55
Ntp284
Rp285
(dp286
g67
Nsg68
I00
sg69
g176
sg62
Nsbsg60
g61
sg75
F231.80004677531383
sg62
g53
(g63
g55
Ntp287
Rp288
(dp289
g67
Nsg68
I00
sg69
g180
sg62
Nsbsg68
I01
sbsg60
g61
sg75
F46.094839361609694
sg62
g53
(g63
g55
Ntp290
Rp291
(dp292
g67
Nsg68
I00
sg69
g184
sg62
Nsbsg68
I01
sbsg68
I01
sbsg76
(lp293
g261
ag279
ag291
ag282
ag288
ag285
ag264
ag270
ag276
ag273
ag267
asg78
I11
sbag258
ag258
a(itree
PTree
p294
(dp295
g52
g53
(g54
g55
Ntp296
Rp297
(dp298
g59
I0
sg67
g53
(g54
g55
Ntp299
Rp300
(dp301
g59
I2
sg67
g53
(g63
g55
Ntp302
Rp303
(dp304
g67
Nsg68
I00
sg69
S'Flood_Control'
p305
sg62
Nsbsg60
g61
sg75
F61.527355794130706
sg62
g53
(g63
g55
Ntp306
Rp307
(dp308
g67
Nsg68
I00
sg69
S'Release_Demand'
p309
sg62
Nsbsg68
I01
sbsg60
g96
sg75
F580.0552064854719
sg62
g53
(g54
g55
Ntp310
Rp311
(dp312
g59
I2
sg67
g53
(g54
g55
Ntp313
Rp314
(dp315
g59
I2
sg67
g53
(g63
g55
Ntp316
Rp317
(dp318
g67
Nsg68
I00
sg69
S'Release_Demand'
p319
sg62
Nsbsg60
g61
sg75
F188.67732550467247
sg62
g53
(g63
g55
Ntp320
Rp321
(dp322
g67
Nsg68
I00
sg69
g180
sg62
Nsbsg68
I01
sbsg60
g61
sg75
F55.42876077496684
sg62
g53
(g63
g55
Ntp323
Rp324
(dp325
g67
Nsg68
I00
sg69
g184
sg62
Nsbsg68
I01
sbsg68
I01
sbsg76
(lp326
g297
ag311
ag324
ag314
ag321
ag317
ag300
ag307
ag303
asg78
I9
sbag294
ag294
ag294
a(itree
PTree
p327
(dp328
g52
g53
(g54
g55
Ntp329
Rp330
(dp331
g59
I0
sg67
g53
(g54
g55
Ntp332
Rp333
(dp334
g59
I2
sg67
g53
(g63
g55
Ntp335
Rp336
(dp337
g67
Nsg68
I00
sg69
g305
sg62
Nsbsg60
g61
sg75
F52.54304577798684
sg62
g53
(g63
g55
Ntp338
Rp339
(dp340
g67
Nsg68
I00
sg69
g309
sg62
Nsbsg68
I01
sbsg60
g96
sg75
F592.4658470328814
sg62
g53
(g54
g55
Ntp341
Rp342
(dp343
g59
I2
sg67
g53
(g54
g55
Ntp344
Rp345
(dp346
g59
I2
sg67
g53
(g63
g55
Ntp347
Rp348
(dp349
g67
Nsg68
I00
sg69
g319
sg62
Nsbsg60
g61
sg75
F189.3900621281715
sg62
g53
(g63
g55
Ntp350
Rp351
(dp352
g67
Nsg68
I00
sg69
g180
sg62
Nsbsg68
I01
sbsg60
g61
sg75
F13.793767019127603
sg62
g53
(g63
g55
Ntp353
Rp354
(dp355
g67
Nsg68
I00
sg69
g184
sg62
Nsbsg68
I01
sbsg68
I01
sbsg76
(lp356
g330
ag342
ag354
ag345
ag351
ag348
ag333
ag339
ag336
asg78
I9
sbag327
ag327
ag327
ag327
ag327
ag327
ag327
ag327
ag327
ag327
ag327
a(itree
PTree
p357
(dp358
g52
g53
(g54
g55
Ntp359
Rp360
(dp361
g59
I0
sg67
g53
(g54
g55
Ntp362
Rp363
(dp364
g59
I2
sg67
g53
(g63
g55
Ntp365
Rp366
(dp367
g67
Nsg68
I00
sg69
g305
sg62
Nsbsg60
g61
sg75
F80.41615437225339
sg62
g53
(g63
g55
Ntp368
Rp369
(dp370
g67
Nsg68
I00
sg69
g309
sg62
Nsbsg68
I01
sbsg60
g96
sg75
F592.4658470328814
sg62
g53
(g54
g55
Ntp371
Rp372
(dp373
g59
I2
sg67
g53
(g54
g55
Ntp374
Rp375
(dp376
g59
I2
sg67
g53
(g63
g55
Ntp377
Rp378
(dp379
g67
Nsg68
I00
sg69
g319
sg62
Nsbsg60
g61
sg75
F221.7444579886016
sg62
g53
(g63
g55
Ntp380
Rp381
(dp382
g67
Nsg68
I00
sg69
g180
sg62
Nsbsg68
I01
sbsg60
g61
sg75
F32.726358810720136
sg62
g53
(g63
g55
Ntp383
Rp384
(dp385
g67
Nsg68
I00
sg69
g184
sg62
Nsbsg68
I01
sbsg68
I01
sbsg76
(lp386
g360
ag372
ag384
ag375
ag381
ag378
ag363
ag369
ag366
asg78
I9
sbag357
ag357
ag357
asS'time'
p387
(lp388
I48
aI72
aI95
aI119
aI143
aI166
aI188
aI212
aI235
aI259
aI281
aI305
aI328
aI351
aI375
aI398
aI422
aI445
aI468
aI491
aI514
aI537
aI560
aI583
aI606
aI630
aI652
aI675
aI699
aI721
aI744
aI768
aI790
aI812
aI836
aI859
aI882
aI904
aI928
aI951
aI974
aI997
aI1021
aI1044
aI1068
aI1090
aI1115
aI1138
aI1161
aI1184
aI1206
aI1230
aI1252
aI1276
aI1298
aI1321
aI1344
aI1367
aI1391
aI1414
aI1438
aI1460
aI1485
aI1507
aI1531
aI1554
aI1578
aI1601
aI1624
aI1648
aI1670
aI1694
aI1716
aI1740
aI1762
aI1785
aI1808
aI1831
aI1853
aI1877
aI1899
aI1921
aI1944
aI1966
aI1991
aI2013
aI2036
aI2059
aI2083
aI2105
aI2128
aI2151
aI2174
aI2197
aI2220
aI2243
aI2265
aI2288
aI2312
aI2335
aI2358
aI2381
aI2404
aI2427
aI2449
aI2474
aI2495
aI2518
aI2541
aI2564
aI2587
aI2610
aI2634
aI2656
aI2679
aI2702
aI2725
aI2748
aI2771
aI2794
aI2817
aI2841
aI2863
aI2886
aI2909
aI2931
aI2955
aI2978
aI3001
aI3024
aI3047
aI3071
aI3093
aI3116
aI3140
aI3162
aI3186
aI3208
aI3231
aI3254
aI3276
aI3300
aI3322
aI3345
aI3367
aI3390
aI3412
aI3436
aI3458
aI3481
aI3504
aI3526
aI3550
aI3572
aI3595
aI3618
aI3642
aI3664
aI3687
aI3710
aI3733
aI3755
aI3779
aI3802
aI3823
aI3847
aI3869
aI3893
aI3916
aI3939
aI3962
aI3986
aI4009
aI4032
aI4055
aI4079
aI4100
aI4124
aI4147
aI4169
aI4193
aI4215
aI4238
aI4260
aI4283
aI4306
aI4328
aI4352
aI4375
aI4398
aI4420
aI4443
aI4466
aI4488
aI4512
aI4534
aI4558
aI4580
aI4604
aI4627
aI4649
aI4672
aI4695
aI4718
aI4739
aI4763
aI4786
aI4809
aI4831
aI4854
aI4877
aI4900
aI4923
aI4946
aI4969
aI4991
aI5015
aI5037
aI5061
aI5084
aI5106
aI5130
aI5153
aI5176
aI5198
aI5222
aI5243
aI5265
aI5288
aI5311
aI5334
aI5358
aI5381
aI5403
aI5427
aI5450
aI5472
aI5495
aI5518
aI5541
aI5563
aI5587
aI5610
aI5634
aI5656
aI5679
aI5702
aI5724
aI5746
aI5770
aI5793
aI5816
aI5840
aI5864
aI5886
aI5910
aI5932
aI5955
aI5977
aI6002
aI6024
aI6047
aI6070
aI6094
aI6117
aI6140
aI6164
aI6186
aI6210
aI6232
aI6256
aI6279
aI6303
aI6324
aI6348
aI6371
aI6394
aI6417
aI6441
aI6464
aI6486
aI6510
aI6532
aI6555
aI6577
aI6601
aI6624
aI6647
aI6669
aI6693
aI6717
aI6740
aI6762
aI6786
aI6810
aI6832
aI6855
aI6877
aI6901
aI6923
aI6947
aI6969
aI6991
aI7015
aI7038
aI7061
aI7084
aI7108
aI7130
aI7152
aI7175
aI7198
aI7222
aI7244
aI7267
aI7290
aI7313
aI7335
aI7359
aI7381
aI7404
aI7427
aI7450
aI7474
aI7496
aI7519
aI7542
aI7565
aI7588
aI7611
aI7634
aI7657
aI7681
aI7704
aI7727
aI7749
aI7773
aI7796
aI7819
aI7841
aI7865
aI7888
aI7910
aI7933
aI7956
aI7980
aI8002
aI8025
aI8048
aI8071
aI8094
aI8116
aI8139
aI8162
aI8185
aI8207
aI8231
aI8254
aI8278
aI8300
aI8322
aI8345
aI8368
aI8391
aI8413
aI8437
aI8459
aI8482
aI8504
aI8528
aI8551
aI8573
aI8597
aI8619
aI8643
aI8665
aI8689
aI8711
aI8734
aI8757
aI8781
aI8804
aI8827
aI8849
aI8872
aI8895
aI8918
aI8940
aI8963
aI8986
aI9009
aI9032
aI9054
aI9078
aI9100
aI9123
aI9146
aI9168
aI9191
aI9213
aI9237
aI9260
aI9283
aI9306
aI9329
aI9353
aI9375
aI9399
aI9421
aI9445
aI9467
aI9491
aI9513
aI9537
aI9560
aI9582
aI9606
aI9629
aI9652
aI9674
aI9698
aI9720
aI9743
aI9766
aI9790
aI9813
aI9835
aI9858
aI9880
aI9903
aI9926
aI9950
aI9972
aI9994
aI10018
aI10041
aI10064
aI10086
aI10110
aI10132
aI10154
aI10178
aI10200
aI10224
aI10245
aI10269
aI10291
aI10314
aI10337
aI10360
aI10384
aI10406
aI10429
aI10453
aI10475
aI10498
aI10521
aI10545
aI10567
aI10591
aI10613
aI10637
aI10660
aI10684
aI10706
aI10730
aI10753
aI10775
aI10797
aI10821
aI10844
aI10866
aI10889
aI10912
aI10935
aI10957
aI10981
aI11004
aI11027
aI11050
aI11074
aI11097
aI11120
aI11143
aI11166
aI11190
aI11212
aI11236
aI11258
aI11282
aI11304
aI11328
aI11351
aI11375
aI11398
aI11420
aI11444
aI11466
aI11490
aI11512
as.