(dp0
S'nfe'
p1
(lp2
I50
aI100
aI150
aI200
aI250
aI300
aI350
aI400
aI450
aI500
aI550
aI600
aI650
aI700
aI750
aI800
aI850
aI900
aI950
aI1000
aI1050
aI1100
aI1150
aI1200
aI1250
aI1300
aI1350
aI1400
aI1450
aI1500
aI1550
aI1600
aI1650
aI1700
aI1750
aI1800
aI1850
aI1900
aI1950
aI2000
aI2050
aI2100
aI2150
aI2200
aI2250
aI2300
aI2350
aI2400
aI2450
aI2500
aI2550
aI2600
aI2650
aI2700
aI2750
aI2800
aI2850
aI2900
aI2950
aI3000
aI3050
aI3100
aI3150
aI3200
aI3250
aI3300
aI3350
aI3400
aI3450
aI3500
aI3550
aI3600
aI3650
aI3700
aI3750
aI3800
aI3850
aI3900
aI3950
aI4000
aI4050
aI4100
aI4150
aI4200
aI4250
aI4300
aI4350
aI4400
aI4450
aI4500
aI4550
aI4600
aI4650
aI4700
aI4750
aI4800
aI4850
aI4900
aI4950
aI5000
aI5050
aI5100
aI5150
aI5200
aI5250
aI5300
aI5350
aI5400
aI5450
aI5500
aI5550
aI5600
aI5650
aI5700
aI5750
aI5800
aI5850
aI5900
aI5950
aI6000
aI6050
aI6100
aI6150
aI6200
aI6250
aI6300
aI6350
aI6400
aI6450
aI6500
aI6550
aI6600
aI6650
aI6700
aI6750
aI6800
aI6850
aI6900
aI6950
aI7000
aI7050
aI7100
aI7150
aI7200
aI7250
aI7300
aI7350
aI7400
aI7450
aI7500
aI7550
aI7600
aI7650
aI7700
aI7750
aI7800
aI7850
aI7900
aI7950
aI8000
aI8050
aI8100
aI8150
aI8200
aI8250
aI8300
aI8350
aI8400
aI8450
aI8500
aI8550
aI8600
aI8650
aI8700
aI8750
aI8800
aI8850
aI8900
aI8950
aI9000
aI9050
aI9100
aI9150
aI9200
aI9250
aI9300
aI9350
aI9400
aI9450
aI9500
aI9550
aI9600
aI9650
aI9700
aI9750
aI9800
aI9850
aI9900
aI9950
aI10000
asS'best_f'
p3
(lp4
cnumpy.core.multiarray
scalar
p5
(cnumpy
dtype
p6
(S'f8'
p7
I0
I1
tp8
Rp9
(I3
S'<'
p10
NNNI-1
I-1
I0
tp11
bS'\xf0e\x16\x00\xc7)\r@'
p12
tp13
Rp14
ag5
(g9
S'Y\x0cQ\xf4\x8d\xd0\t@'
p15
tp16
Rp17
ag5
(g9
S'\xa5]\xdb\xd2\xcb\xc4\xf4?'
p18
tp19
Rp20
ag20
ag20
ag5
(g9
S'K\xa9\x0c\x88\x03}\xf0?'
p21
tp22
Rp23
ag5
(g9
S'p*\xf7c\x91h\xe9?'
p24
tp25
Rp26
ag26
ag26
ag5
(g9
S'\xe4\xfc\xcf\xee\x8ar\xe6?'
p27
tp28
Rp29
ag5
(g9
S'\xd8V\x1ecP\x02\xe2?'
p30
tp31
Rp32
ag32
ag32
ag32
ag32
ag32
ag5
(g9
S'"\xe3\xc1G\x903\xe1?'
p33
tp34
Rp35
ag35
ag35
ag35
ag5
(g9
S'\xe4Ux+\x8f\x1e\xe1?'
p36
tp37
Rp38
ag38
ag38
ag38
ag38
ag38
ag38
ag38
ag38
ag38
ag38
ag38
ag38
ag38
ag38
ag38
ag5
(g9
S'6\xab9ml\x85\xe0?'
p39
tp40
Rp41
ag41
ag41
ag5
(g9
S'\x8b(\x18v\x8eq\xe0?'
p42
tp43
Rp44
ag44
ag5
(g9
S'*m\xdbZ\xa9/\xe0?'
p45
tp46
Rp47
ag5
(g9
S'|o3\xa2\\\xc9\xdf?'
p48
tp49
Rp50
ag50
ag50
ag50
ag5
(g9
S'\xc6kh\x90\xda\xc5\xd5?'
p51
tp52
Rp53
ag53
ag53
ag53
ag53
ag53
ag53
ag53
ag5
(g9
S'r\xd8\x0e\x9a=\xc5\xd1?'
p54
tp55
Rp56
ag56
ag56
ag56
ag56
ag56
ag56
ag5
(g9
S'\x84\x1d\x1a\x88\x10\x82\xce?'
p57
tp58
Rp59
ag59
ag5
(g9
S'\xa5\x17\x1aE\xd0w\xce?'
p60
tp61
Rp62
ag62
ag62
ag62
ag5
(g9
S'\xacC\x15zP[\xce?'
p63
tp64
Rp65
ag5
(g9
S'\x1b{\x88#\xe6#\xc9?'
p66
tp67
Rp68
ag68
ag68
ag68
ag68
ag68
ag68
ag68
ag68
ag68
ag68
ag68
ag68
ag5
(g9
S'\xf9,\xb0G\xd7\xd4\xc8?'
p69
tp70
Rp71
ag71
ag71
ag71
ag71
ag71
ag71
ag71
ag71
ag5
(g9
S'x\xcceU\x05v\xc8?'
p72
tp73
Rp74
ag5
(g9
S'\xe4eV\xc4\x89F\xc8?'
p75
tp76
Rp77
ag77
ag77
ag77
ag77
ag77
ag77
ag77
ag77
ag77
ag77
ag77
ag77
ag77
ag77
ag77
ag77
ag77
ag77
ag77
ag77
ag77
ag77
ag77
ag77
ag77
ag5
(g9
S'\xcf\x8bA\xfe\x89 \xc8?'
p78
tp79
Rp80
ag80
ag5
(g9
S'*}}\xd7\xa1\xe4\xc7?'
p81
tp82
Rp83
ag83
ag83
ag83
ag83
ag83
ag83
ag83
ag83
ag5
(g9
S';\xed\x08VM\xd6\xc7?'
p84
tp85
Rp86
ag86
ag86
ag86
ag86
ag86
ag86
ag86
ag86
ag86
ag86
ag86
ag86
ag86
ag86
ag86
ag86
ag86
ag86
ag86
ag86
ag86
ag5
(g9
S't\xbd\xa4\x9a\n\xc9\xc7?'
p87
tp88
Rp89
ag89
ag89
ag89
ag89
ag89
ag89
ag89
ag89
ag89
ag89
ag89
ag89
ag89
ag89
ag89
ag89
ag89
ag89
ag89
ag89
ag89
ag5
(g9
S'\xd9\x13\xa6<8\xb3\xc7?'
p90
tp91
Rp92
ag92
ag92
ag92
ag92
ag92
ag92
ag92
ag92
ag92
ag92
ag92
ag92
ag92
ag92
ag92
ag92
ag92
ag92
ag92
ag92
ag92
ag92
ag92
ag92
ag92
ag92
ag92
asS'best_P'
p93
(lp94
(itree
PTree
p95
(dp96
S'root'
p97
ccopy_reg
_reconstructor
p98
(ctree
Feature
p99
c__builtin__
object
p100
Ntp101
Rp102
(dp103
S'index'
p104
I3
sS'name'
p105
S'LP3'
p106
sS'l'
p107
g98
(g99
g100
Ntp108
Rp109
(dp110
g104
I0
sg105
S'Storage'
p111
sg107
g98
(ctree
Action
p112
g100
Ntp113
Rp114
(dp115
S'r'
p116
NsS'is_feature'
p117
I00
sS'value'
p118
S'Release_Demand'
p119
sg107
Nsbsg116
g98
(g112
g100
Ntp120
Rp121
(dp122
g116
Nsg117
I00
sg118
S'Flood_Control'
p123
sg107
NsbsS'threshold'
p124
F298.68024210460266
sg117
I01
sbsg116
g98
(g112
g100
Ntp125
Rp126
(dp127
g116
Nsg117
I00
sg118
S'Hedge_50'
p128
sg107
Nsbsg124
F342.50499727207807
sg117
I01
sbsS'L'
p129
(lp130
g102
ag109
ag114
ag121
ag126
asS'N'
p131
I5
sba(itree
PTree
p132
(dp133
g97
g98
(g99
g100
Ntp134
Rp135
(dp136
g104
I3
sg116
g98
(g112
g100
Ntp137
Rp138
(dp139
g116
Nsg117
I00
sg118
S'Flood_Control'
p140
sg107
Nsbsg105
g106
sg124
F314.30523184126275
sg107
g98
(g99
g100
Ntp141
Rp142
(dp143
g104
I0
sg116
g98
(g112
g100
Ntp144
Rp145
(dp146
g116
Nsg117
I00
sg118
g123
sg107
Nsbsg105
g111
sg124
F335.40342349298913
sg107
g98
(g112
g100
Ntp147
Rp148
(dp149
g116
Nsg117
I00
sg118
g119
sg107
Nsbsg117
I01
sbsg117
I01
sbsg129
(lp150
g135
ag142
ag148
ag145
ag138
asg131
I5
sba(itree
PTree
p151
(dp152
g97
g98
(g99
g100
Ntp153
Rp154
(dp155
g104
I3
sg116
g98
(g99
g100
Ntp156
Rp157
(dp158
g104
I1
sg116
g98
(g112
g100
Ntp159
Rp160
(dp161
g116
Nsg117
I00
sg118
S'Hedge_90'
p162
sg107
Nsbsg105
S'Day'
p163
sg124
F19.19176429018663
sg107
g98
(g99
g100
Ntp164
Rp165
(dp166
g104
I2
sg116
g98
(g112
g100
Ntp167
Rp168
(dp169
g116
Nsg117
I00
sg118
S'Hedge_50'
p170
sg107
Nsbsg105
S'AnnQ'
p171
sg124
F2945.143799161927
sg107
g98
(g112
g100
Ntp172
Rp173
(dp174
g116
Nsg117
I00
sg118
S'Hedge_80'
p175
sg107
Nsbsg117
I01
sbsg117
I01
sbsg105
g106
sg124
F329.46992572321375
sg107
g98
(g99
g100
Ntp176
Rp177
(dp178
g104
I0
sg116
g98
(g112
g100
Ntp179
Rp180
(dp181
g116
Nsg117
I00
sg118
S'Flood_Control'
p182
sg107
Nsbsg105
g111
sg124
F580.4487148460963
sg107
g98
(g112
g100
Ntp183
Rp184
(dp185
g116
Nsg117
I00
sg118
S'Hedge_90'
p186
sg107
Nsbsg117
I01
sbsg117
I01
sbsg129
(lp187
g154
ag177
ag184
ag180
ag157
ag165
ag173
ag168
ag160
asg131
I9
sbag151
ag151
a(itree
PTree
p188
(dp189
g97
g98
(g99
g100
Ntp190
Rp191
(dp192
g104
I3
sg116
g98
(g112
g100
Ntp193
Rp194
(dp195
g116
Nsg117
I00
sg118
S'Hedge_80'
p196
sg107
Nsbsg105
g106
sg124
F303.7527744749827
sg107
g98
(g99
g100
Ntp197
Rp198
(dp199
g104
I0
sg116
g98
(g112
g100
Ntp200
Rp201
(dp202
g116
Nsg117
I00
sg118
S'Flood_Control'
p203
sg107
Nsbsg105
g111
sg124
F649.8860266891065
sg107
g98
(g112
g100
Ntp204
Rp205
(dp206
g116
Nsg117
I00
sg118
S'Hedge_80'
p207
sg107
Nsbsg117
I01
sbsg117
I01
sbsg129
(lp208
g191
ag198
ag205
ag201
ag194
asg131
I5
sba(itree
PTree
p209
(dp210
g97
g98
(g99
g100
Ntp211
Rp212
(dp213
g104
I3
sg116
g98
(g99
g100
Ntp214
Rp215
(dp216
g104
I1
sg116
g98
(g112
g100
Ntp217
Rp218
(dp219
g116
Nsg117
I00
sg118
g162
sg107
Nsbsg105
g163
sg124
F12.904613297177047
sg107
g98
(g99
g100
Ntp220
Rp221
(dp222
g104
I2
sg116
g98
(g112
g100
Ntp223
Rp224
(dp225
g116
Nsg117
I00
sg118
g170
sg107
Nsbsg105
g171
sg124
F3090.8731220797963
sg107
g98
(g112
g100
Ntp226
Rp227
(dp228
g116
Nsg117
I00
sg118
g175
sg107
Nsbsg117
I01
sbsg117
I01
sbsg105
g106
sg124
F316.85159529300967
sg107
g98
(g99
g100
Ntp229
Rp230
(dp231
g104
I0
sg116
g98
(g112
g100
Ntp232
Rp233
(dp234
g116
Nsg117
I00
sg118
g182
sg107
Nsbsg105
g111
sg124
F678.6577298839716
sg107
g98
(g112
g100
Ntp235
Rp236
(dp237
g116
Nsg117
I00
sg118
g186
sg107
Nsbsg117
I01
sbsg117
I01
sbsg129
(lp238
g212
ag230
ag236
ag233
ag215
ag221
ag227
ag224
ag218
asg131
I9
sbag209
ag209
a(itree
PTree
p239
(dp240
g97
g98
(g99
g100
Ntp241
Rp242
(dp243
g104
I3
sg116
g98
(g99
g100
Ntp244
Rp245
(dp246
g104
I3
sg116
g98
(g112
g100
Ntp247
Rp248
(dp249
g116
Nsg117
I00
sg118
S'Hedge_60'
p250
sg107
Nsbsg105
g106
sg124
F317.9915593081514
sg107
g98
(g99
g100
Ntp251
Rp252
(dp253
g104
I0
sg116
g98
(g112
g100
Ntp254
Rp255
(dp256
g116
Nsg117
I00
sg118
S'Hedge_60'
p257
sg107
Nsbsg105
g111
sg124
F316.8671258258944
sg107
g98
(g112
g100
Ntp258
Rp259
(dp260
g116
Nsg117
I00
sg118
S'Hedge_70'
p261
sg107
Nsbsg117
I01
sbsg117
I01
sbsg105
g106
sg124
F215.63133265830885
sg107
g98
(g99
g100
Ntp262
Rp263
(dp264
g104
I0
sg116
g98
(g99
g100
Ntp265
Rp266
(dp267
g104
I1
sg116
g98
(g112
g100
Ntp268
Rp269
(dp270
g116
Nsg117
I00
sg118
S'Flood_Control'
p271
sg107
Nsbsg105
g163
sg124
F70.37108601894101
sg107
g98
(g112
g100
Ntp272
Rp273
(dp274
g116
Nsg117
I00
sg118
S'Hedge_50'
p275
sg107
Nsbsg117
I01
sbsg105
g111
sg124
F694.7308946017846
sg107
g98
(g112
g100
Ntp276
Rp277
(dp278
g116
Nsg117
I00
sg118
S'Hedge_90'
p279
sg107
Nsbsg117
I01
sbsg117
I01
sbsg129
(lp280
g242
ag263
ag277
ag266
ag273
ag269
ag245
ag252
ag259
ag255
ag248
asg131
I11
sba(itree
PTree
p281
(dp282
g97
g98
(g99
g100
Ntp283
Rp284
(dp285
g104
I3
sg116
g98
(g112
g100
Ntp286
Rp287
(dp288
g116
Nsg117
I00
sg118
S'Hedge_90'
p289
sg107
Nsbsg105
g106
sg124
F318.80489586882527
sg107
g98
(g99
g100
Ntp290
Rp291
(dp292
g104
I0
sg116
g98
(g99
g100
Ntp293
Rp294
(dp295
g104
I1
sg116
g98
(g99
g100
Ntp296
Rp297
(dp298
g104
I3
sg116
g98
(g112
g100
Ntp299
Rp300
(dp301
g116
Nsg117
I00
sg118
S'Hedge_80'
p302
sg107
Nsbsg105
g106
sg124
F231.54452843891025
sg107
g98
(g112
g100
Ntp303
Rp304
(dp305
g116
Nsg117
I00
sg118
S'Flood_Control'
p306
sg107
Nsbsg117
I01
sbsg105
g163
sg124
F21.551606721408902
sg107
g98
(g112
g100
Ntp307
Rp308
(dp309
g116
Nsg117
I00
sg118
S'Hedge_60'
p310
sg107
Nsbsg117
I01
sbsg105
g111
sg124
F731.6611700117808
sg107
g98
(g112
g100
Ntp311
Rp312
(dp313
g116
Nsg117
I00
sg118
S'Hedge_90'
p314
sg107
Nsbsg117
I01
sbsg117
I01
sbsg129
(lp315
g284
ag291
ag312
ag294
ag308
ag297
ag304
ag300
ag287
asg131
I9
sbag281
ag281
ag281
ag281
ag281
a(itree
PTree
p316
(dp317
g97
g98
(g99
g100
Ntp318
Rp319
(dp320
g104
I3
sg116
g98
(g112
g100
Ntp321
Rp322
(dp323
g116
Nsg117
I00
sg118
g289
sg107
Nsbsg105
g106
sg124
F326.9209130296091
sg107
g98
(g99
g100
Ntp324
Rp325
(dp326
g104
I0
sg116
g98
(g99
g100
Ntp327
Rp328
(dp329
g104
I1
sg116
g98
(g99
g100
Ntp330
Rp331
(dp332
g104
I3
sg116
g98
(g112
g100
Ntp333
Rp334
(dp335
g116
Nsg117
I00
sg118
g302
sg107
Nsbsg105
g106
sg124
F241.4403188535185
sg107
g98
(g112
g100
Ntp336
Rp337
(dp338
g116
Nsg117
I00
sg118
g306
sg107
Nsbsg117
I01
sbsg105
g163
sg124
F18.25847707040846
sg107
g98
(g112
g100
Ntp339
Rp340
(dp341
g116
Nsg117
I00
sg118
g310
sg107
Nsbsg117
I01
sbsg105
g111
sg124
F739.5626739178092
sg107
g98
(g112
g100
Ntp342
Rp343
(dp344
g116
Nsg117
I00
sg118
g314
sg107
Nsbsg117
I01
sbsg117
I01
sbsg129
(lp345
g319
ag325
ag343
ag328
ag340
ag331
ag337
ag334
ag322
asg131
I9
sbag316
ag316
ag316
a(itree
PTree
p346
(dp347
g97
g98
(g99
g100
Ntp348
Rp349
(dp350
g104
I3
sg116
g98
(g112
g100
Ntp351
Rp352
(dp353
g116
Nsg117
I00
sg118
S'Hedge_60'
p354
sg107
Nsbsg105
g106
sg124
F299.147419600946
sg107
g98
(g99
g100
Ntp355
Rp356
(dp357
g104
I0
sg116
g98
(g99
g100
Ntp358
Rp359
(dp360
g104
I1
sg116
g98
(g112
g100
Ntp361
Rp362
(dp363
g116
Nsg117
I00
sg118
S'Flood_Control'
p364
sg107
Nsbsg105
g163
sg124
F33.99191603172467
sg107
g98
(g112
g100
Ntp365
Rp366
(dp367
g116
Nsg117
I00
sg118
S'Release_Demand'
p368
sg107
Nsbsg117
I01
sbsg105
g111
sg124
F736.4942008228363
sg107
g98
(g112
g100
Ntp369
Rp370
(dp371
g116
Nsg117
I00
sg118
S'Hedge_90'
p372
sg107
Nsbsg117
I01
sbsg117
I01
sbsg129
(lp373
g349
ag356
ag370
ag359
ag366
ag362
ag352
asg131
I7
sbag346
ag346
ag346
ag346
ag346
ag346
ag346
ag346
ag346
ag346
ag346
ag346
ag346
ag346
ag346
a(itree
PTree
p374
(dp375
g97
g98
(g99
g100
Ntp376
Rp377
(dp378
g104
I3
sg116
g98
(g112
g100
Ntp379
Rp380
(dp381
g116
Nsg117
I00
sg118
S'Flood_Control'
p382
sg107
Nsbsg105
g106
sg124
F316.6625482911062
sg107
g98
(g99
g100
Ntp383
Rp384
(dp385
g104
I0
sg116
g98
(g99
g100
Ntp386
Rp387
(dp388
g104
I1
sg116
g98
(g112
g100
Ntp389
Rp390
(dp391
g116
Nsg117
I00
sg118
S'Hedge_80'
p392
sg107
Nsbsg105
g163
sg124
F108.1096527393039
sg107
g98
(g112
g100
Ntp393
Rp394
(dp395
g116
Nsg117
I00
sg118
S'Flood_Control'
p396
sg107
Nsbsg117
I01
sbsg105
g111
sg124
F637.0698028122871
sg107
g98
(g112
g100
Ntp397
Rp398
(dp399
g116
Nsg117
I00
sg118
S'Hedge_80'
p400
sg107
Nsbsg117
I01
sbsg117
I01
sbsg129
(lp401
g377
ag384
ag398
ag387
ag394
ag390
ag380
asg131
I7
sbag374
ag374
a(itree
PTree
p402
(dp403
g97
g98
(g99
g100
Ntp404
Rp405
(dp406
g104
I3
sg116
g98
(g99
g100
Ntp407
Rp408
(dp409
g104
I3
sg116
g98
(g112
g100
Ntp410
Rp411
(dp412
g116
Nsg117
I00
sg118
S'Hedge_70'
p413
sg107
Nsbsg105
g106
sg124
F317.1689933765564
sg107
g98
(g99
g100
Ntp414
Rp415
(dp416
g104
I0
sg116
g98
(g112
g100
Ntp417
Rp418
(dp419
g116
Nsg117
I00
sg118
S'Release_Demand'
p420
sg107
Nsbsg105
g111
sg124
F893.2534077477688
sg107
g98
(g112
g100
Ntp421
Rp422
(dp423
g116
Nsg117
I00
sg118
S'Hedge_80'
p424
sg107
Nsbsg117
I01
sbsg117
I01
sbsg105
g106
sg124
F227.09946671726124
sg107
g98
(g99
g100
Ntp425
Rp426
(dp427
g104
I0
sg116
g98
(g99
g100
Ntp428
Rp429
(dp430
g104
I1
sg116
g98
(g112
g100
Ntp431
Rp432
(dp433
g116
Nsg117
I00
sg118
S'Hedge_80'
p434
sg107
Nsbsg105
g163
sg124
F165.18490586483108
sg107
g98
(g112
g100
Ntp435
Rp436
(dp437
g116
Nsg117
I00
sg118
S'Flood_Control'
p438
sg107
Nsbsg117
I01
sbsg105
g111
sg124
F703.1195483678525
sg107
g98
(g112
g100
Ntp439
Rp440
(dp441
g116
Nsg117
I00
sg118
S'Hedge_80'
p442
sg107
Nsbsg117
I01
sbsg117
I01
sbsg129
(lp443
g405
ag426
ag440
ag429
ag436
ag432
ag408
ag415
ag422
ag418
ag411
asg131
I11
sbag402
a(itree
PTree
p444
(dp445
g97
g98
(g99
g100
Ntp446
Rp447
(dp448
g104
I3
sg116
g98
(g99
g100
Ntp449
Rp450
(dp451
g104
I3
sg116
g98
(g112
g100
Ntp452
Rp453
(dp454
g116
Nsg117
I00
sg118
g413
sg107
Nsbsg105
g106
sg124
F339.7872362858969
sg107
g98
(g99
g100
Ntp455
Rp456
(dp457
g104
I0
sg116
g98
(g112
g100
Ntp458
Rp459
(dp460
g116
Nsg117
I00
sg118
g420
sg107
Nsbsg105
g111
sg124
F786.1896580392624
sg107
g98
(g112
g100
Ntp461
Rp462
(dp463
g116
Nsg117
I00
sg118
g424
sg107
Nsbsg117
I01
sbsg117
I01
sbsg105
g106
sg124
F278.5183996351757
sg107
g98
(g99
g100
Ntp464
Rp465
(dp466
g104
I0
sg116
g98
(g99
g100
Ntp467
Rp468
(dp469
g104
I1
sg116
g98
(g112
g100
Ntp470
Rp471
(dp472
g116
Nsg117
I00
sg118
g434
sg107
Nsbsg105
g163
sg124
F149.40261959813046
sg107
g98
(g112
g100
Ntp473
Rp474
(dp475
g116
Nsg117
I00
sg118
g438
sg107
Nsbsg117
I01
sbsg105
g111
sg124
F687.2531685863828
sg107
g98
(g112
g100
Ntp476
Rp477
(dp478
g116
Nsg117
I00
sg118
g442
sg107
Nsbsg117
I01
sbsg117
I01
sbsg129
(lp479
g447
ag465
ag477
ag468
ag474
ag471
ag450
ag456
ag462
ag459
ag453
asg131
I11
sba(itree
PTree
p480
(dp481
g97
g98
(g99
g100
Ntp482
Rp483
(dp484
g104
I3
sg116
g98
(g99
g100
Ntp485
Rp486
(dp487
g104
I3
sg116
g98
(g112
g100
Ntp488
Rp489
(dp490
g116
Nsg117
I00
sg118
g413
sg107
Nsbsg105
g106
sg124
F333.82095957629787
sg107
g98
(g99
g100
Ntp491
Rp492
(dp493
g104
I0
sg116
g98
(g112
g100
Ntp494
Rp495
(dp496
g116
Nsg117
I00
sg118
g420
sg107
Nsbsg105
g111
sg124
F930.0732454949725
sg107
g98
(g112
g100
Ntp497
Rp498
(dp499
g116
Nsg117
I00
sg118
g424
sg107
Nsbsg117
I01
sbsg117
I01
sbsg105
g106
sg124
F314.64492708320853
sg107
g98
(g99
g100
Ntp500
Rp501
(dp502
g104
I0
sg116
g98
(g99
g100
Ntp503
Rp504
(dp505
g104
I1
sg116
g98
(g112
g100
Ntp506
Rp507
(dp508
g116
Nsg117
I00
sg118
g434
sg107
Nsbsg105
g163
sg124
F131.30058381253446
sg107
g98
(g112
g100
Ntp509
Rp510
(dp511
g116
Nsg117
I00
sg118
g438
sg107
Nsbsg117
I01
sbsg105
g111
sg124
F673.1669365192741
sg107
g98
(g112
g100
Ntp512
Rp513
(dp514
g116
Nsg117
I00
sg118
g442
sg107
Nsbsg117
I01
sbsg117
I01
sbsg129
(lp515
g483
ag501
ag513
ag504
ag510
ag507
ag486
ag492
ag498
ag495
ag489
asg131
I11
sbag480
ag480
ag480
a(itree
PTree
p516
(dp517
g97
g98
(g99
g100
Ntp518
Rp519
(dp520
g104
I0
sg116
g98
(g99
g100
Ntp521
Rp522
(dp523
g104
I1
sg116
g98
(g112
g100
Ntp524
Rp525
(dp526
g116
Nsg117
I00
sg118
S'Hedge_90'
p527
sg107
Nsbsg105
g163
sg124
F160.9123733085766
sg107
g98
(g112
g100
Ntp528
Rp529
(dp530
g116
Nsg117
I00
sg118
S'Flood_Control'
p531
sg107
Nsbsg117
I01
sbsg105
g111
sg124
F628.1148894547823
sg107
g98
(g112
g100
Ntp532
Rp533
(dp534
g116
Nsg117
I00
sg118
g400
sg107
Nsbsg117
I01
sbsg129
(lp535
g519
ag533
ag522
ag529
ag525
asg131
I5
sbag516
ag516
ag516
ag516
ag516
ag516
ag516
a(itree
PTree
p536
(dp537
g97
g98
(g99
g100
Ntp538
Rp539
(dp540
g104
I0
sg116
g98
(g99
g100
Ntp541
Rp542
(dp543
g104
I1
sg116
g98
(g112
g100
Ntp544
Rp545
(dp546
g116
Nsg117
I00
sg118
S'Hedge_90'
p547
sg107
Nsbsg105
g163
sg124
F166.58690090077715
sg107
g98
(g112
g100
Ntp548
Rp549
(dp550
g116
Nsg117
I00
sg118
S'Flood_Control'
p551
sg107
Nsbsg117
I01
sbsg105
g111
sg124
F605.8582010210896
sg107
g98
(g112
g100
Ntp552
Rp553
(dp554
g116
Nsg117
I00
sg118
S'Release_Demand'
p555
sg107
Nsbsg117
I01
sbsg129
(lp556
g539
ag553
ag542
ag549
ag545
asg131
I5
sbag536
ag536
ag536
ag536
ag536
ag536
a(itree
PTree
p557
(dp558
g97
g98
(g99
g100
Ntp559
Rp560
(dp561
g104
I0
sg116
g98
(g99
g100
Ntp562
Rp563
(dp564
g104
I1
sg116
g98
(g112
g100
Ntp565
Rp566
(dp567
g116
Nsg117
I00
sg118
g547
sg107
Nsbsg105
g163
sg124
F151.0493304433988
sg107
g98
(g112
g100
Ntp568
Rp569
(dp570
g116
Nsg117
I00
sg118
g551
sg107
Nsbsg117
I01
sbsg105
g111
sg124
F620.8792100681361
sg107
g98
(g112
g100
Ntp571
Rp572
(dp573
g116
Nsg117
I00
sg118
g555
sg107
Nsbsg117
I01
sbsg129
(lp574
g560
ag572
ag563
ag569
ag566
asg131
I5
sbag557
a(itree
PTree
p575
(dp576
g97
g98
(g99
g100
Ntp577
Rp578
(dp579
g104
I0
sg116
g98
(g99
g100
Ntp580
Rp581
(dp582
g104
I1
sg116
g98
(g112
g100
Ntp583
Rp584
(dp585
g116
Nsg117
I00
sg118
g547
sg107
Nsbsg105
g163
sg124
F126.74758490757948
sg107
g98
(g112
g100
Ntp586
Rp587
(dp588
g116
Nsg117
I00
sg118
g551
sg107
Nsbsg117
I01
sbsg105
g111
sg124
F631.6211229637582
sg107
g98
(g112
g100
Ntp589
Rp590
(dp591
g116
Nsg117
I00
sg118
g555
sg107
Nsbsg117
I01
sbsg129
(lp592
g578
ag590
ag581
ag587
ag584
asg131
I5
sbag575
ag575
ag575
a(itree
PTree
p593
(dp594
g97
g98
(g99
g100
Ntp595
Rp596
(dp597
g104
I0
sg116
g98
(g99
g100
Ntp598
Rp599
(dp600
g104
I1
sg116
g98
(g112
g100
Ntp601
Rp602
(dp603
g116
Nsg117
I00
sg118
g547
sg107
Nsbsg105
g163
sg124
F133.3773598213774
sg107
g98
(g112
g100
Ntp604
Rp605
(dp606
g116
Nsg117
I00
sg118
g551
sg107
Nsbsg117
I01
sbsg105
g111
sg124
F650.4939832711032
sg107
g98
(g112
g100
Ntp607
Rp608
(dp609
g116
Nsg117
I00
sg118
g555
sg107
Nsbsg117
I01
sbsg129
(lp610
g596
ag608
ag599
ag605
ag602
asg131
I5
sba(itree
PTree
p611
(dp612
g97
g98
(g99
g100
Ntp613
Rp614
(dp615
g104
I0
sg116
g98
(g99
g100
Ntp616
Rp617
(dp618
g104
I1
sg116
g98
(g112
g100
Ntp619
Rp620
(dp621
g116
Nsg117
I00
sg118
S'Release_Demand'
p622
sg107
Nsbsg105
g163
sg124
F119.7542794983385
sg107
g98
(g112
g100
Ntp623
Rp624
(dp625
g116
Nsg117
I00
sg118
S'Flood_Control'
p626
sg107
Nsbsg117
I01
sbsg105
g111
sg124
F600.3738661179989
sg107
g98
(g112
g100
Ntp627
Rp628
(dp629
g116
Nsg117
I00
sg118
S'Release_Demand'
p630
sg107
Nsbsg117
I01
sbsg129
(lp631
g614
ag628
ag617
ag624
ag620
asg131
I5
sbag611
ag611
ag611
ag611
ag611
ag611
ag611
ag611
ag611
ag611
ag611
ag611
a(itree
PTree
p632
(dp633
g97
g98
(g99
g100
Ntp634
Rp635
(dp636
g104
I0
sg116
g98
(g99
g100
Ntp637
Rp638
(dp639
g104
I1
sg116
g98
(g112
g100
Ntp640
Rp641
(dp642
g116
Nsg117
I00
sg118
S'Release_Demand'
p643
sg107
Nsbsg105
g163
sg124
F171.28822729379038
sg107
g98
(g112
g100
Ntp644
Rp645
(dp646
g116
Nsg117
I00
sg118
S'Flood_Control'
p647
sg107
Nsbsg117
I01
sbsg105
g111
sg124
F578.2619002160664
sg107
g98
(g112
g100
Ntp648
Rp649
(dp650
g116
Nsg117
I00
sg118
S'Hedge_90'
p651
sg107
Nsbsg117
I01
sbsg129
(lp652
g635
ag649
ag638
ag645
ag641
asg131
I5
sbag632
ag632
ag632
ag632
ag632
ag632
ag632
ag632
a(itree
PTree
p653
(dp654
g97
g98
(g99
g100
Ntp655
Rp656
(dp657
g104
I0
sg116
g98
(g99
g100
Ntp658
Rp659
(dp660
g104
I1
sg116
g98
(g112
g100
Ntp661
Rp662
(dp663
g116
Nsg117
I00
sg118
g643
sg107
Nsbsg105
g163
sg124
F142.29165463899056
sg107
g98
(g112
g100
Ntp664
Rp665
(dp666
g116
Nsg117
I00
sg118
g647
sg107
Nsbsg117
I01
sbsg105
g111
sg124
F614.5496723579762
sg107
g98
(g112
g100
Ntp667
Rp668
(dp669
g116
Nsg117
I00
sg118
g651
sg107
Nsbsg117
I01
sbsg129
(lp670
g656
ag668
ag659
ag665
ag662
asg131
I5
sba(itree
PTree
p671
(dp672
g97
g98
(g99
g100
Ntp673
Rp674
(dp675
g104
I0
sg116
g98
(g99
g100
Ntp676
Rp677
(dp678
g104
I1
sg116
g98
(g112
g100
Ntp679
Rp680
(dp681
g116
Nsg117
I00
sg118
g643
sg107
Nsbsg105
g163
sg124
F131.8362065930528
sg107
g98
(g112
g100
Ntp682
Rp683
(dp684
g116
Nsg117
I00
sg118
g647
sg107
Nsbsg117
I01
sbsg105
g111
sg124
F614.5496723579762
sg107
g98
(g112
g100
Ntp685
Rp686
(dp687
g116
Nsg117
I00
sg118
g651
sg107
Nsbsg117
I01
sbsg129
(lp688
g674
ag686
ag677
ag683
ag680
asg131
I5
sbag671
ag671
ag671
ag671
ag671
ag671
ag671
ag671
ag671
ag671
ag671
ag671
ag671
ag671
ag671
ag671
ag671
ag671
ag671
ag671
ag671
ag671
ag671
ag671
ag671
a(itree
PTree
p689
(dp690
g97
g98
(g99
g100
Ntp691
Rp692
(dp693
g104
I0
sg116
g98
(g99
g100
Ntp694
Rp695
(dp696
g104
I1
sg116
g98
(g112
g100
Ntp697
Rp698
(dp699
g116
Nsg117
I00
sg118
S'Release_Demand'
p700
sg107
Nsbsg105
g163
sg124
F107.30625098359693
sg107
g98
(g112
g100
Ntp701
Rp702
(dp703
g116
Nsg117
I00
sg118
S'Flood_Control'
p704
sg107
Nsbsg117
I01
sbsg105
g111
sg124
F649.4641390270184
sg107
g98
(g112
g100
Ntp705
Rp706
(dp707
g116
Nsg117
I00
sg118
S'Hedge_90'
p708
sg107
Nsbsg117
I01
sbsg129
(lp709
g692
ag706
ag695
ag702
ag698
asg131
I5
sbag689
a(itree
PTree
p710
(dp711
g97
g98
(g99
g100
Ntp712
Rp713
(dp714
g104
I0
sg116
g98
(g99
g100
Ntp715
Rp716
(dp717
g104
I1
sg116
g98
(g112
g100
Ntp718
Rp719
(dp720
g116
Nsg117
I00
sg118
g622
sg107
Nsbsg105
g163
sg124
F116.5352779339238
sg107
g98
(g112
g100
Ntp721
Rp722
(dp723
g116
Nsg117
I00
sg118
S'Flood_Control'
p724
sg107
Nsbsg117
I01
sbsg105
g111
sg124
F594.5235693747677
sg107
g98
(g112
g100
Ntp725
Rp726
(dp727
g116
Nsg117
I00
sg118
S'Hedge_90'
p728
sg107
Nsbsg117
I01
sbsg129
(lp729
g713
ag726
ag716
ag722
ag719
asg131
I5
sbag710
ag710
ag710
ag710
ag710
ag710
ag710
ag710
a(itree
PTree
p730
(dp731
g97
g98
(g99
g100
Ntp732
Rp733
(dp734
g104
I0
sg116
g98
(g99
g100
Ntp735
Rp736
(dp737
g104
I1
sg116
g98
(g112
g100
Ntp738
Rp739
(dp740
g116
Nsg117
I00
sg118
g622
sg107
Nsbsg105
g163
sg124
F116.5352779339238
sg107
g98
(g112
g100
Ntp741
Rp742
(dp743
g116
Nsg117
I00
sg118
g724
sg107
Nsbsg117
I01
sbsg105
g111
sg124
F581.7123141411222
sg107
g98
(g112
g100
Ntp744
Rp745
(dp746
g116
Nsg117
I00
sg118
g728
sg107
Nsbsg117
I01
sbsg129
(lp747
g733
ag745
ag736
ag742
ag739
asg131
I5
sbag730
ag730
ag730
ag730
ag730
ag730
ag730
ag730
ag730
ag730
ag730
ag730
ag730
ag730
ag730
ag730
ag730
ag730
ag730
ag730
ag730
a(itree
PTree
p748
(dp749
g97
g98
(g99
g100
Ntp750
Rp751
(dp752
g104
I3
sg116
g98
(g112
g100
Ntp753
Rp754
(dp755
g116
Nsg117
I00
sg118
S'Hedge_60'
p756
sg107
Nsbsg105
g106
sg124
F272.9000084240024
sg107
g98
(g99
g100
Ntp757
Rp758
(dp759
g104
I0
sg116
g98
(g99
g100
Ntp760
Rp761
(dp762
g104
I1
sg116
g98
(g112
g100
Ntp763
Rp764
(dp765
g116
Nsg117
I00
sg118
S'Release_Demand'
p766
sg107
Nsbsg105
g163
sg124
F113.47632311873608
sg107
g98
(g112
g100
Ntp767
Rp768
(dp769
g116
Nsg117
I00
sg118
S'Flood_Control'
p770
sg107
Nsbsg117
I01
sbsg105
g111
sg124
F570.4695422953954
sg107
g98
(g112
g100
Ntp771
Rp772
(dp773
g116
Nsg117
I00
sg118
S'Hedge_90'
p774
sg107
Nsbsg117
I01
sbsg117
I01
sbsg129
(lp775
g751
ag758
ag772
ag761
ag768
ag764
ag754
asg131
I7
sbag748
ag748
ag748
ag748
ag748
ag748
ag748
ag748
ag748
ag748
ag748
ag748
ag748
ag748
ag748
ag748
ag748
ag748
ag748
ag748
ag748
a(itree
PTree
p776
(dp777
g97
g98
(g99
g100
Ntp778
Rp779
(dp780
g104
I3
sg116
g98
(g112
g100
Ntp781
Rp782
(dp783
g116
Nsg117
I00
sg118
g756
sg107
Nsbsg105
g106
sg124
F272.9000084240024
sg107
g98
(g99
g100
Ntp784
Rp785
(dp786
g104
I0
sg116
g98
(g99
g100
Ntp787
Rp788
(dp789
g104
I1
sg116
g98
(g112
g100
Ntp790
Rp791
(dp792
g116
Nsg117
I00
sg118
g766
sg107
Nsbsg105
g163
sg124
F107.0669207747096
sg107
g98
(g112
g100
Ntp793
Rp794
(dp795
g116
Nsg117
I00
sg118
g770
sg107
Nsbsg117
I01
sbsg105
g111
sg124
F570.4695422953954
sg107
g98
(g112
g100
Ntp796
Rp797
(dp798
g116
Nsg117
I00
sg118
g774
sg107
Nsbsg117
I01
sbsg117
I01
sbsg129
(lp799
g779
ag785
ag797
ag788
ag794
ag791
ag782
asg131
I7
sbag776
ag776
ag776
ag776
ag776
ag776
ag776
ag776
ag776
ag776
ag776
ag776
ag776
ag776
ag776
ag776
ag776
ag776
ag776
ag776
ag776
ag776
ag776
ag776
ag776
ag776
ag776
asS'time'
p800
(lp801
I339
aI518
aI685
aI848
aI1018
aI1190
aI1356
aI1526
aI1692
aI1863
aI2026
aI2190
aI2365
aI2531
aI2700
aI2867
aI3031
aI3197
aI3365
aI3542
aI3710
aI3873
aI4043
aI4211
aI4380
aI4548
aI4721
aI4890
aI5061
aI5230
aI5398
aI5565
aI5736
aI5909
aI6073
aI6245
aI6415
aI6582
aI6743
aI6910
aI7077
aI7244
aI7420
aI7582
aI7746
aI7913
aI8083
aI8249
aI8419
aI8585
aI8752
aI8915
aI9085
aI9254
aI9425
aI9592
aI9758
aI9928
aI10097
aI10265
aI10436
aI10605
aI10774
aI10944
aI11110
aI11277
aI11451
aI11618
aI11791
aI11962
aI12131
aI12301
aI12471
aI12644
aI12811
aI12983
aI13154
aI13326
aI13504
aI13671
aI13839
aI14007
aI14187
aI14356
aI14521
aI14695
aI14866
aI15039
aI15210
aI15379
aI15551
aI15722
aI15894
aI16069
aI16239
aI16410
aI16579
aI16747
aI16914
aI17084
aI17260
aI17431
aI17601
aI17776
aI17949
aI18118
aI18285
aI18456
aI18630
aI18798
aI18970
aI19139
aI19306
aI19475
aI19644
aI19812
aI19983
aI20149
aI20321
aI20488
aI20667
aI20839
aI21010
aI21179
aI21346
aI21517
aI21689
aI21862
aI22037
aI22209
aI22376
aI22548
aI22719
aI22886
aI23056
aI23227
aI23397
aI23567
aI23739
aI23911
aI24084
aI24254
aI24426
aI24592
aI24763
aI24932
aI25103
aI25274
aI25446
aI25618
aI25786
aI25955
aI26126
aI26297
aI26471
aI26640
aI26811
aI26983
aI27153
aI27322
aI27490
aI27660
aI27831
aI28003
aI28173
aI28344
aI28512
aI28687
aI28860
aI29031
aI29198
aI29368
aI29535
aI29706
aI29873
aI30046
aI30218
aI30387
aI30558
aI30733
aI30900
aI31072
aI31240
aI31409
aI31584
aI31756
aI31930
aI32100
aI32271
aI32443
aI32617
aI32784
aI32954
aI33097
aI33237
aI33373
aI33511
aI33650
aI33786
aI33922
as.