(dp0
S'nfe'
p1
(lp2
I50
aI100
aI150
aI200
aI250
aI300
aI350
aI400
aI450
aI500
aI550
aI600
aI650
aI700
aI750
aI800
aI850
aI900
aI950
aI1000
aI1050
aI1100
aI1150
aI1200
aI1250
aI1300
aI1350
aI1400
aI1450
aI1500
aI1550
aI1600
aI1650
aI1700
aI1750
aI1800
aI1850
aI1900
aI1950
aI2000
aI2050
aI2100
aI2150
aI2200
aI2250
aI2300
aI2350
aI2400
aI2450
aI2500
aI2550
aI2600
aI2650
aI2700
aI2750
aI2800
aI2850
aI2900
aI2950
aI3000
aI3050
aI3100
aI3150
aI3200
aI3250
aI3300
aI3350
aI3400
aI3450
aI3500
aI3550
aI3600
aI3650
aI3700
aI3750
aI3800
aI3850
aI3900
aI3950
aI4000
aI4050
aI4100
aI4150
aI4200
aI4250
aI4300
aI4350
aI4400
aI4450
aI4500
aI4550
aI4600
aI4650
aI4700
aI4750
aI4800
aI4850
aI4900
aI4950
aI5000
aI5050
aI5100
aI5150
aI5200
aI5250
aI5300
aI5350
aI5400
aI5450
aI5500
aI5550
aI5600
aI5650
aI5700
aI5750
aI5800
aI5850
aI5900
aI5950
aI6000
aI6050
aI6100
aI6150
aI6200
aI6250
aI6300
aI6350
aI6400
aI6450
aI6500
aI6550
aI6600
aI6650
aI6700
aI6750
aI6800
aI6850
aI6900
aI6950
aI7000
aI7050
aI7100
aI7150
aI7200
aI7250
aI7300
aI7350
aI7400
aI7450
aI7500
aI7550
aI7600
aI7650
aI7700
aI7750
aI7800
aI7850
aI7900
aI7950
aI8000
aI8050
aI8100
aI8150
aI8200
aI8250
aI8300
aI8350
aI8400
aI8450
aI8500
aI8550
aI8600
aI8650
aI8700
aI8750
aI8800
aI8850
aI8900
aI8950
aI9000
aI9050
aI9100
aI9150
aI9200
aI9250
aI9300
aI9350
aI9400
aI9450
aI9500
aI9550
aI9600
aI9650
aI9700
aI9750
aI9800
aI9850
aI9900
aI9950
aI10000
asS'best_f'
p3
(lp4
cnumpy.core.multiarray
scalar
p5
(cnumpy
dtype
p6
(S'f8'
p7
I0
I1
tp8
Rp9
(I3
S'<'
p10
NNNI-1
I-1
I0
tp11
bS'\xd0\xc75\xd9A\x13\xf2?'
p12
tp13
Rp14
ag14
ag14
ag14
ag14
ag14
ag14
ag14
ag14
ag14
ag14
ag14
ag14
ag14
ag14
ag5
(g9
S'\xd4\xba\x1e\x81\x05\xe4\xf0?'
p15
tp16
Rp17
ag17
ag17
ag17
ag17
ag17
ag17
ag17
ag17
ag17
ag17
ag17
ag5
(g9
S'\x08z\x152\x16\x8f\xe8?'
p18
tp19
Rp20
ag20
ag20
ag20
ag20
ag5
(g9
S'[P2\xd61\xad\xe6?'
p21
tp22
Rp23
ag23
ag5
(g9
S'\xc9\xb2\xa7\xe4\x82\\\xe4?'
p24
tp25
Rp26
ag26
ag26
ag26
ag5
(g9
S'\x91\xbd\x02\xfd`I\xe2?'
p27
tp28
Rp29
ag29
ag5
(g9
S'I\xc7q\x8d\xdbf\xe1?'
p30
tp31
Rp32
ag32
ag32
ag32
ag32
ag32
ag32
ag32
ag32
ag32
ag32
ag32
ag32
ag32
ag32
ag32
ag32
ag5
(g9
S'\xe1\xc1(6\xd3\x94\xdf?'
p33
tp34
Rp35
ag35
ag35
ag35
ag35
ag35
ag35
ag35
ag5
(g9
S'\x86\x02\xd0\x93W\x82\xde?'
p36
tp37
Rp38
ag38
ag38
ag38
ag38
ag38
ag38
ag38
ag38
ag38
ag38
ag38
ag38
ag38
ag38
ag38
ag5
(g9
S'9\xc5\x1e\xde\xc02\xde?'
p39
tp40
Rp41
ag41
ag41
ag41
ag41
ag41
ag41
ag41
ag41
ag41
ag41
ag41
ag41
ag41
ag41
ag41
ag41
ag41
ag41
ag41
ag41
ag41
ag41
ag41
ag41
ag41
ag41
ag41
ag41
ag41
ag41
ag41
ag5
(g9
S'5\xbd\xe5\xa0y\x17\xde?'
p42
tp43
Rp44
ag44
ag5
(g9
S'\xa5l\x023\x12\x16\xde?'
p45
tp46
Rp47
ag47
ag5
(g9
S'Q\xc6\xb1\xe4l\xdd\xdd?'
p48
tp49
Rp50
ag50
ag50
ag50
ag50
ag50
ag5
(g9
S'\x9d\xfd\xd1\xe8b\xac\xdd?'
p51
tp52
Rp53
ag53
ag53
ag53
ag53
ag53
ag53
ag53
ag53
ag53
ag53
ag53
ag53
ag53
ag53
ag53
ag53
ag53
ag53
ag53
ag53
ag53
ag53
ag53
ag53
ag53
ag53
ag53
ag53
ag53
ag53
ag53
ag53
ag53
ag53
ag53
ag53
ag53
ag53
ag53
ag53
ag53
ag53
ag53
ag53
ag53
ag53
ag53
ag53
ag53
ag53
ag53
ag53
ag53
ag53
ag53
ag53
ag53
ag53
ag53
ag53
ag53
ag53
ag53
ag53
ag53
ag53
ag53
ag53
ag53
ag53
ag53
ag53
ag53
ag53
ag53
ag53
asS'best_P'
p54
(lp55
(itree
PTree
p56
(dp57
S'root'
p58
ccopy_reg
_reconstructor
p59
(ctree
Feature
p60
c__builtin__
object
p61
Ntp62
Rp63
(dp64
S'index'
p65
I1
sS'name'
p66
S'Day'
p67
sS'l'
p68
g59
(g60
g61
Ntp69
Rp70
(dp71
g65
I0
sg66
S'Storage'
p72
sg68
g59
(ctree
Action
p73
g61
Ntp74
Rp75
(dp76
S'r'
p77
NsS'is_feature'
p78
I00
sS'value'
p79
S'Hedge_80'
p80
sg68
Nsbsg77
g59
(g60
g61
Ntp81
Rp82
(dp83
g65
I2
sg66
S'AnnQ'
p84
sg68
g59
(g73
g61
Ntp85
Rp86
(dp87
g77
Nsg78
I00
sg79
S'Flood_Control'
p88
sg68
Nsbsg77
g59
(g73
g61
Ntp89
Rp90
(dp91
g77
Nsg78
I00
sg79
S'Hedge_50'
p92
sg68
NsbsS'threshold'
p93
F2982.663795745142
sg78
I01
sbsg93
F829.6033593941836
sg78
I01
sbsg77
g59
(g73
g61
Ntp94
Rp95
(dp96
g77
Nsg78
I00
sg79
S'Hedge_70'
p97
sg68
Nsbsg93
F320.00565143575795
sg78
I01
sbsS'L'
p98
(lp99
g63
ag70
ag75
ag82
ag86
ag90
ag95
asS'N'
p100
I7
sbag56
ag56
ag56
ag56
ag56
ag56
ag56
ag56
ag56
ag56
ag56
ag56
ag56
ag56
a(itree
PTree
p101
(dp102
g58
g59
(g60
g61
Ntp103
Rp104
(dp105
g65
I1
sg77
g59
(g73
g61
Ntp106
Rp107
(dp108
g77
Nsg78
I00
sg79
S'Hedge_80'
p109
sg68
Nsbsg66
g67
sg93
F261.42084733463884
sg68
g59
(g60
g61
Ntp110
Rp111
(dp112
g65
I0
sg77
g59
(g73
g61
Ntp113
Rp114
(dp115
g77
Nsg78
I00
sg79
S'Flood_Control'
p116
sg68
Nsbsg66
g72
sg93
F820.4705142731217
sg68
g59
(g73
g61
Ntp117
Rp118
(dp119
g77
Nsg78
I00
sg79
S'Hedge_80'
p120
sg68
Nsbsg78
I01
sbsg78
I01
sbsg98
(lp121
g104
ag111
ag118
ag114
ag107
asg100
I5
sbag101
ag101
ag101
ag101
ag101
ag101
ag101
ag101
ag101
ag101
ag101
a(itree
PTree
p122
(dp123
g58
g59
(g60
g61
Ntp124
Rp125
(dp126
g65
I1
sg77
g59
(g73
g61
Ntp127
Rp128
(dp129
g77
Nsg78
I00
sg79
S'Hedge_90'
p130
sg68
Nsbsg66
g67
sg93
F208.53532868410554
sg68
g59
(g60
g61
Ntp131
Rp132
(dp133
g65
I0
sg77
g59
(g60
g61
Ntp134
Rp135
(dp136
g65
I0
sg77
g59
(g73
g61
Ntp137
Rp138
(dp139
g77
Nsg78
I00
sg79
S'Flood_Control'
p140
sg68
Nsbsg66
g72
sg93
F777.4961447939668
sg68
g59
(g73
g61
Ntp141
Rp142
(dp143
g77
Nsg78
I00
sg79
S'Hedge_80'
p144
sg68
Nsbsg78
I01
sbsg66
g72
sg93
F344.93079716659435
sg68
g59
(g73
g61
Ntp145
Rp146
(dp147
g77
Nsg78
I00
sg79
S'Hedge_70'
p148
sg68
Nsbsg78
I01
sbsg78
I01
sbsg98
(lp149
g125
ag132
ag146
ag135
ag142
ag138
ag128
asg100
I7
sbag122
ag122
ag122
ag122
a(itree
PTree
p150
(dp151
g58
g59
(g60
g61
Ntp152
Rp153
(dp154
g65
I1
sg77
g59
(g73
g61
Ntp155
Rp156
(dp157
g77
Nsg78
I00
sg79
g130
sg68
Nsbsg66
g67
sg93
F199.12001765671687
sg68
g59
(g60
g61
Ntp158
Rp159
(dp160
g65
I0
sg77
g59
(g60
g61
Ntp161
Rp162
(dp163
g65
I0
sg77
g59
(g73
g61
Ntp164
Rp165
(dp166
g77
Nsg78
I00
sg79
g140
sg68
Nsbsg66
g72
sg93
F762.7554715006313
sg68
g59
(g73
g61
Ntp167
Rp168
(dp169
g77
Nsg78
I00
sg79
g144
sg68
Nsbsg78
I01
sbsg66
g72
sg93
F425.4334835331578
sg68
g59
(g73
g61
Ntp170
Rp171
(dp172
g77
Nsg78
I00
sg79
g148
sg68
Nsbsg78
I01
sbsg78
I01
sbsg98
(lp173
g153
ag159
ag171
ag162
ag168
ag165
ag156
asg100
I7
sbag150
a(itree
PTree
p174
(dp175
g58
g59
(g60
g61
Ntp176
Rp177
(dp178
g65
I1
sg77
g59
(g73
g61
Ntp179
Rp180
(dp181
g77
Nsg78
I00
sg79
g130
sg68
Nsbsg66
g67
sg93
F168.0178598376052
sg68
g59
(g60
g61
Ntp182
Rp183
(dp184
g65
I0
sg77
g59
(g60
g61
Ntp185
Rp186
(dp187
g65
I0
sg77
g59
(g73
g61
Ntp188
Rp189
(dp190
g77
Nsg78
I00
sg79
g140
sg68
Nsbsg66
g72
sg93
F754.1124405218334
sg68
g59
(g73
g61
Ntp191
Rp192
(dp193
g77
Nsg78
I00
sg79
g144
sg68
Nsbsg78
I01
sbsg66
g72
sg93
F424.48869723693986
sg68
g59
(g73
g61
Ntp194
Rp195
(dp196
g77
Nsg78
I00
sg79
g148
sg68
Nsbsg78
I01
sbsg78
I01
sbsg98
(lp197
g177
ag183
ag195
ag186
ag192
ag189
ag180
asg100
I7
sbag174
ag174
ag174
a(itree
PTree
p198
(dp199
g58
g59
(g60
g61
Ntp200
Rp201
(dp202
g65
I1
sg77
g59
(g73
g61
Ntp203
Rp204
(dp205
g77
Nsg78
I00
sg79
S'Hedge_90'
p206
sg68
Nsbsg66
g67
sg93
F145.24013317057424
sg68
g59
(g60
g61
Ntp207
Rp208
(dp209
g65
I0
sg77
g59
(g73
g61
Ntp210
Rp211
(dp212
g77
Nsg78
I00
sg79
S'Flood_Control'
p213
sg68
Nsbsg66
g72
sg93
F644.8967851393489
sg68
g59
(g73
g61
Ntp214
Rp215
(dp216
g77
Nsg78
I00
sg79
S'Hedge_80'
p217
sg68
Nsbsg78
I01
sbsg78
I01
sbsg98
(lp218
g201
ag208
ag215
ag211
ag204
asg100
I5
sbag198
a(itree
PTree
p219
(dp220
g58
g59
(g60
g61
Ntp221
Rp222
(dp223
g65
I1
sg77
g59
(g73
g61
Ntp224
Rp225
(dp226
g77
Nsg78
I00
sg79
g206
sg68
Nsbsg66
g67
sg93
F145.24013317057424
sg68
g59
(g60
g61
Ntp227
Rp228
(dp229
g65
I0
sg77
g59
(g73
g61
Ntp230
Rp231
(dp232
g77
Nsg78
I00
sg79
g213
sg68
Nsbsg66
g72
sg93
F813.3896262952035
sg68
g59
(g73
g61
Ntp233
Rp234
(dp235
g77
Nsg78
I00
sg79
g217
sg68
Nsbsg78
I01
sbsg78
I01
sbsg98
(lp236
g222
ag228
ag234
ag231
ag225
asg100
I5
sbag219
ag219
ag219
ag219
ag219
ag219
ag219
ag219
ag219
ag219
ag219
ag219
ag219
ag219
ag219
ag219
a(itree
PTree
p237
(dp238
g58
g59
(g60
g61
Ntp239
Rp240
(dp241
g65
I1
sg77
g59
(g73
g61
Ntp242
Rp243
(dp244
g77
Nsg78
I00
sg79
S'Hedge_90'
p245
sg68
Nsbsg66
g67
sg93
F144.4155144734393
sg68
g59
(g60
g61
Ntp246
Rp247
(dp248
g65
I0
sg77
g59
(g60
g61
Ntp249
Rp250
(dp251
g65
I0
sg77
g59
(g73
g61
Ntp252
Rp253
(dp254
g77
Nsg78
I00
sg79
S'Flood_Control'
p255
sg68
Nsbsg66
g72
sg93
F773.4860487887249
sg68
g59
(g73
g61
Ntp256
Rp257
(dp258
g77
Nsg78
I00
sg79
S'Release_Demand'
p259
sg68
Nsbsg78
I01
sbsg66
g72
sg93
F95.16301897816035
sg68
g59
(g73
g61
Ntp260
Rp261
(dp262
g77
Nsg78
I00
sg79
S'Hedge_90'
p263
sg68
Nsbsg78
I01
sbsg78
I01
sbsg98
(lp264
g240
ag247
ag261
ag250
ag257
ag253
ag243
asg100
I7
sbag237
ag237
ag237
ag237
ag237
ag237
ag237
a(itree
PTree
p265
(dp266
g58
g59
(g60
g61
Ntp267
Rp268
(dp269
g65
I1
sg77
g59
(g73
g61
Ntp270
Rp271
(dp272
g77
Nsg78
I00
sg79
S'Hedge_90'
p273
sg68
Nsbsg66
g67
sg93
F148.8593730633562
sg68
g59
(g60
g61
Ntp274
Rp275
(dp276
g65
I0
sg77
g59
(g60
g61
Ntp277
Rp278
(dp279
g65
I0
sg77
g59
(g73
g61
Ntp280
Rp281
(dp282
g77
Nsg78
I00
sg79
S'Flood_Control'
p283
sg68
Nsbsg66
g72
sg93
F724.690269713084
sg68
g59
(g73
g61
Ntp284
Rp285
(dp286
g77
Nsg78
I00
sg79
S'Hedge_90'
p287
sg68
Nsbsg78
I01
sbsg66
g72
sg93
F96.2325691805
sg68
g59
(g73
g61
Ntp288
Rp289
(dp290
g77
Nsg78
I00
sg79
S'Hedge_80'
p291
sg68
Nsbsg78
I01
sbsg78
I01
sbsg98
(lp292
g268
ag275
ag289
ag278
ag285
ag281
ag271
asg100
I7
sbag265
ag265
ag265
ag265
ag265
ag265
ag265
ag265
ag265
ag265
ag265
ag265
ag265
ag265
ag265
a(itree
PTree
p293
(dp294
g58
g59
(g60
g61
Ntp295
Rp296
(dp297
g65
I1
sg77
g59
(g73
g61
Ntp298
Rp299
(dp300
g77
Nsg78
I00
sg79
g273
sg68
Nsbsg66
g67
sg93
F142.7425144626909
sg68
g59
(g60
g61
Ntp301
Rp302
(dp303
g65
I0
sg77
g59
(g60
g61
Ntp304
Rp305
(dp306
g65
I0
sg77
g59
(g73
g61
Ntp307
Rp308
(dp309
g77
Nsg78
I00
sg79
g283
sg68
Nsbsg66
g72
sg93
F687.0438581489917
sg68
g59
(g73
g61
Ntp310
Rp311
(dp312
g77
Nsg78
I00
sg79
g287
sg68
Nsbsg78
I01
sbsg66
g72
sg93
F49.48998653725141
sg68
g59
(g73
g61
Ntp313
Rp314
(dp315
g77
Nsg78
I00
sg79
g291
sg68
Nsbsg78
I01
sbsg78
I01
sbsg98
(lp316
g296
ag302
ag314
ag305
ag311
ag308
ag299
asg100
I7
sbag293
ag293
ag293
ag293
ag293
ag293
ag293
ag293
ag293
ag293
ag293
ag293
ag293
ag293
ag293
ag293
ag293
ag293
ag293
ag293
ag293
ag293
ag293
ag293
ag293
ag293
ag293
ag293
ag293
ag293
ag293
a(itree
PTree
p317
(dp318
g58
g59
(g60
g61
Ntp319
Rp320
(dp321
g65
I1
sg77
g59
(g73
g61
Ntp322
Rp323
(dp324
g77
Nsg78
I00
sg79
g245
sg68
Nsbsg66
g67
sg93
F132.37218367679574
sg68
g59
(g60
g61
Ntp325
Rp326
(dp327
g65
I0
sg77
g59
(g60
g61
Ntp328
Rp329
(dp330
g65
I0
sg77
g59
(g73
g61
Ntp331
Rp332
(dp333
g77
Nsg78
I00
sg79
g255
sg68
Nsbsg66
g72
sg93
F690.7010961529087
sg68
g59
(g73
g61
Ntp334
Rp335
(dp336
g77
Nsg78
I00
sg79
g259
sg68
Nsbsg78
I01
sbsg66
g72
sg93
F326.0496163969411
sg68
g59
(g73
g61
Ntp337
Rp338
(dp339
g77
Nsg78
I00
sg79
g263
sg68
Nsbsg78
I01
sbsg78
I01
sbsg98
(lp340
g320
ag326
ag338
ag329
ag335
ag332
ag323
asg100
I7
sbag317
a(itree
PTree
p341
(dp342
g58
g59
(g60
g61
Ntp343
Rp344
(dp345
g65
I1
sg77
g59
(g73
g61
Ntp346
Rp347
(dp348
g77
Nsg78
I00
sg79
g245
sg68
Nsbsg66
g67
sg93
F143.96052255051035
sg68
g59
(g60
g61
Ntp349
Rp350
(dp351
g65
I0
sg77
g59
(g60
g61
Ntp352
Rp353
(dp354
g65
I0
sg77
g59
(g73
g61
Ntp355
Rp356
(dp357
g77
Nsg78
I00
sg79
g255
sg68
Nsbsg66
g72
sg93
F689.2027776588034
sg68
g59
(g73
g61
Ntp358
Rp359
(dp360
g77
Nsg78
I00
sg79
g259
sg68
Nsbsg78
I01
sbsg66
g72
sg93
F391.20224396514305
sg68
g59
(g73
g61
Ntp361
Rp362
(dp363
g77
Nsg78
I00
sg79
g263
sg68
Nsbsg78
I01
sbsg78
I01
sbsg98
(lp364
g344
ag350
ag362
ag353
ag359
ag356
ag347
asg100
I7
sbag341
a(itree
PTree
p365
(dp366
g58
g59
(g60
g61
Ntp367
Rp368
(dp369
g65
I1
sg77
g59
(g73
g61
Ntp370
Rp371
(dp372
g77
Nsg78
I00
sg79
g245
sg68
Nsbsg66
g67
sg93
F143.96052255051035
sg68
g59
(g60
g61
Ntp373
Rp374
(dp375
g65
I0
sg77
g59
(g60
g61
Ntp376
Rp377
(dp378
g65
I0
sg77
g59
(g73
g61
Ntp379
Rp380
(dp381
g77
Nsg78
I00
sg79
g255
sg68
Nsbsg66
g72
sg93
F751.2891353394708
sg68
g59
(g73
g61
Ntp382
Rp383
(dp384
g77
Nsg78
I00
sg79
g259
sg68
Nsbsg78
I01
sbsg66
g72
sg93
F420.72237118363415
sg68
g59
(g73
g61
Ntp385
Rp386
(dp387
g77
Nsg78
I00
sg79
g263
sg68
Nsbsg78
I01
sbsg78
I01
sbsg98
(lp388
g368
ag374
ag386
ag377
ag383
ag380
ag371
asg100
I7
sbag365
ag365
ag365
ag365
ag365
a(itree
PTree
p389
(dp390
g58
g59
(g60
g61
Ntp391
Rp392
(dp393
g65
I1
sg77
g59
(g73
g61
Ntp394
Rp395
(dp396
g77
Nsg78
I00
sg79
g245
sg68
Nsbsg66
g67
sg93
F134.22290968082882
sg68
g59
(g60
g61
Ntp397
Rp398
(dp399
g65
I0
sg77
g59
(g60
g61
Ntp400
Rp401
(dp402
g65
I0
sg77
g59
(g73
g61
Ntp403
Rp404
(dp405
g77
Nsg78
I00
sg79
g255
sg68
Nsbsg66
g72
sg93
F751.2891353394708
sg68
g59
(g73
g61
Ntp406
Rp407
(dp408
g77
Nsg78
I00
sg79
g259
sg68
Nsbsg78
I01
sbsg66
g72
sg93
F502.44825785827464
sg68
g59
(g73
g61
Ntp409
Rp410
(dp411
g77
Nsg78
I00
sg79
g263
sg68
Nsbsg78
I01
sbsg78
I01
sbsg98
(lp412
g392
ag398
ag410
ag401
ag407
ag404
ag395
asg100
I7
sbag389
ag389
ag389
ag389
ag389
ag389
ag389
ag389
ag389
ag389
ag389
ag389
ag389
ag389
ag389
ag389
ag389
ag389
ag389
ag389
ag389
ag389
ag389
ag389
ag389
ag389
ag389
ag389
ag389
ag389
ag389
ag389
ag389
ag389
ag389
ag389
ag389
ag389
ag389
ag389
ag389
ag389
ag389
ag389
ag389
ag389
ag389
ag389
ag389
ag389
ag389
ag389
ag389
ag389
ag389
ag389
ag389
ag389
ag389
ag389
ag389
ag389
ag389
ag389
ag389
ag389
ag389
ag389
ag389
ag389
ag389
ag389
ag389
ag389
ag389
ag389
asS'time'
p413
(lp414
I326
aI488
aI651
aI822
aI987
aI1156
aI1325
aI1495
aI1671
aI1837
aI2006
aI2176
aI2341
aI2507
aI2674
aI2845
aI3011
aI3180
aI3348
aI3516
aI3688
aI3858
aI4026
aI4193
aI4361
aI4527
aI4695
aI4863
aI5035
aI5206
aI5374
aI5547
aI5708
aI5871
aI6034
aI6198
aI6363
aI6530
aI6706
aI6868
aI7040
aI7202
aI7369
aI7544
aI7706
aI7875
aI8040
aI8201
aI8375
aI8540
aI8710
aI8874
aI9037
aI9207
aI9370
aI9541
aI9707
aI9873
aI10043
aI10205
aI10371
aI10543
aI10712
aI10881
aI11052
aI11219
aI11387
aI11553
aI11716
aI11881
aI12046
aI12207
aI12369
aI12534
aI12697
aI12862
aI13025
aI13190
aI13358
aI13527
aI13694
aI13856
aI14023
aI14191
aI14353
aI14521
aI14686
aI14851
aI15020
aI15191
aI15357
aI15530
aI15700
aI15872
aI16039
aI16205
aI16374
aI16537
aI16702
aI16869
aI17036
aI17201
aI17370
aI17540
aI17708
aI17879
aI18046
aI18213
aI18381
aI18553
aI18727
aI18894
aI19058
aI19229
aI19394
aI19561
aI19733
aI19900
aI20064
aI20230
aI20399
aI20567
aI20730
aI20900
aI21069
aI21242
aI21405
aI21576
aI21743
aI21913
aI22079
aI22246
aI22417
aI22586
aI22750
aI22917
aI23083
aI23249
aI23412
aI23576
aI23743
aI23909
aI24077
aI24244
aI24431
aI24599
aI24769
aI24935
aI25102
aI25274
aI25444
aI25614
aI25785
aI25954
aI26119
aI26278
aI26447
aI26611
aI26777
aI26944
aI27113
aI27283
aI27454
aI27620
aI27789
aI27951
aI28119
aI28281
aI28447
aI28613
aI28776
aI28943
aI29112
aI29281
aI29450
aI29621
aI29788
aI29952
aI30119
aI30286
aI30450
aI30620
aI30785
aI30954
aI31122
aI31283
aI31452
aI31612
aI31766
aI31921
aI32080
aI32240
aI32394
aI32543
aI32692
aI32843
aI32982
aI33114
aI33237
aI33365
as.