(dp0
S'nfe'
p1
(lp2
I50
aI100
aI150
aI200
aI250
aI300
aI350
aI400
aI450
aI500
aI550
aI600
aI650
aI700
aI750
aI800
aI850
aI900
aI950
aI1000
aI1050
aI1100
aI1150
aI1200
aI1250
aI1300
aI1350
aI1400
aI1450
aI1500
aI1550
aI1600
aI1650
aI1700
aI1750
aI1800
aI1850
aI1900
aI1950
aI2000
aI2050
aI2100
aI2150
aI2200
aI2250
aI2300
aI2350
aI2400
aI2450
aI2500
aI2550
aI2600
aI2650
aI2700
aI2750
aI2800
aI2850
aI2900
aI2950
aI3000
aI3050
aI3100
aI3150
aI3200
aI3250
aI3300
aI3350
aI3400
aI3450
aI3500
aI3550
aI3600
aI3650
aI3700
aI3750
aI3800
aI3850
aI3900
aI3950
aI4000
aI4050
aI4100
aI4150
aI4200
aI4250
aI4300
aI4350
aI4400
aI4450
aI4500
aI4550
aI4600
aI4650
aI4700
aI4750
aI4800
aI4850
aI4900
aI4950
aI5000
aI5050
aI5100
aI5150
aI5200
aI5250
aI5300
aI5350
aI5400
aI5450
aI5500
aI5550
aI5600
aI5650
aI5700
aI5750
aI5800
aI5850
aI5900
aI5950
aI6000
aI6050
aI6100
aI6150
aI6200
aI6250
aI6300
aI6350
aI6400
aI6450
aI6500
aI6550
aI6600
aI6650
aI6700
aI6750
aI6800
aI6850
aI6900
aI6950
aI7000
aI7050
aI7100
aI7150
aI7200
aI7250
aI7300
aI7350
aI7400
aI7450
aI7500
aI7550
aI7600
aI7650
aI7700
aI7750
aI7800
aI7850
aI7900
aI7950
aI8000
aI8050
aI8100
aI8150
aI8200
aI8250
aI8300
aI8350
aI8400
aI8450
aI8500
aI8550
aI8600
aI8650
aI8700
aI8750
aI8800
aI8850
aI8900
aI8950
aI9000
aI9050
aI9100
aI9150
aI9200
aI9250
aI9300
aI9350
aI9400
aI9450
aI9500
aI9550
aI9600
aI9650
aI9700
aI9750
aI9800
aI9850
aI9900
aI9950
aI10000
asS'best_f'
p3
(lp4
cnumpy.core.multiarray
scalar
p5
(cnumpy
dtype
p6
(S'f8'
p7
I0
I1
tp8
Rp9
(I3
S'<'
p10
NNNI-1
I-1
I0
tp11
bS'z`\x97^\x1b\xeb\nA'
p12
tp13
Rp14
ag5
(g9
S'\x07\xa0\xa5[\x13\xeb\nA'
p15
tp16
Rp17
ag17
ag17
ag17
ag5
(g9
S"\x9b\xce\x8a'\x13\xeb\nA"
p18
tp19
Rp20
ag20
ag20
ag20
ag20
ag20
ag20
ag20
ag20
ag20
ag20
ag5
(g9
S'\x01f\xf9\xb4\xf8\xea\nA'
p21
tp22
Rp23
ag5
(g9
S'\x01\xe5\x8b\x93\xf4\xea\nA'
p24
tp25
Rp26
ag5
(g9
S'\xfa\xb2\xc5C\xee\xea\nA'
p27
tp28
Rp29
ag29
ag29
ag5
(g9
S'\x0f\x99\xa1=\xea\xea\nA'
p30
tp31
Rp32
ag32
ag32
ag5
(g9
S'\xc9P#\x9b\xe6\xea\nA'
p33
tp34
Rp35
ag35
ag5
(g9
S'\x16\xdd\xdb\xfa\xe5\xea\nA'
p36
tp37
Rp38
ag5
(g9
S'\x9fb\xeeW\xe5\xea\nA'
p39
tp40
Rp41
ag41
ag41
ag41
ag5
(g9
S'g\xe6\xa8A\xe5\xea\nA'
p42
tp43
Rp44
ag44
ag44
ag5
(g9
S"'\xe4\x90?\xe5\xea\nA"
p45
tp46
Rp47
ag47
ag5
(g9
S'\x02\xae\xeb\x91\xe4\xea\nA'
p48
tp49
Rp50
ag50
ag5
(g9
S'M\xea\xe9\x86\xe4\xea\nA'
p51
tp52
Rp53
ag53
ag53
ag53
ag53
ag53
ag53
ag53
ag53
ag53
ag53
ag53
ag53
ag53
ag53
ag53
ag53
ag53
ag53
ag53
ag53
ag53
ag53
ag53
ag53
ag53
ag53
ag53
ag53
ag53
ag53
ag53
ag53
ag5
(g9
S'\xd8s\xe9^\xe4\xea\nA'
p54
tp55
Rp56
ag56
ag56
ag56
ag56
ag56
ag56
ag56
ag56
ag56
ag56
ag56
ag56
ag56
ag56
ag56
ag56
ag56
ag56
ag56
ag56
ag56
ag56
ag56
ag56
ag56
ag56
ag56
ag56
ag56
ag56
ag56
ag56
ag56
ag56
ag56
ag56
ag5
(g9
S'[\x15\xe7N\xe4\xea\nA'
p57
tp58
Rp59
ag59
ag59
ag59
ag59
ag59
ag59
ag59
ag59
ag59
ag59
ag59
ag59
ag59
ag59
ag59
ag59
ag59
ag59
ag59
ag59
ag59
ag59
ag59
ag59
ag59
ag59
ag59
ag59
ag59
ag59
ag59
ag59
ag59
ag59
ag59
ag59
ag59
ag59
ag59
ag59
ag59
ag59
ag59
ag59
ag59
ag59
ag59
ag59
ag59
ag59
ag59
ag59
ag59
ag59
ag59
ag59
ag59
ag59
ag59
ag59
ag59
ag59
ag59
ag59
ag59
ag59
ag59
ag59
ag59
ag59
ag59
ag59
ag59
ag59
ag59
ag59
ag59
ag59
ag59
ag59
ag59
ag59
ag59
ag59
ag59
ag59
ag59
ag59
ag59
ag59
ag59
asS'best_P'
p60
(lp61
(itree
PTree
p62
(dp63
S'root'
p64
ccopy_reg
_reconstructor
p65
(ctree
Feature
p66
c__builtin__
object
p67
Ntp68
Rp69
(dp70
S'index'
p71
I2
sS'name'
p72
S'AnnQ'
p73
sS'l'
p74
g65
(g66
g67
Ntp75
Rp76
(dp77
g71
I3
sg72
S'LP3'
p78
sg74
g65
(ctree
Action
p79
g67
Ntp80
Rp81
(dp82
S'r'
p83
NsS'is_feature'
p84
I00
sS'value'
p85
S'Hedge_50'
p86
sg74
Nsbsg83
g65
(g79
g67
Ntp87
Rp88
(dp89
g83
Nsg84
I00
sg85
S'Hedge_90'
p90
sg74
NsbsS'threshold'
p91
F243.41987166807147
sg84
I01
sbsg83
g65
(g79
g67
Ntp92
Rp93
(dp94
g83
Nsg84
I00
sg85
S'Flood_Control'
p95
sg74
Nsbsg91
F2449.5082169217426
sg84
I01
sbsS'L'
p96
(lp97
g69
ag76
ag81
ag88
ag93
asS'N'
p98
I5
sba(itree
PTree
p99
(dp100
g64
g65
(g66
g67
Ntp101
Rp102
(dp103
g71
I3
sg83
g65
(g79
g67
Ntp104
Rp105
(dp106
g83
Nsg84
I00
sg85
S'Flood_Control'
p107
sg74
Nsbsg72
g78
sg91
F163.5328003607976
sg74
g65
(g79
g67
Ntp108
Rp109
(dp110
g83
Nsg84
I00
sg85
S'Hedge_90'
p111
sg74
Nsbsg84
I01
sbsg96
(lp112
g102
ag109
ag105
asg98
I3
sbag99
ag99
ag99
a(itree
PTree
p113
(dp114
g64
g65
(g66
g67
Ntp115
Rp116
(dp117
g71
I2
sg83
g65
(g66
g67
Ntp118
Rp119
(dp120
g71
I3
sg83
g65
(g79
g67
Ntp121
Rp122
(dp123
g83
Nsg84
I00
sg85
g107
sg74
Nsbsg72
g78
sg91
F163.21611161270033
sg74
g65
(g79
g67
Ntp124
Rp125
(dp126
g83
Nsg84
I00
sg85
S'Hedge_80'
p127
sg74
Nsbsg84
I01
sbsg72
g73
sg91
F2195.8863689303557
sg74
g65
(g66
g67
Ntp128
Rp129
(dp130
g71
I3
sg83
g65
(g66
g67
Ntp131
Rp132
(dp133
g71
I0
sg83
g65
(g79
g67
Ntp134
Rp135
(dp136
g83
Nsg84
I00
sg85
S'Hedge_90'
p137
sg74
Nsbsg72
S'Storage'
p138
sg91
F571.8869125614357
sg74
g65
(g79
g67
Ntp139
Rp140
(dp141
g83
Nsg84
I00
sg85
S'Hedge_70'
p142
sg74
Nsbsg84
I01
sbsg72
g78
sg91
F233.85752163323733
sg74
g65
(g79
g67
Ntp143
Rp144
(dp145
g83
Nsg84
I00
sg85
S'Hedge_50'
p146
sg74
Nsbsg84
I01
sbsg84
I01
sbsg96
(lp147
g116
ag129
ag144
ag132
ag140
ag135
ag119
ag125
ag122
asg98
I9
sbag113
ag113
ag113
ag113
ag113
ag113
ag113
ag113
ag113
ag113
a(itree
PTree
p148
(dp149
g64
g65
(g66
g67
Ntp150
Rp151
(dp152
g71
I1
sg83
g65
(g66
g67
Ntp153
Rp154
(dp155
g71
I3
sg83
g65
(g66
g67
Ntp156
Rp157
(dp158
g71
I2
sg83
g65
(g79
g67
Ntp159
Rp160
(dp161
g83
Nsg84
I00
sg85
S'Release_Demand'
p162
sg74
Nsbsg72
g73
sg91
F2003.2790963550958
sg74
g65
(g79
g67
Ntp163
Rp164
(dp165
g83
Nsg84
I00
sg85
S'Flood_Control'
p166
sg74
Nsbsg84
I01
sbsg72
g78
sg91
F136.25342965441303
sg74
g65
(g79
g67
Ntp167
Rp168
(dp169
g83
Nsg84
I00
sg85
S'Release_Demand'
p170
sg74
Nsbsg84
I01
sbsg72
S'Day'
p171
sg91
F183.4368815676035
sg74
g65
(g79
g67
Ntp172
Rp173
(dp174
g83
Nsg84
I00
sg85
S'Flood_Control'
p175
sg74
Nsbsg84
I01
sbsg96
(lp176
g151
ag173
ag154
ag168
ag157
ag164
ag160
asg98
I7
sba(itree
PTree
p177
(dp178
g64
g65
(g66
g67
Ntp179
Rp180
(dp181
g71
I1
sg83
g65
(g66
g67
Ntp182
Rp183
(dp184
g71
I3
sg83
g65
(g66
g67
Ntp185
Rp186
(dp187
g71
I2
sg83
g65
(g79
g67
Ntp188
Rp189
(dp190
g83
Nsg84
I00
sg85
g162
sg74
Nsbsg72
g73
sg91
F2003.2790963550958
sg74
g65
(g79
g67
Ntp191
Rp192
(dp193
g83
Nsg84
I00
sg85
g166
sg74
Nsbsg84
I01
sbsg72
g78
sg91
F151.14134711472593
sg74
g65
(g79
g67
Ntp194
Rp195
(dp196
g83
Nsg84
I00
sg85
g170
sg74
Nsbsg84
I01
sbsg72
g171
sg91
F177.33753601453927
sg74
g65
(g79
g67
Ntp197
Rp198
(dp199
g83
Nsg84
I00
sg85
g175
sg74
Nsbsg84
I01
sbsg96
(lp200
g180
ag198
ag183
ag195
ag186
ag192
ag189
asg98
I7
sba(itree
PTree
p201
(dp202
g64
g65
(g66
g67
Ntp203
Rp204
(dp205
g71
I1
sg83
g65
(g66
g67
Ntp206
Rp207
(dp208
g71
I3
sg83
g65
(g66
g67
Ntp209
Rp210
(dp211
g71
I2
sg83
g65
(g79
g67
Ntp212
Rp213
(dp214
g83
Nsg84
I00
sg85
g162
sg74
Nsbsg72
g73
sg91
F1614.1874105637771
sg74
g65
(g79
g67
Ntp215
Rp216
(dp217
g83
Nsg84
I00
sg85
g166
sg74
Nsbsg84
I01
sbsg72
g78
sg91
F148.4431657900978
sg74
g65
(g79
g67
Ntp218
Rp219
(dp220
g83
Nsg84
I00
sg85
g170
sg74
Nsbsg84
I01
sbsg72
g171
sg91
F165.27834148201583
sg74
g65
(g79
g67
Ntp221
Rp222
(dp223
g83
Nsg84
I00
sg85
g175
sg74
Nsbsg84
I01
sbsg96
(lp224
g204
ag222
ag207
ag219
ag210
ag216
ag213
asg98
I7
sbag201
ag201
a(itree
PTree
p225
(dp226
g64
g65
(g66
g67
Ntp227
Rp228
(dp229
g71
I1
sg83
g65
(g66
g67
Ntp230
Rp231
(dp232
g71
I3
sg83
g65
(g66
g67
Ntp233
Rp234
(dp235
g71
I2
sg83
g65
(g79
g67
Ntp236
Rp237
(dp238
g83
Nsg84
I00
sg85
g162
sg74
Nsbsg72
g73
sg91
F1616.2739388074983
sg74
g65
(g79
g67
Ntp239
Rp240
(dp241
g83
Nsg84
I00
sg85
g166
sg74
Nsbsg84
I01
sbsg72
g78
sg91
F153.76331953570065
sg74
g65
(g79
g67
Ntp242
Rp243
(dp244
g83
Nsg84
I00
sg85
g170
sg74
Nsbsg84
I01
sbsg72
g171
sg91
F155.4214308230822
sg74
g65
(g79
g67
Ntp245
Rp246
(dp247
g83
Nsg84
I00
sg85
g175
sg74
Nsbsg84
I01
sbsg96
(lp248
g228
ag246
ag231
ag243
ag234
ag240
ag237
asg98
I7
sbag225
ag225
a(itree
PTree
p249
(dp250
g64
g65
(g66
g67
Ntp251
Rp252
(dp253
g71
I1
sg83
g65
(g66
g67
Ntp254
Rp255
(dp256
g71
I3
sg83
g65
(g66
g67
Ntp257
Rp258
(dp259
g71
I2
sg83
g65
(g79
g67
Ntp260
Rp261
(dp262
g83
Nsg84
I00
sg85
g162
sg74
Nsbsg72
g73
sg91
F1616.2739388074983
sg74
g65
(g79
g67
Ntp263
Rp264
(dp265
g83
Nsg84
I00
sg85
g166
sg74
Nsbsg84
I01
sbsg72
g78
sg91
F153.76331953570065
sg74
g65
(g79
g67
Ntp266
Rp267
(dp268
g83
Nsg84
I00
sg85
g170
sg74
Nsbsg84
I01
sbsg72
g171
sg91
F143.29114719426863
sg74
g65
(g79
g67
Ntp269
Rp270
(dp271
g83
Nsg84
I00
sg85
g175
sg74
Nsbsg84
I01
sbsg96
(lp272
g252
ag270
ag255
ag267
ag258
ag264
ag261
asg98
I7
sbag249
a(itree
PTree
p273
(dp274
g64
g65
(g66
g67
Ntp275
Rp276
(dp277
g71
I1
sg83
g65
(g66
g67
Ntp278
Rp279
(dp280
g71
I3
sg83
g65
(g66
g67
Ntp281
Rp282
(dp283
g71
I2
sg83
g65
(g79
g67
Ntp284
Rp285
(dp286
g83
Nsg84
I00
sg85
g162
sg74
Nsbsg72
g73
sg91
F1548.2794015327743
sg74
g65
(g79
g67
Ntp287
Rp288
(dp289
g83
Nsg84
I00
sg85
g166
sg74
Nsbsg84
I01
sbsg72
g78
sg91
F168.32953554932584
sg74
g65
(g79
g67
Ntp290
Rp291
(dp292
g83
Nsg84
I00
sg85
g170
sg74
Nsbsg84
I01
sbsg72
g171
sg91
F138.70000199838074
sg74
g65
(g79
g67
Ntp293
Rp294
(dp295
g83
Nsg84
I00
sg85
g175
sg74
Nsbsg84
I01
sbsg96
(lp296
g276
ag294
ag279
ag291
ag282
ag288
ag285
asg98
I7
sba(itree
PTree
p297
(dp298
g64
g65
(g66
g67
Ntp299
Rp300
(dp301
g71
I1
sg83
g65
(g66
g67
Ntp302
Rp303
(dp304
g71
I3
sg83
g65
(g66
g67
Ntp305
Rp306
(dp307
g71
I2
sg83
g65
(g79
g67
Ntp308
Rp309
(dp310
g83
Nsg84
I00
sg85
g162
sg74
Nsbsg72
g73
sg91
F1530.4818645110943
sg74
g65
(g79
g67
Ntp311
Rp312
(dp313
g83
Nsg84
I00
sg85
g166
sg74
Nsbsg84
I01
sbsg72
g78
sg91
F168.32953554932584
sg74
g65
(g79
g67
Ntp314
Rp315
(dp316
g83
Nsg84
I00
sg85
g170
sg74
Nsbsg84
I01
sbsg72
g171
sg91
F131.10791276288373
sg74
g65
(g79
g67
Ntp317
Rp318
(dp319
g83
Nsg84
I00
sg85
g175
sg74
Nsbsg84
I01
sbsg96
(lp320
g300
ag318
ag303
ag315
ag306
ag312
ag309
asg98
I7
sbag297
ag297
ag297
a(itree
PTree
p321
(dp322
g64
g65
(g66
g67
Ntp323
Rp324
(dp325
g71
I1
sg83
g65
(g66
g67
Ntp326
Rp327
(dp328
g71
I3
sg83
g65
(g79
g67
Ntp329
Rp330
(dp331
g83
Nsg84
I00
sg85
S'Hedge_90'
p332
sg74
Nsbsg72
g78
sg91
F271.0749074827088
sg74
g65
(g79
g67
Ntp333
Rp334
(dp335
g83
Nsg84
I00
sg85
S'Hedge_90'
p336
sg74
Nsbsg84
I01
sbsg72
g171
sg91
F138.70000199838074
sg74
g65
(g79
g67
Ntp337
Rp338
(dp339
g83
Nsg84
I00
sg85
S'Flood_Control'
p340
sg74
Nsbsg84
I01
sbsg96
(lp341
g324
ag338
ag327
ag334
ag330
asg98
I5
sbag321
ag321
a(itree
PTree
p342
(dp343
g64
g65
(g66
g67
Ntp344
Rp345
(dp346
g71
I0
sg83
g65
(g79
g67
Ntp347
Rp348
(dp349
g83
Nsg84
I00
sg85
S'Release_Demand'
p350
sg74
Nsbsg72
g138
sg91
F972.48885727621
sg74
g65
(g66
g67
Ntp351
Rp352
(dp353
g71
I1
sg83
g65
(g79
g67
Ntp354
Rp355
(dp356
g83
Nsg84
I00
sg85
S'Hedge_90'
p357
sg74
Nsbsg72
g171
sg91
F138.0587564646242
sg74
g65
(g79
g67
Ntp358
Rp359
(dp360
g83
Nsg84
I00
sg85
S'Flood_Control'
p361
sg74
Nsbsg84
I01
sbsg84
I01
sbsg96
(lp362
g345
ag352
ag359
ag355
ag348
asg98
I5
sbag342
a(itree
PTree
p363
(dp364
g64
g65
(g66
g67
Ntp365
Rp366
(dp367
g71
I1
sg83
g65
(g66
g67
Ntp368
Rp369
(dp370
g71
I3
sg83
g65
(g79
g67
Ntp371
Rp372
(dp373
g83
Nsg84
I00
sg85
g332
sg74
Nsbsg72
g78
sg91
F317.9162232255363
sg74
g65
(g79
g67
Ntp374
Rp375
(dp376
g83
Nsg84
I00
sg85
g336
sg74
Nsbsg84
I01
sbsg72
g171
sg91
F129.61747262288756
sg74
g65
(g79
g67
Ntp377
Rp378
(dp379
g83
Nsg84
I00
sg85
g340
sg74
Nsbsg84
I01
sbsg96
(lp380
g366
ag378
ag369
ag375
ag372
asg98
I5
sbag363
a(itree
PTree
p381
(dp382
g64
g65
(g66
g67
Ntp383
Rp384
(dp385
g71
I1
sg83
g65
(g66
g67
Ntp386
Rp387
(dp388
g71
I3
sg83
g65
(g79
g67
Ntp389
Rp390
(dp391
g83
Nsg84
I00
sg85
g332
sg74
Nsbsg72
g78
sg91
F329.27533964437634
sg74
g65
(g79
g67
Ntp392
Rp393
(dp394
g83
Nsg84
I00
sg85
g336
sg74
Nsbsg84
I01
sbsg72
g171
sg91
F128.2267810756
sg74
g65
(g79
g67
Ntp395
Rp396
(dp397
g83
Nsg84
I00
sg85
g340
sg74
Nsbsg84
I01
sbsg96
(lp398
g384
ag396
ag387
ag393
ag390
asg98
I5
sbag381
ag381
ag381
ag381
ag381
ag381
ag381
ag381
ag381
ag381
ag381
ag381
ag381
ag381
ag381
ag381
ag381
ag381
ag381
ag381
ag381
ag381
ag381
ag381
ag381
ag381
ag381
ag381
ag381
ag381
ag381
ag381
a(itree
PTree
p399
(dp400
g64
g65
(g66
g67
Ntp401
Rp402
(dp403
g71
I0
sg83
g65
(g79
g67
Ntp404
Rp405
(dp406
g83
Nsg84
I00
sg85
g350
sg74
Nsbsg72
g138
sg91
F799.7876876423212
sg74
g65
(g66
g67
Ntp407
Rp408
(dp409
g71
I1
sg83
g65
(g79
g67
Ntp410
Rp411
(dp412
g83
Nsg84
I00
sg85
g357
sg74
Nsbsg72
g171
sg91
F128.10092979440344
sg74
g65
(g79
g67
Ntp413
Rp414
(dp415
g83
Nsg84
I00
sg85
g361
sg74
Nsbsg84
I01
sbsg84
I01
sbsg96
(lp416
g402
ag408
ag414
ag411
ag405
asg98
I5
sbag399
ag399
ag399
ag399
ag399
ag399
ag399
ag399
ag399
ag399
ag399
ag399
ag399
ag399
ag399
ag399
ag399
ag399
ag399
ag399
ag399
ag399
ag399
ag399
ag399
ag399
ag399
ag399
ag399
ag399
ag399
ag399
ag399
ag399
ag399
ag399
a(itree
PTree
p417
(dp418
g64
g65
(g66
g67
Ntp419
Rp420
(dp421
g71
I0
sg83
g65
(g79
g67
Ntp422
Rp423
(dp424
g83
Nsg84
I00
sg85
g350
sg74
Nsbsg72
g138
sg91
F735.2931061660421
sg74
g65
(g66
g67
Ntp425
Rp426
(dp427
g71
I1
sg83
g65
(g79
g67
Ntp428
Rp429
(dp430
g83
Nsg84
I00
sg85
g357
sg74
Nsbsg72
g171
sg91
F128.10092979440344
sg74
g65
(g79
g67
Ntp431
Rp432
(dp433
g83
Nsg84
I00
sg85
g361
sg74
Nsbsg84
I01
sbsg84
I01
sbsg96
(lp434
g420
ag426
ag432
ag429
ag423
asg98
I5
sbag417
ag417
ag417
ag417
ag417
ag417
ag417
ag417
ag417
ag417
ag417
ag417
ag417
ag417
ag417
ag417
ag417
ag417
ag417
ag417
ag417
ag417
ag417
ag417
ag417
ag417
ag417
ag417
ag417
ag417
ag417
ag417
ag417
ag417
ag417
ag417
ag417
ag417
ag417
ag417
ag417
ag417
ag417
ag417
ag417
ag417
ag417
ag417
ag417
ag417
ag417
ag417
ag417
ag417
ag417
ag417
ag417
ag417
ag417
ag417
ag417
ag417
ag417
ag417
ag417
ag417
ag417
ag417
ag417
ag417
ag417
ag417
ag417
ag417
ag417
ag417
ag417
ag417
ag417
ag417
ag417
ag417
ag417
ag417
ag417
ag417
ag417
ag417
ag417
ag417
ag417
asS'time'
p435
(lp436
I330
aI504
aI673
aI854
aI1030
aI1203
aI1376
aI1552
aI1730
aI1907
aI2084
aI2264
aI2443
aI2616
aI2791
aI2964
aI3141
aI3315
aI3494
aI3672
aI3851
aI4027
aI4204
aI4379
aI4557
aI4736
aI4908
aI5089
aI5269
aI5440
aI5622
aI5796
aI5967
aI6139
aI6313
aI6479
aI6653
aI6830
aI7005
aI7179
aI7356
aI7529
aI7702
aI7876
aI8053
aI8228
aI8403
aI8573
aI8751
aI8928
aI9100
aI9272
aI9444
aI9619
aI9795
aI9962
aI10139
aI10313
aI10492
aI10666
aI10845
aI11016
aI11182
aI11350
aI11525
aI11698
aI11870
aI12040
aI12212
aI12386
aI12560
aI12733
aI12903
aI13074
aI13246
aI13419
aI13588
aI13760
aI13934
aI14106
aI14278
aI14451
aI14629
aI14803
aI14975
aI15144
aI15322
aI15492
aI15664
aI15838
aI16010
aI16184
aI16357
aI16529
aI16702
aI16871
aI17043
aI17217
aI17396
aI17568
aI17748
aI17918
aI18091
aI18263
aI18435
aI18612
aI18789
aI18960
aI19132
aI19307
aI19482
aI19656
aI19833
aI20010
aI20186
aI20359
aI20534
aI20706
aI20877
aI21052
aI21233
aI21406
aI21582
aI21757
aI21929
aI22102
aI22276
aI22446
aI22620
aI22792
aI22966
aI23140
aI23308
aI23486
aI23658
aI23829
aI24002
aI24169
aI24344
aI24516
aI24689
aI24865
aI25041
aI25216
aI25391
aI25569
aI25744
aI25921
aI26094
aI26265
aI26432
aI26603
aI26778
aI26950
aI27118
aI27289
aI27463
aI27631
aI27805
aI27976
aI28152
aI28330
aI28506
aI28675
aI28849
aI29016
aI29189
aI29361
aI29528
aI29700
aI29869
aI30042
aI30214
aI30381
aI30556
aI30725
aI30900
aI31074
aI31249
aI31421
aI31587
aI31747
aI31908
aI32069
aI32231
aI32392
aI32550
aI32708
aI32863
aI33007
aI33138
aI33262
aI33387
aI33508
aI33677
aI33848
aI33955
aI34058
aI34162
aI34266
as.