(dp0
S'nfe'
p1
(lp2
I50
aI100
aI150
aI200
aI250
aI300
aI350
aI400
aI450
aI500
aI550
aI600
aI650
aI700
aI750
aI800
aI850
aI900
aI950
aI1000
aI1050
aI1100
aI1150
aI1200
aI1250
aI1300
aI1350
aI1400
aI1450
aI1500
aI1550
aI1600
aI1650
aI1700
aI1750
aI1800
aI1850
aI1900
aI1950
aI2000
aI2050
aI2100
aI2150
aI2200
aI2250
aI2300
aI2350
aI2400
aI2450
aI2500
aI2550
aI2600
aI2650
aI2700
aI2750
aI2800
aI2850
aI2900
aI2950
aI3000
aI3050
aI3100
aI3150
aI3200
aI3250
aI3300
aI3350
aI3400
aI3450
aI3500
aI3550
aI3600
aI3650
aI3700
aI3750
aI3800
aI3850
aI3900
aI3950
aI4000
aI4050
aI4100
aI4150
aI4200
aI4250
aI4300
aI4350
aI4400
aI4450
aI4500
aI4550
aI4600
aI4650
aI4700
aI4750
aI4800
aI4850
aI4900
aI4950
aI5000
aI5050
aI5100
aI5150
aI5200
aI5250
aI5300
aI5350
aI5400
aI5450
aI5500
aI5550
aI5600
aI5650
aI5700
aI5750
aI5800
aI5850
aI5900
aI5950
aI6000
aI6050
aI6100
aI6150
aI6200
aI6250
aI6300
aI6350
aI6400
aI6450
aI6500
aI6550
aI6600
aI6650
aI6700
aI6750
aI6800
aI6850
aI6900
aI6950
aI7000
aI7050
aI7100
aI7150
aI7200
aI7250
aI7300
aI7350
aI7400
aI7450
aI7500
aI7550
aI7600
aI7650
aI7700
aI7750
aI7800
aI7850
aI7900
aI7950
aI8000
aI8050
aI8100
aI8150
aI8200
aI8250
aI8300
aI8350
aI8400
aI8450
aI8500
aI8550
aI8600
aI8650
aI8700
aI8750
aI8800
aI8850
aI8900
aI8950
aI9000
aI9050
aI9100
aI9150
aI9200
aI9250
aI9300
aI9350
aI9400
aI9450
aI9500
aI9550
aI9600
aI9650
aI9700
aI9750
aI9800
aI9850
aI9900
aI9950
aI10000
asS'best_f'
p3
(lp4
cnumpy.core.multiarray
scalar
p5
(cnumpy
dtype
p6
(S'f8'
p7
I0
I1
tp8
Rp9
(I3
S'<'
p10
NNNI-1
I-1
I0
tp11
bS'q\xc9\xfb|J\xab\x18@'
p12
tp13
Rp14
ag14
ag5
(g9
S'c5\xb1\x7f\xd9b\x00@'
p15
tp16
Rp17
ag17
ag17
ag5
(g9
S'\xad\xa1\xae^6&\x00@'
p18
tp19
Rp20
ag20
ag20
ag20
ag20
ag20
ag5
(g9
S'\xb7\xa7q\xb5\xc0\xce\xff?'
p21
tp22
Rp23
ag23
ag23
ag23
ag23
ag5
(g9
S'\x198\xa1r;\x94\xff?'
p24
tp25
Rp26
ag26
ag26
ag26
ag26
ag26
ag26
ag26
ag26
ag26
ag26
ag26
ag26
ag26
ag26
ag26
ag26
ag26
ag26
ag26
ag26
ag26
ag26
ag26
ag26
ag26
ag26
ag26
ag26
ag26
ag26
ag26
ag26
ag26
ag26
ag26
ag26
ag26
ag26
ag26
ag26
ag26
ag26
ag26
ag26
ag26
ag26
ag26
ag26
ag26
ag26
ag26
ag26
ag26
ag26
ag26
ag26
ag26
ag26
ag26
ag26
ag26
ag26
ag26
ag26
ag26
ag26
ag26
ag26
ag26
ag26
ag26
ag26
ag26
ag26
ag26
ag26
ag26
ag26
ag26
ag5
(g9
S'\xe4\xe7%\x00\xd2d\xff?'
p27
tp28
Rp29
ag29
ag29
ag29
ag29
ag29
ag29
ag29
ag29
ag29
ag29
ag29
ag29
ag29
ag29
ag29
ag5
(g9
S"'I\x92\x0f\xa3J\xff?"
p30
tp31
Rp32
ag5
(g9
S'\xb0\x069\xa2|\x13\xff?'
p33
tp34
Rp35
ag35
ag5
(g9
S'\xf6\xa8\x03\xf2\x0c\xe7\xfe?'
p36
tp37
Rp38
ag38
ag38
ag38
ag38
ag38
ag38
ag5
(g9
S'9\xf5\xa7\x84\xa0E\xfe?'
p39
tp40
Rp41
ag41
ag41
ag41
ag41
ag41
ag41
ag41
ag41
ag41
ag41
ag41
ag41
ag41
ag41
ag41
ag41
ag41
ag41
ag41
ag41
ag41
ag41
ag41
ag41
ag41
ag41
ag41
ag41
ag41
ag41
ag41
ag41
ag41
ag41
ag41
ag41
ag41
ag41
ag41
ag5
(g9
S'\xf2\xa1\x07\xae\r\xf4\xfd?'
p42
tp43
Rp44
ag44
ag44
ag5
(g9
S'\x8e\x97\x875\x98\xd2\xfd?'
p45
tp46
Rp47
ag47
ag47
ag47
ag47
ag47
ag47
ag47
ag47
ag47
ag47
ag47
ag47
ag47
ag47
ag47
ag47
ag47
ag47
ag47
ag47
ag47
ag47
ag47
ag47
ag47
ag47
ag47
ag47
ag47
ag47
ag47
ag47
ag47
ag47
asS'best_P'
p48
(lp49
(itree
PTree
p50
(dp51
S'root'
p52
ccopy_reg
_reconstructor
p53
(ctree
Feature
p54
c__builtin__
object
p55
Ntp56
Rp57
(dp58
S'index'
p59
I3
sS'name'
p60
S'LP3'
p61
sS'l'
p62
g53
(g54
g55
Ntp63
Rp64
(dp65
g59
I0
sg60
S'Storage'
p66
sg62
g53
(ctree
Action
p67
g55
Ntp68
Rp69
(dp70
S'r'
p71
NsS'is_feature'
p72
I00
sS'value'
p73
S'Hedge_80'
p74
sg62
Nsbsg71
g53
(g54
g55
Ntp75
Rp76
(dp77
g59
I0
sg60
g66
sg62
g53
(g67
g55
Ntp78
Rp79
(dp80
g71
Nsg72
I00
sg73
S'Flood_Control'
p81
sg62
Nsbsg71
g53
(g67
g55
Ntp82
Rp83
(dp84
g71
Nsg72
I00
sg73
S'Hedge_50'
p85
sg62
NsbsS'threshold'
p86
F745.6371927074961
sg72
I01
sbsg86
F135.4279030721699
sg72
I01
sbsg71
g53
(g67
g55
Ntp87
Rp88
(dp89
g71
Nsg72
I00
sg73
S'Hedge_80'
p90
sg62
Nsbsg86
F348.20664254216626
sg72
I01
sbsS'L'
p91
(lp92
g57
ag64
ag69
ag76
ag79
ag83
ag88
asS'N'
p93
I7
sbag50
a(itree
PTree
p94
(dp95
g52
g53
(g54
g55
Ntp96
Rp97
(dp98
g59
I1
sg71
g53
(g67
g55
Ntp99
Rp100
(dp101
g71
Nsg72
I00
sg73
S'Release_Demand'
p102
sg62
Nsbsg60
S'Day'
p103
sg86
F149.98980837581766
sg62
g53
(g67
g55
Ntp104
Rp105
(dp106
g71
Nsg72
I00
sg73
S'Flood_Control'
p107
sg62
Nsbsg72
I01
sbsg91
(lp108
g97
ag105
ag100
asg93
I3
sbag94
ag94
a(itree
PTree
p109
(dp110
g52
g53
(g54
g55
Ntp111
Rp112
(dp113
g59
I1
sg71
g53
(g67
g55
Ntp114
Rp115
(dp116
g71
Nsg72
I00
sg73
g102
sg62
Nsbsg60
g103
sg86
F144.39704574794973
sg62
g53
(g67
g55
Ntp117
Rp118
(dp119
g71
Nsg72
I00
sg73
g107
sg62
Nsbsg72
I01
sbsg91
(lp120
g112
ag118
ag115
asg93
I3
sbag109
ag109
ag109
ag109
ag109
a(itree
PTree
p121
(dp122
g52
g53
(g54
g55
Ntp123
Rp124
(dp125
g59
I3
sg71
g53
(g54
g55
Ntp126
Rp127
(dp128
g59
I1
sg71
g53
(g67
g55
Ntp129
Rp130
(dp131
g71
Nsg72
I00
sg73
S'Hedge_90'
p132
sg62
Nsbsg60
g103
sg86
F143.09414686640412
sg62
g53
(g67
g55
Ntp133
Rp134
(dp135
g71
Nsg72
I00
sg73
S'Flood_Control'
p136
sg62
Nsbsg72
I01
sbsg60
g61
sg86
F113.32471525896426
sg62
g53
(g54
g55
Ntp137
Rp138
(dp139
g59
I0
sg71
g53
(g67
g55
Ntp140
Rp141
(dp142
g71
Nsg72
I00
sg73
S'Hedge_50'
p143
sg62
Nsbsg60
g66
sg86
F438.22340322375834
sg62
g53
(g67
g55
Ntp144
Rp145
(dp146
g71
Nsg72
I00
sg73
S'Release_Demand'
p147
sg62
Nsbsg72
I01
sbsg72
I01
sbsg91
(lp148
g124
ag138
ag145
ag141
ag127
ag134
ag130
asg93
I7
sbag121
ag121
ag121
ag121
a(itree
PTree
p149
(dp150
g52
g53
(g54
g55
Ntp151
Rp152
(dp153
g59
I3
sg71
g53
(g67
g55
Ntp154
Rp155
(dp156
g71
Nsg72
I00
sg73
S'Hedge_50'
p157
sg62
Nsbsg60
g61
sg86
F243.6313100385717
sg62
g53
(g54
g55
Ntp158
Rp159
(dp160
g59
I1
sg71
g53
(g67
g55
Ntp161
Rp162
(dp163
g71
Nsg72
I00
sg73
S'Hedge_90'
p164
sg62
Nsbsg60
g103
sg86
F140.81507894408796
sg62
g53
(g67
g55
Ntp165
Rp166
(dp167
g71
Nsg72
I00
sg73
S'Flood_Control'
p168
sg62
Nsbsg72
I01
sbsg72
I01
sbsg91
(lp169
g152
ag159
ag166
ag162
ag155
asg93
I5
sbag149
ag149
ag149
ag149
ag149
ag149
ag149
ag149
ag149
ag149
ag149
ag149
ag149
ag149
ag149
ag149
ag149
ag149
ag149
ag149
ag149
ag149
ag149
ag149
ag149
ag149
ag149
ag149
ag149
ag149
ag149
ag149
ag149
ag149
ag149
ag149
ag149
ag149
ag149
ag149
ag149
ag149
ag149
ag149
ag149
ag149
ag149
ag149
ag149
ag149
ag149
ag149
ag149
ag149
ag149
ag149
ag149
ag149
ag149
ag149
ag149
ag149
ag149
ag149
ag149
ag149
ag149
ag149
ag149
ag149
ag149
ag149
ag149
ag149
ag149
ag149
ag149
ag149
ag149
a(itree
PTree
p170
(dp171
g52
g53
(g54
g55
Ntp172
Rp173
(dp174
g59
I3
sg71
g53
(g54
g55
Ntp175
Rp176
(dp177
g59
I1
sg71
g53
(g67
g55
Ntp178
Rp179
(dp180
g71
Nsg72
I00
sg73
g132
sg62
Nsbsg60
g103
sg86
F141.12026617990506
sg62
g53
(g67
g55
Ntp181
Rp182
(dp183
g71
Nsg72
I00
sg73
S'Flood_Control'
p184
sg62
Nsbsg72
I01
sbsg60
g61
sg86
F179.95229619965306
sg62
g53
(g67
g55
Ntp185
Rp186
(dp187
g71
Nsg72
I00
sg73
S'Hedge_90'
p188
sg62
Nsbsg72
I01
sbsg91
(lp189
g173
ag186
ag176
ag182
ag179
asg93
I5
sbag170
ag170
ag170
ag170
ag170
ag170
ag170
ag170
ag170
ag170
ag170
ag170
ag170
ag170
ag170
a(itree
PTree
p190
(dp191
g52
g53
(g54
g55
Ntp192
Rp193
(dp194
g59
I3
sg71
g53
(g54
g55
Ntp195
Rp196
(dp197
g59
I3
sg71
g53
(g54
g55
Ntp198
Rp199
(dp200
g59
I1
sg71
g53
(g67
g55
Ntp201
Rp202
(dp203
g71
Nsg72
I00
sg73
S'Release_Demand'
p204
sg62
Nsbsg60
g103
sg86
F147.91077476943
sg62
g53
(g67
g55
Ntp205
Rp206
(dp207
g71
Nsg72
I00
sg73
S'Flood_Control'
p208
sg62
Nsbsg72
I01
sbsg60
g61
sg86
F187.66348424562176
sg62
g53
(g67
g55
Ntp209
Rp210
(dp211
g71
Nsg72
I00
sg73
g188
sg62
Nsbsg72
I01
sbsg60
g61
sg86
F173.41692337215608
sg62
g53
(g54
g55
Ntp212
Rp213
(dp214
g59
I1
sg71
g53
(g67
g55
Ntp215
Rp216
(dp217
g71
Nsg72
I00
sg73
S'Release_Demand'
p218
sg62
Nsbsg60
g103
sg86
F136.32764018934137
sg62
g53
(g67
g55
Ntp219
Rp220
(dp221
g71
Nsg72
I00
sg73
S'Hedge_90'
p222
sg62
Nsbsg72
I01
sbsg72
I01
sbsg91
(lp223
g193
ag213
ag220
ag216
ag196
ag210
ag199
ag206
ag202
asg93
I9
sba(itree
PTree
p224
(dp225
g52
g53
(g54
g55
Ntp226
Rp227
(dp228
g59
I3
sg71
g53
(g54
g55
Ntp229
Rp230
(dp231
g59
I3
sg71
g53
(g54
g55
Ntp232
Rp233
(dp234
g59
I1
sg71
g53
(g67
g55
Ntp235
Rp236
(dp237
g71
Nsg72
I00
sg73
g204
sg62
Nsbsg60
g103
sg86
F147.91077476943
sg62
g53
(g67
g55
Ntp238
Rp239
(dp240
g71
Nsg72
I00
sg73
g208
sg62
Nsbsg72
I01
sbsg60
g61
sg86
F203.40319887688145
sg62
g53
(g67
g55
Ntp241
Rp242
(dp243
g71
Nsg72
I00
sg73
g188
sg62
Nsbsg72
I01
sbsg60
g61
sg86
F110.16675593066388
sg62
g53
(g54
g55
Ntp244
Rp245
(dp246
g59
I1
sg71
g53
(g67
g55
Ntp247
Rp248
(dp249
g71
Nsg72
I00
sg73
g218
sg62
Nsbsg60
g103
sg86
F136.32764018934137
sg62
g53
(g67
g55
Ntp250
Rp251
(dp252
g71
Nsg72
I00
sg73
g222
sg62
Nsbsg72
I01
sbsg72
I01
sbsg91
(lp253
g227
ag245
ag251
ag248
ag230
ag242
ag233
ag239
ag236
asg93
I9
sbag224
a(itree
PTree
p254
(dp255
g52
g53
(g54
g55
Ntp256
Rp257
(dp258
g59
I3
sg71
g53
(g54
g55
Ntp259
Rp260
(dp261
g59
I3
sg71
g53
(g54
g55
Ntp262
Rp263
(dp264
g59
I1
sg71
g53
(g67
g55
Ntp265
Rp266
(dp267
g71
Nsg72
I00
sg73
g204
sg62
Nsbsg60
g103
sg86
F145.03909111736374
sg62
g53
(g67
g55
Ntp268
Rp269
(dp270
g71
Nsg72
I00
sg73
g208
sg62
Nsbsg72
I01
sbsg60
g61
sg86
F203.5216840906765
sg62
g53
(g67
g55
Ntp271
Rp272
(dp273
g71
Nsg72
I00
sg73
g188
sg62
Nsbsg72
I01
sbsg60
g61
sg86
F106.24682065415764
sg62
g53
(g54
g55
Ntp274
Rp275
(dp276
g59
I1
sg71
g53
(g67
g55
Ntp277
Rp278
(dp279
g71
Nsg72
I00
sg73
g218
sg62
Nsbsg60
g103
sg86
F168.23461251156678
sg62
g53
(g67
g55
Ntp280
Rp281
(dp282
g71
Nsg72
I00
sg73
g222
sg62
Nsbsg72
I01
sbsg72
I01
sbsg91
(lp283
g257
ag275
ag281
ag278
ag260
ag272
ag263
ag269
ag266
asg93
I9
sbag254
ag254
ag254
ag254
ag254
ag254
a(itree
PTree
p284
(dp285
g52
g53
(g54
g55
Ntp286
Rp287
(dp288
g59
I3
sg71
g53
(g54
g55
Ntp289
Rp290
(dp291
g59
I1
sg71
g53
(g67
g55
Ntp292
Rp293
(dp294
g71
Nsg72
I00
sg73
g132
sg62
Nsbsg60
g103
sg86
F141.12026617990506
sg62
g53
(g67
g55
Ntp295
Rp296
(dp297
g71
Nsg72
I00
sg73
g184
sg62
Nsbsg72
I01
sbsg60
g61
sg86
F209.29815108464425
sg62
g53
(g67
g55
Ntp298
Rp299
(dp300
g71
Nsg72
I00
sg73
g188
sg62
Nsbsg72
I01
sbsg91
(lp301
g287
ag299
ag290
ag296
ag293
asg93
I5
sbag284
ag284
ag284
ag284
ag284
ag284
ag284
ag284
ag284
ag284
ag284
ag284
ag284
ag284
ag284
ag284
ag284
ag284
ag284
ag284
ag284
ag284
ag284
ag284
ag284
ag284
ag284
ag284
ag284
ag284
ag284
ag284
ag284
ag284
ag284
ag284
ag284
ag284
ag284
a(itree
PTree
p302
(dp303
g52
g53
(g54
g55
Ntp304
Rp305
(dp306
g59
I3
sg71
g53
(g67
g55
Ntp307
Rp308
(dp309
g71
Nsg72
I00
sg73
S'Hedge_80'
p310
sg62
Nsbsg60
g61
sg86
F298.59101540874326
sg62
g53
(g54
g55
Ntp311
Rp312
(dp313
g59
I3
sg71
g53
(g54
g55
Ntp314
Rp315
(dp316
g59
I1
sg71
g53
(g67
g55
Ntp317
Rp318
(dp319
g71
Nsg72
I00
sg73
S'Release_Demand'
p320
sg62
Nsbsg60
g103
sg86
F140.19077150558647
sg62
g53
(g67
g55
Ntp321
Rp322
(dp323
g71
Nsg72
I00
sg73
S'Flood_Control'
p324
sg62
Nsbsg72
I01
sbsg60
g61
sg86
F212.73752248005115
sg62
g53
(g67
g55
Ntp325
Rp326
(dp327
g71
Nsg72
I00
sg73
S'Release_Demand'
p328
sg62
Nsbsg72
I01
sbsg72
I01
sbsg91
(lp329
g305
ag312
ag326
ag315
ag322
ag318
ag308
asg93
I7
sbag302
ag302
a(itree
PTree
p330
(dp331
g52
g53
(g54
g55
Ntp332
Rp333
(dp334
g59
I3
sg71
g53
(g54
g55
Ntp335
Rp336
(dp337
g59
I1
sg71
g53
(g67
g55
Ntp338
Rp339
(dp340
g71
Nsg72
I00
sg73
g132
sg62
Nsbsg60
g103
sg86
F141.12026617990506
sg62
g53
(g67
g55
Ntp341
Rp342
(dp343
g71
Nsg72
I00
sg73
g184
sg62
Nsbsg72
I01
sbsg60
g61
sg86
F213.4410612646833
sg62
g53
(g67
g55
Ntp344
Rp345
(dp346
g71
Nsg72
I00
sg73
g188
sg62
Nsbsg72
I01
sbsg91
(lp347
g333
ag345
ag336
ag342
ag339
asg93
I5
sbag330
ag330
ag330
ag330
ag330
ag330
ag330
ag330
ag330
ag330
ag330
ag330
ag330
ag330
ag330
ag330
ag330
ag330
ag330
ag330
ag330
ag330
ag330
ag330
ag330
ag330
ag330
ag330
ag330
ag330
ag330
ag330
ag330
ag330
asS'time'
p348
(lp349
I338
aI518
aI694
aI864
aI1040
aI1214
aI1388
aI1562
aI1743
aI1921
aI2105
aI2284
aI2467
aI2648
aI2828
aI3013
aI3197
aI3379
aI3559
aI3743
aI3917
aI4097
aI4273
aI4456
aI4640
aI4821
aI5000
aI5180
aI5363
aI5538
aI5718
aI5901
aI6078
aI6255
aI6434
aI6613
aI6796
aI6973
aI7153
aI7332
aI7513
aI7692
aI7873
aI8057
aI8239
aI8420
aI8597
aI8776
aI8961
aI9144
aI9324
aI9501
aI9687
aI9870
aI10055
aI10236
aI10424
aI10601
aI10781
aI10961
aI11144
aI11326
aI11506
aI11688
aI11866
aI12049
aI12232
aI12413
aI12591
aI12777
aI12958
aI13143
aI13329
aI13514
aI13699
aI13880
aI14063
aI14245
aI14432
aI14609
aI14792
aI14971
aI15157
aI15340
aI15521
aI15699
aI15879
aI16061
aI16244
aI16426
aI16607
aI16791
aI16970
aI17156
aI17340
aI17519
aI17704
aI17887
aI18071
aI18257
aI18436
aI18617
aI18800
aI18989
aI19168
aI19348
aI19531
aI19712
aI19891
aI20073
aI20255
aI20439
aI20622
aI20801
aI20984
aI21165
aI21345
aI21522
aI21704
aI21883
aI22071
aI22251
aI22428
aI22611
aI22791
aI22967
aI23148
aI23328
aI23504
aI23689
aI23870
aI24051
aI24236
aI24420
aI24595
aI24773
aI24958
aI25134
aI25311
aI25491
aI25670
aI25849
aI26031
aI26215
aI26401
aI26590
aI26769
aI26948
aI27134
aI27317
aI27495
aI27674
aI27858
aI28038
aI28219
aI28399
aI28581
aI28760
aI28945
aI29127
aI29306
aI29486
aI29668
aI29847
aI30026
aI30213
aI30389
aI30570
aI30749
aI30926
aI31104
aI31287
aI31468
aI31644
aI31822
aI31998
aI32180
aI32357
aI32533
aI32705
aI32875
aI33031
aI33166
aI33301
aI33438
aI33577
aI33720
aI33856
aI33980
aI34101
aI34271
aI34448
aI34629
aI34810
aI34982
aI35141
aI35300
aI35449
aI35596
aI35748
as.