(dp0
S'nfe'
p1
(lp2
I50
aI100
aI150
aI200
aI250
aI300
aI350
aI400
aI450
aI500
aI550
aI600
aI650
aI700
aI750
aI800
aI850
aI900
aI950
aI1000
aI1050
aI1100
aI1150
aI1200
aI1250
aI1300
aI1350
aI1400
aI1450
aI1500
aI1550
aI1600
aI1650
aI1700
aI1750
aI1800
aI1850
aI1900
aI1950
aI2000
aI2050
aI2100
aI2150
aI2200
aI2250
aI2300
aI2350
aI2400
aI2450
aI2500
aI2550
aI2600
aI2650
aI2700
aI2750
aI2800
aI2850
aI2900
aI2950
aI3000
aI3050
aI3100
aI3150
aI3200
aI3250
aI3300
aI3350
aI3400
aI3450
aI3500
aI3550
aI3600
aI3650
aI3700
aI3750
aI3800
aI3850
aI3900
aI3950
aI4000
aI4050
aI4100
aI4150
aI4200
aI4250
aI4300
aI4350
aI4400
aI4450
aI4500
aI4550
aI4600
aI4650
aI4700
aI4750
aI4800
aI4850
aI4900
aI4950
aI5000
aI5050
aI5100
aI5150
aI5200
aI5250
aI5300
aI5350
aI5400
aI5450
aI5500
aI5550
aI5600
aI5650
aI5700
aI5750
aI5800
aI5850
aI5900
aI5950
aI6000
aI6050
aI6100
aI6150
aI6200
aI6250
aI6300
aI6350
aI6400
aI6450
aI6500
aI6550
aI6600
aI6650
aI6700
aI6750
aI6800
aI6850
aI6900
aI6950
aI7000
aI7050
aI7100
aI7150
aI7200
aI7250
aI7300
aI7350
aI7400
aI7450
aI7500
aI7550
aI7600
aI7650
aI7700
aI7750
aI7800
aI7850
aI7900
aI7950
aI8000
aI8050
aI8100
aI8150
aI8200
aI8250
aI8300
aI8350
aI8400
aI8450
aI8500
aI8550
aI8600
aI8650
aI8700
aI8750
aI8800
aI8850
aI8900
aI8950
aI9000
aI9050
aI9100
aI9150
aI9200
aI9250
aI9300
aI9350
aI9400
aI9450
aI9500
aI9550
aI9600
aI9650
aI9700
aI9750
aI9800
aI9850
aI9900
aI9950
aI10000
asS'best_f'
p3
(lp4
cnumpy.core.multiarray
scalar
p5
(cnumpy
dtype
p6
(S'f8'
p7
I0
I1
tp8
Rp9
(I3
S'<'
p10
NNNI-1
I-1
I0
tp11
bS'\x95\xc2\xee\x1beA\x05A'
p12
tp13
Rp14
ag14
ag5
(g9
S'\xce\xebG\xc4PA\x05A'
p15
tp16
Rp17
ag17
ag17
ag5
(g9
S':=\x95+>A\x05A'
p18
tp19
Rp20
ag20
ag20
ag20
ag20
ag5
(g9
S'/[?4<A\x05A'
p21
tp22
Rp23
ag23
ag5
(g9
S'\x01ibq;A\x05A'
p24
tp25
Rp26
ag26
ag26
ag26
ag26
ag5
(g9
S'\xd2\xf3\xdc\x10:A\x05A'
p27
tp28
Rp29
ag5
(g9
S'*L\xb3\x04:A\x05A'
p30
tp31
Rp32
ag32
ag32
ag32
ag32
ag32
ag32
ag32
ag32
ag32
ag32
ag5
(g9
S'\xc6\x91\x06\xd79A\x05A'
p33
tp34
Rp35
ag5
(g9
S'\xae\x91s\xd39A\x05A'
p36
tp37
Rp38
ag38
ag38
ag38
ag38
ag38
ag38
ag38
ag38
ag38
ag38
ag38
ag38
ag38
ag38
ag38
ag38
ag38
ag38
ag38
ag38
ag38
ag38
ag38
ag38
ag38
ag38
ag38
ag38
ag38
ag38
ag38
ag38
ag38
ag38
ag38
ag38
ag38
ag38
ag38
ag38
ag38
ag38
ag38
ag38
ag38
ag38
ag38
ag38
ag38
ag38
ag38
ag38
ag38
ag38
ag38
ag38
ag38
ag38
ag38
ag38
ag38
ag38
ag38
ag38
ag38
ag38
ag38
ag38
ag38
ag38
ag38
ag38
ag38
ag38
ag38
ag38
ag38
ag38
ag38
ag38
ag38
ag38
ag38
ag38
ag38
ag38
ag38
ag38
ag38
ag38
ag38
ag38
ag38
ag38
ag38
ag38
ag38
ag38
ag38
ag38
ag38
ag38
ag38
ag38
ag38
ag38
ag38
ag38
ag38
ag38
ag38
ag38
ag38
ag38
ag38
ag38
ag38
ag38
ag38
ag38
ag38
ag38
ag38
ag38
ag38
ag38
ag38
ag38
ag38
ag38
ag38
ag38
ag38
ag38
ag38
ag38
ag38
ag38
ag38
ag38
ag38
ag38
ag38
ag38
ag38
ag38
ag38
ag38
ag38
ag38
ag38
ag38
ag38
ag38
ag38
ag38
ag38
ag38
ag38
ag38
ag38
ag38
ag38
ag38
ag38
ag38
ag38
ag38
ag38
asS'best_P'
p39
(lp40
(itree
PTree
p41
(dp42
S'root'
p43
ccopy_reg
_reconstructor
p44
(ctree
Feature
p45
c__builtin__
object
p46
Ntp47
Rp48
(dp49
S'index'
p50
I3
sS'name'
p51
S'LP3'
p52
sS'l'
p53
g44
(ctree
Action
p54
g46
Ntp55
Rp56
(dp57
S'r'
p58
NsS'is_feature'
p59
I00
sS'value'
p60
S'Hedge_90'
p61
sg53
Nsbsg58
g44
(g54
g46
Ntp62
Rp63
(dp64
g58
Nsg59
I00
sg60
S'Flood_Control'
p65
sg53
NsbsS'threshold'
p66
F214.30120199674707
sg59
I01
sbsS'L'
p67
(lp68
g48
ag56
ag63
asS'N'
p69
I3
sbag41
a(itree
PTree
p70
(dp71
g43
g44
(g45
g46
Ntp72
Rp73
(dp74
g50
I3
sg58
g44
(g54
g46
Ntp75
Rp76
(dp77
g58
Nsg59
I00
sg60
S'Hedge_70'
p78
sg53
Nsbsg51
g52
sg66
F337.07082821682786
sg53
g44
(g45
g46
Ntp79
Rp80
(dp81
g50
I2
sg58
g44
(g45
g46
Ntp82
Rp83
(dp84
g50
I1
sg58
g44
(g54
g46
Ntp85
Rp86
(dp87
g58
Nsg59
I00
sg60
S'Hedge_90'
p88
sg53
Nsbsg51
S'Day'
p89
sg66
F201.41632413457253
sg53
g44
(g54
g46
Ntp90
Rp91
(dp92
g58
Nsg59
I00
sg60
S'Flood_Control'
p93
sg53
Nsbsg59
I01
sbsg51
S'AnnQ'
p94
sg66
F1507.5226668821463
sg53
g44
(g54
g46
Ntp95
Rp96
(dp97
g58
Nsg59
I00
sg60
S'Hedge_80'
p98
sg53
Nsbsg59
I01
sbsg59
I01
sbsg67
(lp99
g73
ag80
ag96
ag83
ag91
ag86
ag76
asg69
I7
sbag70
ag70
a(itree
PTree
p100
(dp101
g43
g44
(g45
g46
Ntp102
Rp103
(dp104
g50
I3
sg58
g44
(g54
g46
Ntp105
Rp106
(dp107
g58
Nsg59
I00
sg60
g78
sg53
Nsbsg51
g52
sg66
F349.16244655095124
sg53
g44
(g45
g46
Ntp108
Rp109
(dp110
g50
I2
sg58
g44
(g45
g46
Ntp111
Rp112
(dp113
g50
I1
sg58
g44
(g54
g46
Ntp114
Rp115
(dp116
g58
Nsg59
I00
sg60
g88
sg53
Nsbsg51
g89
sg66
F161.44928399784075
sg53
g44
(g54
g46
Ntp117
Rp118
(dp119
g58
Nsg59
I00
sg60
g93
sg53
Nsbsg59
I01
sbsg51
g94
sg66
F1748.037235552051
sg53
g44
(g54
g46
Ntp120
Rp121
(dp122
g58
Nsg59
I00
sg60
g98
sg53
Nsbsg59
I01
sbsg59
I01
sbsg67
(lp123
g103
ag109
ag121
ag112
ag118
ag115
ag106
asg69
I7
sbag100
ag100
ag100
ag100
a(itree
PTree
p124
(dp125
g43
g44
(g45
g46
Ntp126
Rp127
(dp128
g50
I1
sg58
g44
(g54
g46
Ntp129
Rp130
(dp131
g58
Nsg59
I00
sg60
S'Hedge_90'
p132
sg53
Nsbsg51
g89
sg66
F154.49020134642757
sg53
g44
(g54
g46
Ntp133
Rp134
(dp135
g58
Nsg59
I00
sg60
g93
sg53
Nsbsg59
I01
sbsg67
(lp136
g127
ag134
ag130
asg69
I3
sbag124
a(itree
PTree
p137
(dp138
g43
g44
(g45
g46
Ntp139
Rp140
(dp141
g50
I1
sg58
g44
(g54
g46
Ntp142
Rp143
(dp144
g58
Nsg59
I00
sg60
S'Hedge_80'
p145
sg53
Nsbsg51
g89
sg66
F143.8331866596475
sg53
g44
(g54
g46
Ntp146
Rp147
(dp148
g58
Nsg59
I00
sg60
S'Flood_Control'
p149
sg53
Nsbsg59
I01
sbsg67
(lp150
g140
ag147
ag143
asg69
I3
sbag137
ag137
ag137
ag137
a(itree
PTree
p151
(dp152
g43
g44
(g45
g46
Ntp153
Rp154
(dp155
g50
I3
sg58
g44
(g54
g46
Ntp156
Rp157
(dp158
g58
Nsg59
I00
sg60
g78
sg53
Nsbsg51
g52
sg66
F306.3968308675956
sg53
g44
(g45
g46
Ntp159
Rp160
(dp161
g50
I2
sg58
g44
(g45
g46
Ntp162
Rp163
(dp164
g50
I1
sg58
g44
(g54
g46
Ntp165
Rp166
(dp167
g58
Nsg59
I00
sg60
g88
sg53
Nsbsg51
g89
sg66
F145.89395224432278
sg53
g44
(g54
g46
Ntp168
Rp169
(dp170
g58
Nsg59
I00
sg60
g93
sg53
Nsbsg59
I01
sbsg51
g94
sg66
F2248.4903824828034
sg53
g44
(g54
g46
Ntp171
Rp172
(dp173
g58
Nsg59
I00
sg60
g98
sg53
Nsbsg59
I01
sbsg59
I01
sbsg67
(lp174
g154
ag160
ag172
ag163
ag169
ag166
ag157
asg69
I7
sba(itree
PTree
p175
(dp176
g43
g44
(g45
g46
Ntp177
Rp178
(dp179
g50
I1
sg58
g44
(g54
g46
Ntp180
Rp181
(dp182
g58
Nsg59
I00
sg60
S'Release_Demand'
p183
sg53
Nsbsg51
g89
sg66
F144.78547385777162
sg53
g44
(g54
g46
Ntp184
Rp185
(dp186
g58
Nsg59
I00
sg60
S'Flood_Control'
p187
sg53
Nsbsg59
I01
sbsg67
(lp188
g178
ag185
ag181
asg69
I3
sbag175
ag175
ag175
ag175
ag175
ag175
ag175
ag175
ag175
ag175
a(itree
PTree
p189
(dp190
g43
g44
(g45
g46
Ntp191
Rp192
(dp193
g50
I1
sg58
g44
(g54
g46
Ntp194
Rp195
(dp196
g58
Nsg59
I00
sg60
S'Release_Demand'
p197
sg53
Nsbsg51
g89
sg66
F143.1325122323153
sg53
g44
(g54
g46
Ntp198
Rp199
(dp200
g58
Nsg59
I00
sg60
S'Flood_Control'
p201
sg53
Nsbsg59
I01
sbsg67
(lp202
g192
ag199
ag195
asg69
I3
sba(itree
PTree
p203
(dp204
g43
g44
(g45
g46
Ntp205
Rp206
(dp207
g50
I1
sg58
g44
(g54
g46
Ntp208
Rp209
(dp210
g58
Nsg59
I00
sg60
S'Hedge_90'
p211
sg53
Nsbsg51
g89
sg66
F143.55221290871307
sg53
g44
(g54
g46
Ntp212
Rp213
(dp214
g58
Nsg59
I00
sg60
S'Flood_Control'
p215
sg53
Nsbsg59
I01
sbsg67
(lp216
g206
ag213
ag209
asg69
I3
sbag203
ag203
ag203
ag203
ag203
ag203
ag203
ag203
ag203
ag203
ag203
ag203
ag203
ag203
ag203
ag203
ag203
ag203
ag203
ag203
ag203
ag203
ag203
ag203
ag203
ag203
ag203
ag203
ag203
ag203
ag203
ag203
ag203
ag203
ag203
ag203
ag203
ag203
ag203
ag203
ag203
ag203
ag203
ag203
ag203
ag203
ag203
ag203
ag203
ag203
ag203
ag203
ag203
ag203
ag203
ag203
ag203
ag203
ag203
ag203
ag203
ag203
ag203
ag203
ag203
ag203
ag203
ag203
ag203
ag203
ag203
ag203
ag203
ag203
ag203
ag203
ag203
ag203
ag203
ag203
ag203
ag203
ag203
ag203
ag203
ag203
ag203
ag203
ag203
ag203
ag203
ag203
ag203
ag203
ag203
ag203
ag203
ag203
ag203
ag203
ag203
ag203
ag203
ag203
ag203
ag203
ag203
ag203
ag203
ag203
ag203
ag203
ag203
ag203
ag203
ag203
ag203
ag203
ag203
ag203
ag203
ag203
ag203
ag203
ag203
ag203
ag203
ag203
ag203
ag203
ag203
ag203
ag203
ag203
ag203
ag203
ag203
ag203
ag203
ag203
ag203
ag203
ag203
ag203
ag203
ag203
ag203
ag203
ag203
ag203
ag203
ag203
ag203
ag203
ag203
ag203
ag203
ag203
ag203
ag203
ag203
ag203
ag203
ag203
ag203
ag203
ag203
ag203
ag203
asS'time'
p217
(lp218
I344
aI520
aI698
aI875
aI1056
aI1237
aI1416
aI1596
aI1778
aI1955
aI2139
aI2321
aI2504
aI2687
aI2869
aI3052
aI3234
aI3413
aI3594
aI3778
aI3964
aI4144
aI4326
aI4506
aI4682
aI4862
aI5043
aI5227
aI5405
aI5585
aI5765
aI5950
aI6133
aI6309
aI6493
aI6678
aI6854
aI7036
aI7217
aI7401
aI7582
aI7761
aI7937
aI8121
aI8301
aI8482
aI8661
aI8839
aI9019
aI9199
aI9377
aI9557
aI9735
aI9917
aI10093
aI10273
aI10458
aI10642
aI10825
aI11005
aI11190
aI11368
aI11547
aI11731
aI11910
aI12093
aI12271
aI12454
aI12634
aI12815
aI12995
aI13174
aI13358
aI13536
aI13717
aI13899
aI14078
aI14256
aI14440
aI14615
aI14799
aI14979
aI15161
aI15345
aI15529
aI15708
aI15887
aI16067
aI16248
aI16429
aI16616
aI16798
aI16986
aI17165
aI17345
aI17525
aI17710
aI17889
aI18072
aI18255
aI18442
aI18624
aI18809
aI18991
aI19174
aI19354
aI19535
aI19719
aI19897
aI20083
aI20266
aI20451
aI20639
aI20823
aI21003
aI21190
aI21371
aI21556
aI21737
aI21922
aI22104
aI22290
aI22470
aI22653
aI22830
aI23011
aI23189
aI23371
aI23554
aI23733
aI23914
aI24094
aI24280
aI24463
aI24647
aI24827
aI25010
aI25189
aI25375
aI25553
aI25736
aI25915
aI26093
aI26276
aI26455
aI26633
aI26815
aI26997
aI27180
aI27360
aI27535
aI27715
aI27893
aI28076
aI28253
aI28434
aI28618
aI28799
aI28978
aI29159
aI29340
aI29523
aI29700
aI29879
aI30059
aI30241
aI30423
aI30603
aI30784
aI30964
aI31145
aI31324
aI31505
aI31686
aI31864
aI32040
aI32217
aI32399
aI32575
aI32744
aI32916
aI33082
aI33253
aI33423
aI33594
aI33762
aI33917
aI34074
aI34235
aI34388
aI34534
aI34673
aI34806
aI34943
aI35072
aI35193
aI35355
aI35529
aI35630
aI35719
as.