(dp0
S'nfe'
p1
(lp2
I50
aI100
aI150
aI200
aI250
aI300
aI350
aI400
aI450
aI500
aI550
aI600
aI650
aI700
aI750
aI800
aI850
aI900
aI950
aI1000
aI1050
aI1100
aI1150
aI1200
aI1250
aI1300
aI1350
aI1400
aI1450
aI1500
aI1550
aI1600
aI1650
aI1700
aI1750
aI1800
aI1850
aI1900
aI1950
aI2000
aI2050
aI2100
aI2150
aI2200
aI2250
aI2300
aI2350
aI2400
aI2450
aI2500
aI2550
aI2600
aI2650
aI2700
aI2750
aI2800
aI2850
aI2900
aI2950
aI3000
aI3050
aI3100
aI3150
aI3200
aI3250
aI3300
aI3350
aI3400
aI3450
aI3500
aI3550
aI3600
aI3650
aI3700
aI3750
aI3800
aI3850
aI3900
aI3950
aI4000
aI4050
aI4100
aI4150
aI4200
aI4250
aI4300
aI4350
aI4400
aI4450
aI4500
aI4550
aI4600
aI4650
aI4700
aI4750
aI4800
aI4850
aI4900
aI4950
aI5000
aI5050
aI5100
aI5150
aI5200
aI5250
aI5300
aI5350
aI5400
aI5450
aI5500
aI5550
aI5600
aI5650
aI5700
aI5750
aI5800
aI5850
aI5900
aI5950
aI6000
aI6050
aI6100
aI6150
aI6200
aI6250
aI6300
aI6350
aI6400
aI6450
aI6500
aI6550
aI6600
aI6650
aI6700
aI6750
aI6800
aI6850
aI6900
aI6950
aI7000
aI7050
aI7100
aI7150
aI7200
aI7250
aI7300
aI7350
aI7400
aI7450
aI7500
aI7550
aI7600
aI7650
aI7700
aI7750
aI7800
aI7850
aI7900
aI7950
aI8000
aI8050
aI8100
aI8150
aI8200
aI8250
aI8300
aI8350
aI8400
aI8450
aI8500
aI8550
aI8600
aI8650
aI8700
aI8750
aI8800
aI8850
aI8900
aI8950
aI9000
aI9050
aI9100
aI9150
aI9200
aI9250
aI9300
aI9350
aI9400
aI9450
aI9500
aI9550
aI9600
aI9650
aI9700
aI9750
aI9800
aI9850
aI9900
aI9950
aI10000
asS'best_f'
p3
(lp4
cnumpy.core.multiarray
scalar
p5
(cnumpy
dtype
p6
(S'f8'
p7
I0
I1
tp8
Rp9
(I3
S'<'
p10
NNNI-1
I-1
I0
tp11
bS'\xd8\xfe\xa8`\xab\xa7\x18A'
p12
tp13
Rp14
ag14
ag5
(g9
S'\x02~>N\x91\xa7\x18A'
p15
tp16
Rp17
ag17
ag17
ag17
ag5
(g9
S'|\xb4e\xfe\x90\xa7\x18A'
p18
tp19
Rp20
ag5
(g9
S'S{\xf6\xba\x90\xa7\x18A'
p21
tp22
Rp23
ag5
(g9
S'\x89\x19Z\x16\x90\xa7\x18A'
p24
tp25
Rp26
ag5
(g9
S'\xad\x9d\x94\xc5\x8f\xa7\x18A'
p27
tp28
Rp29
ag29
ag29
ag29
ag5
(g9
S'c\xd8\xa7Q\x8f\xa7\x18A'
p30
tp31
Rp32
ag32
ag32
ag5
(g9
S"\x99\xecL'\x8f\xa7\x18A"
p33
tp34
Rp35
ag35
ag35
ag35
ag35
ag35
ag35
ag5
(g9
S'_\x08L\x1a\x8f\xa7\x18A'
p36
tp37
Rp38
ag38
ag38
ag38
ag38
ag38
ag38
ag38
ag38
ag5
(g9
S'\x9c\xe0\xb9\x0f\x8f\xa7\x18A'
p39
tp40
Rp41
ag41
ag41
ag41
ag41
ag41
ag41
ag41
ag41
ag41
ag41
ag41
ag41
ag41
ag41
ag41
ag41
ag41
ag41
ag41
ag41
ag41
ag41
ag41
ag41
ag41
ag41
ag41
ag41
ag41
ag41
ag41
ag41
ag41
ag41
ag41
ag41
ag41
ag41
ag41
ag41
ag41
ag41
ag41
ag41
ag41
ag41
ag41
ag41
ag41
ag41
ag41
ag41
ag41
ag41
ag41
ag41
ag41
ag41
ag41
ag41
ag41
ag41
ag41
ag41
ag41
ag41
ag41
ag41
ag41
ag41
ag41
ag41
ag41
ag41
ag41
ag41
ag41
ag41
ag41
ag41
ag41
ag41
ag41
ag41
ag41
ag41
ag41
ag41
ag41
ag41
ag41
ag41
ag41
ag41
ag41
ag41
ag41
ag41
ag41
ag41
ag41
ag41
ag41
ag41
ag41
ag41
ag41
ag41
ag41
ag41
ag41
ag41
ag41
ag41
ag41
ag41
ag41
ag41
ag41
ag41
ag41
ag41
ag41
ag41
ag41
ag41
ag41
ag41
ag41
ag41
ag41
ag41
ag41
ag41
ag41
ag41
ag41
ag41
ag41
ag41
ag41
ag41
ag41
ag41
ag41
ag41
ag41
ag41
ag41
ag41
ag41
ag41
ag41
ag41
ag41
ag41
ag41
ag41
ag41
ag41
ag41
ag41
ag41
ag41
ag41
ag41
ag41
asS'best_P'
p42
(lp43
(itree
PTree
p44
(dp45
S'root'
p46
ccopy_reg
_reconstructor
p47
(ctree
Feature
p48
c__builtin__
object
p49
Ntp50
Rp51
(dp52
S'index'
p53
I3
sS'name'
p54
S'LP3'
p55
sS'l'
p56
g47
(ctree
Action
p57
g49
Ntp58
Rp59
(dp60
S'r'
p61
NsS'is_feature'
p62
I00
sS'value'
p63
S'Flood_Control'
p64
sg56
Nsbsg61
g47
(g57
g49
Ntp65
Rp66
(dp67
g61
Nsg62
I00
sg63
S'Flood_Control'
p68
sg56
NsbsS'threshold'
p69
F221.6856785191339
sg62
I01
sbsS'L'
p70
(lp71
g51
ag59
ag66
asS'N'
p72
I3
sbag44
a(itree
PTree
p73
(dp74
g46
g47
(g48
g49
Ntp75
Rp76
(dp77
g53
I3
sg61
g47
(g57
g49
Ntp78
Rp79
(dp80
g61
Nsg62
I00
sg63
S'Hedge_80'
p81
sg56
Nsbsg54
g55
sg69
F314.5529606701946
sg56
g47
(g48
g49
Ntp82
Rp83
(dp84
g53
I1
sg61
g47
(g57
g49
Ntp85
Rp86
(dp87
g61
Nsg62
I00
sg63
S'Hedge_80'
p88
sg56
Nsbsg54
S'Day'
p89
sg69
F164.03338930693724
sg56
g47
(g57
g49
Ntp90
Rp91
(dp92
g61
Nsg62
I00
sg63
S'Flood_Control'
p93
sg56
Nsbsg62
I01
sbsg62
I01
sbsg70
(lp94
g76
ag83
ag91
ag86
ag79
asg72
I5
sbag73
ag73
ag73
a(itree
PTree
p95
(dp96
g46
g47
(g48
g49
Ntp97
Rp98
(dp99
g53
I3
sg61
g47
(g57
g49
Ntp100
Rp101
(dp102
g61
Nsg62
I00
sg63
g81
sg56
Nsbsg54
g55
sg69
F302.32207595171354
sg56
g47
(g48
g49
Ntp103
Rp104
(dp105
g53
I1
sg61
g47
(g57
g49
Ntp106
Rp107
(dp108
g61
Nsg62
I00
sg63
g88
sg56
Nsbsg54
g89
sg69
F161.85405319631167
sg56
g47
(g57
g49
Ntp109
Rp110
(dp111
g61
Nsg62
I00
sg63
g93
sg56
Nsbsg62
I01
sbsg62
I01
sbsg70
(lp112
g98
ag104
ag110
ag107
ag101
asg72
I5
sba(itree
PTree
p113
(dp114
g46
g47
(g48
g49
Ntp115
Rp116
(dp117
g53
I1
sg61
g47
(g57
g49
Ntp118
Rp119
(dp120
g61
Nsg62
I00
sg63
S'Release_Demand'
p121
sg56
Nsbsg54
g89
sg69
F160.2211504594802
sg56
g47
(g57
g49
Ntp122
Rp123
(dp124
g61
Nsg62
I00
sg63
g93
sg56
Nsbsg62
I01
sbsg70
(lp125
g116
ag123
ag119
asg72
I3
sba(itree
PTree
p126
(dp127
g46
g47
(g48
g49
Ntp128
Rp129
(dp130
g53
I3
sg61
g47
(g57
g49
Ntp131
Rp132
(dp133
g61
Nsg62
I00
sg63
g81
sg56
Nsbsg54
g55
sg69
F290.51718769197817
sg56
g47
(g48
g49
Ntp134
Rp135
(dp136
g53
I1
sg61
g47
(g57
g49
Ntp137
Rp138
(dp139
g61
Nsg62
I00
sg63
g88
sg56
Nsbsg54
g89
sg69
F147.72176057631395
sg56
g47
(g57
g49
Ntp140
Rp141
(dp142
g61
Nsg62
I00
sg63
g93
sg56
Nsbsg62
I01
sbsg62
I01
sbsg70
(lp143
g129
ag135
ag141
ag138
ag132
asg72
I5
sba(itree
PTree
p144
(dp145
g46
g47
(g48
g49
Ntp146
Rp147
(dp148
g53
I1
sg61
g47
(g57
g49
Ntp149
Rp150
(dp151
g61
Nsg62
I00
sg63
S'Hedge_80'
p152
sg56
Nsbsg54
g89
sg69
F140.07088282484386
sg56
g47
(g57
g49
Ntp153
Rp154
(dp155
g61
Nsg62
I00
sg63
g93
sg56
Nsbsg62
I01
sbsg70
(lp156
g147
ag154
ag150
asg72
I3
sbag144
ag144
ag144
a(itree
PTree
p157
(dp158
g46
g47
(g48
g49
Ntp159
Rp160
(dp161
g53
I1
sg61
g47
(g57
g49
Ntp162
Rp163
(dp164
g61
Nsg62
I00
sg63
S'Release_Demand'
p165
sg56
Nsbsg54
g89
sg69
F141.5772820172442
sg56
g47
(g57
g49
Ntp166
Rp167
(dp168
g61
Nsg62
I00
sg63
S'Flood_Control'
p169
sg56
Nsbsg62
I01
sbsg70
(lp170
g160
ag167
ag163
asg72
I3
sbag157
ag157
a(itree
PTree
p171
(dp172
g46
g47
(g48
g49
Ntp173
Rp174
(dp175
g53
I3
sg61
g47
(g57
g49
Ntp176
Rp177
(dp178
g61
Nsg62
I00
sg63
S'Hedge_80'
p179
sg56
Nsbsg54
g55
sg69
F294.769174483043
sg56
g47
(g48
g49
Ntp180
Rp181
(dp182
g53
I1
sg61
g47
(g57
g49
Ntp183
Rp184
(dp185
g61
Nsg62
I00
sg63
S'Hedge_90'
p186
sg56
Nsbsg54
g89
sg69
F141.86005235674722
sg56
g47
(g57
g49
Ntp187
Rp188
(dp189
g61
Nsg62
I00
sg63
g93
sg56
Nsbsg62
I01
sbsg62
I01
sbsg70
(lp190
g174
ag181
ag188
ag184
ag177
asg72
I5
sbag171
ag171
ag171
ag171
ag171
ag171
a(itree
PTree
p191
(dp192
g46
g47
(g48
g49
Ntp193
Rp194
(dp195
g53
I1
sg61
g47
(g57
g49
Ntp196
Rp197
(dp198
g61
Nsg62
I00
sg63
S'Hedge_90'
p199
sg56
Nsbsg54
g89
sg69
F140.5947958823452
sg56
g47
(g57
g49
Ntp200
Rp201
(dp202
g61
Nsg62
I00
sg63
g93
sg56
Nsbsg62
I01
sbsg70
(lp203
g194
ag201
ag197
asg72
I3
sbag191
ag191
ag191
ag191
ag191
ag191
ag191
ag191
a(itree
PTree
p204
(dp205
g46
g47
(g48
g49
Ntp206
Rp207
(dp208
g53
I1
sg61
g47
(g57
g49
Ntp209
Rp210
(dp211
g61
Nsg62
I00
sg63
S'Hedge_90'
p212
sg56
Nsbsg54
g89
sg69
F139.85812403906323
sg56
g47
(g57
g49
Ntp213
Rp214
(dp215
g61
Nsg62
I00
sg63
S'Flood_Control'
p216
sg56
Nsbsg62
I01
sbsg70
(lp217
g207
ag214
ag210
asg72
I3
sbag204
ag204
ag204
ag204
ag204
ag204
ag204
ag204
ag204
ag204
ag204
ag204
ag204
ag204
ag204
ag204
ag204
ag204
ag204
ag204
ag204
ag204
ag204
ag204
ag204
ag204
ag204
ag204
ag204
ag204
ag204
ag204
ag204
ag204
ag204
ag204
ag204
ag204
ag204
ag204
ag204
ag204
ag204
ag204
ag204
ag204
ag204
ag204
ag204
ag204
ag204
ag204
ag204
ag204
ag204
ag204
ag204
ag204
ag204
ag204
ag204
ag204
ag204
ag204
ag204
ag204
ag204
ag204
ag204
ag204
ag204
ag204
ag204
ag204
ag204
ag204
ag204
ag204
ag204
ag204
ag204
ag204
ag204
ag204
ag204
ag204
ag204
ag204
ag204
ag204
ag204
ag204
ag204
ag204
ag204
ag204
ag204
ag204
ag204
ag204
ag204
ag204
ag204
ag204
ag204
ag204
ag204
ag204
ag204
ag204
ag204
ag204
ag204
ag204
ag204
ag204
ag204
ag204
ag204
ag204
ag204
ag204
ag204
ag204
ag204
ag204
ag204
ag204
ag204
ag204
ag204
ag204
ag204
ag204
ag204
ag204
ag204
ag204
ag204
ag204
ag204
ag204
ag204
ag204
ag204
ag204
ag204
ag204
ag204
ag204
ag204
ag204
ag204
ag204
ag204
ag204
ag204
ag204
ag204
ag204
ag204
ag204
ag204
ag204
ag204
ag204
ag204
asS'time'
p218
(lp219
I328
aI525
aI730
aI936
aI1136
aI1337
aI1540
aI1743
aI1918
aI2097
aI2277
aI2455
aI2627
aI2806
aI2977
aI3150
aI3325
aI3502
aI3680
aI3850
aI4025
aI4202
aI4378
aI4551
aI4728
aI4904
aI5079
aI5255
aI5426
aI5602
aI5778
aI5954
aI6128
aI6301
aI6480
aI6660
aI6839
aI7016
aI7194
aI7369
aI7547
aI7718
aI7892
aI8067
aI8246
aI8420
aI8598
aI8777
aI8948
aI9124
aI9300
aI9478
aI9654
aI9832
aI10009
aI10185
aI10362
aI10533
aI10707
aI10889
aI11069
aI11243
aI11417
aI11597
aI11776
aI11949
aI12121
aI12297
aI12471
aI12651
aI12829
aI13005
aI13185
aI13357
aI13534
aI13708
aI13885
aI14060
aI14236
aI14410
aI14585
aI14757
aI14937
aI15109
aI15287
aI15463
aI15643
aI15818
aI15996
aI16170
aI16348
aI16520
aI16698
aI16874
aI17049
aI17225
aI17407
aI17579
aI17760
aI17936
aI18112
aI18286
aI18466
aI18643
aI18822
aI18999
aI19180
aI19357
aI19533
aI19705
aI19882
aI20057
aI20233
aI20409
aI20584
aI20760
aI20941
aI21117
aI21297
aI21475
aI21650
aI21830
aI22012
aI22190
aI22368
aI22542
aI22721
aI22900
aI23075
aI23254
aI23427
aI23603
aI23781
aI23953
aI24128
aI24305
aI24481
aI24660
aI24837
aI25013
aI25189
aI25367
aI25543
aI25716
aI25892
aI26070
aI26243
aI26420
aI26600
aI26774
aI26948
aI27121
aI27302
aI27474
aI27654
aI27828
aI28002
aI28175
aI28351
aI28528
aI28704
aI28881
aI29051
aI29227
aI29397
aI29571
aI29749
aI29924
aI30098
aI30271
aI30448
aI30627
aI30801
aI30972
aI31148
aI31325
aI31500
aI31679
aI31855
aI32027
aI32201
aI32378
aI32554
aI32730
aI32905
aI33082
aI33257
aI33430
aI33599
aI33764
aI33921
aI34075
aI34227
aI34370
aI34511
aI34640
aI34756
aI34875
aI35001
aI35122
as.