(dp0
S'nfe'
p1
(lp2
I50
aI100
aI150
aI200
aI250
aI300
aI350
aI400
aI450
aI500
aI550
aI600
aI650
aI700
aI750
aI800
aI850
aI900
aI950
aI1000
aI1050
aI1100
aI1150
aI1200
aI1250
aI1300
aI1350
aI1400
aI1450
aI1500
aI1550
aI1600
aI1650
aI1700
aI1750
aI1800
aI1850
aI1900
aI1950
aI2000
aI2050
aI2100
aI2150
aI2200
aI2250
aI2300
aI2350
aI2400
aI2450
aI2500
aI2550
aI2600
aI2650
aI2700
aI2750
aI2800
aI2850
aI2900
aI2950
aI3000
aI3050
aI3100
aI3150
aI3200
aI3250
aI3300
aI3350
aI3400
aI3450
aI3500
aI3550
aI3600
aI3650
aI3700
aI3750
aI3800
aI3850
aI3900
aI3950
aI4000
aI4050
aI4100
aI4150
aI4200
aI4250
aI4300
aI4350
aI4400
aI4450
aI4500
aI4550
aI4600
aI4650
aI4700
aI4750
aI4800
aI4850
aI4900
aI4950
aI5000
aI5050
aI5100
aI5150
aI5200
aI5250
aI5300
aI5350
aI5400
aI5450
aI5500
aI5550
aI5600
aI5650
aI5700
aI5750
aI5800
aI5850
aI5900
aI5950
aI6000
aI6050
aI6100
aI6150
aI6200
aI6250
aI6300
aI6350
aI6400
aI6450
aI6500
aI6550
aI6600
aI6650
aI6700
aI6750
aI6800
aI6850
aI6900
aI6950
aI7000
aI7050
aI7100
aI7150
aI7200
aI7250
aI7300
aI7350
aI7400
aI7450
aI7500
aI7550
aI7600
aI7650
aI7700
aI7750
aI7800
aI7850
aI7900
aI7950
aI8000
aI8050
aI8100
aI8150
aI8200
aI8250
aI8300
aI8350
aI8400
aI8450
aI8500
aI8550
aI8600
aI8650
aI8700
aI8750
aI8800
aI8850
aI8900
aI8950
aI9000
aI9050
aI9100
aI9150
aI9200
aI9250
aI9300
aI9350
aI9400
aI9450
aI9500
aI9550
aI9600
aI9650
aI9700
aI9750
aI9800
aI9850
aI9900
aI9950
aI10000
asS'best_f'
p3
(lp4
cnumpy.core.multiarray
scalar
p5
(cnumpy
dtype
p6
(S'f8'
p7
I0
I1
tp8
Rp9
(I3
S'<'
p10
NNNI-1
I-1
I0
tp11
bS'\xe1\xe72\x0b\x81)\xf4?'
p12
tp13
Rp14
ag14
ag14
ag5
(g9
S'\x1dL%\x80\xcd\x8c\xf2?'
p15
tp16
Rp17
ag17
ag5
(g9
S'\xf8\x8aa\xa9]*\xf0?'
p18
tp19
Rp20
ag20
ag20
ag20
ag20
ag5
(g9
S'\n\xee\x92\xde\xce;\xef?'
p21
tp22
Rp23
ag23
ag23
ag5
(g9
S'\xe4\xea\xa85\xe3\xc8\xe8?'
p24
tp25
Rp26
ag5
(g9
S'$\x08\xaf\xb8\xf2\x0e\xe8?'
p27
tp28
Rp29
ag29
ag29
ag5
(g9
S'3\x9d_\xda,\xad\xe5?'
p30
tp31
Rp32
ag32
ag32
ag32
ag5
(g9
S'h\xe9n\xc6\x8fJ\xe5?'
p33
tp34
Rp35
ag35
ag35
ag5
(g9
S'\xc2\xf6:\xe4nb\xe4?'
p36
tp37
Rp38
ag38
ag38
ag38
ag38
ag38
ag38
ag38
ag38
ag38
ag38
ag38
ag38
ag5
(g9
S'\xcc|\xa1\x03q\x00\xe3?'
p39
tp40
Rp41
ag41
ag41
ag41
ag41
ag41
ag41
ag41
ag41
ag41
ag41
ag41
ag41
ag5
(g9
S'\x0e\xb6\x88.4\t\xe2?'
p42
tp43
Rp44
ag44
ag44
ag44
ag44
ag44
ag44
ag44
ag44
ag44
ag44
ag44
ag44
ag44
ag44
ag44
ag44
ag44
ag44
ag44
ag5
(g9
S'\x84\x07\x14t\xad\xfa\xe1?'
p45
tp46
Rp47
ag47
ag47
ag5
(g9
S'\x1b\xee\xaa\xf3\x9a%\xe1?'
p48
tp49
Rp50
ag50
ag50
ag50
ag50
ag50
ag50
ag50
ag50
ag50
ag50
ag50
ag50
ag50
ag50
ag50
ag50
ag50
ag5
(g9
S'\x138\xbc\x15\x15\xb8\xe0?'
p51
tp52
Rp53
ag53
ag53
ag53
ag53
ag53
ag53
ag53
ag53
ag5
(g9
S'@\xab8\xae\xe7I\xe0?'
p54
tp55
Rp56
ag56
ag56
ag56
ag56
ag56
ag56
ag56
ag56
ag56
ag56
ag56
ag56
ag56
ag56
ag56
ag56
ag56
ag56
ag56
ag56
ag56
ag56
ag56
ag56
ag56
ag56
ag56
ag56
ag56
ag56
ag56
ag56
ag56
ag56
ag56
ag56
ag56
ag56
ag56
ag56
ag56
ag56
ag56
ag56
ag56
ag56
ag56
ag56
ag56
ag56
ag56
ag56
ag56
ag56
ag56
ag56
ag56
ag56
ag56
ag56
ag56
ag56
ag56
ag56
ag56
ag56
ag56
ag56
ag56
ag56
ag56
ag56
ag56
ag56
ag56
ag56
ag56
ag56
ag56
ag56
ag56
ag56
ag56
ag56
ag56
ag56
ag56
ag56
ag56
ag56
ag56
ag56
ag56
ag5
(g9
S'\x90\xf3\x94\xa6~\xe3\xdf?'
p57
tp58
Rp59
ag59
ag59
ag59
ag59
ag59
asS'best_P'
p60
(lp61
(itree
PTree
p62
(dp63
S'root'
p64
ccopy_reg
_reconstructor
p65
(ctree
Feature
p66
c__builtin__
object
p67
Ntp68
Rp69
(dp70
S'index'
p71
I0
sS'name'
p72
S'Storage'
p73
sS'l'
p74
g65
(ctree
Action
p75
g67
Ntp76
Rp77
(dp78
S'r'
p79
NsS'is_feature'
p80
I00
sS'value'
p81
S'Hedge_80'
p82
sg74
Nsbsg79
g65
(g75
g67
Ntp83
Rp84
(dp85
g79
Nsg80
I00
sg81
S'Flood_Control'
p86
sg74
NsbsS'threshold'
p87
F748.1656543798395
sg80
I01
sbsS'L'
p88
(lp89
g69
ag77
ag84
asS'N'
p90
I3
sbag62
ag62
a(itree
PTree
p91
(dp92
g64
g65
(g66
g67
Ntp93
Rp94
(dp95
g71
I3
sg79
g65
(g75
g67
Ntp96
Rp97
(dp98
g79
Nsg80
I00
sg81
S'Hedge_80'
p99
sg74
Nsbsg72
S'LP3'
p100
sg87
F321.19576781734054
sg74
g65
(g66
g67
Ntp101
Rp102
(dp103
g71
I0
sg79
g65
(g66
g67
Ntp104
Rp105
(dp106
g71
I1
sg79
g65
(g66
g67
Ntp107
Rp108
(dp109
g71
I3
sg79
g65
(g75
g67
Ntp110
Rp111
(dp112
g79
Nsg80
I00
sg81
S'Hedge_60'
p113
sg74
Nsbsg72
g100
sg87
F254.1253341064444
sg74
g65
(g75
g67
Ntp114
Rp115
(dp116
g79
Nsg80
I00
sg81
S'Flood_Control'
p117
sg74
Nsbsg80
I01
sbsg72
S'Day'
p118
sg87
F84.74167441962562
sg74
g65
(g75
g67
Ntp119
Rp120
(dp121
g79
Nsg80
I00
sg81
S'Release_Demand'
p122
sg74
Nsbsg80
I01
sbsg72
g73
sg87
F782.8224707299522
sg74
g65
(g75
g67
Ntp123
Rp124
(dp125
g79
Nsg80
I00
sg81
S'Hedge_90'
p126
sg74
Nsbsg80
I01
sbsg80
I01
sbsg88
(lp127
g94
ag102
ag124
ag105
ag120
ag108
ag115
ag111
ag97
asg90
I9
sbag91
a(itree
PTree
p128
(dp129
g64
g65
(g66
g67
Ntp130
Rp131
(dp132
g71
I3
sg79
g65
(g75
g67
Ntp133
Rp134
(dp135
g79
Nsg80
I00
sg81
g99
sg74
Nsbsg72
g100
sg87
F336.0277254003701
sg74
g65
(g66
g67
Ntp136
Rp137
(dp138
g71
I0
sg79
g65
(g66
g67
Ntp139
Rp140
(dp141
g71
I1
sg79
g65
(g66
g67
Ntp142
Rp143
(dp144
g71
I3
sg79
g65
(g75
g67
Ntp145
Rp146
(dp147
g79
Nsg80
I00
sg81
g113
sg74
Nsbsg72
g100
sg87
F281.97415265346456
sg74
g65
(g75
g67
Ntp148
Rp149
(dp150
g79
Nsg80
I00
sg81
g117
sg74
Nsbsg80
I01
sbsg72
g118
sg87
F60.60280216045697
sg74
g65
(g75
g67
Ntp151
Rp152
(dp153
g79
Nsg80
I00
sg81
g122
sg74
Nsbsg80
I01
sbsg72
g73
sg87
F807.7895722173051
sg74
g65
(g75
g67
Ntp154
Rp155
(dp156
g79
Nsg80
I00
sg81
g126
sg74
Nsbsg80
I01
sbsg80
I01
sbsg88
(lp157
g131
ag137
ag155
ag140
ag152
ag143
ag149
ag146
ag134
asg90
I9
sbag128
ag128
ag128
ag128
a(itree
PTree
p158
(dp159
g64
g65
(g66
g67
Ntp160
Rp161
(dp162
g71
I0
sg79
g65
(g75
g67
Ntp163
Rp164
(dp165
g79
Nsg80
I00
sg81
S'Flood_Control'
p166
sg74
Nsbsg72
g73
sg87
F867.1970816748102
sg74
g65
(g75
g67
Ntp167
Rp168
(dp169
g79
Nsg80
I00
sg81
S'Hedge_80'
p170
sg74
Nsbsg80
I01
sbsg88
(lp171
g161
ag168
ag164
asg90
I3
sbag158
ag158
a(itree
PTree
p172
(dp173
g64
g65
(g66
g67
Ntp174
Rp175
(dp176
g71
I3
sg79
g65
(g75
g67
Ntp177
Rp178
(dp179
g79
Nsg80
I00
sg81
S'Hedge_50'
p180
sg74
Nsbsg72
g100
sg87
F300.4638285092624
sg74
g65
(g66
g67
Ntp181
Rp182
(dp183
g71
I0
sg79
g65
(g75
g67
Ntp184
Rp185
(dp186
g79
Nsg80
I00
sg81
S'Flood_Control'
p187
sg74
Nsbsg72
g73
sg87
F955.5763578950306
sg74
g65
(g66
g67
Ntp188
Rp189
(dp190
g71
I1
sg79
g65
(g66
g67
Ntp191
Rp192
(dp193
g71
I3
sg79
g65
(g75
g67
Ntp194
Rp195
(dp196
g79
Nsg80
I00
sg81
S'Hedge_80'
p197
sg74
Nsbsg72
g100
sg87
F246.99316596977496
sg74
g65
(g75
g67
Ntp198
Rp199
(dp200
g79
Nsg80
I00
sg81
S'Release_Demand'
p201
sg74
Nsbsg80
I01
sbsg72
g118
sg87
F50.107978628595546
sg74
g65
(g75
g67
Ntp202
Rp203
(dp204
g79
Nsg80
I00
sg81
S'Hedge_90'
p205
sg74
Nsbsg80
I01
sbsg80
I01
sbsg80
I01
sbsg88
(lp206
g175
ag182
ag189
ag203
ag192
ag199
ag195
ag185
ag178
asg90
I9
sba(itree
PTree
p207
(dp208
g64
g65
(g66
g67
Ntp209
Rp210
(dp211
g71
I3
sg79
g65
(g75
g67
Ntp212
Rp213
(dp214
g79
Nsg80
I00
sg81
g99
sg74
Nsbsg72
g100
sg87
F320.4976611945522
sg74
g65
(g66
g67
Ntp215
Rp216
(dp217
g71
I0
sg79
g65
(g66
g67
Ntp218
Rp219
(dp220
g71
I1
sg79
g65
(g66
g67
Ntp221
Rp222
(dp223
g71
I3
sg79
g65
(g75
g67
Ntp224
Rp225
(dp226
g79
Nsg80
I00
sg81
g113
sg74
Nsbsg72
g100
sg87
F272.46355411793877
sg74
g65
(g75
g67
Ntp227
Rp228
(dp229
g79
Nsg80
I00
sg81
g117
sg74
Nsbsg80
I01
sbsg72
g118
sg87
F81.3933045844918
sg74
g65
(g75
g67
Ntp230
Rp231
(dp232
g79
Nsg80
I00
sg81
g122
sg74
Nsbsg80
I01
sbsg72
g73
sg87
F917.157376748064
sg74
g65
(g75
g67
Ntp233
Rp234
(dp235
g79
Nsg80
I00
sg81
g126
sg74
Nsbsg80
I01
sbsg80
I01
sbsg88
(lp236
g210
ag216
ag234
ag219
ag231
ag222
ag228
ag225
ag213
asg90
I9
sbag207
ag207
a(itree
PTree
p237
(dp238
g64
g65
(g66
g67
Ntp239
Rp240
(dp241
g71
I3
sg79
g65
(g75
g67
Ntp242
Rp243
(dp244
g79
Nsg80
I00
sg81
S'Hedge_70'
p245
sg74
Nsbsg72
g100
sg87
F303.2228945489194
sg74
g65
(g66
g67
Ntp246
Rp247
(dp248
g71
I0
sg79
g65
(g66
g67
Ntp249
Rp250
(dp251
g71
I0
sg79
g65
(g75
g67
Ntp252
Rp253
(dp254
g79
Nsg80
I00
sg81
S'Flood_Control'
p255
sg74
Nsbsg72
g73
sg87
F973.5754408568228
sg74
g65
(g75
g67
Ntp256
Rp257
(dp258
g79
Nsg80
I00
sg81
S'Hedge_80'
p259
sg74
Nsbsg80
I01
sbsg72
g73
sg87
F856.5252913985096
sg74
g65
(g75
g67
Ntp260
Rp261
(dp262
g79
Nsg80
I00
sg81
g126
sg74
Nsbsg80
I01
sbsg80
I01
sbsg88
(lp263
g240
ag247
ag261
ag250
ag257
ag253
ag243
asg90
I7
sbag237
ag237
ag237
a(itree
PTree
p264
(dp265
g64
g65
(g66
g67
Ntp266
Rp267
(dp268
g71
I3
sg79
g65
(g75
g67
Ntp269
Rp270
(dp271
g79
Nsg80
I00
sg81
g245
sg74
Nsbsg72
g100
sg87
F304.03093448109735
sg74
g65
(g66
g67
Ntp272
Rp273
(dp274
g71
I0
sg79
g65
(g66
g67
Ntp275
Rp276
(dp277
g71
I0
sg79
g65
(g75
g67
Ntp278
Rp279
(dp280
g79
Nsg80
I00
sg81
g255
sg74
Nsbsg72
g73
sg87
F829.8931388414312
sg74
g65
(g75
g67
Ntp281
Rp282
(dp283
g79
Nsg80
I00
sg81
g259
sg74
Nsbsg80
I01
sbsg72
g73
sg87
F935.3579329707019
sg74
g65
(g75
g67
Ntp284
Rp285
(dp286
g79
Nsg80
I00
sg81
g126
sg74
Nsbsg80
I01
sbsg80
I01
sbsg88
(lp287
g267
ag273
ag285
ag276
ag282
ag279
ag270
asg90
I7
sbag264
ag264
a(itree
PTree
p288
(dp289
g64
g65
(g66
g67
Ntp290
Rp291
(dp292
g71
I3
sg79
g65
(g75
g67
Ntp293
Rp294
(dp295
g79
Nsg80
I00
sg81
g245
sg74
Nsbsg72
g100
sg87
F321.7426650510249
sg74
g65
(g66
g67
Ntp296
Rp297
(dp298
g71
I0
sg79
g65
(g66
g67
Ntp299
Rp300
(dp301
g71
I0
sg79
g65
(g75
g67
Ntp302
Rp303
(dp304
g79
Nsg80
I00
sg81
g255
sg74
Nsbsg72
g73
sg87
F705.6165114886992
sg74
g65
(g75
g67
Ntp305
Rp306
(dp307
g79
Nsg80
I00
sg81
g259
sg74
Nsbsg80
I01
sbsg72
g73
sg87
F972.0020238252421
sg74
g65
(g75
g67
Ntp308
Rp309
(dp310
g79
Nsg80
I00
sg81
g126
sg74
Nsbsg80
I01
sbsg80
I01
sbsg88
(lp311
g291
ag297
ag309
ag300
ag306
ag303
ag294
asg90
I7
sbag288
ag288
ag288
ag288
ag288
ag288
ag288
ag288
ag288
ag288
ag288
ag288
a(itree
PTree
p312
(dp313
g64
g65
(g66
g67
Ntp314
Rp315
(dp316
g71
I3
sg79
g65
(g75
g67
Ntp317
Rp318
(dp319
g79
Nsg80
I00
sg81
S'Flood_Control'
p320
sg74
Nsbsg72
g100
sg87
F314.76219888232794
sg74
g65
(g66
g67
Ntp321
Rp322
(dp323
g71
I0
sg79
g65
(g75
g67
Ntp324
Rp325
(dp326
g79
Nsg80
I00
sg81
S'Flood_Control'
p327
sg74
Nsbsg72
g73
sg87
F973.1190642089592
sg74
g65
(g75
g67
Ntp328
Rp329
(dp330
g79
Nsg80
I00
sg81
S'Hedge_90'
p331
sg74
Nsbsg80
I01
sbsg80
I01
sbsg88
(lp332
g315
ag322
ag329
ag325
ag318
asg90
I5
sbag312
ag312
ag312
ag312
ag312
ag312
ag312
ag312
ag312
ag312
ag312
ag312
a(itree
PTree
p333
(dp334
g64
g65
(g66
g67
Ntp335
Rp336
(dp337
g71
I3
sg79
g65
(g75
g67
Ntp338
Rp339
(dp340
g79
Nsg80
I00
sg81
S'Hedge_60'
p341
sg74
Nsbsg72
g100
sg87
F292.1306348324224
sg74
g65
(g66
g67
Ntp342
Rp343
(dp344
g71
I0
sg79
g65
(g66
g67
Ntp345
Rp346
(dp347
g71
I1
sg79
g65
(g75
g67
Ntp348
Rp349
(dp350
g79
Nsg80
I00
sg81
S'Hedge_90'
p351
sg74
Nsbsg72
g118
sg87
F159.80894863763672
sg74
g65
(g75
g67
Ntp352
Rp353
(dp354
g79
Nsg80
I00
sg81
S'Flood_Control'
p355
sg74
Nsbsg80
I01
sbsg72
g73
sg87
F739.411880488462
sg74
g65
(g75
g67
Ntp356
Rp357
(dp358
g79
Nsg80
I00
sg81
S'Hedge_80'
p359
sg74
Nsbsg80
I01
sbsg80
I01
sbsg88
(lp360
g336
ag343
ag357
ag346
ag353
ag349
ag339
asg90
I7
sbag333
ag333
ag333
ag333
ag333
ag333
ag333
ag333
ag333
ag333
ag333
ag333
ag333
ag333
ag333
ag333
ag333
ag333
ag333
a(itree
PTree
p361
(dp362
g64
g65
(g66
g67
Ntp363
Rp364
(dp365
g71
I3
sg79
g65
(g75
g67
Ntp366
Rp367
(dp368
g79
Nsg80
I00
sg81
g341
sg74
Nsbsg72
g100
sg87
F285.93302856932013
sg74
g65
(g66
g67
Ntp369
Rp370
(dp371
g71
I0
sg79
g65
(g66
g67
Ntp372
Rp373
(dp374
g71
I1
sg79
g65
(g75
g67
Ntp375
Rp376
(dp377
g79
Nsg80
I00
sg81
g351
sg74
Nsbsg72
g118
sg87
F152.29592631496882
sg74
g65
(g75
g67
Ntp378
Rp379
(dp380
g79
Nsg80
I00
sg81
g355
sg74
Nsbsg80
I01
sbsg72
g73
sg87
F760.2840255993207
sg74
g65
(g75
g67
Ntp381
Rp382
(dp383
g79
Nsg80
I00
sg81
g359
sg74
Nsbsg80
I01
sbsg80
I01
sbsg88
(lp384
g364
ag370
ag382
ag373
ag379
ag376
ag367
asg90
I7
sbag361
ag361
a(itree
PTree
p385
(dp386
g64
g65
(g66
g67
Ntp387
Rp388
(dp389
g71
I3
sg79
g65
(g75
g67
Ntp390
Rp391
(dp392
g79
Nsg80
I00
sg81
g341
sg74
Nsbsg72
g100
sg87
F292.376662397485
sg74
g65
(g66
g67
Ntp393
Rp394
(dp395
g71
I0
sg79
g65
(g66
g67
Ntp396
Rp397
(dp398
g71
I1
sg79
g65
(g75
g67
Ntp399
Rp400
(dp401
g79
Nsg80
I00
sg81
g351
sg74
Nsbsg72
g118
sg87
F147.54132972802583
sg74
g65
(g75
g67
Ntp402
Rp403
(dp404
g79
Nsg80
I00
sg81
g355
sg74
Nsbsg80
I01
sbsg72
g73
sg87
F703.0882758096294
sg74
g65
(g75
g67
Ntp405
Rp406
(dp407
g79
Nsg80
I00
sg81
g359
sg74
Nsbsg80
I01
sbsg80
I01
sbsg88
(lp408
g388
ag394
ag406
ag397
ag403
ag400
ag391
asg90
I7
sbag385
ag385
ag385
ag385
ag385
ag385
ag385
ag385
ag385
ag385
ag385
ag385
ag385
ag385
ag385
ag385
ag385
a(itree
PTree
p409
(dp410
g64
g65
(g66
g67
Ntp411
Rp412
(dp413
g71
I3
sg79
g65
(g75
g67
Ntp414
Rp415
(dp416
g79
Nsg80
I00
sg81
g341
sg74
Nsbsg72
g100
sg87
F280.2134227527871
sg74
g65
(g66
g67
Ntp417
Rp418
(dp419
g71
I0
sg79
g65
(g66
g67
Ntp420
Rp421
(dp422
g71
I1
sg79
g65
(g75
g67
Ntp423
Rp424
(dp425
g79
Nsg80
I00
sg81
g351
sg74
Nsbsg72
g118
sg87
F147.54132972802583
sg74
g65
(g75
g67
Ntp426
Rp427
(dp428
g79
Nsg80
I00
sg81
g355
sg74
Nsbsg80
I01
sbsg72
g73
sg87
F671.2704430610637
sg74
g65
(g75
g67
Ntp429
Rp430
(dp431
g79
Nsg80
I00
sg81
g359
sg74
Nsbsg80
I01
sbsg80
I01
sbsg88
(lp432
g412
ag418
ag430
ag421
ag427
ag424
ag415
asg90
I7
sbag409
ag409
ag409
ag409
ag409
ag409
ag409
ag409
a(itree
PTree
p433
(dp434
g64
g65
(g66
g67
Ntp435
Rp436
(dp437
g71
I3
sg79
g65
(g75
g67
Ntp438
Rp439
(dp440
g79
Nsg80
I00
sg81
g341
sg74
Nsbsg72
g100
sg87
F324.27586147226896
sg74
g65
(g66
g67
Ntp441
Rp442
(dp443
g71
I0
sg79
g65
(g66
g67
Ntp444
Rp445
(dp446
g71
I1
sg79
g65
(g75
g67
Ntp447
Rp448
(dp449
g79
Nsg80
I00
sg81
g351
sg74
Nsbsg72
g118
sg87
F140.7698467944146
sg74
g65
(g75
g67
Ntp450
Rp451
(dp452
g79
Nsg80
I00
sg81
g355
sg74
Nsbsg80
I01
sbsg72
g73
sg87
F626.901861686283
sg74
g65
(g75
g67
Ntp453
Rp454
(dp455
g79
Nsg80
I00
sg81
g359
sg74
Nsbsg80
I01
sbsg80
I01
sbsg88
(lp456
g436
ag442
ag454
ag445
ag451
ag448
ag439
asg90
I7
sbag433
ag433
ag433
ag433
ag433
ag433
ag433
ag433
ag433
ag433
ag433
ag433
ag433
ag433
ag433
ag433
ag433
ag433
ag433
ag433
ag433
ag433
ag433
ag433
ag433
ag433
ag433
ag433
ag433
ag433
ag433
ag433
ag433
ag433
ag433
ag433
ag433
ag433
ag433
ag433
ag433
ag433
ag433
ag433
ag433
ag433
ag433
ag433
ag433
ag433
ag433
ag433
ag433
ag433
ag433
ag433
ag433
ag433
ag433
ag433
ag433
ag433
ag433
ag433
ag433
ag433
ag433
ag433
ag433
ag433
ag433
ag433
ag433
ag433
ag433
ag433
ag433
ag433
ag433
ag433
ag433
ag433
ag433
ag433
ag433
ag433
ag433
ag433
ag433
ag433
ag433
ag433
ag433
a(itree
PTree
p457
(dp458
g64
g65
(g66
g67
Ntp459
Rp460
(dp461
g71
I3
sg79
g65
(g75
g67
Ntp462
Rp463
(dp464
g79
Nsg80
I00
sg81
g341
sg74
Nsbsg72
g100
sg87
F325.86782860107326
sg74
g65
(g66
g67
Ntp465
Rp466
(dp467
g71
I0
sg79
g65
(g66
g67
Ntp468
Rp469
(dp470
g71
I1
sg79
g65
(g75
g67
Ntp471
Rp472
(dp473
g79
Nsg80
I00
sg81
g351
sg74
Nsbsg72
g118
sg87
F140.7698467944146
sg74
g65
(g75
g67
Ntp474
Rp475
(dp476
g79
Nsg80
I00
sg81
g355
sg74
Nsbsg80
I01
sbsg72
g73
sg87
F662.2032614694288
sg74
g65
(g75
g67
Ntp477
Rp478
(dp479
g79
Nsg80
I00
sg81
g359
sg74
Nsbsg80
I01
sbsg80
I01
sbsg88
(lp480
g460
ag466
ag478
ag469
ag475
ag472
ag463
asg90
I7
sbag457
ag457
ag457
ag457
ag457
asS'time'
p481
(lp482
I375
aI545
aI713
aI874
aI1032
aI1193
aI1362
aI1523
aI1686
aI1850
aI2016
aI2185
aI2352
aI2515
aI2673
aI2836
aI3003
aI3164
aI3329
aI3490
aI3652
aI3817
aI3981
aI4145
aI4311
aI4476
aI4647
aI4808
aI4976
aI5141
aI5307
aI5470
aI5638
aI5808
aI5972
aI6138
aI6298
aI6461
aI6627
aI6791
aI6957
aI7122
aI7283
aI7444
aI7607
aI7776
aI7939
aI8107
aI8272
aI8435
aI8598
aI8758
aI8924
aI9086
aI9246
aI9410
aI9576
aI9740
aI9902
aI10067
aI10230
aI10395
aI10559
aI10725
aI10888
aI11054
aI11216
aI11378
aI11543
aI11708
aI11876
aI12038
aI12202
aI12373
aI12536
aI12699
aI12866
aI13033
aI13196
aI13363
aI13530
aI13694
aI13858
aI14024
aI14186
aI14347
aI14508
aI14679
aI14841
aI15005
aI15168
aI15335
aI15500
aI15665
aI15829
aI15994
aI16165
aI16329
aI16495
aI16659
aI16820
aI16992
aI17157
aI17321
aI17491
aI17654
aI17815
aI17977
aI18137
aI18299
aI18463
aI18627
aI18793
aI18956
aI19119
aI19281
aI19441
aI19606
aI19770
aI19931
aI20096
aI20259
aI20421
aI20589
aI20749
aI20911
aI21076
aI21247
aI21408
aI21575
aI21739
aI21898
aI22062
aI22223
aI22382
aI22543
aI22711
aI22874
aI23039
aI23206
aI23371
aI23539
aI23698
aI23866
aI24027
aI24192
aI24352
aI24517
aI24680
aI24841
aI25009
aI25172
aI25334
aI25495
aI25659
aI25820
aI25980
aI26142
aI26305
aI26472
aI26636
aI26794
aI26956
aI27113
aI27274
aI27441
aI27606
aI27765
aI27928
aI28092
aI28260
aI28424
aI28589
aI28750
aI28908
aI29068
aI29232
aI29395
aI29557
aI29722
aI29882
aI30048
aI30207
aI30370
aI30534
aI30697
aI30864
aI31028
aI31196
aI31359
aI31522
aI31685
aI31847
aI32010
aI32173
aI32332
aI32502
aI32666
aI32823
aI32983
as.