(dp0
S'nfe'
p1
(lp2
I50
aI100
aI150
aI200
aI250
aI300
aI350
aI400
aI450
aI500
aI550
aI600
aI650
aI700
aI750
aI800
aI850
aI900
aI950
aI1000
aI1050
aI1100
aI1150
aI1200
aI1250
aI1300
aI1350
aI1400
aI1450
aI1500
aI1550
aI1600
aI1650
aI1700
aI1750
aI1800
aI1850
aI1900
aI1950
aI2000
aI2050
aI2100
aI2150
aI2200
aI2250
aI2300
aI2350
aI2400
aI2450
aI2500
aI2550
aI2600
aI2650
aI2700
aI2750
aI2800
aI2850
aI2900
aI2950
aI3000
aI3050
aI3100
aI3150
aI3200
aI3250
aI3300
aI3350
aI3400
aI3450
aI3500
aI3550
aI3600
aI3650
aI3700
aI3750
aI3800
aI3850
aI3900
aI3950
aI4000
aI4050
aI4100
aI4150
aI4200
aI4250
aI4300
aI4350
aI4400
aI4450
aI4500
aI4550
aI4600
aI4650
aI4700
aI4750
aI4800
aI4850
aI4900
aI4950
aI5000
aI5050
aI5100
aI5150
aI5200
aI5250
aI5300
aI5350
aI5400
aI5450
aI5500
aI5550
aI5600
aI5650
aI5700
aI5750
aI5800
aI5850
aI5900
aI5950
aI6000
aI6050
aI6100
aI6150
aI6200
aI6250
aI6300
aI6350
aI6400
aI6450
aI6500
aI6550
aI6600
aI6650
aI6700
aI6750
aI6800
aI6850
aI6900
aI6950
aI7000
aI7050
aI7100
aI7150
aI7200
aI7250
aI7300
aI7350
aI7400
aI7450
aI7500
aI7550
aI7600
aI7650
aI7700
aI7750
aI7800
aI7850
aI7900
aI7950
aI8000
aI8050
aI8100
aI8150
aI8200
aI8250
aI8300
aI8350
aI8400
aI8450
aI8500
aI8550
aI8600
aI8650
aI8700
aI8750
aI8800
aI8850
aI8900
aI8950
aI9000
aI9050
aI9100
aI9150
aI9200
aI9250
aI9300
aI9350
aI9400
aI9450
aI9500
aI9550
aI9600
aI9650
aI9700
aI9750
aI9800
aI9850
aI9900
aI9950
aI10000
asS'best_f'
p3
(lp4
cnumpy.core.multiarray
scalar
p5
(cnumpy
dtype
p6
(S'f8'
p7
I0
I1
tp8
Rp9
(I3
S'<'
p10
NNNI-1
I-1
I0
tp11
bS'\x99Y\x9eA.\xaa\x13A'
p12
tp13
Rp14
ag14
ag5
(g9
S'd\xd2h\xc5-\xaa\x13A'
p15
tp16
Rp17
ag5
(g9
S'\xd1\xdf_\x9c-\xaa\x13A'
p18
tp19
Rp20
ag20
ag5
(g9
S'4\xe6\xc3\x87(\xaa\x13A'
p21
tp22
Rp23
ag23
ag5
(g9
S'\xf3Y,\x9d#\xaa\x13A'
p24
tp25
Rp26
ag26
ag5
(g9
S'ZAQa\x13\xaa\x13A'
p27
tp28
Rp29
ag29
ag29
ag29
ag29
ag29
ag29
ag29
ag29
ag5
(g9
S'FG\xfd@\x13\xaa\x13A'
p30
tp31
Rp32
ag5
(g9
S'M\x84Q)\x13\xaa\x13A'
p33
tp34
Rp35
ag35
ag35
ag35
ag35
ag35
ag35
ag35
ag35
ag5
(g9
S'\x96\xc2\xc6\x02\x13\xaa\x13A'
p36
tp37
Rp38
ag38
ag38
ag38
ag38
ag38
ag38
ag5
(g9
S'!\x16\x81u\x12\xaa\x13A'
p39
tp40
Rp41
ag41
ag41
ag41
ag41
ag41
ag41
ag41
ag41
ag41
ag41
ag41
ag41
ag41
ag41
ag41
ag41
ag41
ag41
ag41
ag41
ag41
ag41
ag41
ag41
ag41
ag41
ag41
ag41
ag41
ag41
ag41
ag41
ag41
ag41
ag41
ag41
ag41
ag41
ag41
ag41
ag41
ag41
ag41
ag41
ag41
ag41
ag41
ag41
ag41
ag41
ag41
ag41
ag41
ag41
ag41
ag41
ag41
ag41
ag41
ag41
ag41
ag41
ag41
ag41
ag41
ag41
ag41
ag41
ag41
ag41
ag41
ag41
ag41
ag41
ag41
ag41
ag41
ag41
ag41
ag41
ag41
ag41
ag41
ag41
ag41
ag41
ag41
ag41
ag41
ag41
ag41
ag41
ag41
ag41
ag41
ag41
ag41
ag41
ag41
ag41
ag41
ag41
ag41
ag41
ag41
ag41
ag41
ag41
ag41
ag41
ag41
ag41
ag41
ag41
ag41
ag41
ag41
ag41
ag41
ag41
ag41
ag41
ag41
ag41
ag41
ag41
ag41
ag41
ag41
ag41
ag41
ag41
ag41
ag41
ag41
ag41
ag41
ag41
ag41
ag41
ag41
ag41
ag41
ag41
ag41
ag41
ag41
ag41
ag41
ag41
ag41
ag41
ag41
ag41
ag41
ag41
ag41
ag41
ag41
ag41
ag41
ag41
ag41
ag41
asS'best_P'
p42
(lp43
(itree
PTree
p44
(dp45
S'root'
p46
ccopy_reg
_reconstructor
p47
(ctree
Feature
p48
c__builtin__
object
p49
Ntp50
Rp51
(dp52
S'index'
p53
I3
sS'name'
p54
S'LP3'
p55
sS'l'
p56
g47
(ctree
Action
p57
g49
Ntp58
Rp59
(dp60
S'r'
p61
NsS'is_feature'
p62
I00
sS'value'
p63
S'Flood_Control'
p64
sg56
Nsbsg61
g47
(g57
g49
Ntp65
Rp66
(dp67
g61
Nsg62
I00
sg63
S'Flood_Control'
p68
sg56
NsbsS'threshold'
p69
F221.6856785191339
sg62
I01
sbsS'L'
p70
(lp71
g51
ag59
ag66
asS'N'
p72
I3
sbag44
a(itree
PTree
p73
(dp74
g46
g47
(g48
g49
Ntp75
Rp76
(dp77
g53
I0
sg61
g47
(g57
g49
Ntp78
Rp79
(dp80
g61
Nsg62
I00
sg63
S'Hedge_80'
p81
sg56
Nsbsg54
S'Storage'
p82
sg69
F843.221639396005
sg56
g47
(g57
g49
Ntp83
Rp84
(dp85
g61
Nsg62
I00
sg63
S'Flood_Control'
p86
sg56
Nsbsg62
I01
sbsg70
(lp87
g76
ag84
ag79
asg72
I3
sba(itree
PTree
p88
(dp89
g46
g47
(g48
g49
Ntp90
Rp91
(dp92
g53
I0
sg61
g47
(g48
g49
Ntp93
Rp94
(dp95
g53
I0
sg61
g47
(g57
g49
Ntp96
Rp97
(dp98
g61
Nsg62
I00
sg63
S'Hedge_70'
p99
sg56
Nsbsg54
g82
sg69
F813.5918530404488
sg56
g47
(g57
g49
Ntp100
Rp101
(dp102
g61
Nsg62
I00
sg63
S'Flood_Control'
p103
sg56
Nsbsg62
I01
sbsg54
g82
sg69
F74.0642438359859
sg56
g47
(g57
g49
Ntp104
Rp105
(dp106
g61
Nsg62
I00
sg63
S'Flood_Control'
p107
sg56
Nsbsg62
I01
sbsg70
(lp108
g91
ag105
ag94
ag101
ag97
asg72
I5
sbag88
a(itree
PTree
p109
(dp110
g46
g47
(g48
g49
Ntp111
Rp112
(dp113
g53
I1
sg61
g47
(g57
g49
Ntp114
Rp115
(dp116
g61
Nsg62
I00
sg63
S'Hedge_80'
p117
sg56
Nsbsg54
S'Day'
p118
sg69
F224.90524028770957
sg56
g47
(g57
g49
Ntp119
Rp120
(dp121
g61
Nsg62
I00
sg63
S'Flood_Control'
p122
sg56
Nsbsg62
I01
sbsg70
(lp123
g112
ag120
ag115
asg72
I3
sbag109
a(itree
PTree
p124
(dp125
g46
g47
(g48
g49
Ntp126
Rp127
(dp128
g53
I1
sg61
g47
(g57
g49
Ntp129
Rp130
(dp131
g61
Nsg62
I00
sg63
g117
sg56
Nsbsg54
g118
sg69
F210.93748474196033
sg56
g47
(g57
g49
Ntp132
Rp133
(dp134
g61
Nsg62
I00
sg63
g122
sg56
Nsbsg62
I01
sbsg70
(lp135
g127
ag133
ag130
asg72
I3
sbag124
a(itree
PTree
p136
(dp137
g46
g47
(g48
g49
Ntp138
Rp139
(dp140
g53
I1
sg61
g47
(g57
g49
Ntp141
Rp142
(dp143
g61
Nsg62
I00
sg63
S'Hedge_80'
p144
sg56
Nsbsg54
g118
sg69
F153.08400893884044
sg56
g47
(g57
g49
Ntp145
Rp146
(dp147
g61
Nsg62
I00
sg63
S'Flood_Control'
p148
sg56
Nsbsg62
I01
sbsg70
(lp149
g139
ag146
ag142
asg72
I3
sbag136
ag136
ag136
ag136
ag136
ag136
ag136
ag136
a(itree
PTree
p150
(dp151
g46
g47
(g48
g49
Ntp152
Rp153
(dp154
g53
I1
sg61
g47
(g57
g49
Ntp155
Rp156
(dp157
g61
Nsg62
I00
sg63
g117
sg56
Nsbsg54
g118
sg69
F152.99504086569965
sg56
g47
(g57
g49
Ntp158
Rp159
(dp160
g61
Nsg62
I00
sg63
S'Flood_Control'
p161
sg56
Nsbsg62
I01
sbsg70
(lp162
g153
ag159
ag156
asg72
I3
sba(itree
PTree
p163
(dp164
g46
g47
(g48
g49
Ntp165
Rp166
(dp167
g53
I1
sg61
g47
(g57
g49
Ntp168
Rp169
(dp170
g61
Nsg62
I00
sg63
S'Hedge_90'
p171
sg56
Nsbsg54
g118
sg69
F154.33410251304863
sg56
g47
(g57
g49
Ntp172
Rp173
(dp174
g61
Nsg62
I00
sg63
S'Flood_Control'
p175
sg56
Nsbsg62
I01
sbsg70
(lp176
g166
ag173
ag169
asg72
I3
sbag163
ag163
ag163
ag163
ag163
ag163
ag163
ag163
a(itree
PTree
p177
(dp178
g46
g47
(g48
g49
Ntp179
Rp180
(dp181
g53
I1
sg61
g47
(g57
g49
Ntp182
Rp183
(dp184
g61
Nsg62
I00
sg63
S'Release_Demand'
p185
sg56
Nsbsg54
g118
sg69
F150.30804922967832
sg56
g47
(g57
g49
Ntp186
Rp187
(dp188
g61
Nsg62
I00
sg63
S'Flood_Control'
p189
sg56
Nsbsg62
I01
sbsg70
(lp190
g180
ag187
ag183
asg72
I3
sbag177
ag177
ag177
ag177
ag177
ag177
a(itree
PTree
p191
(dp192
g46
g47
(g48
g49
Ntp193
Rp194
(dp195
g53
I1
sg61
g47
(g57
g49
Ntp196
Rp197
(dp198
g61
Nsg62
I00
sg63
S'Hedge_90'
p199
sg56
Nsbsg54
g118
sg69
F149.01962254369255
sg56
g47
(g57
g49
Ntp200
Rp201
(dp202
g61
Nsg62
I00
sg63
S'Flood_Control'
p203
sg56
Nsbsg62
I01
sbsg70
(lp204
g194
ag201
ag197
asg72
I3
sbag191
ag191
ag191
ag191
ag191
ag191
ag191
ag191
ag191
ag191
ag191
ag191
ag191
ag191
ag191
ag191
ag191
ag191
ag191
ag191
ag191
ag191
ag191
ag191
ag191
ag191
ag191
ag191
ag191
ag191
ag191
ag191
ag191
ag191
ag191
ag191
ag191
ag191
ag191
ag191
ag191
ag191
ag191
ag191
ag191
ag191
ag191
ag191
ag191
ag191
ag191
ag191
ag191
ag191
ag191
ag191
ag191
ag191
ag191
ag191
ag191
ag191
ag191
ag191
ag191
ag191
ag191
ag191
ag191
ag191
ag191
ag191
ag191
ag191
ag191
ag191
ag191
ag191
ag191
ag191
ag191
ag191
ag191
ag191
ag191
ag191
ag191
ag191
ag191
ag191
ag191
ag191
ag191
ag191
ag191
ag191
ag191
ag191
ag191
ag191
ag191
ag191
ag191
ag191
ag191
ag191
ag191
ag191
ag191
ag191
ag191
ag191
ag191
ag191
ag191
ag191
ag191
ag191
ag191
ag191
ag191
ag191
ag191
ag191
ag191
ag191
ag191
ag191
ag191
ag191
ag191
ag191
ag191
ag191
ag191
ag191
ag191
ag191
ag191
ag191
ag191
ag191
ag191
ag191
ag191
ag191
ag191
ag191
ag191
ag191
ag191
ag191
ag191
ag191
ag191
ag191
ag191
ag191
ag191
ag191
ag191
ag191
ag191
ag191
asS'time'
p205
(lp206
I343
aI523
aI704
aI887
aI1074
aI1257
aI1439
aI1621
aI1799
aI1975
aI2158
aI2338
aI2523
aI2705
aI2891
aI3073
aI3261
aI3448
aI3634
aI3819
aI4006
aI4192
aI4374
aI4559
aI4740
aI4923
aI5103
aI5283
aI5471
aI5655
aI5845
aI6026
aI6209
aI6396
aI6577
aI6761
aI6944
aI7126
aI7311
aI7494
aI7674
aI7857
aI8039
aI8224
aI8409
aI8589
aI8769
aI8957
aI9143
aI9326
aI9506
aI9689
aI9877
aI10060
aI10246
aI10433
aI10612
aI10799
aI10985
aI11172
aI11358
aI11540
aI11730
aI11918
aI12099
aI12281
aI12467
aI12654
aI12834
aI13015
aI13199
aI13380
aI13569
aI13755
aI13939
aI14126
aI14306
aI14490
aI14672
aI14857
aI15040
aI15224
aI15406
aI15588
aI15768
aI15955
aI16135
aI16320
aI16505
aI16692
aI16874
aI17060
aI17242
aI17426
aI17606
aI17791
aI17976
aI18158
aI18343
aI18531
aI18711
aI18899
aI19083
aI19267
aI19448
aI19637
aI19821
aI20008
aI20192
aI20376
aI20561
aI20744
aI20925
aI21106
aI21290
aI21468
aI21649
aI21834
aI22017
aI22200
aI22379
aI22564
aI22749
aI22937
aI23123
aI23310
aI23497
aI23685
aI23869
aI24058
aI24241
aI24426
aI24606
aI24787
aI24968
aI25153
aI25338
aI25522
aI25704
aI25888
aI26076
aI26262
aI26449
aI26631
aI26819
aI27001
aI27184
aI27368
aI27552
aI27733
aI27917
aI28104
aI28284
aI28473
aI28657
aI28837
aI29023
aI29212
aI29390
aI29570
aI29753
aI29936
aI30121
aI30307
aI30484
aI30668
aI30845
aI31026
aI31212
aI31394
aI31575
aI31756
aI31940
aI32127
aI32308
aI32486
aI32666
aI32838
aI33006
aI33153
aI33294
aI33433
aI33573
aI33712
aI33855
aI33978
aI34100
aI34199
aI34294
aI34389
aI34482
aI34577
aI34669
aI34762
aI34853
aI34943
aI35030
aI35112
aI35197
aI35280
as.