(dp0
S'nfe'
p1
(lp2
I50
aI100
aI150
aI200
aI250
aI300
aI350
aI400
aI450
aI500
aI550
aI600
aI650
aI700
aI750
aI800
aI850
aI900
aI950
aI1000
aI1050
aI1100
aI1150
aI1200
aI1250
aI1300
aI1350
aI1400
aI1450
aI1500
aI1550
aI1600
aI1650
aI1700
aI1750
aI1800
aI1850
aI1900
aI1950
aI2000
aI2050
aI2100
aI2150
aI2200
aI2250
aI2300
aI2350
aI2400
aI2450
aI2500
aI2550
aI2600
aI2650
aI2700
aI2750
aI2800
aI2850
aI2900
aI2950
aI3000
aI3050
aI3100
aI3150
aI3200
aI3250
aI3300
aI3350
aI3400
aI3450
aI3500
aI3550
aI3600
aI3650
aI3700
aI3750
aI3800
aI3850
aI3900
aI3950
aI4000
aI4050
aI4100
aI4150
aI4200
aI4250
aI4300
aI4350
aI4400
aI4450
aI4500
aI4550
aI4600
aI4650
aI4700
aI4750
aI4800
aI4850
aI4900
aI4950
aI5000
aI5050
aI5100
aI5150
aI5200
aI5250
aI5300
aI5350
aI5400
aI5450
aI5500
aI5550
aI5600
aI5650
aI5700
aI5750
aI5800
aI5850
aI5900
aI5950
aI6000
aI6050
aI6100
aI6150
aI6200
aI6250
aI6300
aI6350
aI6400
aI6450
aI6500
aI6550
aI6600
aI6650
aI6700
aI6750
aI6800
aI6850
aI6900
aI6950
aI7000
aI7050
aI7100
aI7150
aI7200
aI7250
aI7300
aI7350
aI7400
aI7450
aI7500
aI7550
aI7600
aI7650
aI7700
aI7750
aI7800
aI7850
aI7900
aI7950
aI8000
aI8050
aI8100
aI8150
aI8200
aI8250
aI8300
aI8350
aI8400
aI8450
aI8500
aI8550
aI8600
aI8650
aI8700
aI8750
aI8800
aI8850
aI8900
aI8950
aI9000
aI9050
aI9100
aI9150
aI9200
aI9250
aI9300
aI9350
aI9400
aI9450
aI9500
aI9550
aI9600
aI9650
aI9700
aI9750
aI9800
aI9850
aI9900
aI9950
aI10000
asS'best_f'
p3
(lp4
cnumpy.core.multiarray
scalar
p5
(cnumpy
dtype
p6
(S'f8'
p7
I0
I1
tp8
Rp9
(I3
S'<'
p10
NNNI-1
I-1
I0
tp11
bS'\x9du\xdc&\xb4\xef\xf0?'
p12
tp13
Rp14
ag5
(g9
S'M\x99\x19\x9b\x8ed\xf0?'
p15
tp16
Rp17
ag17
ag17
ag5
(g9
S'}GU\x95yW\xf0?'
p18
tp19
Rp20
ag5
(g9
S'\x8dQz\x8e\x9dd\xec?'
p21
tp22
Rp23
ag23
ag5
(g9
S'\xa6\n\xf5Z\xa7\xb4\xe8?'
p24
tp25
Rp26
ag26
ag26
ag5
(g9
S'\xd8\xe7s\x8c\x81.\xe8?'
p27
tp28
Rp29
ag29
ag5
(g9
S'\x98\x19P]e\xa1\xe7?'
p30
tp31
Rp32
ag5
(g9
S'\x9bZ6\x86\xa7\xbf\xe6?'
p33
tp34
Rp35
ag35
ag35
ag35
ag5
(g9
S'd\xee\xb6+~\x1d\xe6?'
p36
tp37
Rp38
ag38
ag38
ag38
ag38
ag5
(g9
S'\xaa\x8blX\x81\xce\xe4?'
p39
tp40
Rp41
ag41
ag41
ag41
ag41
ag41
ag41
ag41
ag41
ag41
ag41
ag5
(g9
S'\xed\x1f$*\xe2\xda\xe3?'
p42
tp43
Rp44
ag44
ag44
ag44
ag44
ag44
ag44
ag44
ag44
ag44
ag44
ag44
ag44
ag44
ag44
ag44
ag44
ag44
ag44
ag44
ag44
ag44
ag44
ag44
ag44
ag44
ag44
ag44
ag44
ag44
ag44
ag44
ag5
(g9
S'\xf3\x97\xf1D\xaa\xc7\xe3?'
p45
tp46
Rp47
ag47
ag47
ag47
ag47
ag47
ag47
ag47
ag47
ag47
ag47
ag5
(g9
S'\xc7\x10}\xa8/\x8f\xe3?'
p48
tp49
Rp50
ag50
ag50
ag50
ag50
ag50
ag50
ag50
ag50
ag50
ag50
ag50
ag50
ag50
ag50
ag50
ag50
ag50
ag50
ag50
ag5
(g9
S'\x81-\x18\x898\x83\xe3?'
p51
tp52
Rp53
ag53
ag53
ag53
ag53
ag53
ag53
ag53
ag53
ag53
ag53
ag53
ag53
ag53
ag53
ag53
ag5
(g9
S'\xed4&.\x87\xfa\xe1?'
p54
tp55
Rp56
ag56
ag56
ag56
ag56
ag56
ag56
ag56
ag56
ag56
ag56
ag56
ag56
ag56
ag56
ag56
ag56
ag56
ag56
ag56
ag56
ag56
ag56
ag56
ag56
ag56
ag56
ag56
ag56
ag56
ag56
ag56
ag56
ag56
ag56
ag56
ag56
ag56
ag56
ag56
ag56
ag56
ag56
ag56
ag56
ag56
ag56
ag56
ag56
ag56
ag56
ag56
ag56
ag56
ag56
ag56
ag56
ag56
ag56
ag56
ag56
ag56
ag56
ag56
ag56
ag56
ag56
ag56
ag56
ag56
ag56
ag56
ag56
ag56
ag56
ag56
ag56
ag56
ag56
ag56
ag56
ag56
ag56
ag56
ag56
ag56
ag56
ag56
asS'best_P'
p57
(lp58
(itree
PTree
p59
(dp60
S'root'
p61
ccopy_reg
_reconstructor
p62
(ctree
Feature
p63
c__builtin__
object
p64
Ntp65
Rp66
(dp67
S'index'
p68
I1
sS'name'
p69
S'Day'
p70
sS'l'
p71
g62
(g63
g64
Ntp72
Rp73
(dp74
g68
I0
sg69
S'Storage'
p75
sg71
g62
(ctree
Action
p76
g64
Ntp77
Rp78
(dp79
S'r'
p80
NsS'is_feature'
p81
I00
sS'value'
p82
S'Hedge_80'
p83
sg71
Nsbsg80
g62
(g63
g64
Ntp84
Rp85
(dp86
g68
I2
sg69
S'AnnQ'
p87
sg71
g62
(g76
g64
Ntp88
Rp89
(dp90
g80
Nsg81
I00
sg82
S'Flood_Control'
p91
sg71
Nsbsg80
g62
(g76
g64
Ntp92
Rp93
(dp94
g80
Nsg81
I00
sg82
S'Hedge_50'
p95
sg71
NsbsS'threshold'
p96
F2982.663795745142
sg81
I01
sbsg96
F829.6033593941836
sg81
I01
sbsg80
g62
(g76
g64
Ntp97
Rp98
(dp99
g80
Nsg81
I00
sg82
S'Hedge_70'
p100
sg71
Nsbsg96
F320.00565143575795
sg81
I01
sbsS'L'
p101
(lp102
g66
ag73
ag78
ag85
ag89
ag93
ag98
asS'N'
p103
I7
sba(itree
PTree
p104
(dp105
g61
g62
(g63
g64
Ntp106
Rp107
(dp108
g68
I0
sg80
g62
(g76
g64
Ntp109
Rp110
(dp111
g80
Nsg81
I00
sg82
S'Flood_Control'
p112
sg71
Nsbsg69
g75
sg96
F867.4342611553088
sg71
g62
(g76
g64
Ntp113
Rp114
(dp115
g80
Nsg81
I00
sg82
S'Hedge_80'
p116
sg71
Nsbsg81
I01
sbsg101
(lp117
g107
ag114
ag110
asg103
I3
sbag104
ag104
a(itree
PTree
p118
(dp119
g61
g62
(g63
g64
Ntp120
Rp121
(dp122
g68
I0
sg80
g62
(g76
g64
Ntp123
Rp124
(dp125
g80
Nsg81
I00
sg82
g112
sg71
Nsbsg69
g75
sg96
F853.9980142772985
sg71
g62
(g76
g64
Ntp126
Rp127
(dp128
g80
Nsg81
I00
sg82
g116
sg71
Nsbsg81
I01
sbsg101
(lp129
g121
ag127
ag124
asg103
I3
sba(itree
PTree
p130
(dp131
g61
g62
(g63
g64
Ntp132
Rp133
(dp134
g68
I0
sg80
g62
(g63
g64
Ntp135
Rp136
(dp137
g68
I1
sg80
g62
(g76
g64
Ntp138
Rp139
(dp140
g80
Nsg81
I00
sg82
S'Hedge_70'
p141
sg71
Nsbsg69
g70
sg96
F115.41498710072288
sg71
g62
(g76
g64
Ntp142
Rp143
(dp144
g80
Nsg81
I00
sg82
S'Flood_Control'
p145
sg71
Nsbsg81
I01
sbsg69
g75
sg96
F725.8493361218372
sg71
g62
(g76
g64
Ntp146
Rp147
(dp148
g80
Nsg81
I00
sg82
S'Release_Demand'
p149
sg71
Nsbsg81
I01
sbsg101
(lp150
g133
ag147
ag136
ag143
ag139
asg103
I5
sbag130
a(itree
PTree
p151
(dp152
g61
g62
(g63
g64
Ntp153
Rp154
(dp155
g68
I0
sg80
g62
(g76
g64
Ntp156
Rp157
(dp158
g80
Nsg81
I00
sg82
g112
sg71
Nsbsg69
g75
sg96
F912.4273057838622
sg71
g62
(g76
g64
Ntp159
Rp160
(dp161
g80
Nsg81
I00
sg82
S'Hedge_90'
p162
sg71
Nsbsg81
I01
sbsg101
(lp163
g154
ag160
ag157
asg103
I3
sbag151
ag151
a(itree
PTree
p164
(dp165
g61
g62
(g63
g64
Ntp166
Rp167
(dp168
g68
I0
sg80
g62
(g76
g64
Ntp169
Rp170
(dp171
g80
Nsg81
I00
sg82
g112
sg71
Nsbsg69
g75
sg96
F896.364865986903
sg71
g62
(g76
g64
Ntp172
Rp173
(dp174
g80
Nsg81
I00
sg82
g162
sg71
Nsbsg81
I01
sbsg101
(lp175
g167
ag173
ag170
asg103
I3
sbag164
a(itree
PTree
p176
(dp177
g61
g62
(g63
g64
Ntp178
Rp179
(dp180
g68
I0
sg80
g62
(g76
g64
Ntp181
Rp182
(dp183
g80
Nsg81
I00
sg82
g112
sg71
Nsbsg69
g75
sg96
F925.4508829656743
sg71
g62
(g76
g64
Ntp184
Rp185
(dp186
g80
Nsg81
I00
sg82
g162
sg71
Nsbsg81
I01
sbsg101
(lp187
g179
ag185
ag182
asg103
I3
sba(itree
PTree
p188
(dp189
g61
g62
(g63
g64
Ntp190
Rp191
(dp192
g68
I0
sg80
g62
(g76
g64
Ntp193
Rp194
(dp195
g80
Nsg81
I00
sg82
g112
sg71
Nsbsg69
g75
sg96
F932.7436840644992
sg71
g62
(g76
g64
Ntp196
Rp197
(dp198
g80
Nsg81
I00
sg82
g162
sg71
Nsbsg81
I01
sbsg101
(lp199
g191
ag197
ag194
asg103
I3
sbag188
ag188
ag188
a(itree
PTree
p200
(dp201
g61
g62
(g63
g64
Ntp202
Rp203
(dp204
g68
I0
sg80
g62
(g63
g64
Ntp205
Rp206
(dp207
g68
I2
sg80
g62
(g76
g64
Ntp208
Rp209
(dp210
g80
Nsg81
I00
sg82
S'Release_Demand'
p211
sg71
Nsbsg69
g87
sg96
F3543.907768123272
sg71
g62
(g76
g64
Ntp212
Rp213
(dp214
g80
Nsg81
I00
sg82
g91
sg71
Nsbsg81
I01
sbsg69
g75
sg96
F905.7056026958181
sg71
g62
(g76
g64
Ntp215
Rp216
(dp217
g80
Nsg81
I00
sg82
S'Hedge_90'
p218
sg71
Nsbsg81
I01
sbsg101
(lp219
g203
ag216
ag206
ag213
ag209
asg103
I5
sbag200
ag200
ag200
ag200
a(itree
PTree
p220
(dp221
g61
g62
(g63
g64
Ntp222
Rp223
(dp224
g68
I0
sg80
g62
(g76
g64
Ntp225
Rp226
(dp227
g80
Nsg81
I00
sg82
g112
sg71
Nsbsg69
g75
sg96
F952.1397960980152
sg71
g62
(g76
g64
Ntp228
Rp229
(dp230
g80
Nsg81
I00
sg82
g162
sg71
Nsbsg81
I01
sbsg101
(lp231
g223
ag229
ag226
asg103
I3
sbag220
ag220
ag220
ag220
ag220
ag220
ag220
ag220
ag220
ag220
a(itree
PTree
p232
(dp233
g61
g62
(g63
g64
Ntp234
Rp235
(dp236
g68
I0
sg80
g62
(g63
g64
Ntp237
Rp238
(dp239
g68
I0
sg80
g62
(g76
g64
Ntp240
Rp241
(dp242
g80
Nsg81
I00
sg82
S'Flood_Control'
p243
sg71
Nsbsg69
g75
sg96
F953.1706509231434
sg71
g62
(g76
g64
Ntp244
Rp245
(dp246
g80
Nsg81
I00
sg82
S'Release_Demand'
p247
sg71
Nsbsg81
I01
sbsg69
g75
sg96
F840.150771908176
sg71
g62
(g76
g64
Ntp248
Rp249
(dp250
g80
Nsg81
I00
sg82
g218
sg71
Nsbsg81
I01
sbsg101
(lp251
g235
ag249
ag238
ag245
ag241
asg103
I5
sbag232
ag232
ag232
ag232
ag232
ag232
ag232
ag232
ag232
ag232
ag232
ag232
ag232
ag232
ag232
ag232
ag232
ag232
ag232
ag232
ag232
ag232
ag232
ag232
ag232
ag232
ag232
ag232
ag232
ag232
ag232
a(itree
PTree
p252
(dp253
g61
g62
(g63
g64
Ntp254
Rp255
(dp256
g68
I0
sg80
g62
(g63
g64
Ntp257
Rp258
(dp259
g68
I0
sg80
g62
(g76
g64
Ntp260
Rp261
(dp262
g80
Nsg81
I00
sg82
g243
sg71
Nsbsg69
g75
sg96
F945.803742911747
sg71
g62
(g76
g64
Ntp263
Rp264
(dp265
g80
Nsg81
I00
sg82
S'Release_Demand'
p266
sg71
Nsbsg81
I01
sbsg69
g75
sg96
F840.150771908176
sg71
g62
(g76
g64
Ntp267
Rp268
(dp269
g80
Nsg81
I00
sg82
S'Hedge_90'
p270
sg71
Nsbsg81
I01
sbsg101
(lp271
g255
ag268
ag258
ag264
ag261
asg103
I5
sbag252
ag252
ag252
ag252
ag252
ag252
ag252
ag252
ag252
ag252
a(itree
PTree
p272
(dp273
g61
g62
(g63
g64
Ntp274
Rp275
(dp276
g68
I0
sg80
g62
(g63
g64
Ntp277
Rp278
(dp279
g68
I0
sg80
g62
(g76
g64
Ntp280
Rp281
(dp282
g80
Nsg81
I00
sg82
g243
sg71
Nsbsg69
g75
sg96
F953.1706509231434
sg71
g62
(g76
g64
Ntp283
Rp284
(dp285
g80
Nsg81
I00
sg82
g247
sg71
Nsbsg81
I01
sbsg69
g75
sg96
F891.7654564564286
sg71
g62
(g76
g64
Ntp286
Rp287
(dp288
g80
Nsg81
I00
sg82
g218
sg71
Nsbsg81
I01
sbsg101
(lp289
g275
ag287
ag278
ag284
ag281
asg103
I5
sbag272
ag272
ag272
ag272
ag272
ag272
ag272
ag272
ag272
ag272
ag272
ag272
ag272
ag272
ag272
ag272
ag272
ag272
ag272
a(itree
PTree
p290
(dp291
g61
g62
(g63
g64
Ntp292
Rp293
(dp294
g68
I0
sg80
g62
(g63
g64
Ntp295
Rp296
(dp297
g68
I0
sg80
g62
(g76
g64
Ntp298
Rp299
(dp300
g80
Nsg81
I00
sg82
g243
sg71
Nsbsg69
g75
sg96
F953.1706509231434
sg71
g62
(g76
g64
Ntp301
Rp302
(dp303
g80
Nsg81
I00
sg82
g247
sg71
Nsbsg81
I01
sbsg69
g75
sg96
F821.5491987290592
sg71
g62
(g76
g64
Ntp304
Rp305
(dp306
g80
Nsg81
I00
sg82
g218
sg71
Nsbsg81
I01
sbsg101
(lp307
g293
ag305
ag296
ag302
ag299
asg103
I5
sbag290
ag290
ag290
ag290
ag290
ag290
ag290
ag290
ag290
ag290
ag290
ag290
ag290
ag290
ag290
a(itree
PTree
p308
(dp309
g61
g62
(g63
g64
Ntp310
Rp311
(dp312
g68
I0
sg80
g62
(g63
g64
Ntp313
Rp314
(dp315
g68
I0
sg80
g62
(g63
g64
Ntp316
Rp317
(dp318
g68
I2
sg80
g62
(g76
g64
Ntp319
Rp320
(dp321
g80
Nsg81
I00
sg82
S'Flood_Control'
p322
sg71
Nsbsg69
g87
sg96
F2624.5105030363106
sg71
g62
(g76
g64
Ntp323
Rp324
(dp325
g80
Nsg81
I00
sg82
S'Hedge_90'
p326
sg71
Nsbsg81
I01
sbsg69
g75
sg96
F950.046698603247
sg71
g62
(g76
g64
Ntp327
Rp328
(dp329
g80
Nsg81
I00
sg82
S'Hedge_90'
p330
sg71
Nsbsg81
I01
sbsg69
g75
sg96
F767.842114573073
sg71
g62
(g76
g64
Ntp331
Rp332
(dp333
g80
Nsg81
I00
sg82
S'Hedge_90'
p334
sg71
Nsbsg81
I01
sbsg101
(lp335
g311
ag332
ag314
ag328
ag317
ag324
ag320
asg103
I7
sbag308
ag308
ag308
ag308
ag308
ag308
ag308
ag308
ag308
ag308
ag308
ag308
ag308
ag308
ag308
ag308
ag308
ag308
ag308
ag308
ag308
ag308
ag308
ag308
ag308
ag308
ag308
ag308
ag308
ag308
ag308
ag308
ag308
ag308
ag308
ag308
ag308
ag308
ag308
ag308
ag308
ag308
ag308
ag308
ag308
ag308
ag308
ag308
ag308
ag308
ag308
ag308
ag308
ag308
ag308
ag308
ag308
ag308
ag308
ag308
ag308
ag308
ag308
ag308
ag308
ag308
ag308
ag308
ag308
ag308
ag308
ag308
ag308
ag308
ag308
ag308
ag308
ag308
ag308
ag308
ag308
ag308
ag308
ag308
ag308
ag308
ag308
asS'time'
p336
(lp337
I328
aI489
aI657
aI830
aI999
aI1172
aI1340
aI1515
aI1706
aI1894
aI2086
aI2272
aI2473
aI2663
aI2854
aI3040
aI3234
aI3424
aI3609
aI3803
aI3995
aI4183
aI4371
aI4567
aI4755
aI4946
aI5137
aI5316
aI5479
aI5637
aI5791
aI5951
aI6111
aI6266
aI6426
aI6586
aI6748
aI6903
aI7057
aI7211
aI7368
aI7526
aI7685
aI7843
aI8002
aI8166
aI8329
aI8484
aI8639
aI8796
aI8952
aI9109
aI9267
aI9422
aI9585
aI9736
aI9897
aI10052
aI10207
aI10365
aI10522
aI10678
aI10830
aI10980
aI11133
aI11292
aI11447
aI11604
aI11761
aI11916
aI12071
aI12228
aI12388
aI12544
aI12697
aI12857
aI13007
aI13166
aI13327
aI13488
aI13643
aI13800
aI13956
aI14117
aI14271
aI14430
aI14584
aI14737
aI14894
aI15047
aI15204
aI15363
aI15522
aI15675
aI15831
aI15987
aI16144
aI16299
aI16452
aI16609
aI16766
aI16925
aI17088
aI17242
aI17395
aI17548
aI17700
aI17858
aI18020
aI18174
aI18331
aI18491
aI18647
aI18810
aI18967
aI19123
aI19277
aI19432
aI19588
aI19742
aI19900
aI20053
aI20211
aI20369
aI20521
aI20679
aI20831
aI20989
aI21146
aI21303
aI21456
aI21605
aI21759
aI21913
aI22070
aI22226
aI22385
aI22545
aI22700
aI22858
aI23007
aI23160
aI23314
aI23470
aI23625
aI23781
aI23932
aI24090
aI24245
aI24404
aI24557
aI24719
aI24878
aI25034
aI25195
aI25348
aI25510
aI25665
aI25823
aI25979
aI26132
aI26289
aI26446
aI26603
aI26763
aI26916
aI27073
aI27230
aI27389
aI27549
aI27712
aI27866
aI28020
aI28171
aI28327
aI28484
aI28642
aI28797
aI28949
aI29106
aI29265
aI29421
aI29576
aI29731
aI29886
aI30043
aI30206
aI30357
aI30508
aI30667
aI30827
aI30987
aI31141
aI31297
aI31454
aI31606
aI31750
aI31895
aI32040
aI32185
as.