(dp0
S'nfe'
p1
(lp2
I50
aI100
aI150
aI200
aI250
aI300
aI350
aI400
aI450
aI500
aI550
aI600
aI650
aI700
aI750
aI800
aI850
aI900
aI950
aI1000
aI1050
aI1100
aI1150
aI1200
aI1250
aI1300
aI1350
aI1400
aI1450
aI1500
aI1550
aI1600
aI1650
aI1700
aI1750
aI1800
aI1850
aI1900
aI1950
aI2000
aI2050
aI2100
aI2150
aI2200
aI2250
aI2300
aI2350
aI2400
aI2450
aI2500
aI2550
aI2600
aI2650
aI2700
aI2750
aI2800
aI2850
aI2900
aI2950
aI3000
aI3050
aI3100
aI3150
aI3200
aI3250
aI3300
aI3350
aI3400
aI3450
aI3500
aI3550
aI3600
aI3650
aI3700
aI3750
aI3800
aI3850
aI3900
aI3950
aI4000
aI4050
aI4100
aI4150
aI4200
aI4250
aI4300
aI4350
aI4400
aI4450
aI4500
aI4550
aI4600
aI4650
aI4700
aI4750
aI4800
aI4850
aI4900
aI4950
aI5000
aI5050
aI5100
aI5150
aI5200
aI5250
aI5300
aI5350
aI5400
aI5450
aI5500
aI5550
aI5600
aI5650
aI5700
aI5750
aI5800
aI5850
aI5900
aI5950
aI6000
aI6050
aI6100
aI6150
aI6200
aI6250
aI6300
aI6350
aI6400
aI6450
aI6500
aI6550
aI6600
aI6650
aI6700
aI6750
aI6800
aI6850
aI6900
aI6950
aI7000
aI7050
aI7100
aI7150
aI7200
aI7250
aI7300
aI7350
aI7400
aI7450
aI7500
aI7550
aI7600
aI7650
aI7700
aI7750
aI7800
aI7850
aI7900
aI7950
aI8000
aI8050
aI8100
aI8150
aI8200
aI8250
aI8300
aI8350
aI8400
aI8450
aI8500
aI8550
aI8600
aI8650
aI8700
aI8750
aI8800
aI8850
aI8900
aI8950
aI9000
aI9050
aI9100
aI9150
aI9200
aI9250
aI9300
aI9350
aI9400
aI9450
aI9500
aI9550
aI9600
aI9650
aI9700
aI9750
aI9800
aI9850
aI9900
aI9950
aI10000
asS'best_f'
p3
(lp4
cnumpy.core.multiarray
scalar
p5
(cnumpy
dtype
p6
(S'f8'
p7
I0
I1
tp8
Rp9
(I3
S'<'
p10
NNNI-1
I-1
I0
tp11
bS'\xb4\xc3\xd9@\x032\x10@'
p12
tp13
Rp14
ag5
(g9
S'c\xbb\\,i=\n@'
p15
tp16
Rp17
ag5
(g9
S'\x06?(L)I\x05@'
p18
tp19
Rp20
ag20
ag20
ag5
(g9
S'\x0fYa\xe2\x84x\x04@'
p21
tp22
Rp23
ag23
ag23
ag23
ag5
(g9
S'\x16\xce\xf6|Lj\x04@'
p24
tp25
Rp26
ag26
ag26
ag26
ag26
ag5
(g9
S'\xf4\x01\x17A\xe3\xf9\x01@'
p27
tp28
Rp29
ag29
ag29
ag29
ag29
ag29
ag29
ag29
ag29
ag29
ag29
ag29
ag29
ag29
ag29
ag29
ag29
ag29
ag29
ag29
ag29
ag29
ag29
ag29
ag29
ag29
ag29
ag29
ag29
ag29
ag29
ag29
ag29
ag29
ag29
ag29
ag29
ag29
ag29
ag29
ag29
ag29
ag29
ag29
ag29
ag29
ag29
ag29
ag29
ag29
ag29
ag29
ag29
ag29
ag29
ag29
ag29
ag29
ag29
ag29
ag29
ag29
ag5
(g9
S'#\xf4\x9cQ\x87\xe7\x01@'
p30
tp31
Rp32
ag32
ag32
ag32
ag32
ag32
ag32
ag32
ag32
ag32
ag32
ag32
ag32
ag32
ag32
ag32
ag32
ag32
ag32
ag32
ag32
ag32
ag32
ag32
ag32
ag32
ag32
ag32
ag32
ag5
(g9
S'\xae\x11\x91\x9c\t\xa2\x01@'
p33
tp34
Rp35
ag35
ag35
ag35
ag35
ag35
ag35
ag35
ag35
ag35
ag35
ag35
ag35
ag35
ag35
ag35
ag35
ag35
ag5
(g9
S'\xc2\x9fH\xa6\x8a\r\x01@'
p36
tp37
Rp38
ag38
ag38
ag38
ag38
ag38
ag38
ag38
ag38
ag38
ag38
ag38
ag38
ag38
ag38
ag38
ag38
ag38
ag38
ag38
ag38
ag38
ag38
ag38
ag38
ag38
ag38
ag38
ag38
ag38
ag38
ag38
ag38
ag38
ag38
ag38
ag38
ag38
ag38
ag38
ag38
ag38
ag38
ag38
ag38
ag38
ag38
ag38
ag38
ag38
ag38
ag38
ag38
ag38
ag38
ag38
ag38
ag38
ag38
ag38
ag5
(g9
S'\x8e3\r$\xdd\t\x01@'
p39
tp40
Rp41
ag41
ag41
ag41
ag41
ag41
ag41
ag41
ag41
ag41
ag41
ag41
ag41
ag5
(g9
S'c\xb1\xb5\xd5\xf3\x02\x01@'
p42
tp43
Rp44
ag5
(g9
S'di\xa9\xf0\xb5\x8f\xf4?'
p45
tp46
Rp47
ag47
ag47
asS'best_P'
p48
(lp49
(itree
PTree
p50
(dp51
S'root'
p52
ccopy_reg
_reconstructor
p53
(ctree
Feature
p54
c__builtin__
object
p55
Ntp56
Rp57
(dp58
S'index'
p59
I0
sS'name'
p60
S'Storage'
p61
sS'l'
p62
g53
(ctree
Action
p63
g55
Ntp64
Rp65
(dp66
S'r'
p67
NsS'is_feature'
p68
I00
sS'value'
p69
S'Hedge_50'
p70
sg62
Nsbsg67
g53
(g54
g55
Ntp71
Rp72
(dp73
g59
I1
sg60
S'Day'
p74
sg62
g53
(g63
g55
Ntp75
Rp76
(dp77
g67
Nsg68
I00
sg69
S'Hedge_90'
p78
sg62
Nsbsg67
g53
(g54
g55
Ntp79
Rp80
(dp81
g59
I3
sg60
S'LP3'
p82
sg62
g53
(g63
g55
Ntp83
Rp84
(dp85
g67
Nsg68
I00
sg69
S'Flood_Control'
p86
sg62
Nsbsg67
g53
(g63
g55
Ntp87
Rp88
(dp89
g67
Nsg68
I00
sg69
S'Hedge_60'
p90
sg62
NsbsS'threshold'
p91
F302.3726730316455
sg68
I01
sbsg91
F6.466908990132546
sg68
I01
sbsg91
F505.6621656768967
sg68
I01
sbsS'L'
p92
(lp93
g57
ag65
ag72
ag76
ag80
ag84
ag88
asS'N'
p94
I7
sba(itree
PTree
p95
(dp96
g52
g53
(g54
g55
Ntp97
Rp98
(dp99
g59
I3
sg67
g53
(g54
g55
Ntp100
Rp101
(dp102
g59
I0
sg67
g53
(g54
g55
Ntp103
Rp104
(dp105
g59
I2
sg67
g53
(g63
g55
Ntp106
Rp107
(dp108
g67
Nsg68
I00
sg69
S'Hedge_60'
p109
sg62
Nsbsg60
S'AnnQ'
p110
sg91
F2377.4614161460395
sg62
g53
(g63
g55
Ntp111
Rp112
(dp113
g67
Nsg68
I00
sg69
S'Hedge_90'
p114
sg62
Nsbsg68
I01
sbsg60
g61
sg91
F836.429344031083
sg62
g53
(g63
g55
Ntp115
Rp116
(dp117
g67
Nsg68
I00
sg69
S'Hedge_60'
p118
sg62
Nsbsg68
I01
sbsg60
g82
sg91
F231.86789152159093
sg62
g53
(g54
g55
Ntp119
Rp120
(dp121
g59
I0
sg67
g53
(g63
g55
Ntp122
Rp123
(dp124
g67
Nsg68
I00
sg69
S'Flood_Control'
p125
sg62
Nsbsg60
g61
sg91
F393.9625357214623
sg62
g53
(g63
g55
Ntp126
Rp127
(dp128
g67
Nsg68
I00
sg69
S'Hedge_70'
p129
sg62
Nsbsg68
I01
sbsg68
I01
sbsg92
(lp130
g98
ag120
ag127
ag123
ag101
ag116
ag104
ag112
ag107
asg94
I9
sba(itree
PTree
p131
(dp132
g52
g53
(g54
g55
Ntp133
Rp134
(dp135
g59
I3
sg67
g53
(g54
g55
Ntp136
Rp137
(dp138
g59
I0
sg67
g53
(g54
g55
Ntp139
Rp140
(dp141
g59
I2
sg67
g53
(g63
g55
Ntp142
Rp143
(dp144
g67
Nsg68
I00
sg69
g109
sg62
Nsbsg60
g110
sg91
F2395.5428961613557
sg62
g53
(g63
g55
Ntp145
Rp146
(dp147
g67
Nsg68
I00
sg69
g114
sg62
Nsbsg68
I01
sbsg60
g61
sg91
F836.429344031083
sg62
g53
(g63
g55
Ntp148
Rp149
(dp150
g67
Nsg68
I00
sg69
g118
sg62
Nsbsg68
I01
sbsg60
g82
sg91
F240.52122514633717
sg62
g53
(g54
g55
Ntp151
Rp152
(dp153
g59
I0
sg67
g53
(g63
g55
Ntp154
Rp155
(dp156
g67
Nsg68
I00
sg69
g125
sg62
Nsbsg60
g61
sg91
F490.51400847203
sg62
g53
(g63
g55
Ntp157
Rp158
(dp159
g67
Nsg68
I00
sg69
g129
sg62
Nsbsg68
I01
sbsg68
I01
sbsg92
(lp160
g134
ag152
ag158
ag155
ag137
ag149
ag140
ag146
ag143
asg94
I9
sbag131
ag131
a(itree
PTree
p161
(dp162
g52
g53
(g54
g55
Ntp163
Rp164
(dp165
g59
I0
sg67
g53
(g54
g55
Ntp166
Rp167
(dp168
g59
I1
sg67
g53
(g63
g55
Ntp169
Rp170
(dp171
g67
Nsg68
I00
sg69
S'Flood_Control'
p172
sg62
Nsbsg60
g74
sg91
F53.7522432511826
sg62
g53
(g63
g55
Ntp173
Rp174
(dp175
g67
Nsg68
I00
sg69
S'Release_Demand'
p176
sg62
Nsbsg68
I01
sbsg60
g61
sg91
F506.24392157998943
sg62
g53
(g63
g55
Ntp177
Rp178
(dp179
g67
Nsg68
I00
sg69
S'Hedge_80'
p180
sg62
Nsbsg68
I01
sbsg92
(lp181
g164
ag178
ag167
ag174
ag170
asg94
I5
sbag161
ag161
ag161
a(itree
PTree
p182
(dp183
g52
g53
(g54
g55
Ntp184
Rp185
(dp186
g59
I0
sg67
g53
(g54
g55
Ntp187
Rp188
(dp189
g59
I1
sg67
g53
(g63
g55
Ntp190
Rp191
(dp192
g67
Nsg68
I00
sg69
g172
sg62
Nsbsg60
g74
sg91
F30.498982710516326
sg62
g53
(g63
g55
Ntp193
Rp194
(dp195
g67
Nsg68
I00
sg69
g176
sg62
Nsbsg68
I01
sbsg60
g61
sg91
F500.72076905981197
sg62
g53
(g63
g55
Ntp196
Rp197
(dp198
g67
Nsg68
I00
sg69
g180
sg62
Nsbsg68
I01
sbsg92
(lp199
g185
ag197
ag188
ag194
ag191
asg94
I5
sbag182
ag182
ag182
ag182
a(itree
PTree
p200
(dp201
g52
g53
(g54
g55
Ntp202
Rp203
(dp204
g59
I3
sg67
g53
(g54
g55
Ntp205
Rp206
(dp207
g59
I0
sg67
g53
(g63
g55
Ntp208
Rp209
(dp210
g67
Nsg68
I00
sg69
S'Flood_Control'
p211
sg62
Nsbsg60
g61
sg91
F751.7599876906311
sg62
g53
(g63
g55
Ntp212
Rp213
(dp214
g67
Nsg68
I00
sg69
S'Hedge_90'
p215
sg62
Nsbsg68
I01
sbsg60
g82
sg91
F271.1952002292794
sg62
g53
(g54
g55
Ntp216
Rp217
(dp218
g59
I3
sg67
g53
(g54
g55
Ntp219
Rp220
(dp221
g59
I0
sg67
g53
(g63
g55
Ntp222
Rp223
(dp224
g67
Nsg68
I00
sg69
S'Hedge_60'
p225
sg62
Nsbsg60
g61
sg91
F937.5471083432063
sg62
g53
(g63
g55
Ntp226
Rp227
(dp228
g67
Nsg68
I00
sg69
S'Flood_Control'
p229
sg62
Nsbsg68
I01
sbsg60
g82
sg91
F264.75968169593096
sg62
g53
(g54
g55
Ntp230
Rp231
(dp232
g59
I0
sg67
g53
(g63
g55
Ntp233
Rp234
(dp235
g67
Nsg68
I00
sg69
g125
sg62
Nsbsg60
g61
sg91
F567.3435317933063
sg62
g53
(g63
g55
Ntp236
Rp237
(dp238
g67
Nsg68
I00
sg69
S'Hedge_70'
p239
sg62
Nsbsg68
I01
sbsg68
I01
sbsg68
I01
sbsg92
(lp240
g203
ag217
ag231
ag237
ag234
ag220
ag227
ag223
ag206
ag213
ag209
asg94
I11
sbag200
ag200
ag200
ag200
ag200
ag200
ag200
ag200
ag200
ag200
ag200
ag200
ag200
ag200
ag200
ag200
ag200
ag200
ag200
ag200
ag200
ag200
ag200
ag200
ag200
ag200
ag200
ag200
ag200
ag200
ag200
ag200
ag200
ag200
ag200
ag200
ag200
ag200
ag200
ag200
ag200
ag200
ag200
ag200
ag200
ag200
ag200
ag200
ag200
ag200
ag200
ag200
ag200
ag200
ag200
ag200
ag200
ag200
ag200
ag200
ag200
a(itree
PTree
p241
(dp242
g52
g53
(g54
g55
Ntp243
Rp244
(dp245
g59
I3
sg67
g53
(g54
g55
Ntp246
Rp247
(dp248
g59
I0
sg67
g53
(g54
g55
Ntp249
Rp250
(dp251
g59
I2
sg67
g53
(g63
g55
Ntp252
Rp253
(dp254
g67
Nsg68
I00
sg69
S'Flood_Control'
p255
sg62
Nsbsg60
g110
sg91
F2797.0737635697005
sg62
g53
(g63
g55
Ntp256
Rp257
(dp258
g67
Nsg68
I00
sg69
S'Hedge_80'
p259
sg62
Nsbsg68
I01
sbsg60
g61
sg91
F852.5512068370983
sg62
g53
(g63
g55
Ntp260
Rp261
(dp262
g67
Nsg68
I00
sg69
S'Hedge_70'
p263
sg62
Nsbsg68
I01
sbsg60
g82
sg91
F228.86700165083133
sg62
g53
(g54
g55
Ntp264
Rp265
(dp266
g59
I0
sg67
g53
(g63
g55
Ntp267
Rp268
(dp269
g67
Nsg68
I00
sg69
g125
sg62
Nsbsg60
g61
sg91
F568.2217443820881
sg62
g53
(g63
g55
Ntp270
Rp271
(dp272
g67
Nsg68
I00
sg69
S'Hedge_70'
p273
sg62
Nsbsg68
I01
sbsg68
I01
sbsg92
(lp274
g244
ag265
ag271
ag268
ag247
ag261
ag250
ag257
ag253
asg94
I9
sbag241
ag241
ag241
ag241
ag241
ag241
ag241
ag241
ag241
ag241
ag241
ag241
ag241
ag241
ag241
ag241
ag241
ag241
ag241
ag241
ag241
ag241
ag241
ag241
ag241
ag241
ag241
ag241
a(itree
PTree
p275
(dp276
g52
g53
(g54
g55
Ntp277
Rp278
(dp279
g59
I2
sg67
g53
(g54
g55
Ntp280
Rp281
(dp282
g59
I0
sg67
g53
(g63
g55
Ntp283
Rp284
(dp285
g67
Nsg68
I00
sg69
S'Hedge_90'
p286
sg62
Nsbsg60
g61
sg91
F485.2634509209056
sg62
g53
(g63
g55
Ntp287
Rp288
(dp289
g67
Nsg68
I00
sg69
S'Release_Demand'
p290
sg62
Nsbsg68
I01
sbsg60
g110
sg91
F2868.649680717047
sg62
g53
(g54
g55
Ntp291
Rp292
(dp293
g59
I1
sg67
g53
(g63
g55
Ntp294
Rp295
(dp296
g67
Nsg68
I00
sg69
S'Hedge_90'
p297
sg62
Nsbsg60
g74
sg91
F114.43411588870113
sg62
g53
(g63
g55
Ntp298
Rp299
(dp300
g67
Nsg68
I00
sg69
S'Flood_Control'
p301
sg62
Nsbsg68
I01
sbsg68
I01
sbsg92
(lp302
g278
ag292
ag299
ag295
ag281
ag288
ag284
asg94
I7
sbag275
ag275
ag275
ag275
ag275
ag275
ag275
ag275
ag275
ag275
ag275
ag275
ag275
ag275
ag275
ag275
ag275
a(itree
PTree
p303
(dp304
g52
g53
(g54
g55
Ntp305
Rp306
(dp307
g59
I2
sg67
g53
(g54
g55
Ntp308
Rp309
(dp310
g59
I0
sg67
g53
(g63
g55
Ntp311
Rp312
(dp313
g67
Nsg68
I00
sg69
g286
sg62
Nsbsg60
g61
sg91
F381.66366986622995
sg62
g53
(g63
g55
Ntp314
Rp315
(dp316
g67
Nsg68
I00
sg69
g290
sg62
Nsbsg68
I01
sbsg60
g110
sg91
F2833.510994959255
sg62
g53
(g54
g55
Ntp317
Rp318
(dp319
g59
I1
sg67
g53
(g63
g55
Ntp320
Rp321
(dp322
g67
Nsg68
I00
sg69
g297
sg62
Nsbsg60
g74
sg91
F121.16731390735244
sg62
g53
(g63
g55
Ntp323
Rp324
(dp325
g67
Nsg68
I00
sg69
g301
sg62
Nsbsg68
I01
sbsg68
I01
sbsg92
(lp326
g306
ag318
ag324
ag321
ag309
ag315
ag312
asg94
I7
sbag303
ag303
ag303
ag303
ag303
ag303
ag303
ag303
ag303
ag303
ag303
ag303
ag303
ag303
ag303
ag303
ag303
ag303
ag303
ag303
ag303
ag303
ag303
ag303
ag303
ag303
ag303
ag303
ag303
ag303
ag303
ag303
ag303
ag303
ag303
ag303
ag303
ag303
ag303
ag303
ag303
ag303
ag303
ag303
ag303
ag303
ag303
ag303
ag303
ag303
ag303
ag303
ag303
ag303
ag303
ag303
ag303
ag303
ag303
a(itree
PTree
p327
(dp328
g52
g53
(g54
g55
Ntp329
Rp330
(dp331
g59
I2
sg67
g53
(g54
g55
Ntp332
Rp333
(dp334
g59
I0
sg67
g53
(g63
g55
Ntp335
Rp336
(dp337
g67
Nsg68
I00
sg69
g286
sg62
Nsbsg60
g61
sg91
F505.8454956584709
sg62
g53
(g63
g55
Ntp338
Rp339
(dp340
g67
Nsg68
I00
sg69
g290
sg62
Nsbsg68
I01
sbsg60
g110
sg91
F2833.510994959255
sg62
g53
(g54
g55
Ntp341
Rp342
(dp343
g59
I1
sg67
g53
(g63
g55
Ntp344
Rp345
(dp346
g67
Nsg68
I00
sg69
g297
sg62
Nsbsg60
g74
sg91
F121.16731390735244
sg62
g53
(g63
g55
Ntp347
Rp348
(dp349
g67
Nsg68
I00
sg69
g301
sg62
Nsbsg68
I01
sbsg68
I01
sbsg92
(lp350
g330
ag342
ag348
ag345
ag333
ag339
ag336
asg94
I7
sbag327
ag327
ag327
ag327
ag327
ag327
ag327
ag327
ag327
ag327
ag327
ag327
a(itree
PTree
p351
(dp352
g52
g53
(g54
g55
Ntp353
Rp354
(dp355
g59
I2
sg67
g53
(g54
g55
Ntp356
Rp357
(dp358
g59
I0
sg67
g53
(g63
g55
Ntp359
Rp360
(dp361
g67
Nsg68
I00
sg69
g286
sg62
Nsbsg60
g61
sg91
F714.3461000041996
sg62
g53
(g63
g55
Ntp362
Rp363
(dp364
g67
Nsg68
I00
sg69
g290
sg62
Nsbsg68
I01
sbsg60
g110
sg91
F2833.510994959255
sg62
g53
(g54
g55
Ntp365
Rp366
(dp367
g59
I1
sg67
g53
(g63
g55
Ntp368
Rp369
(dp370
g67
Nsg68
I00
sg69
g297
sg62
Nsbsg60
g74
sg91
F121.16731390735244
sg62
g53
(g63
g55
Ntp371
Rp372
(dp373
g67
Nsg68
I00
sg69
g301
sg62
Nsbsg68
I01
sbsg68
I01
sbsg92
(lp374
g354
ag366
ag372
ag369
ag357
ag363
ag360
asg94
I7
sba(itree
PTree
p375
(dp376
g52
g53
(g54
g55
Ntp377
Rp378
(dp379
g59
I3
sg67
g53
(g54
g55
Ntp380
Rp381
(dp382
g59
I1
sg67
g53
(g63
g55
Ntp383
Rp384
(dp385
g67
Nsg68
I00
sg69
S'Hedge_80'
p386
sg62
Nsbsg60
g74
sg91
F169.1195150715271
sg62
g53
(g54
g55
Ntp387
Rp388
(dp389
g59
I0
sg67
g53
(g54
g55
Ntp390
Rp391
(dp392
g59
I2
sg67
g53
(g63
g55
Ntp393
Rp394
(dp395
g67
Nsg68
I00
sg69
S'Flood_Control'
p396
sg62
Nsbsg60
g110
sg91
F1917.4440735808605
sg62
g53
(g63
g55
Ntp397
Rp398
(dp399
g67
Nsg68
I00
sg69
S'Hedge_50'
p400
sg62
Nsbsg68
I01
sbsg60
g61
sg91
F339.38280901917443
sg62
g53
(g54
g55
Ntp401
Rp402
(dp403
g59
I1
sg67
g53
(g63
g55
Ntp404
Rp405
(dp406
g67
Nsg68
I00
sg69
S'Hedge_80'
p407
sg62
Nsbsg60
g74
sg91
F10.131923212697144
sg62
g53
(g63
g55
Ntp408
Rp409
(dp410
g67
Nsg68
I00
sg69
S'Hedge_50'
p411
sg62
Nsbsg68
I01
sbsg68
I01
sbsg68
I01
sbsg60
g82
sg91
F112.27421189536797
sg62
g53
(g54
g55
Ntp412
Rp413
(dp414
g59
I1
sg67
g53
(g63
g55
Ntp415
Rp416
(dp417
g67
Nsg68
I00
sg69
S'Hedge_70'
p418
sg62
Nsbsg60
g74
sg91
F85.52502367904856
sg62
g53
(g63
g55
Ntp419
Rp420
(dp421
g67
Nsg68
I00
sg69
S'Hedge_90'
p422
sg62
Nsbsg68
I01
sbsg68
I01
sbsg92
(lp423
g378
ag413
ag420
ag416
ag381
ag388
ag402
ag409
ag405
ag391
ag398
ag394
ag384
asg94
I13
sbag375
ag375
asS'time'
p424
(lp425
I336
aI505
aI666
aI829
aI991
aI1154
aI1310
aI1471
aI1628
aI1790
aI1949
aI2109
aI2272
aI2432
aI2591
aI2752
aI2919
aI3081
aI3240
aI3401
aI3561
aI3716
aI3874
aI4033
aI4193
aI4351
aI4512
aI4669
aI4835
aI5000
aI5161
aI5322
aI5486
aI5649
aI5809
aI5970
aI6130
aI6286
aI6449
aI6615
aI6778
aI6942
aI7110
aI7276
aI7444
aI7605
aI7768
aI7936
aI8098
aI8262
aI8427
aI8588
aI8750
aI8917
aI9084
aI9258
aI9426
aI9597
aI9772
aI9945
aI10113
aI10279
aI10448
aI10617
aI10783
aI10946
aI11107
aI11273
aI11441
aI11608
aI11773
aI11941
aI12109
aI12277
aI12446
aI12610
aI12779
aI12946
aI13112
aI13276
aI13444
aI13617
aI13786
aI13954
aI14126
aI14290
aI14464
aI14637
aI14802
aI14973
aI15140
aI15305
aI15474
aI15641
aI15806
aI15968
aI16138
aI16308
aI16471
aI16637
aI16801
aI16969
aI17134
aI17298
aI17462
aI17636
aI17804
aI17970
aI18132
aI18300
aI18463
aI18633
aI18807
aI18972
aI19140
aI19308
aI19475
aI19641
aI19811
aI19979
aI20152
aI20319
aI20489
aI20659
aI20827
aI21001
aI21171
aI21336
aI21503
aI21667
aI21838
aI22009
aI22175
aI22341
aI22507
aI22673
aI22843
aI23009
aI23178
aI23348
aI23518
aI23689
aI23859
aI24026
aI24193
aI24362
aI24530
aI24694
aI24856
aI25023
aI25193
aI25360
aI25530
aI25699
aI25863
aI26024
aI26187
aI26352
aI26514
aI26678
aI26843
aI27005
aI27170
aI27333
aI27492
aI27654
aI27812
aI27976
aI28141
aI28306
aI28469
aI28629
aI28796
aI28960
aI29124
aI29284
aI29446
aI29608
aI29766
aI29925
aI30086
aI30245
aI30409
aI30571
aI30736
aI30896
aI31062
aI31220
aI31383
aI31545
aI31708
aI31875
aI32034
aI32197
aI32365
aI32529
aI32693
aI32861
aI33026
aI33191
as.