(dp0
S'nfe'
p1
(lp2
I50
aI100
aI150
aI200
aI250
aI300
aI350
aI400
aI450
aI500
aI550
aI600
aI650
aI700
aI750
aI800
aI850
aI900
aI950
aI1000
aI1050
aI1100
aI1150
aI1200
aI1250
aI1300
aI1350
aI1400
aI1450
aI1500
aI1550
aI1600
aI1650
aI1700
aI1750
aI1800
aI1850
aI1900
aI1950
aI2000
aI2050
aI2100
aI2150
aI2200
aI2250
aI2300
aI2350
aI2400
aI2450
aI2500
aI2550
aI2600
aI2650
aI2700
aI2750
aI2800
aI2850
aI2900
aI2950
aI3000
aI3050
aI3100
aI3150
aI3200
aI3250
aI3300
aI3350
aI3400
aI3450
aI3500
aI3550
aI3600
aI3650
aI3700
aI3750
aI3800
aI3850
aI3900
aI3950
aI4000
aI4050
aI4100
aI4150
aI4200
aI4250
aI4300
aI4350
aI4400
aI4450
aI4500
aI4550
aI4600
aI4650
aI4700
aI4750
aI4800
aI4850
aI4900
aI4950
aI5000
aI5050
aI5100
aI5150
aI5200
aI5250
aI5300
aI5350
aI5400
aI5450
aI5500
aI5550
aI5600
aI5650
aI5700
aI5750
aI5800
aI5850
aI5900
aI5950
aI6000
aI6050
aI6100
aI6150
aI6200
aI6250
aI6300
aI6350
aI6400
aI6450
aI6500
aI6550
aI6600
aI6650
aI6700
aI6750
aI6800
aI6850
aI6900
aI6950
aI7000
aI7050
aI7100
aI7150
aI7200
aI7250
aI7300
aI7350
aI7400
aI7450
aI7500
aI7550
aI7600
aI7650
aI7700
aI7750
aI7800
aI7850
aI7900
aI7950
aI8000
aI8050
aI8100
aI8150
aI8200
aI8250
aI8300
aI8350
aI8400
aI8450
aI8500
aI8550
aI8600
aI8650
aI8700
aI8750
aI8800
aI8850
aI8900
aI8950
aI9000
aI9050
aI9100
aI9150
aI9200
aI9250
aI9300
aI9350
aI9400
aI9450
aI9500
aI9550
aI9600
aI9650
aI9700
aI9750
aI9800
aI9850
aI9900
aI9950
aI10000
asS'best_f'
p3
(lp4
cnumpy.core.multiarray
scalar
p5
(cnumpy
dtype
p6
(S'f8'
p7
I0
I1
tp8
Rp9
(I3
S'<'
p10
NNNI-1
I-1
I0
tp11
bS'r\xde\x07\x13\x8ct\xfc@'
p12
tp13
Rp14
ag5
(g9
S'\xc0\xbd&\xa3\x8bt\xfc@'
p15
tp16
Rp17
ag5
(g9
S'\xc2w\x0b&\x8bt\xfc@'
p18
tp19
Rp20
ag20
ag5
(g9
S'|#]\x0e\x7ft\xfc@'
p21
tp22
Rp23
ag5
(g9
S'\xc6\xd7=\xbcst\xfc@'
p24
tp25
Rp26
ag5
(g9
S'd\x82\xcf\xc8Bt\xfc@'
p27
tp28
Rp29
ag29
ag29
ag5
(g9
S'\xff\x99\x17\n6t\xfc@'
p30
tp31
Rp32
ag5
(g9
S'\xa3<)\x024t\xfc@'
p33
tp34
Rp35
ag5
(g9
S'=\xc6<\xea/t\xfc@'
p36
tp37
Rp38
ag38
ag5
(g9
S'\xc9\xba=\xe1*t\xfc@'
p39
tp40
Rp41
ag5
(g9
S'\xff\xc7\xc2\xb3)t\xfc@'
p42
tp43
Rp44
ag5
(g9
S'\x19#\xb0\xfd(t\xfc@'
p45
tp46
Rp47
ag47
ag47
ag47
ag47
ag47
ag47
ag47
ag47
ag47
ag47
ag47
ag5
(g9
S'\x14K\n\xdd&t\xfc@'
p48
tp49
Rp50
ag50
ag50
ag50
ag50
ag50
ag50
ag50
ag50
ag50
ag50
ag50
ag50
ag50
ag50
ag50
ag50
ag50
ag50
ag50
ag50
ag50
ag50
ag50
ag50
ag50
ag50
ag50
ag50
ag50
ag50
ag50
ag50
ag50
ag50
ag50
ag50
ag50
ag50
ag50
ag50
ag50
ag50
ag50
ag50
ag50
ag50
ag50
ag50
ag50
ag50
ag50
ag50
ag50
ag50
ag50
ag50
ag50
ag50
ag50
ag50
ag50
ag50
ag50
ag50
ag50
ag50
ag50
ag50
ag50
ag50
ag50
ag50
ag50
ag50
ag50
ag50
ag50
ag50
ag50
ag50
ag50
ag50
ag50
ag50
ag50
ag50
ag50
ag50
ag50
ag50
ag50
ag50
ag50
ag50
ag50
ag50
ag50
ag50
ag50
ag50
ag50
ag50
ag50
ag50
ag50
ag50
ag50
ag50
ag50
ag50
ag50
ag50
ag50
ag50
ag50
ag50
ag50
ag50
ag50
ag50
ag5
(g9
S')\xa7\xa7\x1a&t\xfc@'
p51
tp52
Rp53
ag53
ag53
ag53
ag53
ag53
ag53
ag53
ag53
ag53
ag53
ag53
ag53
ag53
ag53
ag53
ag53
ag53
ag53
ag53
ag53
ag53
ag53
ag53
ag5
(g9
S'\xd54O\x15&t\xfc@'
p54
tp55
Rp56
ag56
ag56
ag56
ag56
ag56
ag56
ag56
ag56
ag56
ag56
ag56
ag56
ag56
ag56
ag56
ag56
ag56
ag56
ag56
ag56
ag56
ag56
ag56
ag56
ag56
ag56
ag56
asS'best_P'
p57
(lp58
(itree
PTree
p59
(dp60
S'root'
p61
ccopy_reg
_reconstructor
p62
(ctree
Feature
p63
c__builtin__
object
p64
Ntp65
Rp66
(dp67
S'index'
p68
I3
sS'name'
p69
S'LP3'
p70
sS'l'
p71
g62
(ctree
Action
p72
g64
Ntp73
Rp74
(dp75
S'r'
p76
NsS'is_feature'
p77
I00
sS'value'
p78
S'Flood_Control'
p79
sg71
Nsbsg76
g62
(g72
g64
Ntp80
Rp81
(dp82
g76
Nsg77
I00
sg78
S'Flood_Control'
p83
sg71
NsbsS'threshold'
p84
F221.6856785191339
sg77
I01
sbsS'L'
p85
(lp86
g66
ag74
ag81
asS'N'
p87
I3
sba(itree
PTree
p88
(dp89
g61
g62
(g63
g64
Ntp90
Rp91
(dp92
g68
I3
sg76
g62
(g72
g64
Ntp93
Rp94
(dp95
g76
Nsg77
I00
sg78
S'Hedge_60'
p96
sg71
Nsbsg69
g70
sg84
F338.8908137038444
sg71
g62
(g63
g64
Ntp97
Rp98
(dp99
g68
I0
sg76
g62
(g72
g64
Ntp100
Rp101
(dp102
g76
Nsg77
I00
sg78
S'Hedge_50'
p103
sg71
Nsbsg69
S'Storage'
p104
sg84
F937.9648777589798
sg71
g62
(g72
g64
Ntp105
Rp106
(dp107
g76
Nsg77
I00
sg78
S'Flood_Control'
p108
sg71
Nsbsg77
I01
sbsg77
I01
sbsg85
(lp109
g91
ag98
ag106
ag101
ag94
asg87
I5
sba(itree
PTree
p110
(dp111
g61
g62
(g63
g64
Ntp112
Rp113
(dp114
g68
I3
sg76
g62
(g72
g64
Ntp115
Rp116
(dp117
g76
Nsg77
I00
sg78
S'Hedge_50'
p118
sg71
Nsbsg69
g70
sg84
F312.8596078129098
sg71
g62
(g63
g64
Ntp119
Rp120
(dp121
g68
I0
sg76
g62
(g72
g64
Ntp122
Rp123
(dp124
g76
Nsg77
I00
sg78
S'Hedge_80'
p125
sg71
Nsbsg69
g104
sg84
F884.4585899431511
sg71
g62
(g72
g64
Ntp126
Rp127
(dp128
g76
Nsg77
I00
sg78
S'Flood_Control'
p129
sg71
Nsbsg77
I01
sbsg77
I01
sbsg85
(lp130
g113
ag120
ag127
ag123
ag116
asg87
I5
sbag110
a(itree
PTree
p131
(dp132
g61
g62
(g63
g64
Ntp133
Rp134
(dp135
g68
I1
sg76
g62
(g63
g64
Ntp136
Rp137
(dp138
g68
I3
sg76
g62
(g72
g64
Ntp139
Rp140
(dp141
g76
Nsg77
I00
sg78
S'Flood_Control'
p142
sg71
Nsbsg69
g70
sg84
F337.0285700101097
sg71
g62
(g72
g64
Ntp143
Rp144
(dp145
g76
Nsg77
I00
sg78
S'Release_Demand'
p146
sg71
Nsbsg77
I01
sbsg69
S'Day'
p147
sg84
F242.46112366221084
sg71
g62
(g72
g64
Ntp148
Rp149
(dp150
g76
Nsg77
I00
sg78
S'Flood_Control'
p151
sg71
Nsbsg77
I01
sbsg85
(lp152
g134
ag149
ag137
ag144
ag140
asg87
I5
sba(itree
PTree
p153
(dp154
g61
g62
(g63
g64
Ntp155
Rp156
(dp157
g68
I1
sg76
g62
(g63
g64
Ntp158
Rp159
(dp160
g68
I3
sg76
g62
(g72
g64
Ntp161
Rp162
(dp163
g76
Nsg77
I00
sg78
g142
sg71
Nsbsg69
g70
sg84
F303.50168332377723
sg71
g62
(g72
g64
Ntp164
Rp165
(dp166
g76
Nsg77
I00
sg78
g146
sg71
Nsbsg77
I01
sbsg69
g147
sg84
F232.6699351366642
sg71
g62
(g72
g64
Ntp167
Rp168
(dp169
g76
Nsg77
I00
sg78
g151
sg71
Nsbsg77
I01
sbsg85
(lp170
g156
ag168
ag159
ag165
ag162
asg87
I5
sba(itree
PTree
p171
(dp172
g61
g62
(g63
g64
Ntp173
Rp174
(dp175
g68
I1
sg76
g62
(g72
g64
Ntp176
Rp177
(dp178
g76
Nsg77
I00
sg78
S'Hedge_70'
p179
sg71
Nsbsg69
g147
sg84
F198.28805446232246
sg71
g62
(g72
g64
Ntp180
Rp181
(dp182
g76
Nsg77
I00
sg78
g151
sg71
Nsbsg77
I01
sbsg85
(lp183
g174
ag181
ag177
asg87
I3
sbag171
ag171
a(itree
PTree
p184
(dp185
g61
g62
(g63
g64
Ntp186
Rp187
(dp188
g68
I1
sg76
g62
(g72
g64
Ntp189
Rp190
(dp191
g76
Nsg77
I00
sg78
S'Release_Demand'
p192
sg71
Nsbsg69
g147
sg84
F186.71008946372686
sg71
g62
(g72
g64
Ntp193
Rp194
(dp195
g76
Nsg77
I00
sg78
S'Flood_Control'
p196
sg71
Nsbsg77
I01
sbsg85
(lp197
g187
ag194
ag190
asg87
I3
sba(itree
PTree
p198
(dp199
g61
g62
(g63
g64
Ntp200
Rp201
(dp202
g68
I1
sg76
g62
(g72
g64
Ntp203
Rp204
(dp205
g76
Nsg77
I00
sg78
S'Hedge_80'
p206
sg71
Nsbsg69
g147
sg84
F188.59862807115547
sg71
g62
(g72
g64
Ntp207
Rp208
(dp209
g76
Nsg77
I00
sg78
g151
sg71
Nsbsg77
I01
sbsg85
(lp210
g201
ag208
ag204
asg87
I3
sba(itree
PTree
p211
(dp212
g61
g62
(g63
g64
Ntp213
Rp214
(dp215
g68
I1
sg76
g62
(g63
g64
Ntp216
Rp217
(dp218
g68
I1
sg76
g62
(g72
g64
Ntp219
Rp220
(dp221
g76
Nsg77
I00
sg78
g192
sg71
Nsbsg69
g147
sg84
F181.29398312402435
sg71
g62
(g72
g64
Ntp222
Rp223
(dp224
g76
Nsg77
I00
sg78
g196
sg71
Nsbsg77
I01
sbsg69
g147
sg84
F169.8104290753648
sg71
g62
(g72
g64
Ntp225
Rp226
(dp227
g76
Nsg77
I00
sg78
S'Flood_Control'
p228
sg71
Nsbsg77
I01
sbsg85
(lp229
g214
ag226
ag217
ag223
ag220
asg87
I5
sbag211
a(itree
PTree
p230
(dp231
g61
g62
(g63
g64
Ntp232
Rp233
(dp234
g68
I1
sg76
g62
(g72
g64
Ntp235
Rp236
(dp237
g76
Nsg77
I00
sg78
g179
sg71
Nsbsg69
g147
sg84
F175.41026222190558
sg71
g62
(g72
g64
Ntp238
Rp239
(dp240
g76
Nsg77
I00
sg78
g151
sg71
Nsbsg77
I01
sbsg85
(lp241
g233
ag239
ag236
asg87
I3
sba(itree
PTree
p242
(dp243
g61
g62
(g63
g64
Ntp244
Rp245
(dp246
g68
I3
sg76
g62
(g72
g64
Ntp247
Rp248
(dp249
g76
Nsg77
I00
sg78
S'Hedge_60'
p250
sg71
Nsbsg69
g70
sg84
F326.51001354038505
sg71
g62
(g63
g64
Ntp251
Rp252
(dp253
g68
I1
sg76
g62
(g72
g64
Ntp254
Rp255
(dp256
g76
Nsg77
I00
sg78
S'Release_Demand'
p257
sg71
Nsbsg69
g147
sg84
F175.83806556424435
sg71
g62
(g72
g64
Ntp258
Rp259
(dp260
g76
Nsg77
I00
sg78
g151
sg71
Nsbsg77
I01
sbsg77
I01
sbsg85
(lp261
g245
ag252
ag259
ag255
ag248
asg87
I5
sba(itree
PTree
p262
(dp263
g61
g62
(g63
g64
Ntp264
Rp265
(dp266
g68
I1
sg76
g62
(g63
g64
Ntp267
Rp268
(dp269
g68
I1
sg76
g62
(g72
g64
Ntp270
Rp271
(dp272
g76
Nsg77
I00
sg78
S'Hedge_90'
p273
sg71
Nsbsg69
g147
sg84
F267.51088146386195
sg71
g62
(g72
g64
Ntp274
Rp275
(dp276
g76
Nsg77
I00
sg78
S'Release_Demand'
p277
sg71
Nsbsg77
I01
sbsg69
g147
sg84
F175.25746718126445
sg71
g62
(g72
g64
Ntp278
Rp279
(dp280
g76
Nsg77
I00
sg78
S'Flood_Control'
p281
sg71
Nsbsg77
I01
sbsg85
(lp282
g265
ag279
ag268
ag275
ag271
asg87
I5
sbag262
ag262
ag262
ag262
ag262
ag262
ag262
ag262
ag262
ag262
ag262
a(itree
PTree
p283
(dp284
g61
g62
(g63
g64
Ntp285
Rp286
(dp287
g68
I1
sg76
g62
(g72
g64
Ntp288
Rp289
(dp290
g76
Nsg77
I00
sg78
S'Hedge_90'
p291
sg71
Nsbsg69
g147
sg84
F175.41026222190558
sg71
g62
(g72
g64
Ntp292
Rp293
(dp294
g76
Nsg77
I00
sg78
S'Flood_Control'
p295
sg71
Nsbsg77
I01
sbsg85
(lp296
g286
ag293
ag289
asg87
I3
sbag283
ag283
ag283
ag283
ag283
ag283
ag283
ag283
ag283
ag283
ag283
ag283
ag283
ag283
ag283
ag283
ag283
ag283
ag283
ag283
ag283
ag283
ag283
ag283
ag283
ag283
ag283
ag283
ag283
ag283
ag283
ag283
ag283
ag283
ag283
ag283
ag283
ag283
ag283
ag283
ag283
ag283
ag283
ag283
ag283
ag283
ag283
ag283
ag283
ag283
ag283
ag283
ag283
ag283
ag283
ag283
ag283
ag283
ag283
ag283
ag283
ag283
ag283
ag283
ag283
ag283
ag283
ag283
ag283
ag283
ag283
ag283
ag283
ag283
ag283
ag283
ag283
ag283
ag283
ag283
ag283
ag283
ag283
ag283
ag283
ag283
ag283
ag283
ag283
ag283
ag283
ag283
ag283
ag283
ag283
ag283
ag283
ag283
ag283
ag283
ag283
ag283
ag283
ag283
ag283
ag283
ag283
ag283
ag283
ag283
ag283
ag283
ag283
ag283
ag283
ag283
ag283
ag283
ag283
ag283
a(itree
PTree
p297
(dp298
g61
g62
(g63
g64
Ntp299
Rp300
(dp301
g68
I1
sg76
g62
(g63
g64
Ntp302
Rp303
(dp304
g68
I1
sg76
g62
(g72
g64
Ntp305
Rp306
(dp307
g76
Nsg77
I00
sg78
S'Release_Demand'
p308
sg71
Nsbsg69
g147
sg84
F264.7719573745047
sg71
g62
(g72
g64
Ntp309
Rp310
(dp311
g76
Nsg77
I00
sg78
S'Hedge_70'
p312
sg71
Nsbsg77
I01
sbsg69
g147
sg84
F175.71330027825826
sg71
g62
(g72
g64
Ntp313
Rp314
(dp315
g76
Nsg77
I00
sg78
S'Flood_Control'
p316
sg71
Nsbsg77
I01
sbsg85
(lp317
g300
ag314
ag303
ag310
ag306
asg87
I5
sbag297
ag297
ag297
ag297
ag297
ag297
ag297
ag297
ag297
ag297
ag297
ag297
ag297
ag297
ag297
ag297
ag297
ag297
ag297
ag297
ag297
ag297
ag297
a(itree
PTree
p318
(dp319
g61
g62
(g63
g64
Ntp320
Rp321
(dp322
g68
I1
sg76
g62
(g63
g64
Ntp323
Rp324
(dp325
g68
I1
sg76
g62
(g72
g64
Ntp326
Rp327
(dp328
g76
Nsg77
I00
sg78
g308
sg71
Nsbsg69
g147
sg84
F267.0607166080747
sg71
g62
(g72
g64
Ntp329
Rp330
(dp331
g76
Nsg77
I00
sg78
g312
sg71
Nsbsg77
I01
sbsg69
g147
sg84
F175.71330027825826
sg71
g62
(g72
g64
Ntp332
Rp333
(dp334
g76
Nsg77
I00
sg78
g316
sg71
Nsbsg77
I01
sbsg85
(lp335
g321
ag333
ag324
ag330
ag327
asg87
I5
sbag318
ag318
ag318
ag318
ag318
ag318
ag318
ag318
ag318
ag318
ag318
ag318
ag318
ag318
ag318
ag318
ag318
ag318
ag318
ag318
ag318
ag318
ag318
ag318
ag318
ag318
ag318
asS'time'
p336
(lp337
I342
aI521
aI702
aI879
aI1058
aI1241
aI1420
aI1603
aI1777
aI1956
aI2138
aI2321
aI2507
aI2691
aI2876
aI3058
aI3243
aI3427
aI3612
aI3799
aI3983
aI4166
aI4350
aI4534
aI4716
aI4893
aI5077
aI5258
aI5439
aI5626
aI5809
aI5991
aI6174
aI6359
aI6545
aI6733
aI6915
aI7104
aI7283
aI7468
aI7654
aI7836
aI8020
aI8203
aI8387
aI8567
aI8756
aI8935
aI9124
aI9310
aI9492
aI9673
aI9855
aI10034
aI10212
aI10393
aI10574
aI10757
aI10938
aI11123
aI11302
aI11485
aI11670
aI11854
aI12034
aI12215
aI12397
aI12581
aI12764
aI12949
aI13132
aI13316
aI13506
aI13689
aI13874
aI14063
aI14249
aI14440
aI14626
aI14808
aI14986
aI15168
aI15351
aI15535
aI15721
aI15902
aI16081
aI16266
aI16448
aI16630
aI16812
aI16995
aI17177
aI17363
aI17543
aI17724
aI17905
aI18089
aI18269
aI18451
aI18630
aI18812
aI18995
aI19177
aI19366
aI19553
aI19734
aI19917
aI20101
aI20283
aI20467
aI20653
aI20834
aI21013
aI21196
aI21377
aI21563
aI21752
aI21932
aI22114
aI22304
aI22486
aI22667
aI22849
aI23031
aI23212
aI23396
aI23576
aI23758
aI23939
aI24123
aI24304
aI24482
aI24668
aI24850
aI25028
aI25211
aI25393
aI25569
aI25752
aI25934
aI26119
aI26302
aI26485
aI26663
aI26847
aI27029
aI27211
aI27392
aI27578
aI27761
aI27946
aI28129
aI28316
aI28505
aI28691
aI28874
aI29060
aI29242
aI29429
aI29617
aI29800
aI29980
aI30166
aI30353
aI30532
aI30718
aI30903
aI31085
aI31276
aI31462
aI31649
aI31831
aI32019
aI32203
aI32385
aI32563
aI32744
aI32919
aI33095
aI33271
aI33443
aI33617
aI33785
aI33943
aI34104
aI34256
aI34406
aI34546
aI34676
aI34795
aI34919
aI35039
aI35167
aI35272
aI35368
aI35458
aI35547
aI35635
aI35722
as.