(dp0
S'nfe'
p1
(lp2
I50
aI100
aI150
aI200
aI250
aI300
aI350
aI400
aI450
aI500
aI550
aI600
aI650
aI700
aI750
aI800
aI850
aI900
aI950
aI1000
aI1050
aI1100
aI1150
aI1200
aI1250
aI1300
aI1350
aI1400
aI1450
aI1500
aI1550
aI1600
aI1650
aI1700
aI1750
aI1800
aI1850
aI1900
aI1950
aI2000
aI2050
aI2100
aI2150
aI2200
aI2250
aI2300
aI2350
aI2400
aI2450
aI2500
aI2550
aI2600
aI2650
aI2700
aI2750
aI2800
aI2850
aI2900
aI2950
aI3000
aI3050
aI3100
aI3150
aI3200
aI3250
aI3300
aI3350
aI3400
aI3450
aI3500
aI3550
aI3600
aI3650
aI3700
aI3750
aI3800
aI3850
aI3900
aI3950
aI4000
aI4050
aI4100
aI4150
aI4200
aI4250
aI4300
aI4350
aI4400
aI4450
aI4500
aI4550
aI4600
aI4650
aI4700
aI4750
aI4800
aI4850
aI4900
aI4950
aI5000
aI5050
aI5100
aI5150
aI5200
aI5250
aI5300
aI5350
aI5400
aI5450
aI5500
aI5550
aI5600
aI5650
aI5700
aI5750
aI5800
aI5850
aI5900
aI5950
aI6000
aI6050
aI6100
aI6150
aI6200
aI6250
aI6300
aI6350
aI6400
aI6450
aI6500
aI6550
aI6600
aI6650
aI6700
aI6750
aI6800
aI6850
aI6900
aI6950
aI7000
aI7050
aI7100
aI7150
aI7200
aI7250
aI7300
aI7350
aI7400
aI7450
aI7500
aI7550
aI7600
aI7650
aI7700
aI7750
aI7800
aI7850
aI7900
aI7950
aI8000
aI8050
aI8100
aI8150
aI8200
aI8250
aI8300
aI8350
aI8400
aI8450
aI8500
aI8550
aI8600
aI8650
aI8700
aI8750
aI8800
aI8850
aI8900
aI8950
aI9000
aI9050
aI9100
aI9150
aI9200
aI9250
aI9300
aI9350
aI9400
aI9450
aI9500
aI9550
aI9600
aI9650
aI9700
aI9750
aI9800
aI9850
aI9900
aI9950
aI10000
asS'best_f'
p3
(lp4
cnumpy.core.multiarray
scalar
p5
(cnumpy
dtype
p6
(S'f8'
p7
I0
I1
tp8
Rp9
(I3
S'<'
p10
NNNI-1
I-1
I0
tp11
bS'O.\xc8\x1a{[\x1e@'
p12
tp13
Rp14
ag5
(g9
S'/*\xfd\xef\xbfu\x18@'
p15
tp16
Rp17
ag5
(g9
S'\xb3\xfe:\xb1\xd7\xe5\x17@'
p18
tp19
Rp20
ag20
ag5
(g9
S'\t\xef\xdfd\xb9\xd7\x11@'
p21
tp22
Rp23
ag23
ag5
(g9
S'T\xbe\xe4y,\x05\x0f@'
p24
tp25
Rp26
ag5
(g9
S'\x82\x1e\xa3\xa6\xe0\x8f\x08@'
p27
tp28
Rp29
ag29
ag29
ag29
ag29
ag29
ag29
ag5
(g9
S'\x16W\x13N\xe0\n\x08@'
p30
tp31
Rp32
ag32
ag32
ag32
ag32
ag32
ag32
ag32
ag32
ag32
ag5
(g9
S';\xf3\xf9\x16(\x00\x08@'
p33
tp34
Rp35
ag35
ag35
ag35
ag35
ag35
ag5
(g9
S'\xbd\xd8\x7f\xf8\x17N\x07@'
p36
tp37
Rp38
ag38
ag38
ag38
ag38
ag38
ag38
ag38
ag38
ag38
ag5
(g9
S't\xe5\x19\xcfn\x8d\x06@'
p39
tp40
Rp41
ag41
ag41
ag41
ag41
ag41
ag41
ag41
ag41
ag41
ag41
ag41
ag41
ag41
ag41
ag41
ag41
ag41
ag41
ag41
ag41
ag41
ag41
ag41
ag41
ag41
ag41
ag41
ag41
ag41
ag41
ag41
ag41
ag41
ag41
ag41
ag41
ag41
ag41
ag41
ag41
ag41
ag41
ag41
ag41
ag41
ag41
ag41
ag41
ag41
ag41
ag41
ag41
ag41
ag41
ag41
ag41
ag41
ag41
ag41
ag41
ag41
ag41
ag41
ag41
ag41
ag41
ag41
ag41
ag41
ag41
ag41
ag41
ag41
ag41
ag41
ag41
ag41
ag41
ag41
ag41
ag41
ag41
ag41
ag41
ag41
ag41
ag41
ag41
ag41
ag41
ag41
ag41
ag41
ag41
ag41
ag41
ag41
ag41
ag41
ag41
ag41
ag41
ag41
ag41
ag41
ag41
ag41
ag41
ag41
ag41
ag41
ag5
(g9
S'\xdb\x1d\xeb\xf02\x82\x06@'
p42
tp43
Rp44
ag44
ag44
ag44
ag44
ag44
ag44
ag5
(g9
S'm\x00\xcb\xe8%u\x06@'
p45
tp46
Rp47
ag47
ag47
ag47
ag5
(g9
S'\x1a\x1b \xf7\xc1t\x06@'
p48
tp49
Rp50
ag50
ag50
ag50
ag50
ag50
ag50
ag50
ag50
ag50
ag50
ag50
ag50
ag50
ag50
ag50
ag50
ag50
ag50
ag50
ag50
ag50
ag50
ag50
ag50
ag50
ag50
ag50
ag50
ag50
ag50
ag50
ag50
ag50
ag50
ag50
ag50
asS'best_P'
p51
(lp52
(itree
PTree
p53
(dp54
S'root'
p55
ccopy_reg
_reconstructor
p56
(ctree
Feature
p57
c__builtin__
object
p58
Ntp59
Rp60
(dp61
S'index'
p62
I3
sS'name'
p63
S'LP3'
p64
sS'l'
p65
g56
(g57
g58
Ntp66
Rp67
(dp68
g62
I0
sg63
S'Storage'
p69
sg65
g56
(ctree
Action
p70
g58
Ntp71
Rp72
(dp73
S'r'
p74
NsS'is_feature'
p75
I00
sS'value'
p76
S'Hedge_80'
p77
sg65
Nsbsg74
g56
(g57
g58
Ntp78
Rp79
(dp80
g62
I0
sg63
g69
sg65
g56
(g70
g58
Ntp81
Rp82
(dp83
g74
Nsg75
I00
sg76
S'Flood_Control'
p84
sg65
Nsbsg74
g56
(g70
g58
Ntp85
Rp86
(dp87
g74
Nsg75
I00
sg76
S'Hedge_50'
p88
sg65
NsbsS'threshold'
p89
F745.6371927074961
sg75
I01
sbsg89
F135.4279030721699
sg75
I01
sbsg74
g56
(g70
g58
Ntp90
Rp91
(dp92
g74
Nsg75
I00
sg76
S'Hedge_80'
p93
sg65
Nsbsg89
F348.20664254216626
sg75
I01
sbsS'L'
p94
(lp95
g60
ag67
ag72
ag79
ag82
ag86
ag91
asS'N'
p96
I7
sba(itree
PTree
p97
(dp98
g55
g56
(g57
g58
Ntp99
Rp100
(dp101
g62
I3
sg74
g56
(g57
g58
Ntp102
Rp103
(dp104
g62
I0
sg74
g56
(g57
g58
Ntp105
Rp106
(dp107
g62
I0
sg74
g56
(g70
g58
Ntp108
Rp109
(dp110
g74
Nsg75
I00
sg76
S'Hedge_80'
p111
sg65
Nsbsg63
g69
sg89
F745.6371927074961
sg65
g56
(g70
g58
Ntp112
Rp113
(dp114
g74
Nsg75
I00
sg76
S'Hedge_90'
p115
sg65
Nsbsg75
I01
sbsg63
g69
sg89
F143.11920986457528
sg65
g56
(g70
g58
Ntp116
Rp117
(dp118
g74
Nsg75
I00
sg76
S'Hedge_60'
p119
sg65
Nsbsg75
I01
sbsg63
g64
sg89
F291.12017723550684
sg65
g56
(g57
g58
Ntp120
Rp121
(dp122
g62
I0
sg74
g56
(g70
g58
Ntp123
Rp124
(dp125
g74
Nsg75
I00
sg76
S'Flood_Control'
p126
sg65
Nsbsg63
g69
sg89
F225.95005360920158
sg65
g56
(g70
g58
Ntp127
Rp128
(dp129
g74
Nsg75
I00
sg76
S'Hedge_50'
p130
sg65
Nsbsg75
I01
sbsg75
I01
sbsg94
(lp131
g100
ag121
ag128
ag124
ag103
ag117
ag106
ag113
ag109
asg96
I9
sba(itree
PTree
p132
(dp133
g55
g56
(g57
g58
Ntp134
Rp135
(dp136
g62
I3
sg74
g56
(g70
g58
Ntp137
Rp138
(dp139
g74
Nsg75
I00
sg76
g93
sg65
Nsbsg63
g64
sg89
F344.94048015317657
sg65
g56
(g57
g58
Ntp140
Rp141
(dp142
g62
I0
sg74
g56
(g70
g58
Ntp143
Rp144
(dp145
g74
Nsg75
I00
sg76
g84
sg65
Nsbsg63
g69
sg89
F236.60200228749505
sg65
g56
(g70
g58
Ntp146
Rp147
(dp148
g74
Nsg75
I00
sg76
g77
sg65
Nsbsg75
I01
sbsg75
I01
sbsg94
(lp149
g135
ag141
ag147
ag144
ag138
asg96
I5
sbag132
a(itree
PTree
p150
(dp151
g55
g56
(g57
g58
Ntp152
Rp153
(dp154
g62
I1
sg74
g56
(g70
g58
Ntp155
Rp156
(dp157
g74
Nsg75
I00
sg76
S'Hedge_70'
p158
sg65
Nsbsg63
S'Day'
p159
sg89
F190.19439518524
sg65
g56
(g70
g58
Ntp160
Rp161
(dp162
g74
Nsg75
I00
sg76
S'Flood_Control'
p163
sg65
Nsbsg75
I01
sbsg94
(lp164
g153
ag161
ag156
asg96
I3
sbag150
a(itree
PTree
p165
(dp166
g55
g56
(g57
g58
Ntp167
Rp168
(dp169
g62
I2
sg74
g56
(g70
g58
Ntp170
Rp171
(dp172
g74
Nsg75
I00
sg76
S'Release_Demand'
p173
sg65
Nsbsg63
S'AnnQ'
p174
sg89
F3993.0242990008182
sg65
g56
(g57
g58
Ntp175
Rp176
(dp177
g62
I1
sg74
g56
(g70
g58
Ntp178
Rp179
(dp180
g74
Nsg75
I00
sg76
S'Hedge_70'
p181
sg65
Nsbsg63
g159
sg89
F172.9643544586123
sg65
g56
(g70
g58
Ntp182
Rp183
(dp184
g74
Nsg75
I00
sg76
S'Flood_Control'
p185
sg65
Nsbsg75
I01
sbsg75
I01
sbsg94
(lp186
g168
ag176
ag183
ag179
ag171
asg96
I5
sba(itree
PTree
p187
(dp188
g55
g56
(g57
g58
Ntp189
Rp190
(dp191
g62
I1
sg74
g56
(g70
g58
Ntp192
Rp193
(dp194
g74
Nsg75
I00
sg76
S'Hedge_90'
p195
sg65
Nsbsg63
g159
sg89
F139.00487114305545
sg65
g56
(g70
g58
Ntp196
Rp197
(dp198
g74
Nsg75
I00
sg76
g163
sg65
Nsbsg75
I01
sbsg94
(lp199
g190
ag197
ag193
asg96
I3
sbag187
ag187
ag187
ag187
ag187
ag187
a(itree
PTree
p200
(dp201
g55
g56
(g57
g58
Ntp202
Rp203
(dp204
g62
I2
sg74
g56
(g70
g58
Ntp205
Rp206
(dp207
g74
Nsg75
I00
sg76
g173
sg65
Nsbsg63
g174
sg89
F3799.6663568353165
sg65
g56
(g57
g58
Ntp208
Rp209
(dp210
g62
I3
sg74
g56
(g57
g58
Ntp211
Rp212
(dp213
g62
I0
sg74
g56
(g70
g58
Ntp214
Rp215
(dp216
g74
Nsg75
I00
sg76
S'Hedge_50'
p217
sg65
Nsbsg63
g69
sg89
F67.59219005085538
sg65
g56
(g70
g58
Ntp218
Rp219
(dp220
g74
Nsg75
I00
sg76
S'Release_Demand'
p221
sg65
Nsbsg75
I01
sbsg63
g64
sg89
F265.8857633997933
sg65
g56
(g57
g58
Ntp222
Rp223
(dp224
g62
I1
sg74
g56
(g70
g58
Ntp225
Rp226
(dp227
g74
Nsg75
I00
sg76
S'Hedge_90'
p228
sg65
Nsbsg63
g159
sg89
F131.1508579143701
sg65
g56
(g70
g58
Ntp229
Rp230
(dp231
g74
Nsg75
I00
sg76
S'Flood_Control'
p232
sg65
Nsbsg75
I01
sbsg75
I01
sbsg75
I01
sbsg94
(lp233
g203
ag209
ag223
ag230
ag226
ag212
ag219
ag215
ag206
asg96
I9
sbag200
ag200
ag200
ag200
ag200
ag200
ag200
ag200
ag200
a(itree
PTree
p234
(dp235
g55
g56
(g57
g58
Ntp236
Rp237
(dp238
g62
I1
sg74
g56
(g70
g58
Ntp239
Rp240
(dp241
g74
Nsg75
I00
sg76
S'Hedge_90'
p242
sg65
Nsbsg63
g159
sg89
F130.00302062514785
sg65
g56
(g70
g58
Ntp243
Rp244
(dp245
g74
Nsg75
I00
sg76
S'Flood_Control'
p246
sg65
Nsbsg75
I01
sbsg94
(lp247
g237
ag244
ag240
asg96
I3
sbag234
ag234
ag234
ag234
ag234
a(itree
PTree
p248
(dp249
g55
g56
(g57
g58
Ntp250
Rp251
(dp252
g62
I1
sg74
g56
(g70
g58
Ntp253
Rp254
(dp255
g74
Nsg75
I00
sg76
S'Hedge_90'
p256
sg65
Nsbsg63
g159
sg89
F141.77917952161312
sg65
g56
(g57
g58
Ntp257
Rp258
(dp259
g62
I3
sg74
g56
(g70
g58
Ntp260
Rp261
(dp262
g74
Nsg75
I00
sg76
S'Flood_Control'
p263
sg65
Nsbsg63
g64
sg89
F165.62865164197217
sg65
g56
(g70
g58
Ntp264
Rp265
(dp266
g74
Nsg75
I00
sg76
S'Hedge_90'
p267
sg65
Nsbsg75
I01
sbsg75
I01
sbsg94
(lp268
g251
ag258
ag265
ag261
ag254
asg96
I5
sbag248
ag248
ag248
ag248
ag248
ag248
ag248
ag248
ag248
a(itree
PTree
p269
(dp270
g55
g56
(g57
g58
Ntp271
Rp272
(dp273
g62
I1
sg74
g56
(g70
g58
Ntp274
Rp275
(dp276
g74
Nsg75
I00
sg76
g256
sg65
Nsbsg63
g159
sg89
F130.73591833601353
sg65
g56
(g57
g58
Ntp277
Rp278
(dp279
g62
I3
sg74
g56
(g70
g58
Ntp280
Rp281
(dp282
g74
Nsg75
I00
sg76
g263
sg65
Nsbsg63
g64
sg89
F187.21115232336612
sg65
g56
(g70
g58
Ntp283
Rp284
(dp285
g74
Nsg75
I00
sg76
g267
sg65
Nsbsg75
I01
sbsg75
I01
sbsg94
(lp286
g272
ag278
ag284
ag281
ag275
asg96
I5
sbag269
ag269
ag269
ag269
ag269
ag269
ag269
ag269
ag269
ag269
ag269
ag269
ag269
ag269
ag269
ag269
ag269
ag269
ag269
ag269
ag269
ag269
ag269
ag269
ag269
ag269
ag269
ag269
ag269
ag269
ag269
ag269
ag269
ag269
ag269
ag269
ag269
ag269
ag269
ag269
ag269
ag269
ag269
ag269
ag269
ag269
ag269
ag269
ag269
ag269
ag269
ag269
ag269
ag269
ag269
ag269
ag269
ag269
ag269
ag269
ag269
ag269
ag269
ag269
ag269
ag269
ag269
ag269
ag269
ag269
ag269
ag269
ag269
ag269
ag269
ag269
ag269
ag269
ag269
ag269
ag269
ag269
ag269
ag269
ag269
ag269
ag269
ag269
ag269
ag269
ag269
ag269
ag269
ag269
ag269
ag269
ag269
ag269
ag269
ag269
ag269
ag269
ag269
ag269
ag269
ag269
ag269
ag269
ag269
ag269
ag269
a(itree
PTree
p287
(dp288
g55
g56
(g57
g58
Ntp289
Rp290
(dp291
g62
I1
sg74
g56
(g70
g58
Ntp292
Rp293
(dp294
g74
Nsg75
I00
sg76
g256
sg65
Nsbsg63
g159
sg89
F133.45853931481435
sg65
g56
(g57
g58
Ntp295
Rp296
(dp297
g62
I3
sg74
g56
(g70
g58
Ntp298
Rp299
(dp300
g74
Nsg75
I00
sg76
g263
sg65
Nsbsg63
g64
sg89
F197.64878268999576
sg65
g56
(g70
g58
Ntp301
Rp302
(dp303
g74
Nsg75
I00
sg76
S'Hedge_90'
p304
sg65
Nsbsg75
I01
sbsg75
I01
sbsg94
(lp305
g290
ag296
ag302
ag299
ag293
asg96
I5
sbag287
ag287
ag287
ag287
ag287
ag287
a(itree
PTree
p306
(dp307
g55
g56
(g57
g58
Ntp308
Rp309
(dp310
g62
I1
sg74
g56
(g70
g58
Ntp311
Rp312
(dp313
g74
Nsg75
I00
sg76
g256
sg65
Nsbsg63
g159
sg89
F132.98946262548674
sg65
g56
(g57
g58
Ntp314
Rp315
(dp316
g62
I3
sg74
g56
(g70
g58
Ntp317
Rp318
(dp319
g74
Nsg75
I00
sg76
g263
sg65
Nsbsg63
g64
sg89
F197.64878268999576
sg65
g56
(g70
g58
Ntp320
Rp321
(dp322
g74
Nsg75
I00
sg76
g304
sg65
Nsbsg75
I01
sbsg75
I01
sbsg94
(lp323
g309
ag315
ag321
ag318
ag312
asg96
I5
sbag306
ag306
ag306
a(itree
PTree
p324
(dp325
g55
g56
(g57
g58
Ntp326
Rp327
(dp328
g62
I1
sg74
g56
(g70
g58
Ntp329
Rp330
(dp331
g74
Nsg75
I00
sg76
g256
sg65
Nsbsg63
g159
sg89
F132.98946262548674
sg65
g56
(g57
g58
Ntp332
Rp333
(dp334
g62
I3
sg74
g56
(g70
g58
Ntp335
Rp336
(dp337
g74
Nsg75
I00
sg76
g263
sg65
Nsbsg63
g64
sg89
F198.84846804524582
sg65
g56
(g70
g58
Ntp338
Rp339
(dp340
g74
Nsg75
I00
sg76
g304
sg65
Nsbsg75
I01
sbsg75
I01
sbsg94
(lp341
g327
ag333
ag339
ag336
ag330
asg96
I5
sbag324
ag324
ag324
ag324
ag324
ag324
ag324
ag324
ag324
ag324
ag324
ag324
ag324
ag324
ag324
ag324
ag324
ag324
ag324
ag324
ag324
ag324
ag324
ag324
ag324
ag324
ag324
ag324
ag324
ag324
ag324
ag324
ag324
ag324
ag324
ag324
asS'time'
p342
(lp343
I328
aI494
aI682
aI876
aI1072
aI1269
aI1461
aI1639
aI1813
aI2000
aI2182
aI2365
aI2543
aI2724
aI2909
aI3100
aI3283
aI3468
aI3650
aI3836
aI4022
aI4197
aI4385
aI4569
aI4754
aI4934
aI5113
aI5297
aI5471
aI5639
aI5811
aI5986
aI6158
aI6335
aI6517
aI6712
aI6885
aI7062
aI7234
aI7411
aI7582
aI7762
aI7939
aI8113
aI8289
aI8461
aI8638
aI8810
aI8981
aI9154
aI9323
aI9495
aI9669
aI9840
aI10017
aI10187
aI10363
aI10532
aI10704
aI10880
aI11051
aI11225
aI11400
aI11578
aI11747
aI11922
aI12093
aI12270
aI12441
aI12620
aI12796
aI12967
aI13141
aI13320
aI13487
aI13657
aI13836
aI14010
aI14186
aI14360
aI14532
aI14701
aI14877
aI15050
aI15219
aI15392
aI15569
aI15740
aI15914
aI16089
aI16263
aI16434
aI16604
aI16781
aI16953
aI17128
aI17303
aI17479
aI17652
aI17826
aI18003
aI18177
aI18349
aI18523
aI18701
aI18873
aI19046
aI19221
aI19390
aI19561
aI19732
aI19906
aI20078
aI20254
aI20428
aI20599
aI20777
aI20949
aI21123
aI21296
aI21470
aI21640
aI21814
aI21991
aI22161
aI22336
aI22505
aI22681
aI22856
aI23033
aI23205
aI23377
aI23554
aI23727
aI23898
aI24069
aI24237
aI24412
aI24588
aI24760
aI24933
aI25109
aI25280
aI25453
aI25631
aI25800
aI25968
aI26144
aI26325
aI26500
aI26673
aI26853
aI27025
aI27196
aI27368
aI27538
aI27715
aI27890
aI28062
aI28236
aI28408
aI28583
aI28753
aI28932
aI29107
aI29277
aI29451
aI29624
aI29795
aI29967
aI30143
aI30311
aI30487
aI30657
aI30831
aI31002
aI31173
aI31344
aI31514
aI31678
aI31838
aI31997
aI32156
aI32322
aI32476
aI32632
aI32787
aI32934
aI33063
aI33186
aI33316
aI33440
aI33566
aI33696
aI33788
aI33881
aI33975
aI34068
aI34162
aI34255
as.