(dp0
S'nfe'
p1
(lp2
I50
aI100
aI150
aI200
aI250
aI300
aI350
aI400
aI450
aI500
aI550
aI600
aI650
aI700
aI750
aI800
aI850
aI900
aI950
aI1000
aI1050
aI1100
aI1150
aI1200
aI1250
aI1300
aI1350
aI1400
aI1450
aI1500
aI1550
aI1600
aI1650
aI1700
aI1750
aI1800
aI1850
aI1900
aI1950
aI2000
aI2050
aI2100
aI2150
aI2200
aI2250
aI2300
aI2350
aI2400
aI2450
aI2500
aI2550
aI2600
aI2650
aI2700
aI2750
aI2800
aI2850
aI2900
aI2950
aI3000
aI3050
aI3100
aI3150
aI3200
aI3250
aI3300
aI3350
aI3400
aI3450
aI3500
aI3550
aI3600
aI3650
aI3700
aI3750
aI3800
aI3850
aI3900
aI3950
aI4000
aI4050
aI4100
aI4150
aI4200
aI4250
aI4300
aI4350
aI4400
aI4450
aI4500
aI4550
aI4600
aI4650
aI4700
aI4750
aI4800
aI4850
aI4900
aI4950
aI5000
aI5050
aI5100
aI5150
aI5200
aI5250
aI5300
aI5350
aI5400
aI5450
aI5500
aI5550
aI5600
aI5650
aI5700
aI5750
aI5800
aI5850
aI5900
aI5950
aI6000
aI6050
aI6100
aI6150
aI6200
aI6250
aI6300
aI6350
aI6400
aI6450
aI6500
aI6550
aI6600
aI6650
aI6700
aI6750
aI6800
aI6850
aI6900
aI6950
aI7000
aI7050
aI7100
aI7150
aI7200
aI7250
aI7300
aI7350
aI7400
aI7450
aI7500
aI7550
aI7600
aI7650
aI7700
aI7750
aI7800
aI7850
aI7900
aI7950
aI8000
aI8050
aI8100
aI8150
aI8200
aI8250
aI8300
aI8350
aI8400
aI8450
aI8500
aI8550
aI8600
aI8650
aI8700
aI8750
aI8800
aI8850
aI8900
aI8950
aI9000
aI9050
aI9100
aI9150
aI9200
aI9250
aI9300
aI9350
aI9400
aI9450
aI9500
aI9550
aI9600
aI9650
aI9700
aI9750
aI9800
aI9850
aI9900
aI9950
aI10000
asS'best_f'
p3
(lp4
cnumpy.core.multiarray
scalar
p5
(cnumpy
dtype
p6
(S'f8'
p7
I0
I1
tp8
Rp9
(I3
S'<'
p10
NNNI-1
I-1
I0
tp11
bS'fL\xa0=\x82\xa1\x11@'
p12
tp13
Rp14
ag5
(g9
S'\xc6\xb4\x08rQ\x87\x11@'
p15
tp16
Rp17
ag5
(g9
S'w:\xa5hqe\x06@'
p18
tp19
Rp20
ag5
(g9
S'`\x95\x94\xec\xf9\xa5\x05@'
p21
tp22
Rp23
ag5
(g9
S'CI\x858o6\x04@'
p24
tp25
Rp26
ag5
(g9
S'\xce\r\xe1\xdb\xe7I\x01@'
p27
tp28
Rp29
ag29
ag29
ag29
ag29
ag5
(g9
S';\x8e\xe0\xaa b\xff?'
p30
tp31
Rp32
ag5
(g9
S'\xdd\xab\x81\xeb\x08D\xff?'
p33
tp34
Rp35
ag5
(g9
S'\xf1ki\x15\xf2\x9c\xfb?'
p36
tp37
Rp38
ag38
ag38
ag5
(g9
S'\xe1\xe8\xd6\xbc\xb7\x18\xf0?'
p39
tp40
Rp41
ag5
(g9
S'\x8dq\xb3\xeb\xbf\x95\xe7?'
p42
tp43
Rp44
ag5
(g9
S'\xe5\xbe\xe1\x11V-\xe2?'
p45
tp46
Rp47
ag47
ag47
ag5
(g9
S'V\xa3\xf2\x83\xe5j\xe0?'
p48
tp49
Rp50
ag50
ag50
ag50
ag50
ag50
ag50
ag50
ag50
ag50
ag50
ag50
ag50
ag50
ag50
ag5
(g9
S'\xb7\x82\xff\xa8\x93\x02\xe0?'
p51
tp52
Rp53
ag53
ag53
ag53
ag53
ag53
ag53
ag53
ag53
ag53
ag53
ag5
(g9
S'?\x16\xbc\xa4\xfc\xb3\xdf?'
p54
tp55
Rp56
ag56
ag5
(g9
S'\\V\x7f1\xa3\xe1\xdd?'
p57
tp58
Rp59
ag59
ag5
(g9
S'\x82\x05\x0c\xa8\x1d\xb9\xdc?'
p60
tp61
Rp62
ag62
ag62
ag62
ag62
ag62
ag62
ag62
ag62
ag62
ag62
ag62
ag62
ag62
ag62
ag62
ag62
ag62
ag62
ag62
ag62
ag62
ag62
ag62
ag62
ag62
ag62
ag62
ag62
ag62
ag62
ag62
ag62
ag62
ag62
ag62
ag62
ag62
ag62
ag62
ag62
ag62
ag62
ag62
ag62
ag62
ag5
(g9
S'\xeb[\x92 "\xb7\xdc?'
p63
tp64
Rp65
ag65
ag65
ag5
(g9
S'#\xe6\x89\x9e6V\xdb?'
p66
tp67
Rp68
ag68
ag68
ag68
ag68
ag68
ag68
ag68
ag68
ag68
ag68
ag68
ag68
ag68
ag68
ag68
ag68
ag68
ag68
ag68
ag68
ag68
ag5
(g9
S'\x06s\x97{>3\xdb?'
p69
tp70
Rp71
ag71
ag71
ag71
ag71
ag71
ag71
ag71
ag71
ag5
(g9
S'\xdbU\xed\xc2H*\xdb?'
p72
tp73
Rp74
ag74
ag74
ag74
ag74
ag74
ag74
ag74
ag74
ag74
ag74
ag74
ag74
ag74
ag74
ag74
ag74
ag74
ag74
ag74
ag74
ag74
ag74
ag74
ag74
ag74
ag74
ag74
ag74
ag74
ag74
ag74
ag74
ag74
ag74
ag74
ag74
ag74
ag74
ag74
ag74
ag74
ag74
ag74
ag74
ag74
ag74
ag74
ag74
ag74
ag74
ag74
ag74
ag74
ag74
ag74
ag74
ag74
ag74
ag74
ag74
ag74
ag74
ag74
ag74
ag5
(g9
S'\x91\xbf6\t\xd6"\xdb?'
p75
tp76
Rp77
ag77
ag77
ag77
ag77
asS'best_P'
p78
(lp79
(itree
PTree
p80
(dp81
S'root'
p82
ccopy_reg
_reconstructor
p83
(ctree
Feature
p84
c__builtin__
object
p85
Ntp86
Rp87
(dp88
S'index'
p89
I3
sS'name'
p90
S'LP3'
p91
sS'l'
p92
g83
(g84
g85
Ntp93
Rp94
(dp95
g89
I0
sg90
S'Storage'
p96
sg92
g83
(ctree
Action
p97
g85
Ntp98
Rp99
(dp100
S'r'
p101
NsS'is_feature'
p102
I00
sS'value'
p103
S'Hedge_50'
p104
sg92
Nsbsg101
g83
(g97
g85
Ntp105
Rp106
(dp107
g101
Nsg102
I00
sg103
S'Flood_Control'
p108
sg92
NsbsS'threshold'
p109
F324.51749642164316
sg102
I01
sbsg101
g83
(g84
g85
Ntp110
Rp111
(dp112
g89
I0
sg90
g96
sg92
g83
(g97
g85
Ntp113
Rp114
(dp115
g101
Nsg102
I00
sg103
S'Hedge_50'
p116
sg92
Nsbsg101
g83
(g84
g85
Ntp117
Rp118
(dp119
g89
I2
sg90
S'AnnQ'
p120
sg92
g83
(g97
g85
Ntp121
Rp122
(dp123
g101
Nsg102
I00
sg103
S'Flood_Control'
p124
sg92
Nsbsg101
g83
(g97
g85
Ntp125
Rp126
(dp127
g101
Nsg102
I00
sg103
S'Hedge_50'
p128
sg92
Nsbsg109
F2236.278863362794
sg102
I01
sbsg109
F925.2001088608293
sg102
I01
sbsg109
F231.16757728093341
sg102
I01
sbsS'L'
p129
(lp130
g87
ag94
ag99
ag106
ag111
ag114
ag118
ag122
ag126
asS'N'
p131
I9
sba(itree
PTree
p132
(dp133
g82
g83
(g84
g85
Ntp134
Rp135
(dp136
g89
I1
sg101
g83
(g97
g85
Ntp137
Rp138
(dp139
g101
Nsg102
I00
sg103
S'Hedge_50'
p140
sg92
Nsbsg90
S'Day'
p141
sg109
F183.30157873351706
sg92
g83
(g97
g85
Ntp142
Rp143
(dp144
g101
Nsg102
I00
sg103
S'Flood_Control'
p145
sg92
Nsbsg102
I01
sbsg129
(lp146
g135
ag143
ag138
asg131
I3
sba(itree
PTree
p147
(dp148
g82
g83
(g84
g85
Ntp149
Rp150
(dp151
g89
I3
sg101
g83
(g97
g85
Ntp152
Rp153
(dp154
g101
Nsg102
I00
sg103
S'Flood_Control'
p155
sg92
Nsbsg90
g91
sg109
F333.1235474630407
sg92
g83
(g84
g85
Ntp156
Rp157
(dp158
g89
I0
sg101
g83
(g97
g85
Ntp159
Rp160
(dp161
g101
Nsg102
I00
sg103
S'Flood_Control'
p162
sg92
Nsbsg90
g96
sg109
F432.22567340486376
sg92
g83
(g97
g85
Ntp163
Rp164
(dp165
g101
Nsg102
I00
sg103
S'Hedge_80'
p166
sg92
Nsbsg102
I01
sbsg102
I01
sbsg129
(lp167
g150
ag157
ag164
ag160
ag153
asg131
I5
sba(itree
PTree
p168
(dp169
g82
g83
(g84
g85
Ntp170
Rp171
(dp172
g89
I3
sg101
g83
(g84
g85
Ntp173
Rp174
(dp175
g89
I0
sg101
g83
(g97
g85
Ntp176
Rp177
(dp178
g101
Nsg102
I00
sg103
S'Release_Demand'
p179
sg92
Nsbsg90
g96
sg109
F157.85253058655232
sg92
g83
(g97
g85
Ntp180
Rp181
(dp182
g101
Nsg102
I00
sg103
S'Hedge_70'
p183
sg92
Nsbsg102
I01
sbsg90
g91
sg109
F337.93396880476007
sg92
g83
(g84
g85
Ntp184
Rp185
(dp186
g89
I0
sg101
g83
(g97
g85
Ntp187
Rp188
(dp189
g101
Nsg102
I00
sg103
S'Flood_Control'
p190
sg92
Nsbsg90
g96
sg109
F474.087896442838
sg92
g83
(g97
g85
Ntp191
Rp192
(dp193
g101
Nsg102
I00
sg103
S'Hedge_90'
p194
sg92
Nsbsg102
I01
sbsg102
I01
sbsg129
(lp195
g171
ag185
ag192
ag188
ag174
ag181
ag177
asg131
I7
sba(itree
PTree
p196
(dp197
g82
g83
(g84
g85
Ntp198
Rp199
(dp200
g89
I3
sg101
g83
(g84
g85
Ntp201
Rp202
(dp203
g89
I0
sg101
g83
(g97
g85
Ntp204
Rp205
(dp206
g101
Nsg102
I00
sg103
S'Hedge_60'
p207
sg92
Nsbsg90
g96
sg109
F157.85253058655232
sg92
g83
(g97
g85
Ntp208
Rp209
(dp210
g101
Nsg102
I00
sg103
S'Hedge_90'
p211
sg92
Nsbsg102
I01
sbsg90
g91
sg109
F337.24007003557756
sg92
g83
(g84
g85
Ntp212
Rp213
(dp214
g89
I3
sg101
g83
(g97
g85
Ntp215
Rp216
(dp217
g101
Nsg102
I00
sg103
S'Hedge_60'
p218
sg92
Nsbsg90
g91
sg109
F316.2446382889848
sg92
g83
(g84
g85
Ntp219
Rp220
(dp221
g89
I0
sg101
g83
(g97
g85
Ntp222
Rp223
(dp224
g101
Nsg102
I00
sg103
S'Flood_Control'
p225
sg92
Nsbsg90
g96
sg109
F463.43952156908045
sg92
g83
(g97
g85
Ntp226
Rp227
(dp228
g101
Nsg102
I00
sg103
S'Hedge_70'
p229
sg92
Nsbsg102
I01
sbsg102
I01
sbsg102
I01
sbsg129
(lp230
g199
ag213
ag220
ag227
ag223
ag216
ag202
ag209
ag205
asg131
I9
sba(itree
PTree
p231
(dp232
g82
g83
(g84
g85
Ntp233
Rp234
(dp235
g89
I3
sg101
g83
(g97
g85
Ntp236
Rp237
(dp238
g101
Nsg102
I00
sg103
S'Release_Demand'
p239
sg92
Nsbsg90
g91
sg109
F319.4807568241931
sg92
g83
(g84
g85
Ntp240
Rp241
(dp242
g89
I1
sg101
g83
(g97
g85
Ntp243
Rp244
(dp245
g101
Nsg102
I00
sg103
S'Hedge_90'
p246
sg92
Nsbsg90
g141
sg109
F133.3996259448782
sg92
g83
(g97
g85
Ntp247
Rp248
(dp249
g101
Nsg102
I00
sg103
S'Flood_Control'
p250
sg92
Nsbsg102
I01
sbsg102
I01
sbsg129
(lp251
g234
ag241
ag248
ag244
ag237
asg131
I5
sbag231
ag231
ag231
ag231
a(itree
PTree
p252
(dp253
g82
g83
(g84
g85
Ntp254
Rp255
(dp256
g89
I3
sg101
g83
(g84
g85
Ntp257
Rp258
(dp259
g89
I0
sg101
g83
(g97
g85
Ntp260
Rp261
(dp262
g101
Nsg102
I00
sg103
S'Hedge_70'
p263
sg92
Nsbsg90
g96
sg109
F372.3880636500437
sg92
g83
(g97
g85
Ntp264
Rp265
(dp266
g101
Nsg102
I00
sg103
S'Hedge_50'
p267
sg92
Nsbsg102
I01
sbsg90
g91
sg109
F301.8870087625887
sg92
g83
(g84
g85
Ntp268
Rp269
(dp270
g89
I0
sg101
g83
(g97
g85
Ntp271
Rp272
(dp273
g101
Nsg102
I00
sg103
S'Flood_Control'
p274
sg92
Nsbsg90
g96
sg109
F604.8655750174589
sg92
g83
(g97
g85
Ntp275
Rp276
(dp277
g101
Nsg102
I00
sg103
g194
sg92
Nsbsg102
I01
sbsg102
I01
sbsg129
(lp278
g255
ag269
ag276
ag272
ag258
ag265
ag261
asg131
I7
sba(itree
PTree
p279
(dp280
g82
g83
(g84
g85
Ntp281
Rp282
(dp283
g89
I3
sg101
g83
(g84
g85
Ntp284
Rp285
(dp286
g89
I0
sg101
g83
(g97
g85
Ntp287
Rp288
(dp289
g101
Nsg102
I00
sg103
S'Hedge_70'
p290
sg92
Nsbsg90
g96
sg109
F353.7508711304452
sg92
g83
(g97
g85
Ntp291
Rp292
(dp293
g101
Nsg102
I00
sg103
S'Flood_Control'
p294
sg92
Nsbsg102
I01
sbsg90
g91
sg109
F307.18718546853904
sg92
g83
(g84
g85
Ntp295
Rp296
(dp297
g89
I0
sg101
g83
(g97
g85
Ntp298
Rp299
(dp300
g101
Nsg102
I00
sg103
g225
sg92
Nsbsg90
g96
sg109
F547.2291798592474
sg92
g83
(g97
g85
Ntp301
Rp302
(dp303
g101
Nsg102
I00
sg103
S'Hedge_80'
p304
sg92
Nsbsg102
I01
sbsg102
I01
sbsg129
(lp305
g282
ag296
ag302
ag299
ag285
ag292
ag288
asg131
I7
sba(itree
PTree
p306
(dp307
g82
g83
(g84
g85
Ntp308
Rp309
(dp310
g89
I3
sg101
g83
(g97
g85
Ntp311
Rp312
(dp313
g101
Nsg102
I00
sg103
S'Hedge_60'
p314
sg92
Nsbsg90
g91
sg109
F314.0326447639384
sg92
g83
(g84
g85
Ntp315
Rp316
(dp317
g89
I0
sg101
g83
(g97
g85
Ntp318
Rp319
(dp320
g101
Nsg102
I00
sg103
g162
sg92
Nsbsg90
g96
sg109
F620.7908638509247
sg92
g83
(g97
g85
Ntp321
Rp322
(dp323
g101
Nsg102
I00
sg103
S'Hedge_90'
p324
sg92
Nsbsg102
I01
sbsg102
I01
sbsg129
(lp325
g309
ag316
ag322
ag319
ag312
asg131
I5
sbag306
ag306
a(itree
PTree
p326
(dp327
g82
g83
(g84
g85
Ntp328
Rp329
(dp330
g89
I0
sg101
g83
(g84
g85
Ntp331
Rp332
(dp333
g89
I1
sg101
g83
(g84
g85
Ntp334
Rp335
(dp336
g89
I1
sg101
g83
(g97
g85
Ntp337
Rp338
(dp339
g101
Nsg102
I00
sg103
S'Release_Demand'
p340
sg92
Nsbsg90
g141
sg109
F238.02495610565435
sg92
g83
(g97
g85
Ntp341
Rp342
(dp343
g101
Nsg102
I00
sg103
S'Hedge_90'
p344
sg92
Nsbsg102
I01
sbsg90
g141
sg109
F193.27252781335372
sg92
g83
(g97
g85
Ntp345
Rp346
(dp347
g101
Nsg102
I00
sg103
S'Flood_Control'
p348
sg92
Nsbsg102
I01
sbsg90
g96
sg109
F332.23494153081907
sg92
g83
(g97
g85
Ntp349
Rp350
(dp351
g101
Nsg102
I00
sg103
S'Release_Demand'
p352
sg92
Nsbsg102
I01
sbsg129
(lp353
g329
ag350
ag332
ag346
ag335
ag342
ag338
asg131
I7
sba(itree
PTree
p354
(dp355
g82
g83
(g84
g85
Ntp356
Rp357
(dp358
g89
I0
sg101
g83
(g84
g85
Ntp359
Rp360
(dp361
g89
I1
sg101
g83
(g84
g85
Ntp362
Rp363
(dp364
g89
I1
sg101
g83
(g97
g85
Ntp365
Rp366
(dp367
g101
Nsg102
I00
sg103
g340
sg92
Nsbsg90
g141
sg109
F182.59905160309756
sg92
g83
(g97
g85
Ntp368
Rp369
(dp370
g101
Nsg102
I00
sg103
g344
sg92
Nsbsg102
I01
sbsg90
g141
sg109
F163.62237987417737
sg92
g83
(g97
g85
Ntp371
Rp372
(dp373
g101
Nsg102
I00
sg103
g348
sg92
Nsbsg102
I01
sbsg90
g96
sg109
F297.80284418596284
sg92
g83
(g97
g85
Ntp374
Rp375
(dp376
g101
Nsg102
I00
sg103
g352
sg92
Nsbsg102
I01
sbsg129
(lp377
g357
ag375
ag360
ag372
ag363
ag369
ag366
asg131
I7
sba(itree
PTree
p378
(dp379
g82
g83
(g84
g85
Ntp380
Rp381
(dp382
g89
I0
sg101
g83
(g84
g85
Ntp383
Rp384
(dp385
g89
I1
sg101
g83
(g84
g85
Ntp386
Rp387
(dp388
g89
I1
sg101
g83
(g97
g85
Ntp389
Rp390
(dp391
g101
Nsg102
I00
sg103
g340
sg92
Nsbsg90
g141
sg109
F189.8166739691066
sg92
g83
(g97
g85
Ntp392
Rp393
(dp394
g101
Nsg102
I00
sg103
g344
sg92
Nsbsg102
I01
sbsg90
g141
sg109
F157.37245671070764
sg92
g83
(g97
g85
Ntp395
Rp396
(dp397
g101
Nsg102
I00
sg103
g348
sg92
Nsbsg102
I01
sbsg90
g96
sg109
F368.81436807594787
sg92
g83
(g97
g85
Ntp398
Rp399
(dp400
g101
Nsg102
I00
sg103
g352
sg92
Nsbsg102
I01
sbsg129
(lp401
g381
ag399
ag384
ag396
ag387
ag393
ag390
asg131
I7
sbag378
ag378
a(itree
PTree
p402
(dp403
g82
g83
(g84
g85
Ntp404
Rp405
(dp406
g89
I0
sg101
g83
(g84
g85
Ntp407
Rp408
(dp409
g89
I1
sg101
g83
(g84
g85
Ntp410
Rp411
(dp412
g89
I1
sg101
g83
(g97
g85
Ntp413
Rp414
(dp415
g101
Nsg102
I00
sg103
g340
sg92
Nsbsg90
g141
sg109
F222.34923851745918
sg92
g83
(g97
g85
Ntp416
Rp417
(dp418
g101
Nsg102
I00
sg103
g344
sg92
Nsbsg102
I01
sbsg90
g141
sg109
F141.28916592818294
sg92
g83
(g97
g85
Ntp419
Rp420
(dp421
g101
Nsg102
I00
sg103
g348
sg92
Nsbsg102
I01
sbsg90
g96
sg109
F368.81436807594787
sg92
g83
(g97
g85
Ntp422
Rp423
(dp424
g101
Nsg102
I00
sg103
g352
sg92
Nsbsg102
I01
sbsg129
(lp425
g405
ag423
ag408
ag420
ag411
ag417
ag414
asg131
I7
sbag402
ag402
ag402
ag402
ag402
ag402
ag402
ag402
ag402
ag402
ag402
ag402
ag402
ag402
a(itree
PTree
p426
(dp427
g82
g83
(g84
g85
Ntp428
Rp429
(dp430
g89
I0
sg101
g83
(g84
g85
Ntp431
Rp432
(dp433
g89
I1
sg101
g83
(g84
g85
Ntp434
Rp435
(dp436
g89
I1
sg101
g83
(g97
g85
Ntp437
Rp438
(dp439
g101
Nsg102
I00
sg103
g340
sg92
Nsbsg90
g141
sg109
F239.51385938391542
sg92
g83
(g97
g85
Ntp440
Rp441
(dp442
g101
Nsg102
I00
sg103
g344
sg92
Nsbsg102
I01
sbsg90
g141
sg109
F160.69782719232867
sg92
g83
(g97
g85
Ntp443
Rp444
(dp445
g101
Nsg102
I00
sg103
g348
sg92
Nsbsg102
I01
sbsg90
g96
sg109
F454.082140382676
sg92
g83
(g97
g85
Ntp446
Rp447
(dp448
g101
Nsg102
I00
sg103
g352
sg92
Nsbsg102
I01
sbsg129
(lp449
g429
ag447
ag432
ag444
ag435
ag441
ag438
asg131
I7
sbag426
ag426
ag426
ag426
ag426
ag426
ag426
ag426
ag426
ag426
a(itree
PTree
p450
(dp451
g82
g83
(g84
g85
Ntp452
Rp453
(dp454
g89
I3
sg101
g83
(g84
g85
Ntp455
Rp456
(dp457
g89
I0
sg101
g83
(g97
g85
Ntp458
Rp459
(dp460
g101
Nsg102
I00
sg103
S'Hedge_80'
p461
sg92
Nsbsg90
g96
sg109
F55.8716468265513
sg92
g83
(g97
g85
Ntp462
Rp463
(dp464
g101
Nsg102
I00
sg103
S'Hedge_90'
p465
sg92
Nsbsg102
I01
sbsg90
g91
sg109
F311.36582260449836
sg92
g83
(g84
g85
Ntp466
Rp467
(dp468
g89
I1
sg101
g83
(g97
g85
Ntp469
Rp470
(dp471
g101
Nsg102
I00
sg103
S'Release_Demand'
p472
sg92
Nsbsg90
g141
sg109
F133.74012160488712
sg92
g83
(g84
g85
Ntp473
Rp474
(dp475
g89
I0
sg101
g83
(g97
g85
Ntp476
Rp477
(dp478
g101
Nsg102
I00
sg103
S'Flood_Control'
p479
sg92
Nsbsg90
g96
sg109
F429.6274825936512
sg92
g83
(g97
g85
Ntp480
Rp481
(dp482
g101
Nsg102
I00
sg103
S'Hedge_90'
p483
sg92
Nsbsg102
I01
sbsg102
I01
sbsg102
I01
sbsg129
(lp484
g453
ag467
ag474
ag481
ag477
ag470
ag456
ag463
ag459
asg131
I9
sbag450
a(itree
PTree
p485
(dp486
g82
g83
(g84
g85
Ntp487
Rp488
(dp489
g89
I0
sg101
g83
(g84
g85
Ntp490
Rp491
(dp492
g89
I1
sg101
g83
(g97
g85
Ntp493
Rp494
(dp495
g101
Nsg102
I00
sg103
S'Release_Demand'
p496
sg92
Nsbsg90
g141
sg109
F141.100853203449
sg92
g83
(g84
g85
Ntp497
Rp498
(dp499
g89
I0
sg101
g83
(g97
g85
Ntp500
Rp501
(dp502
g101
Nsg102
I00
sg103
S'Flood_Control'
p503
sg92
Nsbsg90
g96
sg109
F431.55910281287277
sg92
g83
(g97
g85
Ntp504
Rp505
(dp506
g101
Nsg102
I00
sg103
S'Release_Demand'
p507
sg92
Nsbsg102
I01
sbsg102
I01
sbsg90
g96
sg109
F445.9829183480636
sg92
g83
(g97
g85
Ntp508
Rp509
(dp510
g101
Nsg102
I00
sg103
g352
sg92
Nsbsg102
I01
sbsg129
(lp511
g488
ag509
ag491
ag498
ag505
ag501
ag494
asg131
I7
sbag485
a(itree
PTree
p512
(dp513
g82
g83
(g84
g85
Ntp514
Rp515
(dp516
g89
I0
sg101
g83
(g84
g85
Ntp517
Rp518
(dp519
g89
I1
sg101
g83
(g97
g85
Ntp520
Rp521
(dp522
g101
Nsg102
I00
sg103
g496
sg92
Nsbsg90
g141
sg109
F137.06640819689483
sg92
g83
(g84
g85
Ntp523
Rp524
(dp525
g89
I0
sg101
g83
(g97
g85
Ntp526
Rp527
(dp528
g101
Nsg102
I00
sg103
g503
sg92
Nsbsg90
g96
sg109
F535.6217729379648
sg92
g83
(g97
g85
Ntp529
Rp530
(dp531
g101
Nsg102
I00
sg103
g507
sg92
Nsbsg102
I01
sbsg102
I01
sbsg90
g96
sg109
F476.20675913870105
sg92
g83
(g97
g85
Ntp532
Rp533
(dp534
g101
Nsg102
I00
sg103
g352
sg92
Nsbsg102
I01
sbsg129
(lp535
g515
ag533
ag518
ag524
ag530
ag527
ag521
asg131
I7
sbag512
ag512
ag512
ag512
ag512
ag512
ag512
ag512
ag512
ag512
ag512
ag512
ag512
ag512
ag512
ag512
ag512
ag512
ag512
ag512
ag512
ag512
ag512
ag512
ag512
ag512
ag512
ag512
ag512
ag512
ag512
ag512
ag512
ag512
ag512
ag512
ag512
ag512
ag512
ag512
ag512
ag512
ag512
ag512
ag512
a(itree
PTree
p536
(dp537
g82
g83
(g84
g85
Ntp538
Rp539
(dp540
g89
I0
sg101
g83
(g84
g85
Ntp541
Rp542
(dp543
g89
I1
sg101
g83
(g84
g85
Ntp544
Rp545
(dp546
g89
I1
sg101
g83
(g97
g85
Ntp547
Rp548
(dp549
g101
Nsg102
I00
sg103
g340
sg92
Nsbsg90
g141
sg109
F234.48358102020978
sg92
g83
(g97
g85
Ntp550
Rp551
(dp552
g101
Nsg102
I00
sg103
g344
sg92
Nsbsg102
I01
sbsg90
g141
sg109
F143.6791829511184
sg92
g83
(g97
g85
Ntp553
Rp554
(dp555
g101
Nsg102
I00
sg103
g348
sg92
Nsbsg102
I01
sbsg90
g96
sg109
F539.3718422391934
sg92
g83
(g97
g85
Ntp556
Rp557
(dp558
g101
Nsg102
I00
sg103
g352
sg92
Nsbsg102
I01
sbsg129
(lp559
g539
ag557
ag542
ag554
ag545
ag551
ag548
asg131
I7
sbag536
ag536
a(itree
PTree
p560
(dp561
g82
g83
(g84
g85
Ntp562
Rp563
(dp564
g89
I0
sg101
g83
(g84
g85
Ntp565
Rp566
(dp567
g89
I1
sg101
g83
(g84
g85
Ntp568
Rp569
(dp570
g89
I1
sg101
g83
(g97
g85
Ntp571
Rp572
(dp573
g101
Nsg102
I00
sg103
g340
sg92
Nsbsg90
g141
sg109
F167.64116279203307
sg92
g83
(g97
g85
Ntp574
Rp575
(dp576
g101
Nsg102
I00
sg103
g344
sg92
Nsbsg102
I01
sbsg90
g141
sg109
F143.6791829511184
sg92
g83
(g97
g85
Ntp577
Rp578
(dp579
g101
Nsg102
I00
sg103
g348
sg92
Nsbsg102
I01
sbsg90
g96
sg109
F544.5840529280898
sg92
g83
(g97
g85
Ntp580
Rp581
(dp582
g101
Nsg102
I00
sg103
g352
sg92
Nsbsg102
I01
sbsg129
(lp583
g563
ag581
ag566
ag578
ag569
ag575
ag572
asg131
I7
sbag560
ag560
ag560
ag560
ag560
ag560
ag560
ag560
ag560
ag560
ag560
ag560
ag560
ag560
ag560
ag560
ag560
ag560
ag560
ag560
ag560
a(itree
PTree
p584
(dp585
g82
g83
(g84
g85
Ntp586
Rp587
(dp588
g89
I0
sg101
g83
(g84
g85
Ntp589
Rp590
(dp591
g89
I1
sg101
g83
(g97
g85
Ntp592
Rp593
(dp594
g101
Nsg102
I00
sg103
g340
sg92
Nsbsg90
g141
sg109
F143.6791829511184
sg92
g83
(g97
g85
Ntp595
Rp596
(dp597
g101
Nsg102
I00
sg103
S'Flood_Control'
p598
sg92
Nsbsg102
I01
sbsg90
g96
sg109
F544.5840529280898
sg92
g83
(g97
g85
Ntp599
Rp600
(dp601
g101
Nsg102
I00
sg103
g352
sg92
Nsbsg102
I01
sbsg129
(lp602
g587
ag600
ag590
ag596
ag593
asg131
I5
sbag584
ag584
ag584
ag584
ag584
ag584
ag584
ag584
a(itree
PTree
p603
(dp604
g82
g83
(g84
g85
Ntp605
Rp606
(dp607
g89
I0
sg101
g83
(g84
g85
Ntp608
Rp609
(dp610
g89
I1
sg101
g83
(g84
g85
Ntp611
Rp612
(dp613
g89
I1
sg101
g83
(g97
g85
Ntp614
Rp615
(dp616
g101
Nsg102
I00
sg103
g340
sg92
Nsbsg90
g141
sg109
F236.9273934497586
sg92
g83
(g97
g85
Ntp617
Rp618
(dp619
g101
Nsg102
I00
sg103
g344
sg92
Nsbsg102
I01
sbsg90
g141
sg109
F139.64324599249926
sg92
g83
(g97
g85
Ntp620
Rp621
(dp622
g101
Nsg102
I00
sg103
g348
sg92
Nsbsg102
I01
sbsg90
g96
sg109
F544.5840529280898
sg92
g83
(g97
g85
Ntp623
Rp624
(dp625
g101
Nsg102
I00
sg103
g352
sg92
Nsbsg102
I01
sbsg129
(lp626
g606
ag624
ag609
ag621
ag612
ag618
ag615
asg131
I7
sbag603
ag603
ag603
ag603
ag603
ag603
ag603
ag603
ag603
ag603
ag603
ag603
ag603
ag603
ag603
ag603
ag603
ag603
ag603
ag603
ag603
ag603
ag603
ag603
ag603
ag603
ag603
ag603
ag603
ag603
ag603
ag603
ag603
ag603
ag603
ag603
ag603
ag603
ag603
ag603
ag603
ag603
ag603
ag603
ag603
ag603
ag603
ag603
ag603
ag603
ag603
ag603
ag603
ag603
ag603
ag603
ag603
ag603
ag603
ag603
ag603
ag603
ag603
ag603
a(itree
PTree
p627
(dp628
g82
g83
(g84
g85
Ntp629
Rp630
(dp631
g89
I0
sg101
g83
(g84
g85
Ntp632
Rp633
(dp634
g89
I1
sg101
g83
(g84
g85
Ntp635
Rp636
(dp637
g89
I1
sg101
g83
(g97
g85
Ntp638
Rp639
(dp640
g101
Nsg102
I00
sg103
g340
sg92
Nsbsg90
g141
sg109
F249.4670379036827
sg92
g83
(g97
g85
Ntp641
Rp642
(dp643
g101
Nsg102
I00
sg103
g344
sg92
Nsbsg102
I01
sbsg90
g141
sg109
F139.64324599249926
sg92
g83
(g97
g85
Ntp644
Rp645
(dp646
g101
Nsg102
I00
sg103
g348
sg92
Nsbsg102
I01
sbsg90
g96
sg109
F544.5840529280898
sg92
g83
(g97
g85
Ntp647
Rp648
(dp649
g101
Nsg102
I00
sg103
g352
sg92
Nsbsg102
I01
sbsg129
(lp650
g630
ag648
ag633
ag645
ag636
ag642
ag639
asg131
I7
sbag627
ag627
ag627
ag627
asS'time'
p651
(lp652
I330
aI504
aI666
aI824
aI979
aI1133
aI1286
aI1443
aI1596
aI1749
aI1901
aI2056
aI2208
aI2366
aI2521
aI2676
aI2835
aI2990
aI3143
aI3298
aI3454
aI3614
aI3769
aI3925
aI4083
aI4235
aI4389
aI4543
aI4698
aI4853
aI5009
aI5162
aI5319
aI5482
aI5651
aI5817
aI5982
aI6146
aI6311
aI6478
aI6632
aI6788
aI6952
aI7118
aI7281
aI7447
aI7617
aI7782
aI7949
aI8123
aI8290
aI8456
aI8626
aI8800
aI8965
aI9139
aI9309
aI9479
aI9652
aI9830
aI10003
aI10179
aI10356
aI10530
aI10704
aI10887
aI11062
aI11239
aI11415
aI11588
aI11762
aI11937
aI12107
aI12279
aI12457
aI12634
aI12812
aI12987
aI13166
aI13343
aI13519
aI13697
aI13874
aI14048
aI14227
aI14402
aI14580
aI14758
aI14930
aI15104
aI15278
aI15451
aI15626
aI15801
aI15978
aI16156
aI16336
aI16518
aI16693
aI16872
aI17048
aI17225
aI17400
aI17572
aI17745
aI17917
aI18090
aI18258
aI18427
aI18602
aI18775
aI18945
aI19116
aI19287
aI19453
aI19620
aI19789
aI19957
aI20133
aI20302
aI20474
aI20642
aI20819
aI20989
aI21159
aI21332
aI21501
aI21669
aI21840
aI22013
aI22184
aI22358
aI22529
aI22698
aI22869
aI23040
aI23205
aI23377
aI23550
aI23718
aI23892
aI24063
aI24233
aI24399
aI24572
aI24749
aI24919
aI25092
aI25262
aI25437
aI25612
aI25785
aI25962
aI26135
aI26310
aI26481
aI26657
aI26831
aI27005
aI27180
aI27358
aI27532
aI27700
aI27870
aI28037
aI28208
aI28379
aI28553
aI28725
aI28896
aI29068
aI29234
aI29403
aI29574
aI29742
aI29909
aI30080
aI30245
aI30415
aI30585
aI30755
aI30922
aI31091
aI31256
aI31427
aI31596
aI31766
aI31932
aI32099
aI32268
aI32421
aI32582
aI32738
aI32888
aI33031
aI33166
aI33297
aI33418
aI33536
aI33644
as.