(dp0
S'nfe'
p1
(lp2
I50
aI100
aI150
aI200
aI250
aI300
aI350
aI400
aI450
aI500
aI550
aI600
aI650
aI700
aI750
aI800
aI850
aI900
aI950
aI1000
aI1050
aI1100
aI1150
aI1200
aI1250
aI1300
aI1350
aI1400
aI1450
aI1500
aI1550
aI1600
aI1650
aI1700
aI1750
aI1800
aI1850
aI1900
aI1950
aI2000
aI2050
aI2100
aI2150
aI2200
aI2250
aI2300
aI2350
aI2400
aI2450
aI2500
aI2550
aI2600
aI2650
aI2700
aI2750
aI2800
aI2850
aI2900
aI2950
aI3000
aI3050
aI3100
aI3150
aI3200
aI3250
aI3300
aI3350
aI3400
aI3450
aI3500
aI3550
aI3600
aI3650
aI3700
aI3750
aI3800
aI3850
aI3900
aI3950
aI4000
aI4050
aI4100
aI4150
aI4200
aI4250
aI4300
aI4350
aI4400
aI4450
aI4500
aI4550
aI4600
aI4650
aI4700
aI4750
aI4800
aI4850
aI4900
aI4950
aI5000
aI5050
aI5100
aI5150
aI5200
aI5250
aI5300
aI5350
aI5400
aI5450
aI5500
aI5550
aI5600
aI5650
aI5700
aI5750
aI5800
aI5850
aI5900
aI5950
aI6000
aI6050
aI6100
aI6150
aI6200
aI6250
aI6300
aI6350
aI6400
aI6450
aI6500
aI6550
aI6600
aI6650
aI6700
aI6750
aI6800
aI6850
aI6900
aI6950
aI7000
aI7050
aI7100
aI7150
aI7200
aI7250
aI7300
aI7350
aI7400
aI7450
aI7500
aI7550
aI7600
aI7650
aI7700
aI7750
aI7800
aI7850
aI7900
aI7950
aI8000
aI8050
aI8100
aI8150
aI8200
aI8250
aI8300
aI8350
aI8400
aI8450
aI8500
aI8550
aI8600
aI8650
aI8700
aI8750
aI8800
aI8850
aI8900
aI8950
aI9000
aI9050
aI9100
aI9150
aI9200
aI9250
aI9300
aI9350
aI9400
aI9450
aI9500
aI9550
aI9600
aI9650
aI9700
aI9750
aI9800
aI9850
aI9900
aI9950
aI10000
asS'best_f'
p3
(lp4
cnumpy.core.multiarray
scalar
p5
(cnumpy
dtype
p6
(S'f8'
p7
I0
I1
tp8
Rp9
(I3
S'<'
p10
NNNI-1
I-1
I0
tp11
bS'.Z)9}\xac\x11@'
p12
tp13
Rp14
ag14
ag5
(g9
S'\xd9=\xde\x13\xfan\x0e@'
p15
tp16
Rp17
ag17
ag5
(g9
S'\xc3gF/\xffR\t@'
p18
tp19
Rp20
ag5
(g9
S'\xf63|\xb5\x00\xea\x07@'
p21
tp22
Rp23
ag23
ag5
(g9
S')p@\xddi\xb2\x04@'
p24
tp25
Rp26
ag26
ag26
ag26
ag5
(g9
S'\xef\xaa\xe13\xfek\x03@'
p27
tp28
Rp29
ag29
ag5
(g9
S'\x15\xef\x92H\xa7,\x03@'
p30
tp31
Rp32
ag32
ag32
ag32
ag32
ag32
ag32
ag32
ag32
ag32
ag32
ag32
ag5
(g9
S'\xa8\xfb\rG\x83\x0e\x03@'
p33
tp34
Rp35
ag5
(g9
S'e\x89\xfcS[\xf7\x02@'
p36
tp37
Rp38
ag5
(g9
S'B\xda\x82\xf8.\xb7\x02@'
p39
tp40
Rp41
ag41
ag41
ag41
ag5
(g9
S'm\xa3\xb64\t\xa1\x02@'
p42
tp43
Rp44
ag44
ag44
ag44
ag44
ag44
ag44
ag44
ag5
(g9
S'\xb1\xb1\xbc\x0b&\x8e\x02@'
p45
tp46
Rp47
ag47
ag47
ag47
ag5
(g9
S'\xdaY\xb9%\xae0\x02@'
p48
tp49
Rp50
ag50
ag50
ag50
ag50
ag50
ag50
ag50
ag50
ag50
ag50
ag50
ag50
ag50
ag50
ag50
ag50
ag50
ag50
ag50
ag50
ag50
ag50
ag50
ag50
ag50
ag50
ag50
ag50
ag50
ag50
ag50
ag50
ag50
ag50
ag50
ag50
ag50
ag50
ag50
ag50
ag50
ag50
ag50
ag50
ag50
ag50
ag50
ag50
ag50
ag50
ag50
ag50
ag50
ag50
ag50
ag50
ag50
ag50
ag50
ag50
ag50
ag50
ag50
ag50
ag50
ag50
ag50
ag50
ag50
ag50
ag50
ag50
ag50
ag50
ag50
ag50
ag50
ag50
ag50
ag50
ag50
ag50
ag50
ag50
ag50
ag50
ag50
ag50
ag50
ag50
ag50
ag50
ag50
ag50
ag50
ag50
ag50
ag50
ag50
ag50
ag50
ag50
ag50
ag50
ag50
ag50
ag50
ag50
ag50
ag50
ag50
ag50
ag50
ag50
ag5
(g9
S'\xd9\xb0U!\xc1\x01\x02@'
p51
tp52
Rp53
ag53
ag53
ag5
(g9
S'\x0f\xcc\x05n\x1f\x07\xf7?'
p54
tp55
Rp56
ag56
ag56
ag56
ag5
(g9
S'\x1286\x98\x19{\xef?'
p57
tp58
Rp59
ag59
ag5
(g9
S'\xec2IJ\xe7\xf5\xea?'
p60
tp61
Rp62
ag62
ag5
(g9
S'\xf5\xbf\xe2\xbe\x96o\xea?'
p63
tp64
Rp65
ag65
ag65
ag65
ag65
ag5
(g9
S'\xe8\x93\xc6Z+\xc3\xe6?'
p66
tp67
Rp68
ag68
ag68
ag68
ag68
ag68
ag68
ag68
ag68
ag5
(g9
S'\xe4\x0e\xfe(\xd2\xb6\xe4?'
p69
tp70
Rp71
ag71
ag71
ag71
ag71
ag71
ag71
ag71
ag71
ag71
ag5
(g9
S'\x0c\x0c8\xb3\x0b\xe9\xe1?'
p72
tp73
Rp74
ag74
ag74
ag74
ag74
ag74
ag74
asS'best_P'
p75
(lp76
(itree
PTree
p77
(dp78
S'root'
p79
ccopy_reg
_reconstructor
p80
(ctree
Feature
p81
c__builtin__
object
p82
Ntp83
Rp84
(dp85
S'index'
p86
I3
sS'name'
p87
S'LP3'
p88
sS'l'
p89
g80
(g81
g82
Ntp90
Rp91
(dp92
g86
I0
sg87
S'Storage'
p93
sg89
g80
(ctree
Action
p94
g82
Ntp95
Rp96
(dp97
S'r'
p98
NsS'is_feature'
p99
I00
sS'value'
p100
S'Hedge_50'
p101
sg89
Nsbsg98
g80
(g94
g82
Ntp102
Rp103
(dp104
g98
Nsg99
I00
sg100
S'Flood_Control'
p105
sg89
NsbsS'threshold'
p106
F324.51749642164316
sg99
I01
sbsg98
g80
(g81
g82
Ntp107
Rp108
(dp109
g86
I0
sg87
g93
sg89
g80
(g94
g82
Ntp110
Rp111
(dp112
g98
Nsg99
I00
sg100
S'Hedge_50'
p113
sg89
Nsbsg98
g80
(g81
g82
Ntp114
Rp115
(dp116
g86
I2
sg87
S'AnnQ'
p117
sg89
g80
(g94
g82
Ntp118
Rp119
(dp120
g98
Nsg99
I00
sg100
S'Flood_Control'
p121
sg89
Nsbsg98
g80
(g94
g82
Ntp122
Rp123
(dp124
g98
Nsg99
I00
sg100
S'Hedge_50'
p125
sg89
Nsbsg106
F2236.278863362794
sg99
I01
sbsg106
F925.2001088608293
sg99
I01
sbsg106
F231.16757728093341
sg99
I01
sbsS'L'
p126
(lp127
g84
ag91
ag96
ag103
ag108
ag111
ag115
ag119
ag123
asS'N'
p128
I9
sbag77
a(itree
PTree
p129
(dp130
g79
g80
(g81
g82
Ntp131
Rp132
(dp133
g86
I3
sg98
g80
(g94
g82
Ntp134
Rp135
(dp136
g98
Nsg99
I00
sg100
S'Hedge_50'
p137
sg89
Nsbsg87
g88
sg106
F336.43619258393494
sg89
g80
(g81
g82
Ntp138
Rp139
(dp140
g86
I0
sg98
g80
(g94
g82
Ntp141
Rp142
(dp143
g98
Nsg99
I00
sg100
S'Flood_Control'
p144
sg89
Nsbsg87
g93
sg106
F415.2074020538162
sg89
g80
(g94
g82
Ntp145
Rp146
(dp147
g98
Nsg99
I00
sg100
S'Release_Demand'
p148
sg89
Nsbsg99
I01
sbsg99
I01
sbsg126
(lp149
g132
ag139
ag146
ag142
ag135
asg128
I5
sbag129
a(itree
PTree
p150
(dp151
g79
g80
(g81
g82
Ntp152
Rp153
(dp154
g86
I0
sg98
g80
(g94
g82
Ntp155
Rp156
(dp157
g98
Nsg99
I00
sg100
S'Flood_Control'
p158
sg89
Nsbsg87
g93
sg106
F389.3313054251343
sg89
g80
(g94
g82
Ntp159
Rp160
(dp161
g98
Nsg99
I00
sg100
S'Hedge_70'
p162
sg89
Nsbsg99
I01
sbsg126
(lp163
g153
ag160
ag156
asg128
I3
sba(itree
PTree
p164
(dp165
g79
g80
(g81
g82
Ntp166
Rp167
(dp168
g86
I0
sg98
g80
(g94
g82
Ntp169
Rp170
(dp171
g98
Nsg99
I00
sg100
g158
sg89
Nsbsg87
g93
sg106
F409.13481405432873
sg89
g80
(g94
g82
Ntp172
Rp173
(dp174
g98
Nsg99
I00
sg100
g162
sg89
Nsbsg99
I01
sbsg126
(lp175
g167
ag173
ag170
asg128
I3
sbag164
a(itree
PTree
p176
(dp177
g79
g80
(g81
g82
Ntp178
Rp179
(dp180
g86
I2
sg98
g80
(g81
g82
Ntp181
Rp182
(dp183
g86
I2
sg98
g80
(g81
g82
Ntp184
Rp185
(dp186
g86
I1
sg98
g80
(g94
g82
Ntp187
Rp188
(dp189
g98
Nsg99
I00
sg100
S'Release_Demand'
p190
sg89
Nsbsg87
S'Day'
p191
sg106
F148.8551652732656
sg89
g80
(g94
g82
Ntp192
Rp193
(dp194
g98
Nsg99
I00
sg100
S'Flood_Control'
p195
sg89
Nsbsg99
I01
sbsg87
g117
sg106
F2204.048574592025
sg89
g80
(g94
g82
Ntp196
Rp197
(dp198
g98
Nsg99
I00
sg100
S'Hedge_90'
p199
sg89
Nsbsg99
I01
sbsg87
g117
sg106
F1652.2644846547953
sg89
g80
(g81
g82
Ntp200
Rp201
(dp202
g86
I0
sg98
g80
(g94
g82
Ntp203
Rp204
(dp205
g98
Nsg99
I00
sg100
S'Hedge_90'
p206
sg89
Nsbsg87
g93
sg106
F589.2649961079146
sg89
g80
(g81
g82
Ntp207
Rp208
(dp209
g86
I3
sg98
g80
(g94
g82
Ntp210
Rp211
(dp212
g98
Nsg99
I00
sg100
S'Hedge_90'
p213
sg89
Nsbsg87
g88
sg106
F287.6977594709669
sg89
g80
(g94
g82
Ntp214
Rp215
(dp216
g98
Nsg99
I00
sg100
S'Hedge_80'
p217
sg89
Nsbsg99
I01
sbsg99
I01
sbsg99
I01
sbsg126
(lp218
g179
ag201
ag208
ag215
ag211
ag204
ag182
ag197
ag185
ag193
ag188
asg128
I11
sbag176
ag176
ag176
a(itree
PTree
p219
(dp220
g79
g80
(g81
g82
Ntp221
Rp222
(dp223
g86
I0
sg98
g80
(g94
g82
Ntp224
Rp225
(dp226
g98
Nsg99
I00
sg100
g158
sg89
Nsbsg87
g93
sg106
F510.8536137816769
sg89
g80
(g94
g82
Ntp227
Rp228
(dp229
g98
Nsg99
I00
sg100
g162
sg89
Nsbsg99
I01
sbsg126
(lp230
g222
ag228
ag225
asg128
I3
sbag219
a(itree
PTree
p231
(dp232
g79
g80
(g81
g82
Ntp233
Rp234
(dp235
g86
I2
sg98
g80
(g81
g82
Ntp236
Rp237
(dp238
g86
I1
sg98
g80
(g94
g82
Ntp239
Rp240
(dp241
g98
Nsg99
I00
sg100
S'Hedge_90'
p242
sg89
Nsbsg87
g191
sg106
F140.36637668558032
sg89
g80
(g94
g82
Ntp243
Rp244
(dp245
g98
Nsg99
I00
sg100
S'Flood_Control'
p246
sg89
Nsbsg99
I01
sbsg87
g117
sg106
F2298.339611421053
sg89
g80
(g94
g82
Ntp247
Rp248
(dp249
g98
Nsg99
I00
sg100
S'Hedge_80'
p250
sg89
Nsbsg99
I01
sbsg126
(lp251
g234
ag248
ag237
ag244
ag240
asg128
I5
sbag231
ag231
ag231
ag231
ag231
ag231
ag231
ag231
ag231
ag231
ag231
a(itree
PTree
p252
(dp253
g79
g80
(g81
g82
Ntp254
Rp255
(dp256
g86
I0
sg98
g80
(g94
g82
Ntp257
Rp258
(dp259
g98
Nsg99
I00
sg100
g158
sg89
Nsbsg87
g93
sg106
F514.6727625547061
sg89
g80
(g94
g82
Ntp260
Rp261
(dp262
g98
Nsg99
I00
sg100
g162
sg89
Nsbsg99
I01
sbsg126
(lp263
g255
ag261
ag258
asg128
I3
sba(itree
PTree
p264
(dp265
g79
g80
(g81
g82
Ntp266
Rp267
(dp268
g86
I2
sg98
g80
(g81
g82
Ntp269
Rp270
(dp271
g86
I1
sg98
g80
(g81
g82
Ntp272
Rp273
(dp274
g86
I3
sg98
g80
(g94
g82
Ntp275
Rp276
(dp277
g98
Nsg99
I00
sg100
S'Hedge_90'
p278
sg89
Nsbsg87
g88
sg106
F220.39736208657763
sg89
g80
(g94
g82
Ntp279
Rp280
(dp281
g98
Nsg99
I00
sg100
S'Release_Demand'
p282
sg89
Nsbsg99
I01
sbsg87
g191
sg106
F137.91388604969902
sg89
g80
(g94
g82
Ntp283
Rp284
(dp285
g98
Nsg99
I00
sg100
S'Flood_Control'
p286
sg89
Nsbsg99
I01
sbsg87
g117
sg106
F2418.334324737103
sg89
g80
(g94
g82
Ntp287
Rp288
(dp289
g98
Nsg99
I00
sg100
S'Hedge_90'
p290
sg89
Nsbsg99
I01
sbsg126
(lp291
g267
ag288
ag270
ag284
ag273
ag280
ag276
asg128
I7
sba(itree
PTree
p292
(dp293
g79
g80
(g81
g82
Ntp294
Rp295
(dp296
g86
I3
sg98
g80
(g81
g82
Ntp297
Rp298
(dp299
g86
I0
sg98
g80
(g94
g82
Ntp300
Rp301
(dp302
g98
Nsg99
I00
sg100
S'Flood_Control'
p303
sg89
Nsbsg87
g93
sg106
F350.8424749479938
sg89
g80
(g94
g82
Ntp304
Rp305
(dp306
g98
Nsg99
I00
sg100
S'Hedge_80'
p307
sg89
Nsbsg99
I01
sbsg87
g88
sg106
F302.09356766649586
sg89
g80
(g81
g82
Ntp308
Rp309
(dp310
g86
I1
sg98
g80
(g94
g82
Ntp311
Rp312
(dp313
g98
Nsg99
I00
sg100
S'Hedge_90'
p314
sg89
Nsbsg87
g191
sg106
F134.44197157171894
sg89
g80
(g94
g82
Ntp315
Rp316
(dp317
g98
Nsg99
I00
sg100
S'Flood_Control'
p318
sg89
Nsbsg99
I01
sbsg99
I01
sbsg126
(lp319
g295
ag309
ag316
ag312
ag298
ag305
ag301
asg128
I7
sbag292
ag292
ag292
a(itree
PTree
p320
(dp321
g79
g80
(g81
g82
Ntp322
Rp323
(dp324
g86
I2
sg98
g80
(g81
g82
Ntp325
Rp326
(dp327
g86
I1
sg98
g80
(g81
g82
Ntp328
Rp329
(dp330
g86
I3
sg98
g80
(g94
g82
Ntp331
Rp332
(dp333
g98
Nsg99
I00
sg100
g278
sg89
Nsbsg87
g88
sg106
F220.39736208657763
sg89
g80
(g94
g82
Ntp334
Rp335
(dp336
g98
Nsg99
I00
sg100
g282
sg89
Nsbsg99
I01
sbsg87
g191
sg106
F137.91388604969902
sg89
g80
(g94
g82
Ntp337
Rp338
(dp339
g98
Nsg99
I00
sg100
g286
sg89
Nsbsg99
I01
sbsg87
g117
sg106
F2449.5836676343683
sg89
g80
(g94
g82
Ntp340
Rp341
(dp342
g98
Nsg99
I00
sg100
g290
sg89
Nsbsg99
I01
sbsg126
(lp343
g323
ag341
ag326
ag338
ag329
ag335
ag332
asg128
I7
sbag320
ag320
ag320
ag320
ag320
ag320
ag320
a(itree
PTree
p344
(dp345
g79
g80
(g81
g82
Ntp346
Rp347
(dp348
g86
I2
sg98
g80
(g81
g82
Ntp349
Rp350
(dp351
g86
I1
sg98
g80
(g81
g82
Ntp352
Rp353
(dp354
g86
I3
sg98
g80
(g94
g82
Ntp355
Rp356
(dp357
g98
Nsg99
I00
sg100
g278
sg89
Nsbsg87
g88
sg106
F220.39736208657763
sg89
g80
(g94
g82
Ntp358
Rp359
(dp360
g98
Nsg99
I00
sg100
g282
sg89
Nsbsg99
I01
sbsg87
g191
sg106
F136.4292170978997
sg89
g80
(g94
g82
Ntp361
Rp362
(dp363
g98
Nsg99
I00
sg100
g286
sg89
Nsbsg99
I01
sbsg87
g117
sg106
F2490.679898017551
sg89
g80
(g94
g82
Ntp364
Rp365
(dp366
g98
Nsg99
I00
sg100
g290
sg89
Nsbsg99
I01
sbsg126
(lp367
g347
ag365
ag350
ag362
ag353
ag359
ag356
asg128
I7
sbag344
ag344
ag344
a(itree
PTree
p368
(dp369
g79
g80
(g81
g82
Ntp370
Rp371
(dp372
g86
I2
sg98
g80
(g81
g82
Ntp373
Rp374
(dp375
g86
I1
sg98
g80
(g94
g82
Ntp376
Rp377
(dp378
g98
Nsg99
I00
sg100
S'Hedge_90'
p379
sg89
Nsbsg87
g191
sg106
F136.48088668035143
sg89
g80
(g94
g82
Ntp380
Rp381
(dp382
g98
Nsg99
I00
sg100
S'Flood_Control'
p383
sg89
Nsbsg99
I01
sbsg87
g117
sg106
F2501.0158558777125
sg89
g80
(g94
g82
Ntp384
Rp385
(dp386
g98
Nsg99
I00
sg100
S'Release_Demand'
p387
sg89
Nsbsg99
I01
sbsg126
(lp388
g371
ag385
ag374
ag381
ag377
asg128
I5
sbag368
ag368
ag368
ag368
ag368
ag368
ag368
ag368
ag368
ag368
ag368
ag368
ag368
ag368
ag368
ag368
ag368
ag368
ag368
ag368
ag368
ag368
ag368
ag368
ag368
ag368
ag368
ag368
ag368
ag368
ag368
ag368
ag368
ag368
ag368
ag368
ag368
ag368
ag368
ag368
ag368
ag368
ag368
ag368
ag368
ag368
ag368
ag368
ag368
ag368
ag368
ag368
ag368
ag368
ag368
ag368
ag368
ag368
ag368
ag368
ag368
ag368
ag368
ag368
ag368
ag368
ag368
ag368
ag368
ag368
ag368
ag368
ag368
ag368
ag368
ag368
ag368
ag368
ag368
ag368
ag368
ag368
ag368
ag368
ag368
ag368
ag368
ag368
ag368
ag368
ag368
ag368
ag368
ag368
ag368
ag368
ag368
ag368
ag368
ag368
ag368
ag368
ag368
ag368
ag368
ag368
ag368
ag368
ag368
ag368
ag368
ag368
ag368
ag368
a(itree
PTree
p389
(dp390
g79
g80
(g81
g82
Ntp391
Rp392
(dp393
g86
I1
sg98
g80
(g94
g82
Ntp394
Rp395
(dp396
g98
Nsg99
I00
sg100
S'Hedge_90'
p397
sg89
Nsbsg87
g191
sg106
F203.26806219778595
sg89
g80
(g81
g82
Ntp398
Rp399
(dp400
g86
I0
sg98
g80
(g94
g82
Ntp401
Rp402
(dp403
g98
Nsg99
I00
sg100
S'Flood_Control'
p404
sg89
Nsbsg87
g93
sg106
F301.88518087344795
sg89
g80
(g94
g82
Ntp405
Rp406
(dp407
g98
Nsg99
I00
sg100
S'Release_Demand'
p408
sg89
Nsbsg99
I01
sbsg99
I01
sbsg126
(lp409
g392
ag399
ag406
ag402
ag395
asg128
I5
sbag389
ag389
a(itree
PTree
p410
(dp411
g79
g80
(g81
g82
Ntp412
Rp413
(dp414
g86
I1
sg98
g80
(g94
g82
Ntp415
Rp416
(dp417
g98
Nsg99
I00
sg100
g397
sg89
Nsbsg87
g191
sg106
F184.53710059951325
sg89
g80
(g81
g82
Ntp418
Rp419
(dp420
g86
I0
sg98
g80
(g94
g82
Ntp421
Rp422
(dp423
g98
Nsg99
I00
sg100
g404
sg89
Nsbsg87
g93
sg106
F296.7620795722064
sg89
g80
(g94
g82
Ntp424
Rp425
(dp426
g98
Nsg99
I00
sg100
g408
sg89
Nsbsg99
I01
sbsg99
I01
sbsg126
(lp427
g413
ag419
ag425
ag422
ag416
asg128
I5
sbag410
ag410
ag410
a(itree
PTree
p428
(dp429
g79
g80
(g81
g82
Ntp430
Rp431
(dp432
g86
I1
sg98
g80
(g94
g82
Ntp433
Rp434
(dp435
g98
Nsg99
I00
sg100
g397
sg89
Nsbsg87
g191
sg106
F164.50206259002363
sg89
g80
(g81
g82
Ntp436
Rp437
(dp438
g86
I0
sg98
g80
(g94
g82
Ntp439
Rp440
(dp441
g98
Nsg99
I00
sg100
g404
sg89
Nsbsg87
g93
sg106
F313.79352498097074
sg89
g80
(g94
g82
Ntp442
Rp443
(dp444
g98
Nsg99
I00
sg100
g408
sg89
Nsbsg99
I01
sbsg99
I01
sbsg126
(lp445
g431
ag437
ag443
ag440
ag434
asg128
I5
sbag428
a(itree
PTree
p446
(dp447
g79
g80
(g81
g82
Ntp448
Rp449
(dp450
g86
I1
sg98
g80
(g94
g82
Ntp451
Rp452
(dp453
g98
Nsg99
I00
sg100
g397
sg89
Nsbsg87
g191
sg106
F164.52862199499046
sg89
g80
(g81
g82
Ntp454
Rp455
(dp456
g86
I0
sg98
g80
(g94
g82
Ntp457
Rp458
(dp459
g98
Nsg99
I00
sg100
g404
sg89
Nsbsg87
g93
sg106
F370.29159369191325
sg89
g80
(g94
g82
Ntp460
Rp461
(dp462
g98
Nsg99
I00
sg100
g408
sg89
Nsbsg99
I01
sbsg99
I01
sbsg126
(lp463
g449
ag455
ag461
ag458
ag452
asg128
I5
sbag446
a(itree
PTree
p464
(dp465
g79
g80
(g81
g82
Ntp466
Rp467
(dp468
g86
I1
sg98
g80
(g94
g82
Ntp469
Rp470
(dp471
g98
Nsg99
I00
sg100
g397
sg89
Nsbsg87
g191
sg106
F177.29764297653614
sg89
g80
(g81
g82
Ntp472
Rp473
(dp474
g86
I0
sg98
g80
(g94
g82
Ntp475
Rp476
(dp477
g98
Nsg99
I00
sg100
g404
sg89
Nsbsg87
g93
sg106
F483.20065510086795
sg89
g80
(g94
g82
Ntp478
Rp479
(dp480
g98
Nsg99
I00
sg100
g408
sg89
Nsbsg99
I01
sbsg99
I01
sbsg126
(lp481
g467
ag473
ag479
ag476
ag470
asg128
I5
sbag464
ag464
ag464
ag464
a(itree
PTree
p482
(dp483
g79
g80
(g81
g82
Ntp484
Rp485
(dp486
g86
I1
sg98
g80
(g94
g82
Ntp487
Rp488
(dp489
g98
Nsg99
I00
sg100
g397
sg89
Nsbsg87
g191
sg106
F162.6721276240914
sg89
g80
(g81
g82
Ntp490
Rp491
(dp492
g86
I0
sg98
g80
(g94
g82
Ntp493
Rp494
(dp495
g98
Nsg99
I00
sg100
g404
sg89
Nsbsg87
g93
sg106
F454.23474190747584
sg89
g80
(g94
g82
Ntp496
Rp497
(dp498
g98
Nsg99
I00
sg100
g408
sg89
Nsbsg99
I01
sbsg99
I01
sbsg126
(lp499
g485
ag491
ag497
ag494
ag488
asg128
I5
sbag482
ag482
ag482
ag482
ag482
ag482
ag482
ag482
a(itree
PTree
p500
(dp501
g79
g80
(g81
g82
Ntp502
Rp503
(dp504
g86
I1
sg98
g80
(g94
g82
Ntp505
Rp506
(dp507
g98
Nsg99
I00
sg100
g397
sg89
Nsbsg87
g191
sg106
F153.18355866413893
sg89
g80
(g81
g82
Ntp508
Rp509
(dp510
g86
I0
sg98
g80
(g94
g82
Ntp511
Rp512
(dp513
g98
Nsg99
I00
sg100
g404
sg89
Nsbsg87
g93
sg106
F459.0084431429322
sg89
g80
(g94
g82
Ntp514
Rp515
(dp516
g98
Nsg99
I00
sg100
g408
sg89
Nsbsg99
I01
sbsg99
I01
sbsg126
(lp517
g503
ag509
ag515
ag512
ag506
asg128
I5
sbag500
ag500
ag500
ag500
ag500
ag500
ag500
ag500
ag500
a(itree
PTree
p518
(dp519
g79
g80
(g81
g82
Ntp520
Rp521
(dp522
g86
I1
sg98
g80
(g94
g82
Ntp523
Rp524
(dp525
g98
Nsg99
I00
sg100
g397
sg89
Nsbsg87
g191
sg106
F143.58691862228414
sg89
g80
(g81
g82
Ntp526
Rp527
(dp528
g86
I0
sg98
g80
(g94
g82
Ntp529
Rp530
(dp531
g98
Nsg99
I00
sg100
g404
sg89
Nsbsg87
g93
sg106
F514.8317134279878
sg89
g80
(g94
g82
Ntp532
Rp533
(dp534
g98
Nsg99
I00
sg100
g408
sg89
Nsbsg99
I01
sbsg99
I01
sbsg126
(lp535
g521
ag527
ag533
ag530
ag524
asg128
I5
sbag518
ag518
ag518
ag518
ag518
ag518
asS'time'
p536
(lp537
I326
aI493
aI663
aI834
aI1000
aI1163
aI1323
aI1481
aI1644
aI1808
aI1973
aI2139
aI2301
aI2463
aI2628
aI2792
aI2958
aI3124
aI3294
aI3457
aI3624
aI3797
aI3965
aI4137
aI4304
aI4477
aI4647
aI4818
aI4990
aI5168
aI5342
aI5517
aI5688
aI5857
aI6027
aI6198
aI6364
aI6543
aI6720
aI6894
aI7065
aI7234
aI7404
aI7576
aI7745
aI7912
aI8087
aI8258
aI8426
aI8598
aI8769
aI8937
aI9105
aI9274
aI9441
aI9614
aI9784
aI9957
aI10127
aI10293
aI10462
aI10632
aI10799
aI10968
aI11137
aI11307
aI11480
aI11656
aI11825
aI11996
aI12166
aI12335
aI12511
aI12681
aI12853
aI13027
aI13198
aI13372
aI13539
aI13714
aI13882
aI14054
aI14230
aI14399
aI14573
aI14748
aI14922
aI15093
aI15267
aI15440
aI15607
aI15780
aI15946
aI16117
aI16291
aI16459
aI16631
aI16804
aI16973
aI17143
aI17323
aI17495
aI17666
aI17838
aI18009
aI18182
aI18355
aI18525
aI18692
aI18863
aI19031
aI19202
aI19373
aI19537
aI19709
aI19882
aI20057
aI20227
aI20398
aI20569
aI20739
aI20911
aI21086
aI21252
aI21425
aI21596
aI21769
aI21946
aI22117
aI22287
aI22457
aI22632
aI22806
aI22980
aI23155
aI23334
aI23507
aI23683
aI23852
aI24022
aI24196
aI24379
aI24549
aI24721
aI24888
aI25059
aI25229
aI25399
aI25564
aI25735
aI25909
aI26082
aI26259
aI26429
aI26601
aI26769
aI26941
aI27112
aI27280
aI27449
aI27623
aI27798
aI27965
aI28132
aI28299
aI28468
aI28644
aI28811
aI28977
aI29152
aI29322
aI29493
aI29667
aI29839
aI30007
aI30183
aI30355
aI30524
aI30692
aI30859
aI31033
aI31201
aI31372
aI31539
aI31700
aI31855
aI32013
aI32177
aI32334
aI32491
aI32648
aI32794
aI32944
aI33077
aI33200
aI33324
aI33448
aI33561
aI33655
aI33754
as.