(dp0
S'nfe'
p1
(lp2
I50
aI100
aI150
aI200
aI250
aI300
aI350
aI400
aI450
aI500
aI550
aI600
aI650
aI700
aI750
aI800
aI850
aI900
aI950
aI1000
aI1050
aI1100
aI1150
aI1200
aI1250
aI1300
aI1350
aI1400
aI1450
aI1500
aI1550
aI1600
aI1650
aI1700
aI1750
aI1800
aI1850
aI1900
aI1950
aI2000
aI2050
aI2100
aI2150
aI2200
aI2250
aI2300
aI2350
aI2400
aI2450
aI2500
aI2550
aI2600
aI2650
aI2700
aI2750
aI2800
aI2850
aI2900
aI2950
aI3000
aI3050
aI3100
aI3150
aI3200
aI3250
aI3300
aI3350
aI3400
aI3450
aI3500
aI3550
aI3600
aI3650
aI3700
aI3750
aI3800
aI3850
aI3900
aI3950
aI4000
aI4050
aI4100
aI4150
aI4200
aI4250
aI4300
aI4350
aI4400
aI4450
aI4500
aI4550
aI4600
aI4650
aI4700
aI4750
aI4800
aI4850
aI4900
aI4950
aI5000
aI5050
aI5100
aI5150
aI5200
aI5250
aI5300
aI5350
aI5400
aI5450
aI5500
aI5550
aI5600
aI5650
aI5700
aI5750
aI5800
aI5850
aI5900
aI5950
aI6000
aI6050
aI6100
aI6150
aI6200
aI6250
aI6300
aI6350
aI6400
aI6450
aI6500
aI6550
aI6600
aI6650
aI6700
aI6750
aI6800
aI6850
aI6900
aI6950
aI7000
aI7050
aI7100
aI7150
aI7200
aI7250
aI7300
aI7350
aI7400
aI7450
aI7500
aI7550
aI7600
aI7650
aI7700
aI7750
aI7800
aI7850
aI7900
aI7950
aI8000
aI8050
aI8100
aI8150
aI8200
aI8250
aI8300
aI8350
aI8400
aI8450
aI8500
aI8550
aI8600
aI8650
aI8700
aI8750
aI8800
aI8850
aI8900
aI8950
aI9000
aI9050
aI9100
aI9150
aI9200
aI9250
aI9300
aI9350
aI9400
aI9450
aI9500
aI9550
aI9600
aI9650
aI9700
aI9750
aI9800
aI9850
aI9900
aI9950
aI10000
asS'best_f'
p3
(lp4
cnumpy.core.multiarray
scalar
p5
(cnumpy
dtype
p6
(S'f8'
p7
I0
I1
tp8
Rp9
(I3
S'<'
p10
NNNI-1
I-1
I0
tp11
bS'8\xe60\xcb\x82\xba\x0e@'
p12
tp13
Rp14
ag5
(g9
S'\xa67g\x99\x85\xca\xfd?'
p15
tp16
Rp17
ag17
ag17
ag17
ag17
ag17
ag17
ag17
ag5
(g9
S'\x1d\xfc\xdd\xfd\xed\xe0\xf7?'
p18
tp19
Rp20
ag5
(g9
S'\xf4\xa1J3\x9c\xa6\xf6?'
p21
tp22
Rp23
ag23
ag23
ag23
ag23
ag23
ag23
ag23
ag23
ag5
(g9
S'@\x18\x8e-X\x11\xf0?'
p24
tp25
Rp26
ag26
ag26
ag26
ag26
ag26
ag26
ag26
ag26
ag26
ag26
ag26
ag26
ag26
ag26
ag26
ag26
ag26
ag5
(g9
S'\x9e1^\x04\xbc\xdd\xef?'
p27
tp28
Rp29
ag5
(g9
S'F3^\xd9!\xf0\xed?'
p30
tp31
Rp32
ag32
ag32
ag32
ag32
ag32
ag32
ag32
ag32
ag32
ag32
ag32
ag32
ag32
ag32
ag32
ag32
ag32
ag32
ag32
ag32
ag32
ag32
ag32
ag32
ag32
ag32
ag32
ag32
ag32
ag32
ag32
ag32
ag32
ag32
ag32
ag32
ag32
ag32
ag32
ag32
ag32
ag32
ag32
ag32
ag32
ag32
ag32
ag32
ag32
ag32
ag32
ag32
ag32
ag32
ag32
ag32
ag5
(g9
S'N\x83we\x16\xe2\xed?'
p33
tp34
Rp35
ag35
ag35
ag35
ag35
ag35
ag35
ag35
ag35
ag35
ag35
ag35
ag35
ag35
ag35
ag35
ag35
ag35
ag35
ag35
ag35
ag35
ag35
ag35
ag35
ag35
ag35
ag35
ag35
ag35
ag35
ag35
ag35
ag5
(g9
S's\x95\x0b4\x81\x95\xed?'
p36
tp37
Rp38
ag38
ag38
ag38
ag38
ag38
ag38
ag38
ag38
ag38
ag38
ag38
ag38
ag38
ag38
ag38
ag38
ag38
ag38
ag38
ag38
ag38
ag38
ag38
ag38
ag38
ag38
ag38
ag38
ag38
ag38
ag38
ag38
ag38
ag38
ag38
ag38
ag38
ag38
ag38
ag38
ag38
ag38
ag38
ag38
ag38
ag38
ag38
ag38
ag38
ag38
ag38
ag38
ag38
ag38
ag38
ag38
ag38
ag38
ag38
ag38
ag38
ag38
ag38
ag5
(g9
S'\xebX\xa3Z\xebi\xed?'
p39
tp40
Rp41
ag41
ag41
ag41
ag41
ag41
ag41
ag41
asS'best_P'
p42
(lp43
(itree
PTree
p44
(dp45
S'root'
p46
ccopy_reg
_reconstructor
p47
(ctree
Feature
p48
c__builtin__
object
p49
Ntp50
Rp51
(dp52
S'index'
p53
I0
sS'name'
p54
S'Storage'
p55
sS'l'
p56
g47
(ctree
Action
p57
g49
Ntp58
Rp59
(dp60
S'r'
p61
NsS'is_feature'
p62
I00
sS'value'
p63
S'Hedge_50'
p64
sg56
Nsbsg61
g47
(g48
g49
Ntp65
Rp66
(dp67
g53
I1
sg54
S'Day'
p68
sg56
g47
(g57
g49
Ntp69
Rp70
(dp71
g61
Nsg62
I00
sg63
S'Hedge_90'
p72
sg56
Nsbsg61
g47
(g48
g49
Ntp73
Rp74
(dp75
g53
I3
sg54
S'LP3'
p76
sg56
g47
(g57
g49
Ntp77
Rp78
(dp79
g61
Nsg62
I00
sg63
S'Flood_Control'
p80
sg56
Nsbsg61
g47
(g57
g49
Ntp81
Rp82
(dp83
g61
Nsg62
I00
sg63
S'Hedge_60'
p84
sg56
NsbsS'threshold'
p85
F302.3726730316455
sg62
I01
sbsg85
F6.466908990132546
sg62
I01
sbsg85
F505.6621656768967
sg62
I01
sbsS'L'
p86
(lp87
g51
ag59
ag66
ag70
ag74
ag78
ag82
asS'N'
p88
I7
sba(itree
PTree
p89
(dp90
g46
g47
(g48
g49
Ntp91
Rp92
(dp93
g53
I1
sg61
g47
(g57
g49
Ntp94
Rp95
(dp96
g61
Nsg62
I00
sg63
S'Hedge_80'
p97
sg56
Nsbsg54
g68
sg85
F134.72739725387973
sg56
g47
(g57
g49
Ntp98
Rp99
(dp100
g61
Nsg62
I00
sg63
S'Flood_Control'
p101
sg56
Nsbsg62
I01
sbsg86
(lp102
g92
ag99
ag95
asg88
I3
sbag89
ag89
ag89
ag89
ag89
ag89
ag89
a(itree
PTree
p103
(dp104
g46
g47
(g48
g49
Ntp105
Rp106
(dp107
g53
I0
sg61
g47
(g57
g49
Ntp108
Rp109
(dp110
g61
Nsg62
I00
sg63
S'Flood_Control'
p111
sg56
Nsbsg54
g55
sg85
F650.3017272692284
sg56
g47
(g57
g49
Ntp112
Rp113
(dp114
g61
Nsg62
I00
sg63
S'Release_Demand'
p115
sg56
Nsbsg62
I01
sbsg86
(lp116
g106
ag113
ag109
asg88
I3
sba(itree
PTree
p117
(dp118
g46
g47
(g48
g49
Ntp119
Rp120
(dp121
g53
I3
sg61
g47
(g57
g49
Ntp122
Rp123
(dp124
g61
Nsg62
I00
sg63
S'Hedge_60'
p125
sg56
Nsbsg54
g76
sg85
F329.86539383871866
sg56
g47
(g48
g49
Ntp126
Rp127
(dp128
g53
I0
sg61
g47
(g57
g49
Ntp129
Rp130
(dp131
g61
Nsg62
I00
sg63
S'Flood_Control'
p132
sg56
Nsbsg54
g55
sg85
F663.8302660367752
sg56
g47
(g57
g49
Ntp133
Rp134
(dp135
g61
Nsg62
I00
sg63
S'Release_Demand'
p136
sg56
Nsbsg62
I01
sbsg62
I01
sbsg86
(lp137
g120
ag127
ag134
ag130
ag123
asg88
I5
sbag117
ag117
ag117
ag117
ag117
ag117
ag117
ag117
a(itree
PTree
p138
(dp139
g46
g47
(g48
g49
Ntp140
Rp141
(dp142
g53
I3
sg61
g47
(g48
g49
Ntp143
Rp144
(dp145
g53
I1
sg61
g47
(g48
g49
Ntp146
Rp147
(dp148
g53
I3
sg61
g47
(g57
g49
Ntp149
Rp150
(dp151
g61
Nsg62
I00
sg63
S'Hedge_50'
p152
sg56
Nsbsg54
g76
sg85
F346.74111185007513
sg56
g47
(g57
g49
Ntp153
Rp154
(dp155
g61
Nsg62
I00
sg63
S'Release_Demand'
p156
sg56
Nsbsg62
I01
sbsg54
g68
sg85
F54.1347403629967
sg56
g47
(g57
g49
Ntp157
Rp158
(dp159
g61
Nsg62
I00
sg63
g72
sg56
Nsbsg62
I01
sbsg54
g76
sg85
F245.7697842878792
sg56
g47
(g48
g49
Ntp160
Rp161
(dp162
g53
I0
sg61
g47
(g57
g49
Ntp163
Rp164
(dp165
g61
Nsg62
I00
sg63
g111
sg56
Nsbsg54
g55
sg85
F658.5303913643017
sg56
g47
(g57
g49
Ntp166
Rp167
(dp168
g61
Nsg62
I00
sg63
S'Hedge_90'
p169
sg56
Nsbsg62
I01
sbsg62
I01
sbsg86
(lp170
g141
ag161
ag167
ag164
ag144
ag158
ag147
ag154
ag150
asg88
I9
sbag138
ag138
ag138
ag138
ag138
ag138
ag138
ag138
ag138
ag138
ag138
ag138
ag138
ag138
ag138
ag138
ag138
a(itree
PTree
p171
(dp172
g46
g47
(g48
g49
Ntp173
Rp174
(dp175
g53
I3
sg61
g47
(g48
g49
Ntp176
Rp177
(dp178
g53
I1
sg61
g47
(g48
g49
Ntp179
Rp180
(dp181
g53
I3
sg61
g47
(g57
g49
Ntp182
Rp183
(dp184
g61
Nsg62
I00
sg63
g152
sg56
Nsbsg54
g76
sg85
F315.8904583698147
sg56
g47
(g57
g49
Ntp185
Rp186
(dp187
g61
Nsg62
I00
sg63
g156
sg56
Nsbsg62
I01
sbsg54
g68
sg85
F20.09997780303127
sg56
g47
(g57
g49
Ntp188
Rp189
(dp190
g61
Nsg62
I00
sg63
g72
sg56
Nsbsg62
I01
sbsg54
g76
sg85
F285.5795480642238
sg56
g47
(g48
g49
Ntp191
Rp192
(dp193
g53
I0
sg61
g47
(g57
g49
Ntp194
Rp195
(dp196
g61
Nsg62
I00
sg63
g111
sg56
Nsbsg54
g55
sg85
F657.7164253835901
sg56
g47
(g57
g49
Ntp197
Rp198
(dp199
g61
Nsg62
I00
sg63
g169
sg56
Nsbsg62
I01
sbsg62
I01
sbsg86
(lp200
g174
ag192
ag198
ag195
ag177
ag189
ag180
ag186
ag183
asg88
I9
sba(itree
PTree
p201
(dp202
g46
g47
(g48
g49
Ntp203
Rp204
(dp205
g53
I3
sg61
g47
(g48
g49
Ntp206
Rp207
(dp208
g53
I0
sg61
g47
(g57
g49
Ntp209
Rp210
(dp211
g61
Nsg62
I00
sg63
S'Hedge_70'
p212
sg56
Nsbsg54
g55
sg85
F499.0492243998797
sg56
g47
(g57
g49
Ntp213
Rp214
(dp215
g61
Nsg62
I00
sg63
S'Release_Demand'
p216
sg56
Nsbsg62
I01
sbsg54
g76
sg85
F192.35260637364541
sg56
g47
(g48
g49
Ntp217
Rp218
(dp219
g53
I0
sg61
g47
(g57
g49
Ntp220
Rp221
(dp222
g61
Nsg62
I00
sg63
S'Flood_Control'
p223
sg56
Nsbsg54
g55
sg85
F665.8267006526941
sg56
g47
(g57
g49
Ntp224
Rp225
(dp226
g61
Nsg62
I00
sg63
g169
sg56
Nsbsg62
I01
sbsg62
I01
sbsg86
(lp227
g204
ag218
ag225
ag221
ag207
ag214
ag210
asg88
I7
sbag201
ag201
ag201
ag201
ag201
ag201
ag201
ag201
ag201
ag201
ag201
ag201
ag201
ag201
ag201
ag201
ag201
ag201
ag201
ag201
ag201
ag201
ag201
ag201
ag201
ag201
ag201
ag201
ag201
ag201
ag201
ag201
ag201
ag201
ag201
ag201
ag201
ag201
ag201
ag201
ag201
ag201
ag201
ag201
ag201
ag201
ag201
ag201
ag201
ag201
ag201
ag201
ag201
ag201
ag201
ag201
a(itree
PTree
p228
(dp229
g46
g47
(g48
g49
Ntp230
Rp231
(dp232
g53
I3
sg61
g47
(g48
g49
Ntp233
Rp234
(dp235
g53
I0
sg61
g47
(g57
g49
Ntp236
Rp237
(dp238
g61
Nsg62
I00
sg63
S'Hedge_50'
p239
sg56
Nsbsg54
g55
sg85
F558.2268098289502
sg56
g47
(g57
g49
Ntp240
Rp241
(dp242
g61
Nsg62
I00
sg63
S'Hedge_90'
p243
sg56
Nsbsg62
I01
sbsg54
g76
sg85
F271.1223464861406
sg56
g47
(g48
g49
Ntp244
Rp245
(dp246
g53
I0
sg61
g47
(g57
g49
Ntp247
Rp248
(dp249
g61
Nsg62
I00
sg63
g111
sg56
Nsbsg54
g55
sg85
F669.934501352369
sg56
g47
(g57
g49
Ntp250
Rp251
(dp252
g61
Nsg62
I00
sg63
g169
sg56
Nsbsg62
I01
sbsg62
I01
sbsg86
(lp253
g231
ag245
ag251
ag248
ag234
ag241
ag237
asg88
I7
sbag228
ag228
ag228
ag228
ag228
ag228
ag228
ag228
ag228
ag228
ag228
ag228
ag228
ag228
ag228
ag228
ag228
ag228
ag228
ag228
ag228
ag228
ag228
ag228
ag228
ag228
ag228
ag228
ag228
ag228
ag228
ag228
a(itree
PTree
p254
(dp255
g46
g47
(g48
g49
Ntp256
Rp257
(dp258
g53
I3
sg61
g47
(g57
g49
Ntp259
Rp260
(dp261
g61
Nsg62
I00
sg63
S'Hedge_90'
p262
sg56
Nsbsg54
g76
sg85
F185.30082583991526
sg56
g47
(g48
g49
Ntp263
Rp264
(dp265
g53
I0
sg61
g47
(g57
g49
Ntp266
Rp267
(dp268
g61
Nsg62
I00
sg63
S'Flood_Control'
p269
sg56
Nsbsg54
g55
sg85
F665.363168748156
sg56
g47
(g57
g49
Ntp270
Rp271
(dp272
g61
Nsg62
I00
sg63
S'Hedge_90'
p273
sg56
Nsbsg62
I01
sbsg62
I01
sbsg86
(lp274
g257
ag264
ag271
ag267
ag260
asg88
I5
sbag254
ag254
ag254
ag254
ag254
ag254
ag254
ag254
ag254
ag254
ag254
ag254
ag254
ag254
ag254
ag254
ag254
ag254
ag254
ag254
ag254
ag254
ag254
ag254
ag254
ag254
ag254
ag254
ag254
ag254
ag254
ag254
ag254
ag254
ag254
ag254
ag254
ag254
ag254
ag254
ag254
ag254
ag254
ag254
ag254
ag254
ag254
ag254
ag254
ag254
ag254
ag254
ag254
ag254
ag254
ag254
ag254
ag254
ag254
ag254
ag254
ag254
ag254
a(itree
PTree
p275
(dp276
g46
g47
(g48
g49
Ntp277
Rp278
(dp279
g53
I3
sg61
g47
(g57
g49
Ntp280
Rp281
(dp282
g61
Nsg62
I00
sg63
S'Release_Demand'
p283
sg56
Nsbsg54
g76
sg85
F185.30082583991526
sg56
g47
(g48
g49
Ntp284
Rp285
(dp286
g53
I0
sg61
g47
(g57
g49
Ntp287
Rp288
(dp289
g61
Nsg62
I00
sg63
g111
sg56
Nsbsg54
g55
sg85
F670.1776763807428
sg56
g47
(g57
g49
Ntp290
Rp291
(dp292
g61
Nsg62
I00
sg63
S'Hedge_90'
p293
sg56
Nsbsg62
I01
sbsg62
I01
sbsg86
(lp294
g278
ag285
ag291
ag288
ag281
asg88
I5
sbag275
ag275
ag275
ag275
ag275
ag275
ag275
asS'time'
p295
(lp296
I324
aI486
aI650
aI815
aI976
aI1144
aI1310
aI1471
aI1633
aI1797
aI1967
aI2140
aI2314
aI2487
aI2660
aI2833
aI3006
aI3177
aI3349
aI3522
aI3697
aI3868
aI4037
aI4208
aI4381
aI4549
aI4717
aI4882
aI5054
aI5216
aI5382
aI5547
aI5705
aI5858
aI6010
aI6162
aI6316
aI6470
aI6626
aI6789
aI6945
aI7102
aI7254
aI7407
aI7567
aI7719
aI7875
aI8032
aI8184
aI8336
aI8488
aI8637
aI8788
aI8941
aI9099
aI9250
aI9402
aI9556
aI9708
aI9856
aI10009
aI10167
aI10322
aI10474
aI10631
aI10785
aI10940
aI11089
aI11244
aI11400
aI11555
aI11709
aI11865
aI12020
aI12173
aI12328
aI12480
aI12634
aI12785
aI12936
aI13092
aI13244
aI13397
aI13548
aI13701
aI13861
aI14010
aI14164
aI14317
aI14471
aI14628
aI14780
aI14936
aI15089
aI15247
aI15395
aI15547
aI15703
aI15857
aI16011
aI16167
aI16324
aI16476
aI16633
aI16791
aI16942
aI17101
aI17254
aI17407
aI17563
aI17716
aI17871
aI18026
aI18184
aI18343
aI18495
aI18656
aI18813
aI18969
aI19122
aI19275
aI19422
aI19574
aI19732
aI19884
aI20036
aI20187
aI20346
aI20500
aI20654
aI20807
aI20962
aI21113
aI21264
aI21418
aI21568
aI21726
aI21878
aI22030
aI22185
aI22341
aI22497
aI22646
aI22802
aI22959
aI23114
aI23272
aI23424
aI23575
aI23726
aI23880
aI24036
aI24191
aI24345
aI24505
aI24658
aI24816
aI24968
aI25126
aI25282
aI25439
aI25590
aI25748
aI25901
aI26056
aI26213
aI26365
aI26522
aI26678
aI26833
aI26993
aI27149
aI27305
aI27458
aI27612
aI27767
aI27919
aI28078
aI28231
aI28390
aI28543
aI28699
aI28855
aI29013
aI29167
aI29327
aI29481
aI29639
aI29791
aI29948
aI30103
aI30262
aI30415
aI30568
aI30725
aI30878
aI31030
aI31185
aI31339
aI31492
as.