(dp0
S'nfe'
p1
(lp2
I50
aI100
aI150
aI200
aI250
aI300
aI350
aI400
aI450
aI500
aI550
aI600
aI650
aI700
aI750
aI800
aI850
aI900
aI950
aI1000
aI1050
aI1100
aI1150
aI1200
aI1250
aI1300
aI1350
aI1400
aI1450
aI1500
aI1550
aI1600
aI1650
aI1700
aI1750
aI1800
aI1850
aI1900
aI1950
aI2000
aI2050
aI2100
aI2150
aI2200
aI2250
aI2300
aI2350
aI2400
aI2450
aI2500
aI2550
aI2600
aI2650
aI2700
aI2750
aI2800
aI2850
aI2900
aI2950
aI3000
aI3050
aI3100
aI3150
aI3200
aI3250
aI3300
aI3350
aI3400
aI3450
aI3500
aI3550
aI3600
aI3650
aI3700
aI3750
aI3800
aI3850
aI3900
aI3950
aI4000
aI4050
aI4100
aI4150
aI4200
aI4250
aI4300
aI4350
aI4400
aI4450
aI4500
aI4550
aI4600
aI4650
aI4700
aI4750
aI4800
aI4850
aI4900
aI4950
aI5000
aI5050
aI5100
aI5150
aI5200
aI5250
aI5300
aI5350
aI5400
aI5450
aI5500
aI5550
aI5600
aI5650
aI5700
aI5750
aI5800
aI5850
aI5900
aI5950
aI6000
aI6050
aI6100
aI6150
aI6200
aI6250
aI6300
aI6350
aI6400
aI6450
aI6500
aI6550
aI6600
aI6650
aI6700
aI6750
aI6800
aI6850
aI6900
aI6950
aI7000
aI7050
aI7100
aI7150
aI7200
aI7250
aI7300
aI7350
aI7400
aI7450
aI7500
aI7550
aI7600
aI7650
aI7700
aI7750
aI7800
aI7850
aI7900
aI7950
aI8000
aI8050
aI8100
aI8150
aI8200
aI8250
aI8300
aI8350
aI8400
aI8450
aI8500
aI8550
aI8600
aI8650
aI8700
aI8750
aI8800
aI8850
aI8900
aI8950
aI9000
aI9050
aI9100
aI9150
aI9200
aI9250
aI9300
aI9350
aI9400
aI9450
aI9500
aI9550
aI9600
aI9650
aI9700
aI9750
aI9800
aI9850
aI9900
aI9950
aI10000
asS'best_f'
p3
(lp4
cnumpy.core.multiarray
scalar
p5
(cnumpy
dtype
p6
(S'f8'
p7
I0
I1
tp8
Rp9
(I3
S'<'
p10
NNNI-1
I-1
I0
tp11
bS"9\xed\xe8\xe2\xe5d'A"
p12
tp13
Rp14
ag14
ag5
(g9
S"\xf6\xdf8\x05\xdcd'A"
p15
tp16
Rp17
ag17
ag5
(g9
S"\x00\xbf\xd6\xfa\xd9d'A"
p18
tp19
Rp20
ag5
(g9
S"\x86s\x1cM\xd9d'A"
p21
tp22
Rp23
ag5
(g9
S"\xd8R\xce\xd5\xd8d'A"
p24
tp25
Rp26
ag5
(g9
S'C\xfa"\x8e\xd8d\'A'
p27
tp28
Rp29
ag29
ag5
(g9
S"\x064Co\xd8d'A"
p30
tp31
Rp32
ag32
ag32
ag5
(g9
S"&\x83\xd4^\xd8d'A"
p33
tp34
Rp35
ag35
ag35
ag35
ag35
ag35
ag35
ag35
ag35
ag35
ag35
ag35
ag35
ag35
ag35
ag35
ag35
ag35
ag35
ag35
ag35
ag35
ag35
ag35
ag35
ag35
ag35
ag35
ag35
ag35
ag35
ag35
ag35
ag35
ag35
ag35
ag35
ag35
ag35
ag35
ag35
ag35
ag35
ag35
ag35
ag35
ag35
ag35
ag35
ag35
ag35
ag35
ag35
ag35
ag35
ag35
ag35
ag35
ag35
ag35
ag35
ag35
ag35
ag35
ag35
ag35
ag35
ag35
ag35
ag35
ag35
ag35
ag35
ag35
ag35
ag35
ag35
ag35
ag35
ag35
ag35
ag35
ag35
ag35
ag35
ag35
ag35
ag35
ag35
ag35
ag35
ag35
ag35
ag35
ag35
ag35
ag35
ag35
ag35
ag35
ag35
ag35
ag35
ag35
ag35
ag35
ag35
ag35
ag35
ag35
ag35
ag35
ag35
ag35
ag35
ag35
ag35
ag35
ag35
ag35
ag35
ag35
ag35
ag35
ag35
ag35
ag35
ag35
ag35
ag35
ag35
ag35
ag35
ag35
ag35
ag35
ag35
ag35
ag35
ag35
ag35
ag35
ag35
ag35
ag35
ag35
ag35
ag35
ag35
ag35
ag35
ag35
ag35
ag35
ag35
ag35
ag35
ag35
ag35
ag35
ag35
ag35
ag35
ag35
ag35
ag35
ag35
ag35
ag35
ag35
ag35
ag35
ag35
ag35
ag35
ag35
ag35
ag35
ag35
ag35
ag35
ag35
ag35
ag35
ag35
ag35
ag35
ag35
asS'best_P'
p36
(lp37
(itree
PTree
p38
(dp39
S'root'
p40
ccopy_reg
_reconstructor
p41
(ctree
Feature
p42
c__builtin__
object
p43
Ntp44
Rp45
(dp46
S'index'
p47
I0
sS'name'
p48
S'Storage'
p49
sS'l'
p50
g41
(ctree
Action
p51
g43
Ntp52
Rp53
(dp54
S'r'
p55
NsS'is_feature'
p56
I00
sS'value'
p57
S'Flood_Control'
p58
sg50
Nsbsg55
g41
(g51
g43
Ntp59
Rp60
(dp61
g55
Nsg56
I00
sg57
S'Release_Demand'
p62
sg50
NsbsS'threshold'
p63
F680.4400648475447
sg56
I01
sbsS'L'
p64
(lp65
g45
ag53
ag60
asS'N'
p66
I3
sbag38
a(itree
PTree
p67
(dp68
g40
g41
(g42
g43
Ntp69
Rp70
(dp71
g47
I1
sg55
g41
(g51
g43
Ntp72
Rp73
(dp74
g55
Nsg56
I00
sg57
S'Hedge_90'
p75
sg50
Nsbsg48
S'Day'
p76
sg63
F181.5531992134348
sg50
g41
(g51
g43
Ntp77
Rp78
(dp79
g55
Nsg56
I00
sg57
S'Flood_Control'
p80
sg50
Nsbsg56
I01
sbsg64
(lp81
g70
ag78
ag73
asg66
I3
sbag67
a(itree
PTree
p82
(dp83
g40
g41
(g42
g43
Ntp84
Rp85
(dp86
g47
I1
sg55
g41
(g51
g43
Ntp87
Rp88
(dp89
g55
Nsg56
I00
sg57
S'Hedge_70'
p90
sg50
Nsbsg48
g76
sg63
F159.4079803752033
sg50
g41
(g51
g43
Ntp91
Rp92
(dp93
g55
Nsg56
I00
sg57
g80
sg50
Nsbsg56
I01
sbsg64
(lp94
g85
ag92
ag88
asg66
I3
sba(itree
PTree
p95
(dp96
g40
g41
(g42
g43
Ntp97
Rp98
(dp99
g47
I1
sg55
g41
(g51
g43
Ntp100
Rp101
(dp102
g55
Nsg56
I00
sg57
S'Hedge_90'
p103
sg50
Nsbsg48
g76
sg63
F156.96181790920684
sg50
g41
(g51
g43
Ntp104
Rp105
(dp106
g55
Nsg56
I00
sg57
g80
sg50
Nsbsg56
I01
sbsg64
(lp107
g98
ag105
ag101
asg66
I3
sba(itree
PTree
p108
(dp109
g40
g41
(g42
g43
Ntp110
Rp111
(dp112
g47
I1
sg55
g41
(g51
g43
Ntp113
Rp114
(dp115
g55
Nsg56
I00
sg57
S'Hedge_90'
p116
sg50
Nsbsg48
g76
sg63
F150.33685070087694
sg50
g41
(g51
g43
Ntp117
Rp118
(dp119
g55
Nsg56
I00
sg57
S'Flood_Control'
p120
sg50
Nsbsg56
I01
sbsg64
(lp121
g111
ag118
ag114
asg66
I3
sba(itree
PTree
p122
(dp123
g40
g41
(g42
g43
Ntp124
Rp125
(dp126
g47
I1
sg55
g41
(g51
g43
Ntp127
Rp128
(dp129
g55
Nsg56
I00
sg57
g103
sg50
Nsbsg48
g76
sg63
F145.9591230965452
sg50
g41
(g51
g43
Ntp130
Rp131
(dp132
g55
Nsg56
I00
sg57
g80
sg50
Nsbsg56
I01
sbsg64
(lp133
g125
ag131
ag128
asg66
I3
sbag122
a(itree
PTree
p134
(dp135
g40
g41
(g42
g43
Ntp136
Rp137
(dp138
g47
I1
sg55
g41
(g51
g43
Ntp139
Rp140
(dp141
g55
Nsg56
I00
sg57
g116
sg50
Nsbsg48
g76
sg63
F143.34156610098822
sg50
g41
(g51
g43
Ntp142
Rp143
(dp144
g55
Nsg56
I00
sg57
g120
sg50
Nsbsg56
I01
sbsg64
(lp145
g137
ag143
ag140
asg66
I3
sbag134
ag134
a(itree
PTree
p146
(dp147
g40
g41
(g42
g43
Ntp148
Rp149
(dp150
g47
I1
sg55
g41
(g51
g43
Ntp151
Rp152
(dp153
g55
Nsg56
I00
sg57
g116
sg50
Nsbsg48
g76
sg63
F142.46811688368325
sg50
g41
(g51
g43
Ntp154
Rp155
(dp156
g55
Nsg56
I00
sg57
g120
sg50
Nsbsg56
I01
sbsg64
(lp157
g149
ag155
ag152
asg66
I3
sbag146
ag146
ag146
ag146
ag146
ag146
ag146
ag146
ag146
ag146
ag146
ag146
ag146
ag146
ag146
ag146
ag146
ag146
ag146
ag146
ag146
ag146
ag146
ag146
ag146
ag146
ag146
ag146
ag146
ag146
ag146
ag146
ag146
ag146
ag146
ag146
ag146
ag146
ag146
ag146
ag146
ag146
ag146
ag146
ag146
ag146
ag146
ag146
ag146
ag146
ag146
ag146
ag146
ag146
ag146
ag146
ag146
ag146
ag146
ag146
ag146
ag146
ag146
ag146
ag146
ag146
ag146
ag146
ag146
ag146
ag146
ag146
ag146
ag146
ag146
ag146
ag146
ag146
ag146
ag146
ag146
ag146
ag146
ag146
ag146
ag146
ag146
ag146
ag146
ag146
ag146
ag146
ag146
ag146
ag146
ag146
ag146
ag146
ag146
ag146
ag146
ag146
ag146
ag146
ag146
ag146
ag146
ag146
ag146
ag146
ag146
ag146
ag146
ag146
ag146
ag146
ag146
ag146
ag146
ag146
ag146
ag146
ag146
ag146
ag146
ag146
ag146
ag146
ag146
ag146
ag146
ag146
ag146
ag146
ag146
ag146
ag146
ag146
ag146
ag146
ag146
ag146
ag146
ag146
ag146
ag146
ag146
ag146
ag146
ag146
ag146
ag146
ag146
ag146
ag146
ag146
ag146
ag146
ag146
ag146
ag146
ag146
ag146
ag146
ag146
ag146
ag146
ag146
ag146
ag146
ag146
ag146
ag146
ag146
ag146
ag146
ag146
ag146
ag146
ag146
ag146
ag146
ag146
ag146
ag146
ag146
ag146
asS'time'
p158
(lp159
I575
aI887
aI1201
aI1497
aI1766
aI2054
aI2374
aI2635
aI2919
aI3190
aI3517
aI3825
aI4121
aI4443
aI4777
aI5097
aI5362
aI5667
aI5964
aI6279
aI6595
aI6918
aI7249
aI7560
aI7871
aI8189
aI8494
aI8807
aI9110
aI9431
aI9743
aI10029
aI10281
aI10600
aI10966
aI11261
aI11517
aI11774
aI12048
aI12336
aI12662
aI12951
aI13232
aI13575
aI13900
aI14212
aI14549
aI14880
aI15201
aI15541
aI15893
aI16213
aI16549
aI16885
aI17219
aI17561
aI17874
aI18167
aI18445
aI18744
aI19040
aI19350
aI19646
aI19986
aI20328
aI20650
aI20986
aI21327
aI21648
aI21974
aI22309
aI22644
aI22980
aI23312
aI23653
aI23994
aI24328
aI24662
aI24991
aI25308
aI25645
aI25978
aI26336
aI26694
aI27050
aI27369
aI27679
aI27985
aI28283
aI28567
aI28840
aI29120
aI29405
aI29700
aI30012
aI30256
aI30516
aI30769
aI31067
aI31335
aI31587
aI31889
aI32178
aI32445
aI32740
aI33026
aI33296
aI33603
aI33847
aI34022
aI34194
aI34379
aI34563
aI34743
aI34924
aI35102
aI35284
aI35467
aI35653
aI35836
aI36020
aI36204
aI36389
aI36571
aI36758
aI36939
aI37121
aI37275
aI37434
aI37618
aI37800
aI37983
aI38163
aI38291
aI38385
aI38480
aI38575
aI38670
aI38763
aI38857
aI38982
aI39079
aI39206
aI39336
aI39509
aI39684
aI39863
aI40037
aI40210
aI40389
aI40566
aI40745
aI40919
aI41090
aI41265
aI41411
aI41508
aI41783
aI42050
aI42295
aI42567
aI42797
aI42980
aI43162
aI43347
aI43526
aI43729
aI43999
aI44272
aI44517
aI44694
aI44921
aI45114
aI45291
aI45466
aI45643
aI45821
aI46023
aI46283
aI46472
aI46650
aI46828
aI47003
aI47184
aI47359
aI47539
aI47718
aI47897
aI48074
aI48247
aI48388
aI48485
aI48607
aI48721
aI48840
aI48962
aI49076
aI49171
aI49262
aI49352
as.