(dp0
S'nfe'
p1
(lp2
I50
aI100
aI150
aI200
aI250
aI300
aI350
aI400
aI450
aI500
aI550
aI600
aI650
aI700
aI750
aI800
aI850
aI900
aI950
aI1000
aI1050
aI1100
aI1150
aI1200
aI1250
aI1300
aI1350
aI1400
aI1450
aI1500
aI1550
aI1600
aI1650
aI1700
aI1750
aI1800
aI1850
aI1900
aI1950
aI2000
aI2050
aI2100
aI2150
aI2200
aI2250
aI2300
aI2350
aI2400
aI2450
aI2500
aI2550
aI2600
aI2650
aI2700
aI2750
aI2800
aI2850
aI2900
aI2950
aI3000
aI3050
aI3100
aI3150
aI3200
aI3250
aI3300
aI3350
aI3400
aI3450
aI3500
aI3550
aI3600
aI3650
aI3700
aI3750
aI3800
aI3850
aI3900
aI3950
aI4000
aI4050
aI4100
aI4150
aI4200
aI4250
aI4300
aI4350
aI4400
aI4450
aI4500
aI4550
aI4600
aI4650
aI4700
aI4750
aI4800
aI4850
aI4900
aI4950
aI5000
aI5050
aI5100
aI5150
aI5200
aI5250
aI5300
aI5350
aI5400
aI5450
aI5500
aI5550
aI5600
aI5650
aI5700
aI5750
aI5800
aI5850
aI5900
aI5950
aI6000
aI6050
aI6100
aI6150
aI6200
aI6250
aI6300
aI6350
aI6400
aI6450
aI6500
aI6550
aI6600
aI6650
aI6700
aI6750
aI6800
aI6850
aI6900
aI6950
aI7000
aI7050
aI7100
aI7150
aI7200
aI7250
aI7300
aI7350
aI7400
aI7450
aI7500
aI7550
aI7600
aI7650
aI7700
aI7750
aI7800
aI7850
aI7900
aI7950
aI8000
aI8050
aI8100
aI8150
aI8200
aI8250
aI8300
aI8350
aI8400
aI8450
aI8500
aI8550
aI8600
aI8650
aI8700
aI8750
aI8800
aI8850
aI8900
aI8950
aI9000
aI9050
aI9100
aI9150
aI9200
aI9250
aI9300
aI9350
aI9400
aI9450
aI9500
aI9550
aI9600
aI9650
aI9700
aI9750
aI9800
aI9850
aI9900
aI9950
aI10000
asS'best_f'
p3
(lp4
cnumpy.core.multiarray
scalar
p5
(cnumpy
dtype
p6
(S'f8'
p7
I0
I1
tp8
Rp9
(I3
S'<'
p10
NNNI-1
I-1
I0
tp11
bS'BD\xdf\x11fi\x17@'
p12
tp13
Rp14
ag5
(g9
S'\xdf2\xd2\x1a\xe3\xaf\x10@'
p15
tp16
Rp17
ag5
(g9
S'\xca\x04\xf9L\xe9\xd5\x0f@'
p18
tp19
Rp20
ag20
ag20
ag5
(g9
S'\x93\xa7\xd5S\x1ex\r@'
p21
tp22
Rp23
ag23
ag5
(g9
S'$C\xc8\x90\x86<\x08@'
p24
tp25
Rp26
ag26
ag26
ag5
(g9
S'a\xcc<[\x951\x08@'
p27
tp28
Rp29
ag29
ag5
(g9
S'\xe0\xefKG\xda\x8f\x06@'
p30
tp31
Rp32
ag32
ag32
ag32
ag5
(g9
S'B\xd1\xd6+\xb4,\x00@'
p33
tp34
Rp35
ag35
ag5
(g9
S'\xaf\x82\x9c{a\xce\xfe?'
p36
tp37
Rp38
ag38
ag5
(g9
S'\xeb\xc9\x00\x13j\x04\xfd?'
p39
tp40
Rp41
ag5
(g9
S'\xeb\x14Et|~\xfc?'
p42
tp43
Rp44
ag44
ag5
(g9
S'\xaa\xce3\xda\x85t\xed?'
p45
tp46
Rp47
ag5
(g9
S'\x80l\xeb\xaeD\x1f\xe6?'
p48
tp49
Rp50
ag50
ag5
(g9
S'\xa5}0\x11\x13\\\xe4?'
p51
tp52
Rp53
ag53
ag53
ag53
ag5
(g9
S'\xd5\xbb)Jl\x8f\xe0?'
p54
tp55
Rp56
ag56
ag5
(g9
S'\x9eb!\xda\xe3\xb7\xdd?'
p57
tp58
Rp59
ag59
ag59
ag59
ag59
ag59
ag59
ag59
ag59
ag59
ag59
ag59
ag59
ag59
ag59
ag59
ag59
ag59
ag59
ag59
ag59
ag5
(g9
S'\xd9m"\xd8\xf3\xd3\xda?'
p60
tp61
Rp62
ag62
ag62
ag62
ag5
(g9
S'\x9co\x12\xb1\xbb_\xd7?'
p63
tp64
Rp65
ag65
ag65
ag65
ag65
ag65
ag65
ag65
ag65
ag65
ag65
ag65
ag65
ag65
ag65
ag65
ag65
ag65
ag65
ag65
ag65
ag65
ag65
ag65
ag65
ag65
ag65
ag65
ag65
ag5
(g9
S'H\xca\xa2\xd9#_\xd7?'
p66
tp67
Rp68
ag68
ag68
ag68
ag68
ag68
ag68
ag68
ag68
ag68
ag68
ag68
ag68
ag68
ag68
ag68
ag68
ag68
ag68
ag68
ag68
ag68
ag68
ag5
(g9
S'\xbb\xa7\xc4\xa2\x85\x19\xd7?'
p69
tp70
Rp71
ag71
ag71
ag71
ag71
ag71
ag71
ag5
(g9
S'\xe4@\x05@C\xa4\xd6?'
p72
tp73
Rp74
ag74
ag74
ag74
ag74
ag74
ag74
ag74
ag74
ag74
ag74
ag74
ag74
ag74
ag74
ag74
ag74
ag74
ag74
ag74
ag74
ag74
ag74
ag74
ag74
ag74
ag74
ag74
ag74
ag74
ag74
ag74
ag74
ag74
ag74
ag74
ag74
ag74
ag74
ag74
ag74
ag74
ag74
ag74
ag74
ag74
ag74
ag74
ag74
ag74
ag74
ag74
ag74
ag74
ag74
ag74
ag74
ag74
ag74
ag74
ag74
ag74
ag74
ag74
ag74
ag74
ag74
ag74
ag74
ag74
ag74
ag74
ag74
ag74
ag74
ag74
ag74
ag74
ag74
ag74
ag74
ag74
ag74
ag74
asS'best_P'
p75
(lp76
(itree
PTree
p77
(dp78
S'root'
p79
ccopy_reg
_reconstructor
p80
(ctree
Feature
p81
c__builtin__
object
p82
Ntp83
Rp84
(dp85
S'index'
p86
I3
sS'name'
p87
S'LP3'
p88
sS'l'
p89
g80
(g81
g82
Ntp90
Rp91
(dp92
g86
I0
sg87
S'Storage'
p93
sg89
g80
(ctree
Action
p94
g82
Ntp95
Rp96
(dp97
S'r'
p98
NsS'is_feature'
p99
I00
sS'value'
p100
S'Hedge_80'
p101
sg89
Nsbsg98
g80
(g81
g82
Ntp102
Rp103
(dp104
g86
I0
sg87
g93
sg89
g80
(g94
g82
Ntp105
Rp106
(dp107
g98
Nsg99
I00
sg100
S'Flood_Control'
p108
sg89
Nsbsg98
g80
(g94
g82
Ntp109
Rp110
(dp111
g98
Nsg99
I00
sg100
S'Hedge_50'
p112
sg89
NsbsS'threshold'
p113
F745.6371927074961
sg99
I01
sbsg113
F135.4279030721699
sg99
I01
sbsg98
g80
(g94
g82
Ntp114
Rp115
(dp116
g98
Nsg99
I00
sg100
S'Hedge_80'
p117
sg89
Nsbsg113
F348.20664254216626
sg99
I01
sbsS'L'
p118
(lp119
g84
ag91
ag96
ag103
ag106
ag110
ag115
asS'N'
p120
I7
sba(itree
PTree
p121
(dp122
g79
g80
(g81
g82
Ntp123
Rp124
(dp125
g86
I3
sg98
g80
(g94
g82
Ntp126
Rp127
(dp128
g98
Nsg99
I00
sg100
S'Hedge_50'
p129
sg89
Nsbsg87
g88
sg113
F313.1054304860452
sg89
g80
(g81
g82
Ntp130
Rp131
(dp132
g86
I0
sg98
g80
(g94
g82
Ntp133
Rp134
(dp135
g98
Nsg99
I00
sg100
S'Flood_Control'
p136
sg89
Nsbsg87
g93
sg113
F279.17450801701256
sg89
g80
(g94
g82
Ntp137
Rp138
(dp139
g98
Nsg99
I00
sg100
S'Release_Demand'
p140
sg89
Nsbsg99
I01
sbsg99
I01
sbsg118
(lp141
g124
ag131
ag138
ag134
ag127
asg120
I5
sba(itree
PTree
p142
(dp143
g79
g80
(g81
g82
Ntp144
Rp145
(dp146
g86
I3
sg98
g80
(g94
g82
Ntp147
Rp148
(dp149
g98
Nsg99
I00
sg100
S'Hedge_80'
p150
sg89
Nsbsg87
g88
sg113
F305.5810266371617
sg89
g80
(g81
g82
Ntp151
Rp152
(dp153
g86
I0
sg98
g80
(g94
g82
Ntp154
Rp155
(dp156
g98
Nsg99
I00
sg100
S'Flood_Control'
p157
sg89
Nsbsg87
g93
sg113
F290.7757712311224
sg89
g80
(g94
g82
Ntp158
Rp159
(dp160
g98
Nsg99
I00
sg100
g140
sg89
Nsbsg99
I01
sbsg99
I01
sbsg118
(lp161
g145
ag152
ag159
ag155
ag148
asg120
I5
sbag142
ag142
a(itree
PTree
p162
(dp163
g79
g80
(g81
g82
Ntp164
Rp165
(dp166
g86
I3
sg98
g80
(g94
g82
Ntp167
Rp168
(dp169
g98
Nsg99
I00
sg100
S'Release_Demand'
p170
sg89
Nsbsg87
g88
sg113
F301.88385241385845
sg89
g80
(g81
g82
Ntp171
Rp172
(dp173
g86
I0
sg98
g80
(g94
g82
Ntp174
Rp175
(dp176
g98
Nsg99
I00
sg100
S'Flood_Control'
p177
sg89
Nsbsg87
g93
sg113
F273.0409981164818
sg89
g80
(g94
g82
Ntp178
Rp179
(dp180
g98
Nsg99
I00
sg100
S'Hedge_70'
p181
sg89
Nsbsg99
I01
sbsg99
I01
sbsg118
(lp182
g165
ag172
ag179
ag175
ag168
asg120
I5
sbag162
a(itree
PTree
p183
(dp184
g79
g80
(g81
g82
Ntp185
Rp186
(dp187
g86
I0
sg98
g80
(g94
g82
Ntp188
Rp189
(dp190
g98
Nsg99
I00
sg100
S'Flood_Control'
p191
sg89
Nsbsg87
g93
sg113
F324.89289987384376
sg89
g80
(g94
g82
Ntp192
Rp193
(dp194
g98
Nsg99
I00
sg100
S'Hedge_70'
p195
sg89
Nsbsg99
I01
sbsg118
(lp196
g186
ag193
ag189
asg120
I3
sbag183
ag183
a(itree
PTree
p197
(dp198
g79
g80
(g81
g82
Ntp199
Rp200
(dp201
g86
I0
sg98
g80
(g94
g82
Ntp202
Rp203
(dp204
g98
Nsg99
I00
sg100
g191
sg89
Nsbsg87
g93
sg113
F324.3321632846554
sg89
g80
(g94
g82
Ntp205
Rp206
(dp207
g98
Nsg99
I00
sg100
g195
sg89
Nsbsg99
I01
sbsg118
(lp208
g200
ag206
ag203
asg120
I3
sbag197
a(itree
PTree
p209
(dp210
g79
g80
(g81
g82
Ntp211
Rp212
(dp213
g86
I0
sg98
g80
(g94
g82
Ntp214
Rp215
(dp216
g98
Nsg99
I00
sg100
g191
sg89
Nsbsg87
g93
sg113
F340.5189013451482
sg89
g80
(g94
g82
Ntp217
Rp218
(dp219
g98
Nsg99
I00
sg100
g195
sg89
Nsbsg99
I01
sbsg118
(lp220
g212
ag218
ag215
asg120
I3
sbag209
ag209
ag209
a(itree
PTree
p221
(dp222
g79
g80
(g81
g82
Ntp223
Rp224
(dp225
g86
I1
sg98
g80
(g94
g82
Ntp226
Rp227
(dp228
g98
Nsg99
I00
sg100
S'Hedge_90'
p229
sg89
Nsbsg87
S'Day'
p230
sg113
F164.55281532966637
sg89
g80
(g81
g82
Ntp231
Rp232
(dp233
g86
I3
sg98
g80
(g94
g82
Ntp234
Rp235
(dp236
g98
Nsg99
I00
sg100
S'Hedge_60'
p237
sg89
Nsbsg87
g88
sg113
F252.98694811095632
sg89
g80
(g94
g82
Ntp238
Rp239
(dp240
g98
Nsg99
I00
sg100
S'Flood_Control'
p241
sg89
Nsbsg99
I01
sbsg99
I01
sbsg118
(lp242
g224
ag232
ag239
ag235
ag227
asg120
I5
sbag221
a(itree
PTree
p243
(dp244
g79
g80
(g81
g82
Ntp245
Rp246
(dp247
g86
I1
sg98
g80
(g81
g82
Ntp248
Rp249
(dp250
g86
I3
sg98
g80
(g81
g82
Ntp251
Rp252
(dp253
g86
I2
sg98
g80
(g94
g82
Ntp254
Rp255
(dp256
g98
Nsg99
I00
sg100
S'Release_Demand'
p257
sg89
Nsbsg87
S'AnnQ'
p258
sg113
F2242.492537046692
sg89
g80
(g94
g82
Ntp259
Rp260
(dp261
g98
Nsg99
I00
sg100
S'Flood_Control'
p262
sg89
Nsbsg99
I01
sbsg87
g88
sg113
F134.18664994961503
sg89
g80
(g94
g82
Ntp263
Rp264
(dp265
g98
Nsg99
I00
sg100
S'Release_Demand'
p266
sg89
Nsbsg99
I01
sbsg87
g230
sg113
F151.61419162859224
sg89
g80
(g94
g82
Ntp267
Rp268
(dp269
g98
Nsg99
I00
sg100
S'Flood_Control'
p270
sg89
Nsbsg99
I01
sbsg118
(lp271
g246
ag268
ag249
ag264
ag252
ag260
ag255
asg120
I7
sbag243
a(itree
PTree
p272
(dp273
g79
g80
(g81
g82
Ntp274
Rp275
(dp276
g86
I1
sg98
g80
(g81
g82
Ntp277
Rp278
(dp279
g86
I3
sg98
g80
(g81
g82
Ntp280
Rp281
(dp282
g86
I2
sg98
g80
(g94
g82
Ntp283
Rp284
(dp285
g98
Nsg99
I00
sg100
g257
sg89
Nsbsg87
g258
sg113
F2073.917760837583
sg89
g80
(g94
g82
Ntp286
Rp287
(dp288
g98
Nsg99
I00
sg100
g262
sg89
Nsbsg99
I01
sbsg87
g88
sg113
F114.21919785344144
sg89
g80
(g94
g82
Ntp289
Rp290
(dp291
g98
Nsg99
I00
sg100
g266
sg89
Nsbsg99
I01
sbsg87
g230
sg113
F140.968987889244
sg89
g80
(g94
g82
Ntp292
Rp293
(dp294
g98
Nsg99
I00
sg100
g270
sg89
Nsbsg99
I01
sbsg118
(lp295
g275
ag293
ag278
ag290
ag281
ag287
ag284
asg120
I7
sba(itree
PTree
p296
(dp297
g79
g80
(g81
g82
Ntp298
Rp299
(dp300
g86
I1
sg98
g80
(g81
g82
Ntp301
Rp302
(dp303
g86
I3
sg98
g80
(g81
g82
Ntp304
Rp305
(dp306
g86
I2
sg98
g80
(g94
g82
Ntp307
Rp308
(dp309
g98
Nsg99
I00
sg100
g257
sg89
Nsbsg87
g258
sg113
F1788.870817030949
sg89
g80
(g94
g82
Ntp310
Rp311
(dp312
g98
Nsg99
I00
sg100
g262
sg89
Nsbsg99
I01
sbsg87
g88
sg113
F123.19974268433381
sg89
g80
(g94
g82
Ntp313
Rp314
(dp315
g98
Nsg99
I00
sg100
g266
sg89
Nsbsg99
I01
sbsg87
g230
sg113
F133.35121789325012
sg89
g80
(g94
g82
Ntp316
Rp317
(dp318
g98
Nsg99
I00
sg100
g270
sg89
Nsbsg99
I01
sbsg118
(lp319
g299
ag317
ag302
ag314
ag305
ag311
ag308
asg120
I7
sbag296
a(itree
PTree
p320
(dp321
g79
g80
(g81
g82
Ntp322
Rp323
(dp324
g86
I1
sg98
g80
(g94
g82
Ntp325
Rp326
(dp327
g98
Nsg99
I00
sg100
S'Hedge_90'
p328
sg89
Nsbsg87
g230
sg113
F180.92935248404885
sg89
g80
(g81
g82
Ntp329
Rp330
(dp331
g86
I0
sg98
g80
(g94
g82
Ntp332
Rp333
(dp334
g98
Nsg99
I00
sg100
S'Flood_Control'
p335
sg89
Nsbsg87
g93
sg113
F178.73678779874461
sg89
g80
(g94
g82
Ntp336
Rp337
(dp338
g98
Nsg99
I00
sg100
S'Hedge_80'
p339
sg89
Nsbsg99
I01
sbsg99
I01
sbsg118
(lp340
g323
ag330
ag337
ag333
ag326
asg120
I5
sba(itree
PTree
p341
(dp342
g79
g80
(g81
g82
Ntp343
Rp344
(dp345
g86
I1
sg98
g80
(g94
g82
Ntp346
Rp347
(dp348
g98
Nsg99
I00
sg100
g328
sg89
Nsbsg87
g230
sg113
F166.03586601244731
sg89
g80
(g81
g82
Ntp349
Rp350
(dp351
g86
I0
sg98
g80
(g94
g82
Ntp352
Rp353
(dp354
g98
Nsg99
I00
sg100
g335
sg89
Nsbsg87
g93
sg113
F218.23441973706596
sg89
g80
(g94
g82
Ntp355
Rp356
(dp357
g98
Nsg99
I00
sg100
g339
sg89
Nsbsg99
I01
sbsg99
I01
sbsg118
(lp358
g344
ag350
ag356
ag353
ag347
asg120
I5
sbag341
a(itree
PTree
p359
(dp360
g79
g80
(g81
g82
Ntp361
Rp362
(dp363
g86
I1
sg98
g80
(g94
g82
Ntp364
Rp365
(dp366
g98
Nsg99
I00
sg100
g328
sg89
Nsbsg87
g230
sg113
F166.03586601244731
sg89
g80
(g81
g82
Ntp367
Rp368
(dp369
g86
I0
sg98
g80
(g94
g82
Ntp370
Rp371
(dp372
g98
Nsg99
I00
sg100
g335
sg89
Nsbsg87
g93
sg113
F250.2161506138383
sg89
g80
(g94
g82
Ntp373
Rp374
(dp375
g98
Nsg99
I00
sg100
g339
sg89
Nsbsg99
I01
sbsg99
I01
sbsg118
(lp376
g362
ag368
ag374
ag371
ag365
asg120
I5
sbag359
ag359
ag359
a(itree
PTree
p377
(dp378
g79
g80
(g81
g82
Ntp379
Rp380
(dp381
g86
I1
sg98
g80
(g94
g82
Ntp382
Rp383
(dp384
g98
Nsg99
I00
sg100
g328
sg89
Nsbsg87
g230
sg113
F146.8519869950834
sg89
g80
(g81
g82
Ntp385
Rp386
(dp387
g86
I0
sg98
g80
(g94
g82
Ntp388
Rp389
(dp390
g98
Nsg99
I00
sg100
g335
sg89
Nsbsg87
g93
sg113
F271.3497262380142
sg89
g80
(g94
g82
Ntp391
Rp392
(dp393
g98
Nsg99
I00
sg100
g339
sg89
Nsbsg99
I01
sbsg99
I01
sbsg118
(lp394
g380
ag386
ag392
ag389
ag383
asg120
I5
sbag377
a(itree
PTree
p395
(dp396
g79
g80
(g81
g82
Ntp397
Rp398
(dp399
g86
I1
sg98
g80
(g94
g82
Ntp400
Rp401
(dp402
g98
Nsg99
I00
sg100
g328
sg89
Nsbsg87
g230
sg113
F145.13458108216975
sg89
g80
(g81
g82
Ntp403
Rp404
(dp405
g86
I0
sg98
g80
(g94
g82
Ntp406
Rp407
(dp408
g98
Nsg99
I00
sg100
g335
sg89
Nsbsg87
g93
sg113
F315.402361353316
sg89
g80
(g94
g82
Ntp409
Rp410
(dp411
g98
Nsg99
I00
sg100
g339
sg89
Nsbsg99
I01
sbsg99
I01
sbsg118
(lp412
g398
ag404
ag410
ag407
ag401
asg120
I5
sbag395
ag395
ag395
ag395
ag395
ag395
ag395
ag395
ag395
ag395
ag395
ag395
ag395
ag395
ag395
ag395
ag395
ag395
ag395
ag395
a(itree
PTree
p413
(dp414
g79
g80
(g81
g82
Ntp415
Rp416
(dp417
g86
I1
sg98
g80
(g94
g82
Ntp418
Rp419
(dp420
g98
Nsg99
I00
sg100
S'Release_Demand'
p421
sg89
Nsbsg87
g230
sg113
F151.22560450493927
sg89
g80
(g81
g82
Ntp422
Rp423
(dp424
g86
I0
sg98
g80
(g94
g82
Ntp425
Rp426
(dp427
g98
Nsg99
I00
sg100
S'Flood_Control'
p428
sg89
Nsbsg87
g93
sg113
F315.402361353316
sg89
g80
(g94
g82
Ntp429
Rp430
(dp431
g98
Nsg99
I00
sg100
S'Release_Demand'
p432
sg89
Nsbsg99
I01
sbsg99
I01
sbsg118
(lp433
g416
ag423
ag430
ag426
ag419
asg120
I5
sbag413
ag413
ag413
a(itree
PTree
p434
(dp435
g79
g80
(g81
g82
Ntp436
Rp437
(dp438
g86
I1
sg98
g80
(g94
g82
Ntp439
Rp440
(dp441
g98
Nsg99
I00
sg100
g421
sg89
Nsbsg87
g230
sg113
F135.90018221062445
sg89
g80
(g81
g82
Ntp442
Rp443
(dp444
g86
I0
sg98
g80
(g94
g82
Ntp445
Rp446
(dp447
g98
Nsg99
I00
sg100
g428
sg89
Nsbsg87
g93
sg113
F315.402361353316
sg89
g80
(g94
g82
Ntp448
Rp449
(dp450
g98
Nsg99
I00
sg100
g432
sg89
Nsbsg99
I01
sbsg99
I01
sbsg118
(lp451
g437
ag443
ag449
ag446
ag440
asg120
I5
sbag434
ag434
ag434
ag434
ag434
ag434
ag434
ag434
ag434
ag434
ag434
ag434
ag434
ag434
ag434
ag434
ag434
ag434
ag434
ag434
ag434
ag434
ag434
ag434
ag434
ag434
ag434
ag434
a(itree
PTree
p452
(dp453
g79
g80
(g81
g82
Ntp454
Rp455
(dp456
g86
I1
sg98
g80
(g94
g82
Ntp457
Rp458
(dp459
g98
Nsg99
I00
sg100
g421
sg89
Nsbsg87
g230
sg113
F135.90018221062445
sg89
g80
(g81
g82
Ntp460
Rp461
(dp462
g86
I0
sg98
g80
(g94
g82
Ntp463
Rp464
(dp465
g98
Nsg99
I00
sg100
g428
sg89
Nsbsg87
g93
sg113
F314.57815664319304
sg89
g80
(g94
g82
Ntp466
Rp467
(dp468
g98
Nsg99
I00
sg100
g432
sg89
Nsbsg99
I01
sbsg99
I01
sbsg118
(lp469
g455
ag461
ag467
ag464
ag458
asg120
I5
sbag452
ag452
ag452
ag452
ag452
ag452
ag452
ag452
ag452
ag452
ag452
ag452
ag452
ag452
ag452
ag452
ag452
ag452
ag452
ag452
ag452
ag452
a(itree
PTree
p470
(dp471
g79
g80
(g81
g82
Ntp472
Rp473
(dp474
g86
I1
sg98
g80
(g94
g82
Ntp475
Rp476
(dp477
g98
Nsg99
I00
sg100
g328
sg89
Nsbsg87
g230
sg113
F133.5029040944407
sg89
g80
(g81
g82
Ntp478
Rp479
(dp480
g86
I0
sg98
g80
(g94
g82
Ntp481
Rp482
(dp483
g98
Nsg99
I00
sg100
S'Flood_Control'
p484
sg89
Nsbsg87
g93
sg113
F326.3252588769967
sg89
g80
(g94
g82
Ntp485
Rp486
(dp487
g98
Nsg99
I00
sg100
S'Release_Demand'
p488
sg89
Nsbsg99
I01
sbsg99
I01
sbsg118
(lp489
g473
ag479
ag486
ag482
ag476
asg120
I5
sbag470
ag470
ag470
ag470
ag470
ag470
a(itree
PTree
p490
(dp491
g79
g80
(g81
g82
Ntp492
Rp493
(dp494
g86
I1
sg98
g80
(g94
g82
Ntp495
Rp496
(dp497
g98
Nsg99
I00
sg100
S'Hedge_90'
p498
sg89
Nsbsg87
g230
sg113
F134.41296977271554
sg89
g80
(g81
g82
Ntp499
Rp500
(dp501
g86
I0
sg98
g80
(g94
g82
Ntp502
Rp503
(dp504
g98
Nsg99
I00
sg100
S'Flood_Control'
p505
sg89
Nsbsg87
g93
sg113
F332.58985843129386
sg89
g80
(g94
g82
Ntp506
Rp507
(dp508
g98
Nsg99
I00
sg100
S'Release_Demand'
p509
sg89
Nsbsg99
I01
sbsg99
I01
sbsg118
(lp510
g493
ag500
ag507
ag503
ag496
asg120
I5
sbag490
ag490
ag490
ag490
ag490
ag490
ag490
ag490
ag490
ag490
ag490
ag490
ag490
ag490
ag490
ag490
ag490
ag490
ag490
ag490
ag490
ag490
ag490
ag490
ag490
ag490
ag490
ag490
ag490
ag490
ag490
ag490
ag490
ag490
ag490
ag490
ag490
ag490
ag490
ag490
ag490
ag490
ag490
ag490
ag490
ag490
ag490
ag490
ag490
ag490
ag490
ag490
ag490
ag490
ag490
ag490
ag490
ag490
ag490
ag490
ag490
ag490
ag490
ag490
ag490
ag490
ag490
ag490
ag490
ag490
ag490
ag490
ag490
ag490
ag490
ag490
ag490
ag490
ag490
ag490
ag490
ag490
ag490
asS'time'
p511
(lp512
I375
aI546
aI722
aI892
aI1063
aI1225
aI1390
aI1554
aI1723
aI1890
aI2048
aI2208
aI2368
aI2529
aI2692
aI2855
aI3024
aI3189
aI3350
aI3517
aI3681
aI3841
aI4007
aI4174
aI4334
aI4501
aI4668
aI4832
aI4998
aI5164
aI5332
aI5496
aI5673
aI5846
aI6021
aI6190
aI6363
aI6540
aI6715
aI6893
aI7069
aI7246
aI7419
aI7590
aI7764
aI7936
aI8107
aI8281
aI8453
aI8623
aI8798
aI8969
aI9140
aI9312
aI9484
aI9653
aI9828
aI9998
aI10173
aI10341
aI10509
aI10682
aI10851
aI11024
aI11192
aI11362
aI11530
aI11702
aI11876
aI12048
aI12217
aI12387
aI12558
aI12725
aI12895
aI13067
aI13238
aI13408
aI13582
aI13753
aI13924
aI14095
aI14259
aI14432
aI14609
aI14780
aI14950
aI15123
aI15293
aI15465
aI15637
aI15805
aI15974
aI16145
aI16317
aI16488
aI16660
aI16832
aI16998
aI17165
aI17339
aI17506
aI17676
aI17845
aI18016
aI18186
aI18357
aI18526
aI18697
aI18873
aI19044
aI19212
aI19381
aI19554
aI19732
aI19907
aI20078
aI20247
aI20420
aI20587
aI20755
aI20923
aI21088
aI21260
aI21428
aI21598
aI21766
aI21938
aI22103
aI22273
aI22442
aI22610
aI22783
aI22957
aI23122
aI23289
aI23457
aI23631
aI23803
aI23969
aI24137
aI24304
aI24472
aI24644
aI24815
aI24983
aI25154
aI25325
aI25497
aI25671
aI25838
aI26008
aI26181
aI26354
aI26526
aI26694
aI26868
aI27036
aI27207
aI27378
aI27548
aI27719
aI27891
aI28059
aI28230
aI28399
aI28569
aI28746
aI28911
aI29084
aI29255
aI29428
aI29599
aI29768
aI29939
aI30109
aI30278
aI30450
aI30621
aI30790
aI30960
aI31126
aI31298
aI31469
aI31634
aI31801
aI31970
aI32140
aI32307
aI32477
aI32643
aI32808
aI32974
aI33145
aI33310
aI33476
aI33639
aI33797
aI33951
aI34101
as.