(dp0
S'nfe'
p1
(lp2
I50
aI100
aI150
aI200
aI250
aI300
aI350
aI400
aI450
aI500
aI550
aI600
aI650
aI700
aI750
aI800
aI850
aI900
aI950
aI1000
aI1050
aI1100
aI1150
aI1200
aI1250
aI1300
aI1350
aI1400
aI1450
aI1500
aI1550
aI1600
aI1650
aI1700
aI1750
aI1800
aI1850
aI1900
aI1950
aI2000
aI2050
aI2100
aI2150
aI2200
aI2250
aI2300
aI2350
aI2400
aI2450
aI2500
aI2550
aI2600
aI2650
aI2700
aI2750
aI2800
aI2850
aI2900
aI2950
aI3000
aI3050
aI3100
aI3150
aI3200
aI3250
aI3300
aI3350
aI3400
aI3450
aI3500
aI3550
aI3600
aI3650
aI3700
aI3750
aI3800
aI3850
aI3900
aI3950
aI4000
aI4050
aI4100
aI4150
aI4200
aI4250
aI4300
aI4350
aI4400
aI4450
aI4500
aI4550
aI4600
aI4650
aI4700
aI4750
aI4800
aI4850
aI4900
aI4950
aI5000
aI5050
aI5100
aI5150
aI5200
aI5250
aI5300
aI5350
aI5400
aI5450
aI5500
aI5550
aI5600
aI5650
aI5700
aI5750
aI5800
aI5850
aI5900
aI5950
aI6000
aI6050
aI6100
aI6150
aI6200
aI6250
aI6300
aI6350
aI6400
aI6450
aI6500
aI6550
aI6600
aI6650
aI6700
aI6750
aI6800
aI6850
aI6900
aI6950
aI7000
aI7050
aI7100
aI7150
aI7200
aI7250
aI7300
aI7350
aI7400
aI7450
aI7500
aI7550
aI7600
aI7650
aI7700
aI7750
aI7800
aI7850
aI7900
aI7950
aI8000
aI8050
aI8100
aI8150
aI8200
aI8250
aI8300
aI8350
aI8400
aI8450
aI8500
aI8550
aI8600
aI8650
aI8700
aI8750
aI8800
aI8850
aI8900
aI8950
aI9000
aI9050
aI9100
aI9150
aI9200
aI9250
aI9300
aI9350
aI9400
aI9450
aI9500
aI9550
aI9600
aI9650
aI9700
aI9750
aI9800
aI9850
aI9900
aI9950
aI10000
aI10050
aI10100
aI10150
aI10200
aI10250
aI10300
aI10350
aI10400
aI10450
aI10500
aI10550
aI10600
aI10650
aI10700
aI10750
aI10800
aI10850
aI10900
aI10950
aI11000
aI11050
aI11100
aI11150
aI11200
aI11250
aI11300
aI11350
aI11400
aI11450
aI11500
aI11550
aI11600
aI11650
aI11700
aI11750
aI11800
aI11850
aI11900
aI11950
aI12000
aI12050
aI12100
aI12150
aI12200
aI12250
aI12300
aI12350
aI12400
aI12450
aI12500
aI12550
aI12600
aI12650
aI12700
aI12750
aI12800
aI12850
aI12900
aI12950
aI13000
aI13050
aI13100
aI13150
aI13200
aI13250
aI13300
aI13350
aI13400
aI13450
aI13500
aI13550
aI13600
aI13650
aI13700
aI13750
aI13800
aI13850
aI13900
aI13950
aI14000
aI14050
aI14100
aI14150
aI14200
aI14250
aI14300
aI14350
aI14400
aI14450
aI14500
aI14550
aI14600
aI14650
aI14700
aI14750
aI14800
aI14850
aI14900
aI14950
aI15000
aI15050
aI15100
aI15150
aI15200
aI15250
aI15300
aI15350
aI15400
aI15450
aI15500
aI15550
aI15600
aI15650
aI15700
aI15750
aI15800
aI15850
aI15900
aI15950
aI16000
aI16050
aI16100
aI16150
aI16200
aI16250
aI16300
aI16350
aI16400
aI16450
aI16500
aI16550
aI16600
aI16650
aI16700
aI16750
aI16800
aI16850
aI16900
aI16950
aI17000
aI17050
aI17100
aI17150
aI17200
aI17250
aI17300
aI17350
aI17400
aI17450
aI17500
aI17550
aI17600
aI17650
aI17700
aI17750
aI17800
aI17850
aI17900
aI17950
aI18000
aI18050
aI18100
aI18150
aI18200
aI18250
aI18300
aI18350
aI18400
aI18450
aI18500
aI18550
aI18600
aI18650
aI18700
aI18750
aI18800
aI18850
aI18900
aI18950
aI19000
aI19050
aI19100
aI19150
aI19200
aI19250
aI19300
aI19350
aI19400
aI19450
aI19500
aI19550
aI19600
aI19650
aI19700
aI19750
aI19800
aI19850
aI19900
aI19950
aI20000
asS'best_f'
p3
(lp4
cnumpy.core.multiarray
scalar
p5
(cnumpy
dtype
p6
(S'f8'
p7
I0
I1
tp8
Rp9
(I3
S'<'
p10
NNNI-1
I-1
I0
tp11
bS'0\xd3\x9aJ P\xf1?'
p12
tp13
Rp14
ag14
ag14
ag5
(g9
S'\x14\xb3?\x155N\xf1?'
p15
tp16
Rp17
ag17
ag17
ag5
(g9
S'\xb7\xfd\x9a\x9f\xed\xda\xe2?'
p18
tp19
Rp20
ag5
(g9
S'DY}\x1e\x1c\xa7\xd5?'
p21
tp22
Rp23
ag23
ag23
ag23
ag23
ag23
ag23
ag23
ag5
(g9
S'\xb4\xff\x12\x8f\xd3f\xd5?'
p24
tp25
Rp26
ag26
ag26
ag26
ag26
ag5
(g9
S'\x16\x8a\x04\n\x99\xde\xd4?'
p27
tp28
Rp29
ag29
ag29
ag29
ag29
ag5
(g9
S'\xe4\x1b\xaa\xe8i\xf0\xd3?'
p30
tp31
Rp32
ag32
ag32
ag32
ag32
ag32
ag32
ag32
ag32
ag32
ag32
ag32
ag32
ag32
ag32
ag32
ag32
ag32
ag32
ag32
ag32
ag32
ag32
ag32
ag32
ag32
ag32
ag32
ag32
ag32
ag32
ag32
ag32
ag32
ag32
ag32
ag32
ag32
ag32
ag32
ag32
ag32
ag32
ag32
ag32
ag32
ag32
ag32
ag32
ag32
ag32
ag32
ag32
ag32
ag32
ag32
ag32
ag32
ag32
ag32
ag32
ag32
ag32
ag32
ag32
ag32
ag32
ag32
ag32
ag32
ag32
ag32
ag32
ag32
ag5
(g9
S'\x91\xe3\xc1\xc2\xe0\xdd\xd3?'
p33
tp34
Rp35
ag35
ag35
ag35
ag35
ag5
(g9
S'\xc0\xab\xbb\x9cU\xc2\xd3?'
p36
tp37
Rp38
ag38
ag38
ag5
(g9
S'\xeb\xbe=GZl\xd3?'
p39
tp40
Rp41
ag41
ag41
ag41
ag41
ag41
ag41
ag41
ag41
ag41
ag41
ag41
ag41
ag41
ag41
ag41
ag41
ag41
ag41
ag41
ag41
ag41
ag41
ag41
ag41
ag41
ag41
ag5
(g9
S'b*\x05/2k\xd3?'
p42
tp43
Rp44
ag44
ag44
ag44
ag44
ag44
ag44
ag44
ag44
ag44
ag44
ag44
ag44
ag5
(g9
S'\xd3Z\x07\x0c\xadi\xd3?'
p45
tp46
Rp47
ag47
ag47
ag47
ag47
ag47
ag47
ag47
ag47
ag47
ag47
ag47
ag47
ag47
ag47
ag47
ag47
ag47
ag47
ag47
ag47
ag47
ag47
ag47
ag47
ag47
ag47
ag47
ag47
ag47
ag47
ag47
ag47
ag47
ag47
ag47
ag47
ag47
ag47
ag47
ag47
ag47
ag47
ag47
ag47
ag47
ag5
(g9
S';\xe9\xb7gMJ\xd3?'
p48
tp49
Rp50
ag50
ag50
ag50
ag50
ag50
ag50
ag50
ag50
ag50
ag50
ag50
ag50
ag50
ag50
ag50
ag50
ag50
ag50
ag50
ag50
ag50
ag50
ag50
ag50
ag50
ag50
ag50
ag50
ag50
ag50
ag50
ag50
ag50
ag50
ag50
ag50
ag50
ag50
ag50
ag50
ag50
ag50
ag50
ag50
ag50
ag50
ag50
ag50
ag50
ag50
ag50
ag50
ag50
ag50
ag50
ag50
ag50
ag50
ag50
ag50
ag50
ag50
ag50
ag50
ag50
ag50
ag50
ag50
ag50
ag50
ag50
ag50
ag50
ag50
ag50
ag50
ag50
ag50
ag50
ag50
ag50
ag50
ag50
ag50
ag50
ag50
ag50
ag50
ag50
ag50
ag50
ag50
ag50
ag50
ag50
ag50
ag50
ag50
ag50
ag50
ag50
ag50
ag50
ag50
ag50
ag50
ag50
ag50
ag50
ag50
ag50
ag50
ag50
ag50
ag50
ag50
ag50
ag50
ag50
ag50
ag50
ag50
ag50
ag50
ag50
ag50
ag50
ag50
ag50
ag50
ag50
ag50
ag50
ag50
ag50
ag50
ag50
ag50
ag50
ag50
ag50
ag50
ag50
ag50
ag50
ag50
ag50
ag50
ag50
ag50
ag50
ag50
ag50
ag50
ag50
ag50
ag50
ag50
ag50
ag50
ag50
ag50
ag50
ag50
ag50
ag50
ag50
ag50
ag50
ag50
ag50
ag50
ag50
ag50
ag50
ag50
ag50
ag50
ag50
ag50
ag50
ag50
ag50
ag50
ag50
ag50
ag50
ag50
ag50
ag50
ag50
ag50
ag50
ag50
ag50
ag50
ag50
ag50
ag50
ag50
ag50
ag50
ag50
ag50
ag50
ag50
asS'best_P'
p51
(lp52
(itree
PTree
p53
(dp54
S'root'
p55
ccopy_reg
_reconstructor
p56
(ctree
Feature
p57
c__builtin__
object
p58
Ntp59
Rp60
(dp61
S'index'
p62
I1
sS'name'
p63
S'Day'
p64
sS'l'
p65
g56
(ctree
Action
p66
g58
Ntp67
Rp68
(dp69
S'r'
p70
NsS'is_feature'
p71
I00
sS'value'
p72
S'Flood_Control'
p73
sg65
Nsbsg70
g56
(g66
g58
Ntp74
Rp75
(dp76
g70
Nsg71
I00
sg72
S'Hedge_70'
p77
sg65
NsbsS'threshold'
p78
F123.02811699849862
sg71
I01
sbsS'L'
p79
(lp80
g60
ag68
ag75
asS'N'
p81
I3
sbag53
ag53
a(itree
PTree
p82
(dp83
g55
g56
(g57
g58
Ntp84
Rp85
(dp86
g62
I1
sg70
g56
(g66
g58
Ntp87
Rp88
(dp89
g70
Nsg71
I00
sg72
g77
sg65
Nsbsg63
g64
sg78
F126.66739398230877
sg65
g56
(g66
g58
Ntp90
Rp91
(dp92
g70
Nsg71
I00
sg72
g73
sg65
Nsbsg71
I01
sbsg79
(lp93
g85
ag91
ag88
asg81
I3
sbag82
ag82
a(itree
PTree
p94
(dp95
g55
g56
(g57
g58
Ntp96
Rp97
(dp98
g62
I0
sg70
g56
(g66
g58
Ntp99
Rp100
(dp101
g70
Nsg71
I00
sg72
S'Flood_Control'
p102
sg65
Nsbsg63
S'Storage'
p103
sg78
F567.5293746959862
sg65
g56
(g66
g58
Ntp104
Rp105
(dp106
g70
Nsg71
I00
sg72
S'Hedge_80'
p107
sg65
Nsbsg71
I01
sbsg79
(lp108
g97
ag105
ag100
asg81
I3
sba(itree
PTree
p109
(dp110
g55
g56
(g57
g58
Ntp111
Rp112
(dp113
g62
I0
sg70
g56
(g66
g58
Ntp114
Rp115
(dp116
g70
Nsg71
I00
sg72
g102
sg65
Nsbsg63
g103
sg78
F546.5040281353841
sg65
g56
(g66
g58
Ntp117
Rp118
(dp119
g70
Nsg71
I00
sg72
S'Hedge_90'
p120
sg65
Nsbsg71
I01
sbsg79
(lp121
g112
ag118
ag115
asg81
I3
sbag109
ag109
ag109
ag109
ag109
ag109
ag109
a(itree
PTree
p122
(dp123
g55
g56
(g57
g58
Ntp124
Rp125
(dp126
g62
I0
sg70
g56
(g66
g58
Ntp127
Rp128
(dp129
g70
Nsg71
I00
sg72
S'Flood_Control'
p130
sg65
Nsbsg63
g103
sg78
F567.9374185363547
sg65
g56
(g66
g58
Ntp131
Rp132
(dp133
g70
Nsg71
I00
sg72
S'Hedge_90'
p134
sg65
Nsbsg71
I01
sbsg79
(lp135
g125
ag132
ag128
asg81
I3
sbag122
ag122
ag122
ag122
a(itree
PTree
p136
(dp137
g55
g56
(g57
g58
Ntp138
Rp139
(dp140
g62
I0
sg70
g56
(g66
g58
Ntp141
Rp142
(dp143
g70
Nsg71
I00
sg72
S'Flood_Control'
p144
sg65
Nsbsg63
g103
sg78
F585.6980312454339
sg65
g56
(g66
g58
Ntp145
Rp146
(dp147
g70
Nsg71
I00
sg72
S'Release_Demand'
p148
sg65
Nsbsg71
I01
sbsg79
(lp149
g139
ag146
ag142
asg81
I3
sbag136
ag136
ag136
ag136
a(itree
PTree
p150
(dp151
g55
g56
(g57
g58
Ntp152
Rp153
(dp154
g62
I0
sg70
g56
(g66
g58
Ntp155
Rp156
(dp157
g70
Nsg71
I00
sg72
S'Flood_Control'
p158
sg65
Nsbsg63
g103
sg78
F588.7160372141627
sg65
g56
(g66
g58
Ntp159
Rp160
(dp161
g70
Nsg71
I00
sg72
S'Release_Demand'
p162
sg65
Nsbsg71
I01
sbsg79
(lp163
g153
ag160
ag156
asg81
I3
sbag150
ag150
ag150
ag150
ag150
ag150
ag150
ag150
ag150
ag150
ag150
ag150
ag150
ag150
ag150
ag150
ag150
ag150
ag150
ag150
ag150
ag150
ag150
ag150
ag150
ag150
ag150
ag150
ag150
ag150
ag150
ag150
ag150
ag150
ag150
ag150
ag150
ag150
ag150
ag150
ag150
ag150
ag150
ag150
ag150
ag150
ag150
ag150
ag150
ag150
ag150
ag150
ag150
ag150
ag150
ag150
ag150
ag150
ag150
ag150
ag150
ag150
ag150
ag150
ag150
ag150
ag150
ag150
ag150
ag150
ag150
ag150
ag150
a(itree
PTree
p164
(dp165
g55
g56
(g57
g58
Ntp166
Rp167
(dp168
g62
I0
sg70
g56
(g66
g58
Ntp169
Rp170
(dp171
g70
Nsg71
I00
sg72
S'Flood_Control'
p172
sg65
Nsbsg63
g103
sg78
F595.0481516416316
sg65
g56
(g66
g58
Ntp173
Rp174
(dp175
g70
Nsg71
I00
sg72
S'Release_Demand'
p176
sg65
Nsbsg71
I01
sbsg79
(lp177
g167
ag174
ag170
asg81
I3
sbag164
ag164
ag164
ag164
a(itree
PTree
p178
(dp179
g55
g56
(g57
g58
Ntp180
Rp181
(dp182
g62
I0
sg70
g56
(g66
g58
Ntp183
Rp184
(dp185
g70
Nsg71
I00
sg72
S'Flood_Control'
p186
sg65
Nsbsg63
g103
sg78
F591.8854272196976
sg65
g56
(g66
g58
Ntp187
Rp188
(dp189
g70
Nsg71
I00
sg72
S'Release_Demand'
p190
sg65
Nsbsg71
I01
sbsg79
(lp191
g181
ag188
ag184
asg81
I3
sbag178
ag178
a(itree
PTree
p192
(dp193
g55
g56
(g57
g58
Ntp194
Rp195
(dp196
g62
I0
sg70
g56
(g66
g58
Ntp197
Rp198
(dp199
g70
Nsg71
I00
sg72
g158
sg65
Nsbsg63
g103
sg78
F589.76394115205
sg65
g56
(g66
g58
Ntp200
Rp201
(dp202
g70
Nsg71
I00
sg72
g190
sg65
Nsbsg71
I01
sbsg79
(lp203
g195
ag201
ag198
asg81
I3
sbag192
ag192
ag192
ag192
ag192
ag192
ag192
ag192
ag192
ag192
ag192
ag192
ag192
ag192
ag192
ag192
ag192
ag192
ag192
ag192
ag192
ag192
ag192
ag192
ag192
ag192
a(itree
PTree
p204
(dp205
g55
g56
(g57
g58
Ntp206
Rp207
(dp208
g62
I0
sg70
g56
(g66
g58
Ntp209
Rp210
(dp211
g70
Nsg71
I00
sg72
g186
sg65
Nsbsg63
g103
sg78
F589.7246143956426
sg65
g56
(g66
g58
Ntp212
Rp213
(dp214
g70
Nsg71
I00
sg72
S'Release_Demand'
p215
sg65
Nsbsg71
I01
sbsg79
(lp216
g207
ag213
ag210
asg81
I3
sbag204
ag204
ag204
ag204
ag204
ag204
ag204
ag204
ag204
ag204
ag204
ag204
a(itree
PTree
p217
(dp218
g55
g56
(g57
g58
Ntp219
Rp220
(dp221
g62
I0
sg70
g56
(g66
g58
Ntp222
Rp223
(dp224
g70
Nsg71
I00
sg72
g172
sg65
Nsbsg63
g103
sg78
F591.0599318008485
sg65
g56
(g66
g58
Ntp225
Rp226
(dp227
g70
Nsg71
I00
sg72
g176
sg65
Nsbsg71
I01
sbsg79
(lp228
g220
ag226
ag223
asg81
I3
sbag217
ag217
ag217
ag217
ag217
ag217
ag217
ag217
ag217
ag217
ag217
ag217
ag217
ag217
ag217
ag217
ag217
ag217
ag217
ag217
ag217
ag217
ag217
ag217
ag217
ag217
ag217
ag217
ag217
ag217
ag217
ag217
ag217
ag217
ag217
ag217
ag217
ag217
ag217
ag217
ag217
ag217
ag217
ag217
ag217
a(itree
PTree
p229
(dp230
g55
g56
(g57
g58
Ntp231
Rp232
(dp233
g62
I0
sg70
g56
(g66
g58
Ntp234
Rp235
(dp236
g70
Nsg71
I00
sg72
g172
sg65
Nsbsg63
g103
sg78
F590.9077192962228
sg65
g56
(g66
g58
Ntp237
Rp238
(dp239
g70
Nsg71
I00
sg72
S'Release_Demand'
p240
sg65
Nsbsg71
I01
sbsg79
(lp241
g232
ag238
ag235
asg81
I3
sbag229
ag229
ag229
ag229
ag229
ag229
ag229
ag229
ag229
ag229
ag229
ag229
ag229
ag229
ag229
ag229
ag229
ag229
ag229
ag229
ag229
ag229
ag229
ag229
ag229
ag229
ag229
ag229
ag229
ag229
ag229
ag229
ag229
ag229
ag229
ag229
ag229
ag229
ag229
ag229
ag229
ag229
ag229
ag229
ag229
ag229
ag229
ag229
ag229
ag229
ag229
ag229
ag229
ag229
ag229
ag229
ag229
ag229
ag229
ag229
ag229
ag229
ag229
ag229
ag229
ag229
ag229
ag229
ag229
ag229
ag229
ag229
ag229
ag229
ag229
ag229
ag229
ag229
ag229
ag229
ag229
ag229
ag229
ag229
ag229
ag229
ag229
ag229
ag229
ag229
ag229
ag229
ag229
ag229
ag229
ag229
ag229
ag229
ag229
ag229
ag229
ag229
ag229
ag229
ag229
ag229
ag229
ag229
ag229
ag229
ag229
ag229
ag229
ag229
ag229
ag229
ag229
ag229
ag229
ag229
ag229
ag229
ag229
ag229
ag229
ag229
ag229
ag229
ag229
ag229
ag229
ag229
ag229
ag229
ag229
ag229
ag229
ag229
ag229
ag229
ag229
ag229
ag229
ag229
ag229
ag229
ag229
ag229
ag229
ag229
ag229
ag229
ag229
ag229
ag229
ag229
ag229
ag229
ag229
ag229
ag229
ag229
ag229
ag229
ag229
ag229
ag229
ag229
ag229
ag229
ag229
ag229
ag229
ag229
ag229
ag229
ag229
ag229
ag229
ag229
ag229
ag229
ag229
ag229
ag229
ag229
ag229
ag229
ag229
ag229
ag229
ag229
ag229
ag229
ag229
ag229
ag229
ag229
ag229
ag229
ag229
ag229
ag229
ag229
ag229
ag229
asS'time'
p242
(lp243
I50
aI75
aI99
aI124
aI149
aI174
aI200
aI225
aI250
aI275
aI301
aI326
aI352
aI377
aI402
aI427
aI453
aI478
aI503
aI528
aI553
aI578
aI603
aI628
aI652
aI677
aI701
aI725
aI749
aI772
aI796
aI820
aI844
aI868
aI892
aI916
aI940
aI964
aI987
aI1011
aI1035
aI1059
aI1083
aI1107
aI1130
aI1154
aI1178
aI1201
aI1225
aI1249
aI1273
aI1297
aI1321
aI1345
aI1369
aI1393
aI1416
aI1440
aI1464
aI1488
aI1512
aI1536
aI1559
aI1583
aI1607
aI1631
aI1655
aI1679
aI1703
aI1727
aI1750
aI1774
aI1798
aI1822
aI1846
aI1870
aI1894
aI1918
aI1941
aI1965
aI1989
aI2013
aI2037
aI2061
aI2085
aI2109
aI2133
aI2156
aI2180
aI2204
aI2228
aI2252
aI2275
aI2299
aI2323
aI2346
aI2370
aI2394
aI2418
aI2441
aI2465
aI2489
aI2513
aI2537
aI2560
aI2584
aI2608
aI2631
aI2655
aI2679
aI2703
aI2727
aI2750
aI2774
aI2798
aI2822
aI2845
aI2869
aI2893
aI2917
aI2940
aI2964
aI2988
aI3012
aI3036
aI3059
aI3084
aI3107
aI3131
aI3155
aI3179
aI3203
aI3226
aI3250
aI3275
aI3299
aI3323
aI3347
aI3371
aI3396
aI3420
aI3444
aI3469
aI3493
aI3517
aI3542
aI3566
aI3590
aI3614
aI3639
aI3663
aI3688
aI3712
aI3737
aI3762
aI3787
aI3812
aI3836
aI3861
aI3886
aI3910
aI3934
aI3957
aI3980
aI4004
aI4027
aI4051
aI4074
aI4098
aI4122
aI4146
aI4169
aI4194
aI4217
aI4241
aI4265
aI4289
aI4312
aI4336
aI4360
aI4384
aI4407
aI4431
aI4455
aI4479
aI4502
aI4526
aI4550
aI4574
aI4597
aI4621
aI4645
aI4669
aI4693
aI4716
aI4741
aI4764
aI4788
aI4812
aI4836
aI4860
aI4883
aI4907
aI4931
aI4955
aI4979
aI5003
aI5027
aI5050
aI5074
aI5098
aI5122
aI5146
aI5170
aI5194
aI5218
aI5242
aI5266
aI5289
aI5313
aI5337
aI5361
aI5385
aI5409
aI5433
aI5457
aI5481
aI5504
aI5528
aI5552
aI5576
aI5600
aI5624
aI5648
aI5672
aI5696
aI5719
aI5743
aI5767
aI5791
aI5815
aI5839
aI5863
aI5887
aI5911
aI5934
aI5959
aI5983
aI6006
aI6030
aI6054
aI6077
aI6101
aI6125
aI6149
aI6173
aI6197
aI6220
aI6244
aI6268
aI6292
aI6316
aI6340
aI6363
aI6387
aI6411
aI6435
aI6459
aI6482
aI6506
aI6530
aI6554
aI6578
aI6602
aI6625
aI6649
aI6673
aI6697
aI6721
aI6745
aI6768
aI6792
aI6816
aI6840
aI6864
aI6888
aI6912
aI6935
aI6959
aI6983
aI7007
aI7031
aI7055
aI7078
aI7102
aI7126
aI7150
aI7174
aI7198
aI7222
aI7245
aI7269
aI7293
aI7317
aI7341
aI7365
aI7389
aI7413
aI7436
aI7460
aI7484
aI7507
aI7531
aI7555
aI7579
aI7602
aI7626
aI7650
aI7674
aI7698
aI7722
aI7746
aI7770
aI7793
aI7817
aI7841
aI7865
aI7889
aI7912
aI7936
aI7960
aI7985
aI8009
aI8032
aI8057
aI8080
aI8104
aI8128
aI8152
aI8176
aI8199
aI8223
aI8247
aI8271
aI8295
aI8318
aI8342
aI8366
aI8390
aI8414
aI8437
aI8461
aI8485
aI8509
aI8532
aI8556
aI8580
aI8604
aI8628
aI8652
aI8676
aI8700
aI8724
aI8748
aI8772
aI8796
aI8819
aI8843
aI8867
aI8891
aI8915
aI8938
aI8962
aI8986
aI9010
aI9033
aI9057
aI9081
aI9105
aI9129
aI9153
aI9177
aI9201
aI9224
aI9248
aI9272
aI9296
aI9320
aI9343
aI9367
aI9391
aI9414
aI9438
aI9462
aI9485
aI9509
aI9533
aI9557
aI9581
aI9605
as.