(dp0
S'nfe'
p1
(lp2
I50
aI100
aI150
aI200
aI250
aI300
aI350
aI400
aI450
aI500
aI550
aI600
aI650
aI700
aI750
aI800
aI850
aI900
aI950
aI1000
aI1050
aI1100
aI1150
aI1200
aI1250
aI1300
aI1350
aI1400
aI1450
aI1500
aI1550
aI1600
aI1650
aI1700
aI1750
aI1800
aI1850
aI1900
aI1950
aI2000
aI2050
aI2100
aI2150
aI2200
aI2250
aI2300
aI2350
aI2400
aI2450
aI2500
aI2550
aI2600
aI2650
aI2700
aI2750
aI2800
aI2850
aI2900
aI2950
aI3000
aI3050
aI3100
aI3150
aI3200
aI3250
aI3300
aI3350
aI3400
aI3450
aI3500
aI3550
aI3600
aI3650
aI3700
aI3750
aI3800
aI3850
aI3900
aI3950
aI4000
aI4050
aI4100
aI4150
aI4200
aI4250
aI4300
aI4350
aI4400
aI4450
aI4500
aI4550
aI4600
aI4650
aI4700
aI4750
aI4800
aI4850
aI4900
aI4950
aI5000
aI5050
aI5100
aI5150
aI5200
aI5250
aI5300
aI5350
aI5400
aI5450
aI5500
aI5550
aI5600
aI5650
aI5700
aI5750
aI5800
aI5850
aI5900
aI5950
aI6000
aI6050
aI6100
aI6150
aI6200
aI6250
aI6300
aI6350
aI6400
aI6450
aI6500
aI6550
aI6600
aI6650
aI6700
aI6750
aI6800
aI6850
aI6900
aI6950
aI7000
aI7050
aI7100
aI7150
aI7200
aI7250
aI7300
aI7350
aI7400
aI7450
aI7500
aI7550
aI7600
aI7650
aI7700
aI7750
aI7800
aI7850
aI7900
aI7950
aI8000
aI8050
aI8100
aI8150
aI8200
aI8250
aI8300
aI8350
aI8400
aI8450
aI8500
aI8550
aI8600
aI8650
aI8700
aI8750
aI8800
aI8850
aI8900
aI8950
aI9000
aI9050
aI9100
aI9150
aI9200
aI9250
aI9300
aI9350
aI9400
aI9450
aI9500
aI9550
aI9600
aI9650
aI9700
aI9750
aI9800
aI9850
aI9900
aI9950
aI10000
aI10050
aI10100
aI10150
aI10200
aI10250
aI10300
aI10350
aI10400
aI10450
aI10500
aI10550
aI10600
aI10650
aI10700
aI10750
aI10800
aI10850
aI10900
aI10950
aI11000
aI11050
aI11100
aI11150
aI11200
aI11250
aI11300
aI11350
aI11400
aI11450
aI11500
aI11550
aI11600
aI11650
aI11700
aI11750
aI11800
aI11850
aI11900
aI11950
aI12000
aI12050
aI12100
aI12150
aI12200
aI12250
aI12300
aI12350
aI12400
aI12450
aI12500
aI12550
aI12600
aI12650
aI12700
aI12750
aI12800
aI12850
aI12900
aI12950
aI13000
aI13050
aI13100
aI13150
aI13200
aI13250
aI13300
aI13350
aI13400
aI13450
aI13500
aI13550
aI13600
aI13650
aI13700
aI13750
aI13800
aI13850
aI13900
aI13950
aI14000
aI14050
aI14100
aI14150
aI14200
aI14250
aI14300
aI14350
aI14400
aI14450
aI14500
aI14550
aI14600
aI14650
aI14700
aI14750
aI14800
aI14850
aI14900
aI14950
aI15000
aI15050
aI15100
aI15150
aI15200
aI15250
aI15300
aI15350
aI15400
aI15450
aI15500
aI15550
aI15600
aI15650
aI15700
aI15750
aI15800
aI15850
aI15900
aI15950
aI16000
aI16050
aI16100
aI16150
aI16200
aI16250
aI16300
aI16350
aI16400
aI16450
aI16500
aI16550
aI16600
aI16650
aI16700
aI16750
aI16800
aI16850
aI16900
aI16950
aI17000
aI17050
aI17100
aI17150
aI17200
aI17250
aI17300
aI17350
aI17400
aI17450
aI17500
aI17550
aI17600
aI17650
aI17700
aI17750
aI17800
aI17850
aI17900
aI17950
aI18000
aI18050
aI18100
aI18150
aI18200
aI18250
aI18300
aI18350
aI18400
aI18450
aI18500
aI18550
aI18600
aI18650
aI18700
aI18750
aI18800
aI18850
aI18900
aI18950
aI19000
aI19050
aI19100
aI19150
aI19200
aI19250
aI19300
aI19350
aI19400
aI19450
aI19500
aI19550
aI19600
aI19650
aI19700
aI19750
aI19800
aI19850
aI19900
aI19950
aI20000
asS'best_f'
p3
(lp4
cnumpy.core.multiarray
scalar
p5
(cnumpy
dtype
p6
(S'f8'
p7
I0
I1
tp8
Rp9
(I3
S'<'
p10
NNNI-1
I-1
I0
tp11
bS'h\x85\xcd\xda\x04\xe5\xfc?'
p12
tp13
Rp14
ag5
(g9
S'\xc0\x9a\xea@OW\xfc?'
p15
tp16
Rp17
ag5
(g9
S'\x12v\xadh\xc1P\xf1?'
p18
tp19
Rp20
ag20
ag20
ag5
(g9
S'U7Qc\x11\xa7\xf0?'
p21
tp22
Rp23
ag5
(g9
S'\xa0\x11b\x87\x0b\xc0\xd5?'
p24
tp25
Rp26
ag26
ag26
ag5
(g9
S'\xfe\x8b\x07TT\x85\xd3?'
p27
tp28
Rp29
ag29
ag29
ag29
ag29
ag29
ag29
ag29
ag29
ag29
ag29
ag29
ag29
ag29
ag29
ag29
ag29
ag29
ag29
ag29
ag29
ag29
ag29
ag29
ag29
ag29
ag29
ag29
ag29
ag29
ag29
ag29
ag5
(g9
S'\xeb\xbe=GZl\xd3?'
p30
tp31
Rp32
ag32
ag32
ag32
ag32
ag32
ag32
ag32
ag32
ag32
ag32
ag32
ag32
ag32
ag32
ag32
ag32
ag32
ag32
ag32
ag32
ag32
ag32
ag32
ag32
ag32
ag32
ag32
ag32
ag32
ag32
ag32
ag32
ag32
ag32
ag32
ag32
ag32
ag32
ag32
ag32
ag32
ag32
ag32
ag32
ag32
ag32
ag32
ag32
ag32
ag32
ag32
ag32
ag32
ag32
ag32
ag32
ag32
ag32
ag32
ag32
ag32
ag32
ag32
ag5
(g9
S'\xc2\xf1\x87\xea\x0fk\xd3?'
p33
tp34
Rp35
ag35
ag35
ag35
ag35
ag35
ag35
ag35
ag5
(g9
S'\xc8\xaa\xceg]i\xd3?'
p36
tp37
Rp38
ag38
ag38
ag38
ag38
ag38
ag38
ag38
ag38
ag38
ag38
ag38
ag38
ag38
ag38
ag38
ag38
ag38
ag38
ag38
ag38
ag38
ag38
ag38
ag38
ag38
ag38
ag38
ag38
ag38
ag38
ag38
ag38
ag38
ag38
ag38
ag38
ag38
ag38
ag38
ag38
ag38
ag38
ag38
ag38
ag38
ag38
ag38
ag38
ag38
ag38
ag38
ag38
ag38
ag38
ag38
ag38
ag38
ag38
ag38
ag38
ag38
ag38
ag38
ag38
ag38
ag38
ag38
ag38
ag38
ag38
ag38
ag38
ag38
ag38
ag38
ag38
ag38
ag38
ag38
ag38
ag38
ag38
ag38
ag38
ag38
ag38
ag38
ag38
ag38
ag38
ag38
ag38
ag38
ag38
ag38
ag38
ag38
ag38
ag38
ag38
ag38
ag38
ag38
ag38
ag38
ag38
ag38
ag38
ag38
ag38
ag38
ag38
ag38
ag38
ag38
ag38
ag38
ag38
ag38
ag38
ag38
ag38
ag38
ag38
ag38
ag38
ag38
ag38
ag38
ag38
ag38
ag38
ag38
ag38
ag38
ag38
ag38
ag38
ag38
ag38
ag38
ag38
ag38
ag38
ag38
ag38
ag38
ag38
ag38
ag38
ag38
ag38
ag38
ag38
ag38
ag38
ag38
ag38
ag38
ag38
ag38
ag38
ag38
ag38
ag38
ag38
ag38
ag38
ag38
ag38
ag38
ag38
ag38
ag38
ag38
ag38
ag38
ag38
ag38
ag38
ag38
ag38
ag38
ag38
ag38
ag38
ag38
ag38
ag38
ag38
ag38
ag38
ag38
ag38
ag38
ag38
ag38
ag38
ag38
ag38
ag38
ag38
ag38
ag38
ag38
ag38
ag38
ag38
ag38
ag38
ag38
ag38
ag38
ag38
ag38
ag38
ag38
ag38
ag38
ag38
ag38
ag38
ag38
ag38
ag38
ag38
ag38
ag38
ag38
ag38
ag38
ag38
ag38
ag38
ag38
ag38
ag38
ag38
ag38
ag38
ag38
ag38
ag38
ag38
ag38
ag38
ag38
ag38
ag38
ag38
ag38
ag38
ag38
ag38
ag38
ag38
ag38
ag38
ag38
ag38
ag38
ag38
ag38
ag38
ag38
ag38
ag38
ag38
ag38
ag38
ag5
(g9
S';\xe9\xb7gMJ\xd3?'
p39
tp40
Rp41
ag41
ag41
ag41
ag41
ag41
ag41
ag41
ag41
ag41
ag41
ag41
ag41
ag41
ag41
ag41
asS'best_P'
p42
(lp43
(itree
PTree
p44
(dp45
S'root'
p46
ccopy_reg
_reconstructor
p47
(ctree
Feature
p48
c__builtin__
object
p49
Ntp50
Rp51
(dp52
S'index'
p53
I1
sS'name'
p54
S'Day'
p55
sS'l'
p56
g47
(g48
g49
Ntp57
Rp58
(dp59
g53
I0
sg54
S'Storage'
p60
sg56
g47
(ctree
Action
p61
g49
Ntp62
Rp63
(dp64
S'r'
p65
NsS'is_feature'
p66
I00
sS'value'
p67
S'Hedge_90'
p68
sg56
Nsbsg65
g47
(g61
g49
Ntp69
Rp70
(dp71
g65
Nsg66
I00
sg67
S'Flood_Control'
p72
sg56
NsbsS'threshold'
p73
F377.53180612367134
sg66
I01
sbsg65
g47
(g48
g49
Ntp74
Rp75
(dp76
g53
I0
sg54
g60
sg56
g47
(g61
g49
Ntp77
Rp78
(dp79
g65
Nsg66
I00
sg67
S'Hedge_60'
p80
sg56
Nsbsg65
g47
(g61
g49
Ntp81
Rp82
(dp83
g65
Nsg66
I00
sg67
S'Hedge_90'
p84
sg56
Nsbsg73
F701.9345905358451
sg66
I01
sbsg73
F125.47706299673575
sg66
I01
sbsS'L'
p85
(lp86
g51
ag58
ag63
ag70
ag75
ag78
ag82
asS'N'
p87
I7
sba(itree
PTree
p88
(dp89
g46
g47
(g48
g49
Ntp90
Rp91
(dp92
g53
I1
sg65
g47
(g61
g49
Ntp93
Rp94
(dp95
g65
Nsg66
I00
sg67
S'Hedge_70'
p96
sg56
Nsbsg54
g55
sg73
F266.12600387108705
sg56
g47
(g48
g49
Ntp97
Rp98
(dp99
g53
I0
sg65
g47
(g61
g49
Ntp100
Rp101
(dp102
g65
Nsg66
I00
sg67
S'Hedge_50'
p103
sg56
Nsbsg54
g60
sg73
F848.4800604218805
sg56
g47
(g61
g49
Ntp104
Rp105
(dp106
g65
Nsg66
I00
sg67
S'Flood_Control'
p107
sg56
Nsbsg66
I01
sbsg66
I01
sbsg85
(lp108
g91
ag98
ag105
ag101
ag94
asg87
I5
sba(itree
PTree
p109
(dp110
g46
g47
(g48
g49
Ntp111
Rp112
(dp113
g53
I0
sg65
g47
(g61
g49
Ntp114
Rp115
(dp116
g65
Nsg66
I00
sg67
S'Flood_Control'
p117
sg56
Nsbsg54
g60
sg73
F440.59142037410606
sg56
g47
(g61
g49
Ntp118
Rp119
(dp120
g65
Nsg66
I00
sg67
S'Hedge_70'
p121
sg56
Nsbsg66
I01
sbsg85
(lp122
g112
ag119
ag115
asg87
I3
sbag109
ag109
a(itree
PTree
p123
(dp124
g46
g47
(g48
g49
Ntp125
Rp126
(dp127
g53
I1
sg65
g47
(g61
g49
Ntp128
Rp129
(dp130
g65
Nsg66
I00
sg67
S'Hedge_90'
p131
sg56
Nsbsg54
g55
sg73
F193.25690283340464
sg56
g47
(g61
g49
Ntp132
Rp133
(dp134
g65
Nsg66
I00
sg67
S'Flood_Control'
p135
sg56
Nsbsg66
I01
sbsg85
(lp136
g126
ag133
ag129
asg87
I3
sba(itree
PTree
p137
(dp138
g46
g47
(g48
g49
Ntp139
Rp140
(dp141
g53
I0
sg65
g47
(g61
g49
Ntp142
Rp143
(dp144
g65
Nsg66
I00
sg67
g72
sg56
Nsbsg54
g60
sg73
F565.2978529710325
sg56
g47
(g61
g49
Ntp145
Rp146
(dp147
g65
Nsg66
I00
sg67
S'Hedge_90'
p148
sg56
Nsbsg66
I01
sbsg85
(lp149
g140
ag146
ag143
asg87
I3
sbag137
ag137
a(itree
PTree
p150
(dp151
g46
g47
(g48
g49
Ntp152
Rp153
(dp154
g53
I0
sg65
g47
(g61
g49
Ntp155
Rp156
(dp157
g65
Nsg66
I00
sg67
S'Flood_Control'
p158
sg56
Nsbsg54
g60
sg73
F595.3492891827021
sg56
g47
(g61
g49
Ntp159
Rp160
(dp161
g65
Nsg66
I00
sg67
S'Release_Demand'
p162
sg56
Nsbsg66
I01
sbsg85
(lp163
g153
ag160
ag156
asg87
I3
sbag150
ag150
ag150
ag150
ag150
ag150
ag150
ag150
ag150
ag150
ag150
ag150
ag150
ag150
ag150
ag150
ag150
ag150
ag150
ag150
ag150
ag150
ag150
ag150
ag150
ag150
ag150
ag150
ag150
ag150
ag150
a(itree
PTree
p164
(dp165
g46
g47
(g48
g49
Ntp166
Rp167
(dp168
g53
I0
sg65
g47
(g61
g49
Ntp169
Rp170
(dp171
g65
Nsg66
I00
sg67
g158
sg56
Nsbsg54
g60
sg73
F589.8159870235885
sg56
g47
(g61
g49
Ntp172
Rp173
(dp174
g65
Nsg66
I00
sg67
g162
sg56
Nsbsg66
I01
sbsg85
(lp175
g167
ag173
ag170
asg87
I3
sbag164
ag164
ag164
ag164
ag164
ag164
ag164
ag164
ag164
ag164
ag164
ag164
ag164
ag164
ag164
ag164
ag164
ag164
ag164
ag164
ag164
ag164
ag164
ag164
ag164
ag164
ag164
ag164
ag164
ag164
ag164
ag164
ag164
ag164
ag164
ag164
ag164
ag164
ag164
ag164
ag164
ag164
ag164
ag164
ag164
ag164
ag164
ag164
ag164
ag164
ag164
ag164
ag164
ag164
ag164
ag164
ag164
ag164
ag164
ag164
ag164
ag164
ag164
a(itree
PTree
p176
(dp177
g46
g47
(g48
g49
Ntp178
Rp179
(dp180
g53
I0
sg65
g47
(g61
g49
Ntp181
Rp182
(dp183
g65
Nsg66
I00
sg67
S'Flood_Control'
p184
sg56
Nsbsg54
g60
sg73
F589.6756105762406
sg56
g47
(g61
g49
Ntp185
Rp186
(dp187
g65
Nsg66
I00
sg67
S'Release_Demand'
p188
sg56
Nsbsg66
I01
sbsg85
(lp189
g179
ag186
ag182
asg87
I3
sbag176
ag176
ag176
ag176
ag176
ag176
ag176
a(itree
PTree
p190
(dp191
g46
g47
(g48
g49
Ntp192
Rp193
(dp194
g53
I0
sg65
g47
(g61
g49
Ntp195
Rp196
(dp197
g65
Nsg66
I00
sg67
S'Flood_Control'
p198
sg56
Nsbsg54
g60
sg73
F590.920126731794
sg56
g47
(g61
g49
Ntp199
Rp200
(dp201
g65
Nsg66
I00
sg67
S'Release_Demand'
p202
sg56
Nsbsg66
I01
sbsg85
(lp203
g193
ag200
ag196
asg87
I3
sbag190
ag190
ag190
ag190
ag190
ag190
ag190
ag190
ag190
ag190
ag190
ag190
ag190
ag190
ag190
ag190
ag190
ag190
ag190
ag190
ag190
ag190
ag190
ag190
ag190
ag190
ag190
ag190
ag190
ag190
ag190
ag190
ag190
ag190
ag190
ag190
ag190
ag190
ag190
ag190
ag190
ag190
ag190
ag190
ag190
ag190
ag190
ag190
ag190
ag190
ag190
ag190
ag190
ag190
ag190
ag190
ag190
ag190
ag190
ag190
ag190
ag190
ag190
ag190
ag190
ag190
ag190
ag190
ag190
ag190
ag190
ag190
ag190
ag190
ag190
ag190
ag190
ag190
ag190
ag190
ag190
ag190
ag190
ag190
ag190
ag190
ag190
ag190
ag190
ag190
ag190
ag190
ag190
ag190
ag190
ag190
ag190
ag190
ag190
ag190
ag190
ag190
ag190
ag190
ag190
ag190
ag190
ag190
ag190
ag190
ag190
ag190
ag190
ag190
ag190
ag190
ag190
ag190
ag190
ag190
ag190
ag190
ag190
ag190
ag190
ag190
ag190
ag190
ag190
ag190
ag190
ag190
ag190
ag190
ag190
ag190
ag190
ag190
ag190
ag190
ag190
ag190
ag190
ag190
ag190
ag190
ag190
ag190
ag190
ag190
ag190
ag190
ag190
ag190
ag190
ag190
ag190
ag190
ag190
ag190
ag190
ag190
ag190
ag190
ag190
ag190
ag190
ag190
ag190
ag190
ag190
ag190
ag190
ag190
ag190
ag190
ag190
ag190
ag190
ag190
ag190
ag190
ag190
ag190
ag190
ag190
ag190
ag190
ag190
ag190
ag190
ag190
ag190
ag190
ag190
ag190
ag190
ag190
ag190
ag190
ag190
ag190
ag190
ag190
ag190
ag190
ag190
ag190
ag190
ag190
ag190
ag190
ag190
ag190
ag190
ag190
ag190
ag190
ag190
ag190
ag190
ag190
ag190
ag190
ag190
ag190
ag190
ag190
ag190
ag190
ag190
ag190
ag190
ag190
ag190
ag190
ag190
ag190
ag190
ag190
ag190
ag190
ag190
ag190
ag190
ag190
ag190
ag190
ag190
ag190
ag190
ag190
ag190
ag190
ag190
ag190
ag190
ag190
ag190
ag190
ag190
ag190
ag190
ag190
ag190
ag190
ag190
ag190
ag190
ag190
a(itree
PTree
p204
(dp205
g46
g47
(g48
g49
Ntp206
Rp207
(dp208
g53
I0
sg65
g47
(g61
g49
Ntp209
Rp210
(dp211
g65
Nsg66
I00
sg67
g198
sg56
Nsbsg54
g60
sg73
F590.905735733699
sg56
g47
(g61
g49
Ntp212
Rp213
(dp214
g65
Nsg66
I00
sg67
g202
sg56
Nsbsg66
I01
sbsg85
(lp215
g207
ag213
ag210
asg87
I3
sbag204
ag204
ag204
ag204
ag204
ag204
ag204
ag204
ag204
ag204
ag204
ag204
ag204
ag204
ag204
asS'time'
p216
(lp217
I52
aI77
aI103
aI129
aI154
aI180
aI205
aI231
aI256
aI281
aI306
aI331
aI356
aI381
aI406
aI431
aI456
aI480
aI505
aI530
aI555
aI579
aI604
aI629
aI653
aI678
aI702
aI727
aI751
aI776
aI800
aI824
aI849
aI873
aI898
aI922
aI947
aI971
aI995
aI1019
aI1044
aI1068
aI1092
aI1117
aI1141
aI1165
aI1189
aI1213
aI1237
aI1261
aI1286
aI1310
aI1334
aI1358
aI1383
aI1407
aI1431
aI1456
aI1480
aI1505
aI1529
aI1553
aI1578
aI1602
aI1626
aI1651
aI1675
aI1699
aI1724
aI1748
aI1772
aI1796
aI1820
aI1845
aI1869
aI1893
aI1918
aI1942
aI1967
aI1991
aI2015
aI2039
aI2063
aI2087
aI2112
aI2136
aI2160
aI2184
aI2209
aI2233
aI2257
aI2281
aI2305
aI2330
aI2354
aI2378
aI2402
aI2427
aI2451
aI2475
aI2499
aI2523
aI2547
aI2571
aI2595
aI2620
aI2644
aI2668
aI2692
aI2716
aI2741
aI2765
aI2789
aI2814
aI2838
aI2862
aI2886
aI2911
aI2935
aI2959
aI2984
aI3008
aI3032
aI3056
aI3080
aI3105
aI3129
aI3153
aI3177
aI3201
aI3226
aI3250
aI3274
aI3299
aI3323
aI3347
aI3371
aI3396
aI3420
aI3444
aI3468
aI3492
aI3517
aI3541
aI3566
aI3590
aI3614
aI3638
aI3663
aI3687
aI3711
aI3735
aI3760
aI3784
aI3808
aI3832
aI3857
aI3881
aI3905
aI3929
aI3954
aI3978
aI4002
aI4027
aI4051
aI4075
aI4099
aI4123
aI4147
aI4171
aI4195
aI4220
aI4244
aI4268
aI4292
aI4317
aI4341
aI4365
aI4389
aI4413
aI4437
aI4462
aI4486
aI4510
aI4535
aI4559
aI4583
aI4607
aI4631
aI4656
aI4680
aI4704
aI4728
aI4752
aI4777
aI4801
aI4825
aI4849
aI4873
aI4898
aI4922
aI4946
aI4970
aI4994
aI5018
aI5042
aI5067
aI5091
aI5115
aI5139
aI5163
aI5188
aI5212
aI5236
aI5260
aI5284
aI5309
aI5332
aI5357
aI5381
aI5405
aI5429
aI5453
aI5477
aI5501
aI5525
aI5550
aI5574
aI5598
aI5622
aI5646
aI5670
aI5695
aI5719
aI5743
aI5768
aI5792
aI5817
aI5841
aI5866
aI5890
aI5914
aI5939
aI5963
aI5987
aI6011
aI6036
aI6060
aI6084
aI6108
aI6133
aI6157
aI6181
aI6206
aI6230
aI6255
aI6279
aI6304
aI6328
aI6352
aI6376
aI6401
aI6425
aI6450
aI6474
aI6498
aI6523
aI6547
aI6571
aI6596
aI6620
aI6644
aI6669
aI6693
aI6717
aI6741
aI6766
aI6791
aI6815
aI6839
aI6864
aI6888
aI6912
aI6936
aI6961
aI6985
aI7009
aI7033
aI7058
aI7082
aI7106
aI7130
aI7155
aI7179
aI7203
aI7228
aI7252
aI7276
aI7300
aI7325
aI7349
aI7373
aI7398
aI7422
aI7447
aI7471
aI7495
aI7519
aI7544
aI7569
aI7593
aI7617
aI7642
aI7666
aI7690
aI7715
aI7739
aI7763
aI7787
aI7812
aI7836
aI7860
aI7884
aI7909
aI7933
aI7957
aI7982
aI8006
aI8030
aI8054
aI8079
aI8103
aI8127
aI8152
aI8177
aI8201
aI8226
aI8250
aI8275
aI8299
aI8324
aI8348
aI8373
aI8397
aI8422
aI8447
aI8471
aI8496
aI8520
aI8545
aI8570
aI8595
aI8619
aI8644
aI8669
aI8693
aI8718
aI8742
aI8767
aI8791
aI8815
aI8839
aI8863
aI8887
aI8911
aI8935
aI8959
aI8983
aI9007
aI9032
aI9056
aI9080
aI9104
aI9128
aI9152
aI9177
aI9201
aI9225
aI9249
aI9274
aI9298
aI9322
aI9346
aI9370
aI9394
aI9419
aI9443
aI9467
aI9491
aI9515
aI9539
aI9563
aI9587
aI9611
aI9635
aI9660
aI9684
aI9708
aI9732
aI9756
as.