(dp0
S'nfe'
p1
(lp2
I50
aI100
aI150
aI200
aI250
aI300
aI350
aI400
aI450
aI500
aI550
aI600
aI650
aI700
aI750
aI800
aI850
aI900
aI950
aI1000
aI1050
aI1100
aI1150
aI1200
aI1250
aI1300
aI1350
aI1400
aI1450
aI1500
aI1550
aI1600
aI1650
aI1700
aI1750
aI1800
aI1850
aI1900
aI1950
aI2000
aI2050
aI2100
aI2150
aI2200
aI2250
aI2300
aI2350
aI2400
aI2450
aI2500
aI2550
aI2600
aI2650
aI2700
aI2750
aI2800
aI2850
aI2900
aI2950
aI3000
aI3050
aI3100
aI3150
aI3200
aI3250
aI3300
aI3350
aI3400
aI3450
aI3500
aI3550
aI3600
aI3650
aI3700
aI3750
aI3800
aI3850
aI3900
aI3950
aI4000
aI4050
aI4100
aI4150
aI4200
aI4250
aI4300
aI4350
aI4400
aI4450
aI4500
aI4550
aI4600
aI4650
aI4700
aI4750
aI4800
aI4850
aI4900
aI4950
aI5000
aI5050
aI5100
aI5150
aI5200
aI5250
aI5300
aI5350
aI5400
aI5450
aI5500
aI5550
aI5600
aI5650
aI5700
aI5750
aI5800
aI5850
aI5900
aI5950
aI6000
aI6050
aI6100
aI6150
aI6200
aI6250
aI6300
aI6350
aI6400
aI6450
aI6500
aI6550
aI6600
aI6650
aI6700
aI6750
aI6800
aI6850
aI6900
aI6950
aI7000
aI7050
aI7100
aI7150
aI7200
aI7250
aI7300
aI7350
aI7400
aI7450
aI7500
aI7550
aI7600
aI7650
aI7700
aI7750
aI7800
aI7850
aI7900
aI7950
aI8000
aI8050
aI8100
aI8150
aI8200
aI8250
aI8300
aI8350
aI8400
aI8450
aI8500
aI8550
aI8600
aI8650
aI8700
aI8750
aI8800
aI8850
aI8900
aI8950
aI9000
aI9050
aI9100
aI9150
aI9200
aI9250
aI9300
aI9350
aI9400
aI9450
aI9500
aI9550
aI9600
aI9650
aI9700
aI9750
aI9800
aI9850
aI9900
aI9950
aI10000
aI10050
aI10100
aI10150
aI10200
aI10250
aI10300
aI10350
aI10400
aI10450
aI10500
aI10550
aI10600
aI10650
aI10700
aI10750
aI10800
aI10850
aI10900
aI10950
aI11000
aI11050
aI11100
aI11150
aI11200
aI11250
aI11300
aI11350
aI11400
aI11450
aI11500
aI11550
aI11600
aI11650
aI11700
aI11750
aI11800
aI11850
aI11900
aI11950
aI12000
aI12050
aI12100
aI12150
aI12200
aI12250
aI12300
aI12350
aI12400
aI12450
aI12500
aI12550
aI12600
aI12650
aI12700
aI12750
aI12800
aI12850
aI12900
aI12950
aI13000
aI13050
aI13100
aI13150
aI13200
aI13250
aI13300
aI13350
aI13400
aI13450
aI13500
aI13550
aI13600
aI13650
aI13700
aI13750
aI13800
aI13850
aI13900
aI13950
aI14000
aI14050
aI14100
aI14150
aI14200
aI14250
aI14300
aI14350
aI14400
aI14450
aI14500
aI14550
aI14600
aI14650
aI14700
aI14750
aI14800
aI14850
aI14900
aI14950
aI15000
aI15050
aI15100
aI15150
aI15200
aI15250
aI15300
aI15350
aI15400
aI15450
aI15500
aI15550
aI15600
aI15650
aI15700
aI15750
aI15800
aI15850
aI15900
aI15950
aI16000
aI16050
aI16100
aI16150
aI16200
aI16250
aI16300
aI16350
aI16400
aI16450
aI16500
aI16550
aI16600
aI16650
aI16700
aI16750
aI16800
aI16850
aI16900
aI16950
aI17000
aI17050
aI17100
aI17150
aI17200
aI17250
aI17300
aI17350
aI17400
aI17450
aI17500
aI17550
aI17600
aI17650
aI17700
aI17750
aI17800
aI17850
aI17900
aI17950
aI18000
aI18050
aI18100
aI18150
aI18200
aI18250
aI18300
aI18350
aI18400
aI18450
aI18500
aI18550
aI18600
aI18650
aI18700
aI18750
aI18800
aI18850
aI18900
aI18950
aI19000
aI19050
aI19100
aI19150
aI19200
aI19250
aI19300
aI19350
aI19400
aI19450
aI19500
aI19550
aI19600
aI19650
aI19700
aI19750
aI19800
aI19850
aI19900
aI19950
aI20000
asS'best_f'
p3
(lp4
cnumpy.core.multiarray
scalar
p5
(cnumpy
dtype
p6
(S'f8'
p7
I0
I1
tp8
Rp9
(I3
S'<'
p10
NNNI-1
I-1
I0
tp11
bS'\x96\r\x98\x00\x93\x85\xf3?'
p12
tp13
Rp14
ag5
(g9
S'9\xedfYa|\xf1?'
p15
tp16
Rp17
ag5
(g9
S'\xc7\xda\x1c\x14\xcb;\xef?'
p18
tp19
Rp20
ag5
(g9
S'B\xedR?\xd6\xea\xdf?'
p21
tp22
Rp23
ag23
ag23
ag23
ag5
(g9
S'\x82\x80\x1ec\x85\xa5\xdf?'
p24
tp25
Rp26
ag26
ag5
(g9
S'\x86\xc9\x00~z\x97\xdf?'
p27
tp28
Rp29
ag29
ag5
(g9
S'Cr\xe9\x04\xfa\xba\xd9?'
p30
tp31
Rp32
ag32
ag5
(g9
S'\xb1\x9a\x89\xde\xd4b\xd5?'
p33
tp34
Rp35
ag35
ag35
ag35
ag35
ag35
ag35
ag35
ag35
ag35
ag35
ag35
ag35
ag35
ag35
ag35
ag35
ag35
ag35
ag35
ag35
ag35
ag35
ag35
ag35
ag35
ag5
(g9
S'L\xa1\xbb\xc6.\xb1\xd4?'
p36
tp37
Rp38
ag38
ag38
ag38
ag38
ag38
ag38
ag5
(g9
S'-\xabjz\xaf\xa7\xd4?'
p39
tp40
Rp41
ag41
ag41
ag41
ag41
ag41
ag41
ag41
ag41
ag41
ag41
ag41
ag41
ag41
ag41
ag41
ag41
ag41
ag41
ag41
ag41
ag41
ag41
ag41
ag41
ag41
ag41
ag41
ag41
ag41
ag41
ag41
ag41
ag5
(g9
S'}\xf4\x07B\xfd\t\xd4?'
p42
tp43
Rp44
ag44
ag44
ag5
(g9
S'\x03_\x87\xda\x15\xc7\xd3?'
p45
tp46
Rp47
ag47
ag47
ag47
ag47
ag47
ag47
ag47
ag47
ag47
ag47
ag47
ag47
ag47
ag47
ag5
(g9
S'l\xab\xbb\x9cU\xc2\xd3?'
p48
tp49
Rp50
ag50
ag50
ag50
ag50
ag50
ag50
ag50
ag50
ag50
ag50
ag50
ag50
ag5
(g9
S'\xfe\x8b\x07TT\x85\xd3?'
p51
tp52
Rp53
ag53
ag53
ag53
ag53
ag53
ag53
ag53
ag53
ag53
ag53
ag53
ag53
ag53
ag53
ag53
ag53
ag53
ag53
ag53
ag5
(g9
S'\xeb\xbe=GZl\xd3?'
p54
tp55
Rp56
ag56
ag56
ag56
ag56
ag56
ag56
ag56
ag56
ag56
ag56
ag56
ag56
ag56
ag56
ag56
ag56
ag56
ag56
ag56
ag56
ag56
ag56
ag56
ag56
ag56
ag56
ag56
ag56
ag56
ag56
ag56
ag56
ag56
ag56
ag56
ag56
ag56
ag56
ag56
ag56
ag56
ag56
ag56
ag56
ag56
ag56
ag56
ag56
ag56
ag56
ag56
ag56
ag56
ag56
ag56
ag56
ag56
ag56
ag56
ag56
ag56
ag56
ag56
ag56
ag56
ag56
ag56
ag56
ag56
ag56
ag56
ag56
ag56
ag56
ag56
ag56
ag56
ag56
ag56
ag56
ag56
ag56
ag56
ag56
ag56
ag56
ag56
ag56
ag56
ag56
ag56
ag56
ag56
ag56
ag56
ag56
ag56
ag56
ag56
ag56
ag56
ag56
ag56
ag56
ag56
ag56
ag56
ag56
ag56
ag56
ag56
ag56
ag56
ag56
ag56
ag56
ag56
ag56
ag56
ag56
ag56
ag56
ag56
ag56
ag56
ag56
ag56
ag56
ag56
ag56
ag56
ag56
ag56
ag56
ag56
ag56
ag56
ag56
ag56
ag56
ag56
ag56
ag56
ag56
ag56
ag56
ag56
ag56
ag56
ag56
ag56
ag56
ag56
ag56
ag56
ag56
ag56
ag56
ag56
ag56
ag56
ag56
ag56
ag56
ag56
ag56
ag56
ag56
ag56
ag56
ag56
ag56
ag56
ag56
ag56
ag56
ag56
ag56
ag56
ag56
ag56
ag56
ag56
ag56
ag56
ag56
ag56
ag56
ag56
ag56
ag56
ag56
ag56
ag56
ag56
ag56
ag56
ag56
ag56
ag56
ag56
ag56
ag56
ag56
ag56
ag56
ag56
ag56
ag56
ag56
ag56
ag56
ag56
ag56
ag56
ag56
ag56
ag56
ag56
ag56
ag56
ag5
(g9
S'\xd3Z\x07\x0c\xadi\xd3?'
p57
tp58
Rp59
ag59
ag59
ag59
ag59
ag59
ag59
ag59
ag59
ag59
ag59
ag59
ag59
ag59
ag59
ag59
ag59
ag59
ag59
ag59
ag59
ag59
ag59
ag59
ag59
ag59
ag59
ag59
ag59
ag59
ag59
ag59
ag59
ag59
ag59
ag59
ag59
ag59
ag59
ag59
ag59
ag59
ag59
ag59
ag59
ag59
ag59
ag59
asS'best_P'
p60
(lp61
(itree
PTree
p62
(dp63
S'root'
p64
ccopy_reg
_reconstructor
p65
(ctree
Feature
p66
c__builtin__
object
p67
Ntp68
Rp69
(dp70
S'index'
p71
I0
sS'name'
p72
S'Storage'
p73
sS'l'
p74
g65
(ctree
Action
p75
g67
Ntp76
Rp77
(dp78
S'r'
p79
NsS'is_feature'
p80
I00
sS'value'
p81
S'Hedge_70'
p82
sg74
Nsbsg79
g65
(g75
g67
Ntp83
Rp84
(dp85
g79
Nsg80
I00
sg81
S'Flood_Control'
p86
sg74
NsbsS'threshold'
p87
F487.00273304895916
sg80
I01
sbsS'L'
p88
(lp89
g69
ag77
ag84
asS'N'
p90
I3
sba(itree
PTree
p91
(dp92
g64
g65
(g66
g67
Ntp93
Rp94
(dp95
g71
I0
sg79
g65
(g75
g67
Ntp96
Rp97
(dp98
g79
Nsg80
I00
sg81
g86
sg74
Nsbsg72
g73
sg87
F443.0329860456707
sg74
g65
(g75
g67
Ntp99
Rp100
(dp101
g79
Nsg80
I00
sg81
g82
sg74
Nsbsg80
I01
sbsg88
(lp102
g94
ag100
ag97
asg90
I3
sba(itree
PTree
p103
(dp104
g64
g65
(g66
g67
Ntp105
Rp106
(dp107
g71
I1
sg79
g65
(g75
g67
Ntp108
Rp109
(dp110
g79
Nsg80
I00
sg81
S'Hedge_80'
p111
sg74
Nsbsg72
S'Day'
p112
sg87
F185.35814476377098
sg74
g65
(g75
g67
Ntp113
Rp114
(dp115
g79
Nsg80
I00
sg81
S'Flood_Control'
p116
sg74
Nsbsg80
I01
sbsg88
(lp117
g106
ag114
ag109
asg90
I3
sba(itree
PTree
p118
(dp119
g64
g65
(g66
g67
Ntp120
Rp121
(dp122
g71
I1
sg79
g65
(g75
g67
Ntp123
Rp124
(dp125
g79
Nsg80
I00
sg81
S'Hedge_90'
p126
sg74
Nsbsg72
g112
sg87
F99.30850481805815
sg74
g65
(g75
g67
Ntp127
Rp128
(dp129
g79
Nsg80
I00
sg81
S'Flood_Control'
p130
sg74
Nsbsg80
I01
sbsg88
(lp131
g121
ag128
ag124
asg90
I3
sbag118
ag118
ag118
a(itree
PTree
p132
(dp133
g64
g65
(g66
g67
Ntp134
Rp135
(dp136
g71
I1
sg79
g65
(g75
g67
Ntp137
Rp138
(dp139
g79
Nsg80
I00
sg81
S'Hedge_90'
p140
sg74
Nsbsg72
g112
sg87
F111.11209874679518
sg74
g65
(g75
g67
Ntp141
Rp142
(dp143
g79
Nsg80
I00
sg81
S'Flood_Control'
p144
sg74
Nsbsg80
I01
sbsg88
(lp145
g135
ag142
ag138
asg90
I3
sbag132
a(itree
PTree
p146
(dp147
g64
g65
(g66
g67
Ntp148
Rp149
(dp150
g71
I1
sg79
g65
(g75
g67
Ntp151
Rp152
(dp153
g79
Nsg80
I00
sg81
S'Hedge_90'
p154
sg74
Nsbsg72
g112
sg87
F113.11605224268395
sg74
g65
(g75
g67
Ntp155
Rp156
(dp157
g79
Nsg80
I00
sg81
S'Flood_Control'
p158
sg74
Nsbsg80
I01
sbsg88
(lp159
g149
ag156
ag152
asg90
I3
sbag146
a(itree
PTree
p160
(dp161
g64
g65
(g66
g67
Ntp162
Rp163
(dp164
g71
I0
sg79
g65
(g75
g67
Ntp165
Rp166
(dp167
g79
Nsg80
I00
sg81
S'Flood_Control'
p168
sg74
Nsbsg72
g73
sg87
F418.57480057794584
sg74
g65
(g75
g67
Ntp169
Rp170
(dp171
g79
Nsg80
I00
sg81
S'Hedge_90'
p172
sg74
Nsbsg80
I01
sbsg88
(lp173
g163
ag170
ag166
asg90
I3
sbag160
a(itree
PTree
p174
(dp175
g64
g65
(g66
g67
Ntp176
Rp177
(dp178
g71
I0
sg79
g65
(g75
g67
Ntp179
Rp180
(dp181
g79
Nsg80
I00
sg81
g168
sg74
Nsbsg72
g73
sg87
F575.795387432623
sg74
g65
(g75
g67
Ntp182
Rp183
(dp184
g79
Nsg80
I00
sg81
g172
sg74
Nsbsg80
I01
sbsg88
(lp185
g177
ag183
ag180
asg90
I3
sbag174
ag174
ag174
ag174
ag174
ag174
ag174
ag174
ag174
ag174
ag174
ag174
ag174
ag174
ag174
ag174
ag174
ag174
ag174
ag174
ag174
ag174
ag174
ag174
ag174
a(itree
PTree
p186
(dp187
g64
g65
(g66
g67
Ntp188
Rp189
(dp190
g71
I0
sg79
g65
(g75
g67
Ntp191
Rp192
(dp193
g79
Nsg80
I00
sg81
S'Flood_Control'
p194
sg74
Nsbsg72
g73
sg87
F572.6142002579735
sg74
g65
(g75
g67
Ntp195
Rp196
(dp197
g79
Nsg80
I00
sg81
S'Release_Demand'
p198
sg74
Nsbsg80
I01
sbsg88
(lp199
g189
ag196
ag192
asg90
I3
sbag186
ag186
ag186
ag186
ag186
ag186
a(itree
PTree
p200
(dp201
g64
g65
(g66
g67
Ntp202
Rp203
(dp204
g71
I0
sg79
g65
(g75
g67
Ntp205
Rp206
(dp207
g79
Nsg80
I00
sg81
S'Flood_Control'
p208
sg74
Nsbsg72
g73
sg87
F600.6269130929334
sg74
g65
(g75
g67
Ntp209
Rp210
(dp211
g79
Nsg80
I00
sg81
g172
sg74
Nsbsg80
I01
sbsg88
(lp212
g203
ag210
ag206
asg90
I3
sbag200
ag200
ag200
ag200
ag200
ag200
ag200
ag200
ag200
ag200
ag200
ag200
ag200
ag200
ag200
ag200
ag200
ag200
ag200
ag200
ag200
ag200
ag200
ag200
ag200
ag200
ag200
ag200
ag200
ag200
ag200
ag200
a(itree
PTree
p213
(dp214
g64
g65
(g66
g67
Ntp215
Rp216
(dp217
g71
I0
sg79
g65
(g75
g67
Ntp218
Rp219
(dp220
g79
Nsg80
I00
sg81
g194
sg74
Nsbsg72
g73
sg87
F592.1217180605776
sg74
g65
(g75
g67
Ntp221
Rp222
(dp223
g79
Nsg80
I00
sg81
g198
sg74
Nsbsg80
I01
sbsg88
(lp224
g216
ag222
ag219
asg90
I3
sbag213
ag213
a(itree
PTree
p225
(dp226
g64
g65
(g66
g67
Ntp227
Rp228
(dp229
g71
I0
sg79
g65
(g75
g67
Ntp230
Rp231
(dp232
g79
Nsg80
I00
sg81
g194
sg74
Nsbsg72
g73
sg87
F594.0554468927533
sg74
g65
(g75
g67
Ntp233
Rp234
(dp235
g79
Nsg80
I00
sg81
g198
sg74
Nsbsg80
I01
sbsg88
(lp236
g228
ag234
ag231
asg90
I3
sbag225
ag225
ag225
ag225
ag225
ag225
ag225
ag225
ag225
ag225
ag225
ag225
ag225
ag225
a(itree
PTree
p237
(dp238
g64
g65
(g66
g67
Ntp239
Rp240
(dp241
g71
I0
sg79
g65
(g75
g67
Ntp242
Rp243
(dp244
g79
Nsg80
I00
sg81
g208
sg74
Nsbsg72
g73
sg87
F591.8032271118084
sg74
g65
(g75
g67
Ntp245
Rp246
(dp247
g79
Nsg80
I00
sg81
S'Release_Demand'
p248
sg74
Nsbsg80
I01
sbsg88
(lp249
g240
ag246
ag243
asg90
I3
sbag237
ag237
ag237
ag237
ag237
ag237
ag237
ag237
ag237
ag237
ag237
ag237
a(itree
PTree
p250
(dp251
g64
g65
(g66
g67
Ntp252
Rp253
(dp254
g71
I0
sg79
g65
(g75
g67
Ntp255
Rp256
(dp257
g79
Nsg80
I00
sg81
S'Flood_Control'
p258
sg74
Nsbsg72
g73
sg87
F595.3571489690647
sg74
g65
(g75
g67
Ntp259
Rp260
(dp261
g79
Nsg80
I00
sg81
S'Release_Demand'
p262
sg74
Nsbsg80
I01
sbsg88
(lp263
g253
ag260
ag256
asg90
I3
sbag250
ag250
ag250
ag250
ag250
ag250
ag250
ag250
ag250
ag250
ag250
ag250
ag250
ag250
ag250
ag250
ag250
ag250
ag250
a(itree
PTree
p264
(dp265
g64
g65
(g66
g67
Ntp266
Rp267
(dp268
g71
I0
sg79
g65
(g75
g67
Ntp269
Rp270
(dp271
g79
Nsg80
I00
sg81
g258
sg74
Nsbsg72
g73
sg87
F589.7443934353334
sg74
g65
(g75
g67
Ntp272
Rp273
(dp274
g79
Nsg80
I00
sg81
g262
sg74
Nsbsg80
I01
sbsg88
(lp275
g267
ag273
ag270
asg90
I3
sbag264
ag264
ag264
ag264
ag264
ag264
ag264
ag264
ag264
ag264
ag264
ag264
ag264
ag264
ag264
ag264
ag264
ag264
ag264
ag264
ag264
ag264
ag264
ag264
ag264
ag264
ag264
ag264
ag264
ag264
ag264
ag264
ag264
ag264
ag264
ag264
ag264
ag264
ag264
ag264
ag264
ag264
ag264
ag264
ag264
ag264
ag264
ag264
ag264
ag264
ag264
ag264
ag264
ag264
ag264
ag264
ag264
ag264
ag264
ag264
ag264
ag264
ag264
ag264
ag264
ag264
ag264
ag264
ag264
ag264
ag264
ag264
ag264
ag264
ag264
ag264
ag264
ag264
ag264
ag264
ag264
ag264
ag264
ag264
ag264
ag264
ag264
ag264
ag264
ag264
ag264
ag264
ag264
ag264
ag264
ag264
ag264
ag264
ag264
ag264
ag264
ag264
ag264
ag264
ag264
ag264
ag264
ag264
ag264
ag264
ag264
ag264
ag264
ag264
ag264
ag264
ag264
ag264
ag264
ag264
ag264
ag264
ag264
ag264
ag264
ag264
ag264
ag264
ag264
ag264
ag264
ag264
ag264
ag264
ag264
ag264
ag264
ag264
ag264
ag264
ag264
ag264
ag264
ag264
ag264
ag264
ag264
ag264
ag264
ag264
ag264
ag264
ag264
ag264
ag264
ag264
ag264
ag264
ag264
ag264
ag264
ag264
ag264
ag264
ag264
ag264
ag264
ag264
ag264
ag264
ag264
ag264
ag264
ag264
ag264
ag264
ag264
ag264
ag264
ag264
ag264
ag264
ag264
ag264
ag264
ag264
ag264
ag264
ag264
ag264
ag264
ag264
ag264
ag264
ag264
ag264
ag264
ag264
ag264
ag264
ag264
ag264
ag264
ag264
ag264
ag264
ag264
ag264
ag264
ag264
ag264
ag264
ag264
ag264
ag264
ag264
ag264
ag264
ag264
ag264
ag264
a(itree
PTree
p276
(dp277
g64
g65
(g66
g67
Ntp278
Rp279
(dp280
g71
I0
sg79
g65
(g75
g67
Ntp281
Rp282
(dp283
g79
Nsg80
I00
sg81
S'Flood_Control'
p284
sg74
Nsbsg72
g73
sg87
F590.9822732517098
sg74
g65
(g75
g67
Ntp285
Rp286
(dp287
g79
Nsg80
I00
sg81
S'Release_Demand'
p288
sg74
Nsbsg80
I01
sbsg88
(lp289
g279
ag286
ag282
asg90
I3
sbag276
ag276
ag276
ag276
ag276
ag276
ag276
ag276
ag276
ag276
ag276
ag276
ag276
ag276
ag276
ag276
ag276
ag276
ag276
ag276
ag276
ag276
ag276
ag276
ag276
ag276
ag276
ag276
ag276
ag276
ag276
ag276
ag276
ag276
ag276
ag276
ag276
ag276
ag276
ag276
ag276
ag276
ag276
ag276
ag276
ag276
ag276
asS'time'
p290
(lp291
I51
aI77
aI103
aI129
aI156
aI182
aI209
aI236
aI262
aI289
aI315
aI342
aI368
aI395
aI421
aI447
aI474
aI500
aI527
aI553
aI580
aI606
aI632
aI658
aI685
aI711
aI737
aI764
aI790
aI816
aI841
aI867
aI892
aI917
aI942
aI967
aI991
aI1015
aI1039
aI1063
aI1087
aI1111
aI1135
aI1159
aI1183
aI1207
aI1231
aI1255
aI1280
aI1303
aI1328
aI1352
aI1376
aI1400
aI1424
aI1448
aI1472
aI1496
aI1520
aI1544
aI1568
aI1592
aI1616
aI1641
aI1665
aI1689
aI1713
aI1737
aI1761
aI1785
aI1809
aI1833
aI1857
aI1881
aI1905
aI1929
aI1953
aI1977
aI2002
aI2026
aI2050
aI2074
aI2098
aI2122
aI2146
aI2170
aI2194
aI2218
aI2243
aI2267
aI2291
aI2315
aI2339
aI2363
aI2387
aI2411
aI2435
aI2459
aI2483
aI2507
aI2531
aI2555
aI2579
aI2603
aI2627
aI2651
aI2675
aI2700
aI2724
aI2748
aI2772
aI2796
aI2820
aI2844
aI2868
aI2892
aI2917
aI2941
aI2965
aI2989
aI3012
aI3037
aI3061
aI3085
aI3109
aI3133
aI3157
aI3181
aI3205
aI3229
aI3253
aI3277
aI3301
aI3325
aI3348
aI3372
aI3396
aI3420
aI3444
aI3468
aI3493
aI3516
aI3541
aI3565
aI3589
aI3613
aI3636
aI3661
aI3686
aI3710
aI3735
aI3760
aI3785
aI3809
aI3834
aI3859
aI3884
aI3908
aI3933
aI3958
aI3983
aI4008
aI4032
aI4057
aI4082
aI4107
aI4131
aI4156
aI4181
aI4205
aI4230
aI4255
aI4280
aI4305
aI4330
aI4355
aI4380
aI4405
aI4430
aI4455
aI4480
aI4505
aI4529
aI4554
aI4579
aI4604
aI4628
aI4654
aI4679
aI4703
aI4728
aI4753
aI4778
aI4803
aI4828
aI4853
aI4877
aI4902
aI4927
aI4952
aI4976
aI5001
aI5026
aI5051
aI5075
aI5100
aI5125
aI5150
aI5175
aI5200
aI5225
aI5249
aI5274
aI5299
aI5324
aI5349
aI5373
aI5398
aI5422
aI5447
aI5472
aI5497
aI5522
aI5547
aI5571
aI5596
aI5621
aI5646
aI5671
aI5696
aI5721
aI5746
aI5770
aI5795
aI5819
aI5845
aI5869
aI5894
aI5920
aI5944
aI5969
aI5994
aI6019
aI6044
aI6068
aI6093
aI6118
aI6143
aI6168
aI6193
aI6218
aI6242
aI6267
aI6292
aI6317
aI6342
aI6366
aI6391
aI6417
aI6441
aI6466
aI6491
aI6516
aI6540
aI6566
aI6590
aI6615
aI6640
aI6665
aI6690
aI6714
aI6739
aI6764
aI6789
aI6813
aI6838
aI6863
aI6887
aI6912
aI6937
aI6962
aI6987
aI7012
aI7037
aI7062
aI7086
aI7111
aI7136
aI7161
aI7186
aI7211
aI7236
aI7260
aI7286
aI7310
aI7335
aI7360
aI7385
aI7409
aI7434
aI7459
aI7484
aI7509
aI7534
aI7559
aI7584
aI7608
aI7633
aI7658
aI7683
aI7708
aI7733
aI7758
aI7783
aI7807
aI7832
aI7857
aI7882
aI7906
aI7931
aI7956
aI7981
aI8006
aI8030
aI8055
aI8080
aI8105
aI8130
aI8154
aI8179
aI8204
aI8229
aI8253
aI8278
aI8303
aI8328
aI8353
aI8377
aI8402
aI8427
aI8452
aI8476
aI8501
aI8526
aI8551
aI8575
aI8601
aI8625
aI8650
aI8675
aI8700
aI8724
aI8749
aI8774
aI8799
aI8824
aI8848
aI8873
aI8898
aI8923
aI8947
aI8972
aI8997
aI9022
aI9047
aI9071
aI9096
aI9121
aI9146
aI9171
aI9196
aI9220
aI9245
aI9269
aI9294
aI9318
aI9343
aI9368
aI9393
aI9418
aI9443
aI9467
aI9492
aI9517
aI9542
aI9567
aI9592
aI9616
aI9641
aI9666
aI9691
aI9715
aI9740
aI9765
aI9790
aI9815
aI9840
aI9865
aI9889
aI9913
as.