(dp0
S'nfe'
p1
(lp2
I50
aI100
aI150
aI200
aI250
aI300
aI350
aI400
aI450
aI500
aI550
aI600
aI650
aI700
aI750
aI800
aI850
aI900
aI950
aI1000
aI1050
aI1100
aI1150
aI1200
aI1250
aI1300
aI1350
aI1400
aI1450
aI1500
aI1550
aI1600
aI1650
aI1700
aI1750
aI1800
aI1850
aI1900
aI1950
aI2000
aI2050
aI2100
aI2150
aI2200
aI2250
aI2300
aI2350
aI2400
aI2450
aI2500
aI2550
aI2600
aI2650
aI2700
aI2750
aI2800
aI2850
aI2900
aI2950
aI3000
aI3050
aI3100
aI3150
aI3200
aI3250
aI3300
aI3350
aI3400
aI3450
aI3500
aI3550
aI3600
aI3650
aI3700
aI3750
aI3800
aI3850
aI3900
aI3950
aI4000
aI4050
aI4100
aI4150
aI4200
aI4250
aI4300
aI4350
aI4400
aI4450
aI4500
aI4550
aI4600
aI4650
aI4700
aI4750
aI4800
aI4850
aI4900
aI4950
aI5000
aI5050
aI5100
aI5150
aI5200
aI5250
aI5300
aI5350
aI5400
aI5450
aI5500
aI5550
aI5600
aI5650
aI5700
aI5750
aI5800
aI5850
aI5900
aI5950
aI6000
aI6050
aI6100
aI6150
aI6200
aI6250
aI6300
aI6350
aI6400
aI6450
aI6500
aI6550
aI6600
aI6650
aI6700
aI6750
aI6800
aI6850
aI6900
aI6950
aI7000
aI7050
aI7100
aI7150
aI7200
aI7250
aI7300
aI7350
aI7400
aI7450
aI7500
aI7550
aI7600
aI7650
aI7700
aI7750
aI7800
aI7850
aI7900
aI7950
aI8000
aI8050
aI8100
aI8150
aI8200
aI8250
aI8300
aI8350
aI8400
aI8450
aI8500
aI8550
aI8600
aI8650
aI8700
aI8750
aI8800
aI8850
aI8900
aI8950
aI9000
aI9050
aI9100
aI9150
aI9200
aI9250
aI9300
aI9350
aI9400
aI9450
aI9500
aI9550
aI9600
aI9650
aI9700
aI9750
aI9800
aI9850
aI9900
aI9950
aI10000
aI10050
aI10100
aI10150
aI10200
aI10250
aI10300
aI10350
aI10400
aI10450
aI10500
aI10550
aI10600
aI10650
aI10700
aI10750
aI10800
aI10850
aI10900
aI10950
aI11000
aI11050
aI11100
aI11150
aI11200
aI11250
aI11300
aI11350
aI11400
aI11450
aI11500
aI11550
aI11600
aI11650
aI11700
aI11750
aI11800
aI11850
aI11900
aI11950
aI12000
aI12050
aI12100
aI12150
aI12200
aI12250
aI12300
aI12350
aI12400
aI12450
aI12500
aI12550
aI12600
aI12650
aI12700
aI12750
aI12800
aI12850
aI12900
aI12950
aI13000
aI13050
aI13100
aI13150
aI13200
aI13250
aI13300
aI13350
aI13400
aI13450
aI13500
aI13550
aI13600
aI13650
aI13700
aI13750
aI13800
aI13850
aI13900
aI13950
aI14000
aI14050
aI14100
aI14150
aI14200
aI14250
aI14300
aI14350
aI14400
aI14450
aI14500
aI14550
aI14600
aI14650
aI14700
aI14750
aI14800
aI14850
aI14900
aI14950
aI15000
aI15050
aI15100
aI15150
aI15200
aI15250
aI15300
aI15350
aI15400
aI15450
aI15500
aI15550
aI15600
aI15650
aI15700
aI15750
aI15800
aI15850
aI15900
aI15950
aI16000
aI16050
aI16100
aI16150
aI16200
aI16250
aI16300
aI16350
aI16400
aI16450
aI16500
aI16550
aI16600
aI16650
aI16700
aI16750
aI16800
aI16850
aI16900
aI16950
aI17000
aI17050
aI17100
aI17150
aI17200
aI17250
aI17300
aI17350
aI17400
aI17450
aI17500
aI17550
aI17600
aI17650
aI17700
aI17750
aI17800
aI17850
aI17900
aI17950
aI18000
aI18050
aI18100
aI18150
aI18200
aI18250
aI18300
aI18350
aI18400
aI18450
aI18500
aI18550
aI18600
aI18650
aI18700
aI18750
aI18800
aI18850
aI18900
aI18950
aI19000
aI19050
aI19100
aI19150
aI19200
aI19250
aI19300
aI19350
aI19400
aI19450
aI19500
aI19550
aI19600
aI19650
aI19700
aI19750
aI19800
aI19850
aI19900
aI19950
aI20000
asS'best_f'
p3
(lp4
cnumpy.core.multiarray
scalar
p5
(cnumpy
dtype
p6
(S'f8'
p7
I0
I1
tp8
Rp9
(I3
S'<'
p10
NNNI-1
I-1
I0
tp11
bS'\x0bX0\xdfG@\x02@'
p12
tp13
Rp14
ag5
(g9
S'\xf8e]<d\x17\x01@'
p15
tp16
Rp17
ag5
(g9
S'C\xd6\xad\xf2\xb6u\x00@'
p18
tp19
Rp20
ag5
(g9
S'\xb9<\xfc\x8c\x05\xf3\xee?'
p21
tp22
Rp23
ag5
(g9
S'Y\x15M\xa76\x17\xe3?'
p24
tp25
Rp26
ag5
(g9
S'\xe5i\xadV\xc6\xf3\xe1?'
p27
tp28
Rp29
ag29
ag5
(g9
S'\xb2l34$\xe8\xe1?'
p30
tp31
Rp32
ag5
(g9
S'[\xdb|-\x8aH\xd6?'
p33
tp34
Rp35
ag35
ag5
(g9
S'<\x00\x87\x83>\xe4\xd5?'
p36
tp37
Rp38
ag38
ag38
ag38
ag38
ag38
ag38
ag38
ag5
(g9
S'W\x1b\xb0\xe9\xc0\xdc\xd4?'
p39
tp40
Rp41
ag41
ag41
ag41
ag41
ag5
(g9
S'\x98\xf0#\xbbC!\xd4?'
p42
tp43
Rp44
ag44
ag44
ag44
ag44
ag44
ag44
ag44
ag44
ag44
ag5
(g9
S'\xdf\xb7o\x8b\x8b\xba\xd3?'
p45
tp46
Rp47
ag47
ag47
ag47
ag5
(g9
S',\x15M3\xb9\x83\xd3?'
p48
tp49
Rp50
ag50
ag50
ag50
ag50
ag50
ag50
ag50
ag50
ag50
ag50
ag50
ag50
ag50
ag50
ag50
ag5
(g9
S'*\x15M3\xb9\x83\xd3?'
p51
tp52
Rp53
ag53
ag53
ag53
ag53
ag53
ag53
ag53
ag53
ag53
ag53
ag53
ag5
(g9
S'\xeb\xbe=GZl\xd3?'
p54
tp55
Rp56
ag56
ag56
ag56
ag56
ag56
ag56
ag56
ag56
ag56
ag56
ag56
ag56
ag56
ag56
ag56
ag56
ag56
ag56
ag56
ag56
ag56
ag56
ag56
ag56
ag56
ag56
ag56
ag56
ag56
ag56
ag56
ag56
ag56
ag56
ag56
ag56
ag56
ag56
ag56
ag56
ag56
ag56
ag56
ag56
ag56
ag56
ag56
ag56
ag56
ag56
ag56
ag56
ag56
ag56
ag56
ag56
ag56
ag56
ag56
ag56
ag56
ag56
ag56
ag56
ag56
ag56
ag56
ag56
ag56
ag56
ag56
ag56
ag5
(g9
S'b*\x05/2k\xd3?'
p57
tp58
Rp59
ag59
ag59
ag59
ag59
ag59
ag59
ag59
ag59
ag59
ag59
ag59
ag59
ag59
ag59
ag59
ag59
ag59
ag59
ag59
ag59
ag59
ag59
ag59
ag59
ag59
ag59
ag59
ag59
ag59
ag59
ag59
ag59
ag59
ag59
ag59
ag59
ag59
ag59
ag59
ag59
ag59
ag59
ag59
ag59
ag59
ag59
ag59
ag59
ag59
ag59
ag59
ag59
ag59
ag59
ag59
ag59
ag59
ag59
ag59
ag59
ag59
ag59
ag59
ag59
ag59
ag59
ag59
ag59
ag59
ag59
ag59
ag59
ag59
ag59
ag59
ag59
ag59
ag59
ag59
ag59
ag59
ag59
ag59
ag59
ag59
ag59
ag59
ag59
ag59
ag59
ag59
ag59
ag59
ag59
ag59
ag59
ag59
ag59
ag59
ag59
ag59
ag59
ag59
ag59
ag59
ag59
ag59
ag59
ag59
ag59
ag59
ag59
ag59
ag59
ag59
ag59
ag59
ag59
ag59
ag59
ag59
ag59
ag59
ag59
ag59
ag59
ag59
ag59
ag59
ag59
ag59
ag59
ag59
ag59
ag59
ag59
ag59
ag59
ag59
ag59
ag59
ag59
ag59
ag59
ag59
ag59
ag59
ag59
ag59
ag59
ag59
ag59
ag59
ag59
ag59
ag59
ag59
ag59
ag59
ag59
ag59
ag59
ag59
ag59
ag59
ag59
ag59
ag59
ag59
ag59
ag59
ag59
ag59
ag59
ag59
ag59
ag59
ag59
ag59
ag59
ag59
ag59
ag59
ag59
ag59
ag59
ag59
ag59
ag59
ag59
ag59
ag59
ag59
ag59
ag59
ag59
ag59
ag59
ag59
ag59
ag59
ag59
ag5
(g9
S'T\xd0\xfc\xf2LB\xd3?'
p60
tp61
Rp62
ag5
(g9
S'-Q\x11\xb2\x8f>\xd2?'
p63
tp64
Rp65
ag65
ag5
(g9
S'\x99{\x9f\x10~\x8c\xc5?'
p66
tp67
Rp68
ag68
ag68
ag68
ag68
ag68
ag68
ag68
ag5
(g9
S'\x88\x06\xc0n\xe29\xc5?'
p69
tp70
Rp71
ag71
ag71
ag71
ag71
ag71
ag71
ag71
ag71
ag71
ag5
(g9
S'\x107\xfd\xd9\xa5O\xc4?'
p72
tp73
Rp74
ag74
ag74
ag74
ag74
ag74
ag74
ag74
ag74
ag74
ag74
ag74
ag74
ag74
ag74
ag74
ag74
ag74
ag74
ag5
(g9
S'\xdf\xc6i\x8f#|\xc3?'
p75
tp76
Rp77
ag5
(g9
S'\xe0\xca-\xde\x03"\xc3?'
p78
tp79
Rp80
ag80
ag80
ag80
ag80
ag80
ag80
ag80
ag80
ag80
ag80
ag80
ag5
(g9
S'\xa14p\xd8[o\xc2?'
p81
tp82
Rp83
ag83
ag83
ag83
ag83
ag83
asS'best_P'
p84
(lp85
(itree
PTree
p86
(dp87
S'root'
p88
ccopy_reg
_reconstructor
p89
(ctree
Feature
p90
c__builtin__
object
p91
Ntp92
Rp93
(dp94
S'index'
p95
I0
sS'name'
p96
S'Storage'
p97
sS'l'
p98
g89
(ctree
Action
p99
g91
Ntp100
Rp101
(dp102
S'r'
p103
NsS'is_feature'
p104
I00
sS'value'
p105
S'Hedge_50'
p106
sg98
Nsbsg103
g89
(g99
g91
Ntp107
Rp108
(dp109
g103
Nsg104
I00
sg105
S'Flood_Control'
p110
sg98
NsbsS'threshold'
p111
F291.1315117120036
sg104
I01
sbsS'L'
p112
(lp113
g93
ag101
ag108
asS'N'
p114
I3
sba(itree
PTree
p115
(dp116
g88
g89
(g90
g91
Ntp117
Rp118
(dp119
g95
I1
sg103
g89
(g99
g91
Ntp120
Rp121
(dp122
g103
Nsg104
I00
sg105
S'Flood_Control'
p123
sg98
Nsbsg96
S'Day'
p124
sg111
F70.43105572017593
sg98
g89
(g99
g91
Ntp125
Rp126
(dp127
g103
Nsg104
I00
sg105
S'Hedge_70'
p128
sg98
Nsbsg104
I01
sbsg112
(lp129
g118
ag126
ag121
asg114
I3
sba(itree
PTree
p130
(dp131
g88
g89
(g90
g91
Ntp132
Rp133
(dp134
g95
I0
sg103
g89
(g99
g91
Ntp135
Rp136
(dp137
g103
Nsg104
I00
sg105
S'Hedge_80'
p138
sg98
Nsbsg96
g97
sg111
F891.3022755223398
sg98
g89
(g99
g91
Ntp139
Rp140
(dp141
g103
Nsg104
I00
sg105
S'Flood_Control'
p142
sg98
Nsbsg104
I01
sbsg112
(lp143
g133
ag140
ag136
asg114
I3
sba(itree
PTree
p144
(dp145
g88
g89
(g90
g91
Ntp146
Rp147
(dp148
g95
I1
sg103
g89
(g90
g91
Ntp149
Rp150
(dp151
g95
I0
sg103
g89
(g99
g91
Ntp152
Rp153
(dp154
g103
Nsg104
I00
sg105
S'Hedge_70'
p155
sg98
Nsbsg96
g97
sg111
F816.2744876198099
sg98
g89
(g99
g91
Ntp156
Rp157
(dp158
g103
Nsg104
I00
sg105
S'Release_Demand'
p159
sg98
Nsbsg104
I01
sbsg96
g124
sg111
F95.21647284394734
sg98
g89
(g99
g91
Ntp160
Rp161
(dp162
g103
Nsg104
I00
sg105
S'Flood_Control'
p163
sg98
Nsbsg104
I01
sbsg112
(lp164
g147
ag161
ag150
ag157
ag153
asg114
I5
sba(itree
PTree
p165
(dp166
g88
g89
(g90
g91
Ntp167
Rp168
(dp169
g95
I0
sg103
g89
(g99
g91
Ntp170
Rp171
(dp172
g103
Nsg104
I00
sg105
S'Flood_Control'
p173
sg98
Nsbsg96
g97
sg111
F526.5168655893065
sg98
g89
(g99
g91
Ntp174
Rp175
(dp176
g103
Nsg104
I00
sg105
S'Hedge_80'
p177
sg98
Nsbsg104
I01
sbsg112
(lp178
g168
ag175
ag171
asg114
I3
sba(itree
PTree
p179
(dp180
g88
g89
(g90
g91
Ntp181
Rp182
(dp183
g95
I1
sg103
g89
(g99
g91
Ntp184
Rp185
(dp186
g103
Nsg104
I00
sg105
S'Release_Demand'
p187
sg98
Nsbsg96
g124
sg111
F98.40747356845355
sg98
g89
(g99
g91
Ntp188
Rp189
(dp190
g103
Nsg104
I00
sg105
S'Flood_Control'
p191
sg98
Nsbsg104
I01
sbsg112
(lp192
g182
ag189
ag185
asg114
I3
sbag179
a(itree
PTree
p193
(dp194
g88
g89
(g90
g91
Ntp195
Rp196
(dp197
g95
I0
sg103
g89
(g99
g91
Ntp198
Rp199
(dp200
g103
Nsg104
I00
sg105
g173
sg98
Nsbsg96
g97
sg111
F437.114470853594
sg98
g89
(g99
g91
Ntp201
Rp202
(dp203
g103
Nsg104
I00
sg105
g177
sg98
Nsbsg104
I01
sbsg112
(lp204
g196
ag202
ag199
asg114
I3
sba(itree
PTree
p205
(dp206
g88
g89
(g90
g91
Ntp207
Rp208
(dp209
g95
I0
sg103
g89
(g99
g91
Ntp210
Rp211
(dp212
g103
Nsg104
I00
sg105
S'Flood_Control'
p213
sg98
Nsbsg96
g97
sg111
F517.8984404299227
sg98
g89
(g99
g91
Ntp214
Rp215
(dp216
g103
Nsg104
I00
sg105
S'Hedge_90'
p217
sg98
Nsbsg104
I01
sbsg112
(lp218
g208
ag215
ag211
asg114
I3
sbag205
a(itree
PTree
p219
(dp220
g88
g89
(g90
g91
Ntp221
Rp222
(dp223
g95
I0
sg103
g89
(g99
g91
Ntp224
Rp225
(dp226
g103
Nsg104
I00
sg105
g213
sg98
Nsbsg96
g97
sg111
F527.325263622288
sg98
g89
(g99
g91
Ntp227
Rp228
(dp229
g103
Nsg104
I00
sg105
g217
sg98
Nsbsg104
I01
sbsg112
(lp230
g222
ag228
ag225
asg114
I3
sbag219
ag219
ag219
ag219
ag219
ag219
ag219
a(itree
PTree
p231
(dp232
g88
g89
(g90
g91
Ntp233
Rp234
(dp235
g95
I0
sg103
g89
(g99
g91
Ntp236
Rp237
(dp238
g103
Nsg104
I00
sg105
S'Flood_Control'
p239
sg98
Nsbsg96
g97
sg111
F585.6270853709989
sg98
g89
(g99
g91
Ntp240
Rp241
(dp242
g103
Nsg104
I00
sg105
S'Release_Demand'
p243
sg98
Nsbsg104
I01
sbsg112
(lp244
g234
ag241
ag237
asg114
I3
sbag231
ag231
ag231
ag231
a(itree
PTree
p245
(dp246
g88
g89
(g90
g91
Ntp247
Rp248
(dp249
g95
I0
sg103
g89
(g99
g91
Ntp250
Rp251
(dp252
g103
Nsg104
I00
sg105
S'Flood_Control'
p253
sg98
Nsbsg96
g97
sg111
F592.7540160889014
sg98
g89
(g99
g91
Ntp254
Rp255
(dp256
g103
Nsg104
I00
sg105
S'Release_Demand'
p257
sg98
Nsbsg104
I01
sbsg112
(lp258
g248
ag255
ag251
asg114
I3
sbag245
ag245
ag245
ag245
ag245
ag245
ag245
ag245
ag245
a(itree
PTree
p259
(dp260
g88
g89
(g90
g91
Ntp261
Rp262
(dp263
g95
I0
sg103
g89
(g99
g91
Ntp264
Rp265
(dp266
g103
Nsg104
I00
sg105
S'Flood_Control'
p267
sg98
Nsbsg96
g97
sg111
F591.4890976855282
sg98
g89
(g99
g91
Ntp268
Rp269
(dp270
g103
Nsg104
I00
sg105
g243
sg98
Nsbsg104
I01
sbsg112
(lp271
g262
ag269
ag265
asg114
I3
sbag259
ag259
ag259
a(itree
PTree
p272
(dp273
g88
g89
(g90
g91
Ntp274
Rp275
(dp276
g95
I0
sg103
g89
(g99
g91
Ntp277
Rp278
(dp279
g103
Nsg104
I00
sg105
g267
sg98
Nsbsg96
g97
sg111
F591.3192773102445
sg98
g89
(g99
g91
Ntp280
Rp281
(dp282
g103
Nsg104
I00
sg105
g243
sg98
Nsbsg104
I01
sbsg112
(lp283
g275
ag281
ag278
asg114
I3
sbag272
ag272
ag272
ag272
ag272
ag272
ag272
ag272
ag272
ag272
ag272
ag272
ag272
ag272
ag272
a(itree
PTree
p284
(dp285
g88
g89
(g90
g91
Ntp286
Rp287
(dp288
g95
I0
sg103
g89
(g99
g91
Ntp289
Rp290
(dp291
g103
Nsg104
I00
sg105
g253
sg98
Nsbsg96
g97
sg111
F591.2711528601526
sg98
g89
(g99
g91
Ntp292
Rp293
(dp294
g103
Nsg104
I00
sg105
S'Release_Demand'
p295
sg98
Nsbsg104
I01
sbsg112
(lp296
g287
ag293
ag290
asg114
I3
sbag284
ag284
ag284
ag284
ag284
ag284
ag284
ag284
ag284
ag284
ag284
a(itree
PTree
p297
(dp298
g88
g89
(g90
g91
Ntp299
Rp300
(dp301
g95
I0
sg103
g89
(g99
g91
Ntp302
Rp303
(dp304
g103
Nsg104
I00
sg105
g239
sg98
Nsbsg96
g97
sg111
F589.8028229767197
sg98
g89
(g99
g91
Ntp305
Rp306
(dp307
g103
Nsg104
I00
sg105
S'Release_Demand'
p308
sg98
Nsbsg104
I01
sbsg112
(lp309
g300
ag306
ag303
asg114
I3
sbag297
ag297
ag297
ag297
ag297
ag297
ag297
ag297
ag297
ag297
ag297
ag297
ag297
ag297
ag297
ag297
ag297
ag297
ag297
ag297
ag297
ag297
ag297
ag297
ag297
ag297
ag297
ag297
ag297
ag297
ag297
ag297
ag297
ag297
ag297
ag297
ag297
ag297
ag297
ag297
ag297
ag297
ag297
ag297
ag297
ag297
ag297
ag297
ag297
ag297
ag297
ag297
ag297
ag297
ag297
ag297
ag297
ag297
ag297
ag297
ag297
ag297
ag297
ag297
ag297
ag297
ag297
ag297
ag297
ag297
ag297
ag297
a(itree
PTree
p310
(dp311
g88
g89
(g90
g91
Ntp312
Rp313
(dp314
g95
I0
sg103
g89
(g99
g91
Ntp315
Rp316
(dp317
g103
Nsg104
I00
sg105
S'Flood_Control'
p318
sg98
Nsbsg96
g97
sg111
F589.7105454271457
sg98
g89
(g99
g91
Ntp319
Rp320
(dp321
g103
Nsg104
I00
sg105
g295
sg98
Nsbsg104
I01
sbsg112
(lp322
g313
ag320
ag316
asg114
I3
sbag310
ag310
ag310
ag310
ag310
ag310
ag310
ag310
ag310
ag310
ag310
ag310
ag310
ag310
ag310
ag310
ag310
ag310
ag310
ag310
ag310
ag310
ag310
ag310
ag310
ag310
ag310
ag310
ag310
ag310
ag310
ag310
ag310
ag310
ag310
ag310
ag310
ag310
ag310
ag310
ag310
ag310
ag310
ag310
ag310
ag310
ag310
ag310
ag310
ag310
ag310
ag310
ag310
ag310
ag310
ag310
ag310
ag310
ag310
ag310
ag310
ag310
ag310
ag310
ag310
ag310
ag310
ag310
ag310
ag310
ag310
ag310
ag310
ag310
ag310
ag310
ag310
ag310
ag310
ag310
ag310
ag310
ag310
ag310
ag310
ag310
ag310
ag310
ag310
ag310
ag310
ag310
ag310
ag310
ag310
ag310
ag310
ag310
ag310
ag310
ag310
ag310
ag310
ag310
ag310
ag310
ag310
ag310
ag310
ag310
ag310
ag310
ag310
ag310
ag310
ag310
ag310
ag310
ag310
ag310
ag310
ag310
ag310
ag310
ag310
ag310
ag310
ag310
ag310
ag310
ag310
ag310
ag310
ag310
ag310
ag310
ag310
ag310
ag310
ag310
ag310
ag310
ag310
ag310
ag310
ag310
ag310
ag310
ag310
ag310
ag310
ag310
ag310
ag310
ag310
ag310
ag310
ag310
ag310
ag310
ag310
ag310
ag310
ag310
ag310
ag310
ag310
ag310
ag310
ag310
ag310
ag310
ag310
ag310
ag310
ag310
ag310
ag310
ag310
ag310
ag310
ag310
ag310
ag310
ag310
ag310
ag310
ag310
ag310
ag310
ag310
ag310
ag310
ag310
ag310
ag310
ag310
ag310
ag310
ag310
ag310
ag310
a(itree
PTree
p323
(dp324
g88
g89
(g90
g91
Ntp325
Rp326
(dp327
g95
I1
sg103
g89
(g99
g91
Ntp328
Rp329
(dp330
g103
Nsg104
I00
sg105
S'Release_Demand'
p331
sg98
Nsbsg96
g124
sg111
F200.893803022941
sg98
g89
(g90
g91
Ntp332
Rp333
(dp334
g95
I0
sg103
g89
(g99
g91
Ntp335
Rp336
(dp337
g103
Nsg104
I00
sg105
S'Flood_Control'
p338
sg98
Nsbsg96
g97
sg111
F530.1479541616773
sg98
g89
(g99
g91
Ntp339
Rp340
(dp341
g103
Nsg104
I00
sg105
S'Release_Demand'
p342
sg98
Nsbsg104
I01
sbsg104
I01
sbsg112
(lp343
g326
ag333
ag340
ag336
ag329
asg114
I5
sba(itree
PTree
p344
(dp345
g88
g89
(g90
g91
Ntp346
Rp347
(dp348
g95
I1
sg103
g89
(g99
g91
Ntp349
Rp350
(dp351
g103
Nsg104
I00
sg105
g331
sg98
Nsbsg96
g124
sg111
F138.01374853767757
sg98
g89
(g90
g91
Ntp352
Rp353
(dp354
g95
I0
sg103
g89
(g99
g91
Ntp355
Rp356
(dp357
g103
Nsg104
I00
sg105
g338
sg98
Nsbsg96
g97
sg111
F423.3349638569112
sg98
g89
(g99
g91
Ntp358
Rp359
(dp360
g103
Nsg104
I00
sg105
g342
sg98
Nsbsg104
I01
sbsg104
I01
sbsg112
(lp361
g347
ag353
ag359
ag356
ag350
asg114
I5
sbag344
a(itree
PTree
p362
(dp363
g88
g89
(g90
g91
Ntp364
Rp365
(dp366
g95
I1
sg103
g89
(g99
g91
Ntp367
Rp368
(dp369
g103
Nsg104
I00
sg105
S'Hedge_90'
p370
sg98
Nsbsg96
g124
sg111
F137.72129412334561
sg98
g89
(g90
g91
Ntp371
Rp372
(dp373
g95
I0
sg103
g89
(g99
g91
Ntp374
Rp375
(dp376
g103
Nsg104
I00
sg105
g338
sg98
Nsbsg96
g97
sg111
F590.1416597579658
sg98
g89
(g99
g91
Ntp377
Rp378
(dp379
g103
Nsg104
I00
sg105
S'Hedge_90'
p380
sg98
Nsbsg104
I01
sbsg104
I01
sbsg112
(lp381
g365
ag372
ag378
ag375
ag368
asg114
I5
sbag362
ag362
ag362
ag362
ag362
ag362
ag362
a(itree
PTree
p382
(dp383
g88
g89
(g90
g91
Ntp384
Rp385
(dp386
g95
I1
sg103
g89
(g99
g91
Ntp387
Rp388
(dp389
g103
Nsg104
I00
sg105
g370
sg98
Nsbsg96
g124
sg111
F137.72129412334561
sg98
g89
(g90
g91
Ntp390
Rp391
(dp392
g95
I0
sg103
g89
(g99
g91
Ntp393
Rp394
(dp395
g103
Nsg104
I00
sg105
g338
sg98
Nsbsg96
g97
sg111
F588.141934098225
sg98
g89
(g99
g91
Ntp396
Rp397
(dp398
g103
Nsg104
I00
sg105
g380
sg98
Nsbsg104
I01
sbsg104
I01
sbsg112
(lp399
g385
ag391
ag397
ag394
ag388
asg114
I5
sbag382
ag382
ag382
ag382
ag382
ag382
ag382
ag382
ag382
a(itree
PTree
p400
(dp401
g88
g89
(g90
g91
Ntp402
Rp403
(dp404
g95
I1
sg103
g89
(g99
g91
Ntp405
Rp406
(dp407
g103
Nsg104
I00
sg105
g370
sg98
Nsbsg96
g124
sg111
F109.43954745938267
sg98
g89
(g90
g91
Ntp408
Rp409
(dp410
g95
I0
sg103
g89
(g99
g91
Ntp411
Rp412
(dp413
g103
Nsg104
I00
sg105
g338
sg98
Nsbsg96
g97
sg111
F569.2110241983571
sg98
g89
(g99
g91
Ntp414
Rp415
(dp416
g103
Nsg104
I00
sg105
g380
sg98
Nsbsg104
I01
sbsg104
I01
sbsg112
(lp417
g403
ag409
ag415
ag412
ag406
asg114
I5
sbag400
ag400
ag400
ag400
ag400
ag400
ag400
ag400
ag400
ag400
ag400
ag400
ag400
ag400
ag400
ag400
ag400
ag400
a(itree
PTree
p418
(dp419
g88
g89
(g90
g91
Ntp420
Rp421
(dp422
g95
I1
sg103
g89
(g99
g91
Ntp423
Rp424
(dp425
g103
Nsg104
I00
sg105
S'Hedge_90'
p426
sg98
Nsbsg96
g124
sg111
F117.13934131142173
sg98
g89
(g90
g91
Ntp427
Rp428
(dp429
g95
I0
sg103
g89
(g99
g91
Ntp430
Rp431
(dp432
g103
Nsg104
I00
sg105
S'Flood_Control'
p433
sg98
Nsbsg96
g97
sg111
F564.4291783276675
sg98
g89
(g99
g91
Ntp434
Rp435
(dp436
g103
Nsg104
I00
sg105
S'Hedge_90'
p437
sg98
Nsbsg104
I01
sbsg104
I01
sbsg112
(lp438
g421
ag428
ag435
ag431
ag424
asg114
I5
sba(itree
PTree
p439
(dp440
g88
g89
(g90
g91
Ntp441
Rp442
(dp443
g95
I1
sg103
g89
(g99
g91
Ntp444
Rp445
(dp446
g103
Nsg104
I00
sg105
g426
sg98
Nsbsg96
g124
sg111
F117.13934131142173
sg98
g89
(g90
g91
Ntp447
Rp448
(dp449
g95
I0
sg103
g89
(g99
g91
Ntp450
Rp451
(dp452
g103
Nsg104
I00
sg105
g433
sg98
Nsbsg96
g97
sg111
F590.4749780394983
sg98
g89
(g99
g91
Ntp453
Rp454
(dp455
g103
Nsg104
I00
sg105
g437
sg98
Nsbsg104
I01
sbsg104
I01
sbsg112
(lp456
g442
ag448
ag454
ag451
ag445
asg114
I5
sbag439
ag439
ag439
ag439
ag439
ag439
ag439
ag439
ag439
ag439
ag439
a(itree
PTree
p457
(dp458
g88
g89
(g90
g91
Ntp459
Rp460
(dp461
g95
I1
sg103
g89
(g99
g91
Ntp462
Rp463
(dp464
g103
Nsg104
I00
sg105
g370
sg98
Nsbsg96
g124
sg111
F107.71473125842975
sg98
g89
(g90
g91
Ntp465
Rp466
(dp467
g95
I0
sg103
g89
(g99
g91
Ntp468
Rp469
(dp470
g103
Nsg104
I00
sg105
g338
sg98
Nsbsg96
g97
sg111
F587.0750935973875
sg98
g89
(g99
g91
Ntp471
Rp472
(dp473
g103
Nsg104
I00
sg105
g380
sg98
Nsbsg104
I01
sbsg104
I01
sbsg112
(lp474
g460
ag466
ag472
ag469
ag463
asg114
I5
sbag457
ag457
ag457
ag457
ag457
asS'time'
p475
(lp476
I55
aI84
aI112
aI141
aI168
aI196
aI224
aI252
aI280
aI309
aI336
aI364
aI391
aI418
aI445
aI473
aI499
aI526
aI551
aI578
aI604
aI629
aI655
aI681
aI707
aI733
aI760
aI786
aI812
aI837
aI862
aI887
aI912
aI937
aI963
aI989
aI1014
aI1039
aI1064
aI1089
aI1114
aI1140
aI1165
aI1190
aI1215
aI1240
aI1265
aI1289
aI1314
aI1339
aI1363
aI1388
aI1413
aI1438
aI1463
aI1488
aI1513
aI1538
aI1563
aI1588
aI1613
aI1639
aI1664
aI1690
aI1715
aI1741
aI1766
aI1791
aI1817
aI1842
aI1868
aI1893
aI1919
aI1944
aI1970
aI1996
aI2021
aI2047
aI2072
aI2098
aI2124
aI2149
aI2175
aI2200
aI2226
aI2251
aI2277
aI2302
aI2328
aI2354
aI2379
aI2405
aI2430
aI2456
aI2481
aI2506
aI2532
aI2557
aI2583
aI2608
aI2634
aI2660
aI2686
aI2712
aI2737
aI2763
aI2788
aI2814
aI2839
aI2865
aI2890
aI2915
aI2941
aI2966
aI2992
aI3017
aI3042
aI3067
aI3093
aI3118
aI3143
aI3169
aI3194
aI3219
aI3244
aI3269
aI3294
aI3320
aI3345
aI3370
aI3395
aI3420
aI3445
aI3470
aI3495
aI3520
aI3546
aI3571
aI3596
aI3621
aI3646
aI3671
aI3696
aI3721
aI3747
aI3772
aI3797
aI3823
aI3847
aI3872
aI3897
aI3922
aI3948
aI3973
aI3998
aI4023
aI4048
aI4073
aI4098
aI4124
aI4149
aI4174
aI4199
aI4224
aI4249
aI4275
aI4300
aI4325
aI4350
aI4375
aI4400
aI4425
aI4450
aI4475
aI4500
aI4525
aI4550
aI4575
aI4601
aI4626
aI4651
aI4676
aI4701
aI4726
aI4751
aI4776
aI4801
aI4826
aI4851
aI4875
aI4900
aI4925
aI4950
aI4975
aI5000
aI5025
aI5050
aI5075
aI5100
aI5125
aI5150
aI5175
aI5200
aI5225
aI5250
aI5275
aI5300
aI5325
aI5350
aI5375
aI5400
aI5425
aI5450
aI5475
aI5500
aI5525
aI5550
aI5575
aI5600
aI5625
aI5649
aI5675
aI5700
aI5725
aI5750
aI5775
aI5800
aI5825
aI5851
aI5876
aI5901
aI5925
aI5950
aI5975
aI6000
aI6026
aI6051
aI6076
aI6100
aI6126
aI6150
aI6175
aI6200
aI6225
aI6251
aI6276
aI6301
aI6326
aI6351
aI6376
aI6401
aI6426
aI6451
aI6476
aI6500
aI6526
aI6551
aI6576
aI6601
aI6626
aI6651
aI6676
aI6701
aI6726
aI6751
aI6776
aI6801
aI6826
aI6851
aI6876
aI6901
aI6926
aI6951
aI6977
aI7002
aI7027
aI7053
aI7077
aI7103
aI7128
aI7153
aI7178
aI7203
aI7228
aI7253
aI7277
aI7303
aI7328
aI7352
aI7378
aI7403
aI7427
aI7453
aI7478
aI7503
aI7528
aI7553
aI7578
aI7603
aI7628
aI7654
aI7678
aI7703
aI7728
aI7753
aI7778
aI7803
aI7828
aI7853
aI7878
aI7903
aI7928
aI7953
aI7978
aI8003
aI8027
aI8052
aI8077
aI8102
aI8127
aI8152
aI8177
aI8202
aI8227
aI8252
aI8277
aI8301
aI8326
aI8351
aI8376
aI8401
aI8426
aI8450
aI8475
aI8500
aI8525
aI8550
aI8575
aI8600
aI8624
aI8649
aI8674
aI8700
aI8725
aI8750
aI8776
aI8802
aI8827
aI8853
aI8878
aI8904
aI8929
aI8954
aI8980
aI9005
aI9031
aI9056
aI9082
aI9108
aI9133
aI9159
aI9185
aI9210
aI9236
aI9261
aI9287
aI9313
aI9338
aI9364
aI9390
aI9416
aI9443
aI9469
aI9495
aI9522
aI9548
aI9575
aI9601
aI9628
aI9655
aI9682
aI9709
aI9735
aI9762
aI9789
aI9816
aI9842
aI9869
aI9896
aI9923
aI9950
aI9976
aI10004
aI10030
aI10057
aI10084
aI10111
aI10139
aI10166
aI10193
as.