(dp0
S'nfe'
p1
(lp2
I50
aI100
aI150
aI200
aI250
aI300
aI350
aI400
aI450
aI500
aI550
aI600
aI650
aI700
aI750
aI800
aI850
aI900
aI950
aI1000
aI1050
aI1100
aI1150
aI1200
aI1250
aI1300
aI1350
aI1400
aI1450
aI1500
aI1550
aI1600
aI1650
aI1700
aI1750
aI1800
aI1850
aI1900
aI1950
aI2000
aI2050
aI2100
aI2150
aI2200
aI2250
aI2300
aI2350
aI2400
aI2450
aI2500
aI2550
aI2600
aI2650
aI2700
aI2750
aI2800
aI2850
aI2900
aI2950
aI3000
aI3050
aI3100
aI3150
aI3200
aI3250
aI3300
aI3350
aI3400
aI3450
aI3500
aI3550
aI3600
aI3650
aI3700
aI3750
aI3800
aI3850
aI3900
aI3950
aI4000
aI4050
aI4100
aI4150
aI4200
aI4250
aI4300
aI4350
aI4400
aI4450
aI4500
aI4550
aI4600
aI4650
aI4700
aI4750
aI4800
aI4850
aI4900
aI4950
aI5000
aI5050
aI5100
aI5150
aI5200
aI5250
aI5300
aI5350
aI5400
aI5450
aI5500
aI5550
aI5600
aI5650
aI5700
aI5750
aI5800
aI5850
aI5900
aI5950
aI6000
aI6050
aI6100
aI6150
aI6200
aI6250
aI6300
aI6350
aI6400
aI6450
aI6500
aI6550
aI6600
aI6650
aI6700
aI6750
aI6800
aI6850
aI6900
aI6950
aI7000
aI7050
aI7100
aI7150
aI7200
aI7250
aI7300
aI7350
aI7400
aI7450
aI7500
aI7550
aI7600
aI7650
aI7700
aI7750
aI7800
aI7850
aI7900
aI7950
aI8000
aI8050
aI8100
aI8150
aI8200
aI8250
aI8300
aI8350
aI8400
aI8450
aI8500
aI8550
aI8600
aI8650
aI8700
aI8750
aI8800
aI8850
aI8900
aI8950
aI9000
aI9050
aI9100
aI9150
aI9200
aI9250
aI9300
aI9350
aI9400
aI9450
aI9500
aI9550
aI9600
aI9650
aI9700
aI9750
aI9800
aI9850
aI9900
aI9950
aI10000
aI10050
aI10100
aI10150
aI10200
aI10250
aI10300
aI10350
aI10400
aI10450
aI10500
aI10550
aI10600
aI10650
aI10700
aI10750
aI10800
aI10850
aI10900
aI10950
aI11000
aI11050
aI11100
aI11150
aI11200
aI11250
aI11300
aI11350
aI11400
aI11450
aI11500
aI11550
aI11600
aI11650
aI11700
aI11750
aI11800
aI11850
aI11900
aI11950
aI12000
aI12050
aI12100
aI12150
aI12200
aI12250
aI12300
aI12350
aI12400
aI12450
aI12500
aI12550
aI12600
aI12650
aI12700
aI12750
aI12800
aI12850
aI12900
aI12950
aI13000
aI13050
aI13100
aI13150
aI13200
aI13250
aI13300
aI13350
aI13400
aI13450
aI13500
aI13550
aI13600
aI13650
aI13700
aI13750
aI13800
aI13850
aI13900
aI13950
aI14000
aI14050
aI14100
aI14150
aI14200
aI14250
aI14300
aI14350
aI14400
aI14450
aI14500
aI14550
aI14600
aI14650
aI14700
aI14750
aI14800
aI14850
aI14900
aI14950
aI15000
aI15050
aI15100
aI15150
aI15200
aI15250
aI15300
aI15350
aI15400
aI15450
aI15500
aI15550
aI15600
aI15650
aI15700
aI15750
aI15800
aI15850
aI15900
aI15950
aI16000
aI16050
aI16100
aI16150
aI16200
aI16250
aI16300
aI16350
aI16400
aI16450
aI16500
aI16550
aI16600
aI16650
aI16700
aI16750
aI16800
aI16850
aI16900
aI16950
aI17000
aI17050
aI17100
aI17150
aI17200
aI17250
aI17300
aI17350
aI17400
aI17450
aI17500
aI17550
aI17600
aI17650
aI17700
aI17750
aI17800
aI17850
aI17900
aI17950
aI18000
aI18050
aI18100
aI18150
aI18200
aI18250
aI18300
aI18350
aI18400
aI18450
aI18500
aI18550
aI18600
aI18650
aI18700
aI18750
aI18800
aI18850
aI18900
aI18950
aI19000
aI19050
aI19100
aI19150
aI19200
aI19250
aI19300
aI19350
aI19400
aI19450
aI19500
aI19550
aI19600
aI19650
aI19700
aI19750
aI19800
aI19850
aI19900
aI19950
aI20000
asS'best_f'
p3
(lp4
cnumpy.core.multiarray
scalar
p5
(cnumpy
dtype
p6
(S'f8'
p7
I0
I1
tp8
Rp9
(I3
S'<'
p10
NNNI-1
I-1
I0
tp11
bS'|0e\xe6\x96\x18\xf1?'
p12
tp13
Rp14
ag14
ag5
(g9
S'\xda\xef\xa1\xfbBQ\xe9?'
p15
tp16
Rp17
ag17
ag5
(g9
S'\x1f`\xce\xb2\x03\x05\xe2?'
p18
tp19
Rp20
ag5
(g9
S'r"\x91\xbb\xc5\x95\xdb?'
p21
tp22
Rp23
ag23
ag5
(g9
S'\x8aY\x9a\xf1\x97U\xdb?'
p24
tp25
Rp26
ag5
(g9
S'\xe8H\xa5\xed\xa8\xa0\xda?'
p27
tp28
Rp29
ag5
(g9
S'wN\xc6\x7fD\x96\xd5?'
p30
tp31
Rp32
ag5
(g9
S'\x060\xc2\xf0Tp\xd5?'
p33
tp34
Rp35
ag5
(g9
S'\xd8\xb82m\xef\x96\xd1?'
p36
tp37
Rp38
ag38
ag38
ag5
(g9
S'\xba\x04\x98ldj\xd1?'
p39
tp40
Rp41
ag41
ag5
(g9
S'\xb0\x91\xc2E\x11\xb5\xc3?'
p42
tp43
Rp44
ag44
ag44
ag44
ag44
ag44
ag44
ag44
ag44
ag44
ag44
ag44
ag44
ag44
ag44
ag44
ag44
ag44
ag44
ag44
ag44
ag44
ag44
ag44
ag44
ag44
ag44
ag44
ag44
ag44
ag44
ag44
ag44
ag44
ag44
ag44
ag44
ag44
ag44
ag44
ag44
ag44
ag44
ag44
ag44
ag44
ag44
ag44
ag44
ag44
ag44
ag44
ag44
ag44
ag44
ag44
ag44
ag44
ag44
ag44
ag44
ag44
ag44
ag44
ag44
ag44
ag44
ag44
ag44
ag44
ag44
ag44
ag44
ag44
ag44
ag44
ag44
ag44
ag44
ag44
ag44
ag44
ag44
ag44
ag44
ag44
ag44
ag44
ag44
ag44
ag44
ag44
ag44
ag44
ag44
ag44
ag44
ag44
ag44
ag5
(g9
S'H\xcfd\x10\xbfX\xc3?'
p45
tp46
Rp47
ag47
ag47
ag47
ag47
ag47
ag47
ag47
ag47
ag47
ag47
ag5
(g9
S'\xc4.\xb2\x0bN\xd0\xc1?'
p48
tp49
Rp50
ag50
ag50
ag50
ag5
(g9
S'^y\x03!\\C\xc1?'
p51
tp52
Rp53
ag53
ag53
ag53
ag53
ag5
(g9
S'\xfb\xbf>\xf3B;\xc1?'
p54
tp55
Rp56
ag56
ag56
ag56
ag56
ag56
ag56
ag56
ag56
ag56
ag5
(g9
S'h\x1f\xdc!g,\xbf?'
p57
tp58
Rp59
ag59
ag59
ag59
ag59
ag59
ag59
ag59
ag59
ag59
ag59
ag59
ag59
ag59
ag59
ag59
ag59
ag59
ag59
ag59
ag59
ag59
ag59
ag59
ag59
ag59
ag5
(g9
S"&'\xb7HU\x9b\xb6?"
p60
tp61
Rp62
ag62
ag62
ag62
ag62
ag62
ag62
ag62
ag62
ag62
ag62
ag62
ag62
ag62
ag62
ag62
ag62
ag62
ag62
ag62
ag62
ag62
ag62
ag62
ag62
ag62
ag62
ag62
ag62
ag62
ag62
ag62
ag62
ag62
ag62
ag62
ag62
ag62
ag62
ag62
ag62
ag62
ag62
ag62
ag62
ag62
ag62
ag62
ag62
ag62
ag62
ag62
ag62
ag62
ag62
ag62
ag62
ag62
ag62
ag62
ag62
ag62
ag62
ag62
ag62
ag62
ag62
ag62
ag62
ag62
ag62
ag62
ag62
ag62
ag62
ag62
ag62
ag62
ag62
ag62
ag62
ag62
ag62
ag62
ag62
ag62
ag62
ag62
ag62
ag62
ag62
ag62
ag62
ag62
ag62
ag62
ag62
ag62
ag62
ag62
ag62
ag62
ag62
ag62
ag62
ag62
ag62
ag62
ag62
ag62
ag62
ag62
ag62
ag62
ag62
ag62
ag62
ag62
ag62
ag62
ag62
ag62
ag62
ag62
ag62
ag62
ag62
ag62
ag62
ag62
ag62
ag62
ag62
ag62
ag62
ag62
ag62
ag62
ag62
ag62
ag62
ag62
ag62
ag62
ag62
ag62
ag62
ag62
ag62
ag62
ag62
ag62
ag62
ag62
ag62
ag62
ag62
ag62
ag62
ag62
ag62
ag62
ag62
ag62
ag62
ag62
ag62
ag62
ag62
ag62
ag62
ag62
ag62
ag62
ag62
ag62
ag62
ag62
ag62
ag62
ag62
ag62
ag62
ag62
ag62
ag62
ag62
ag62
ag62
ag62
ag62
ag62
ag62
ag62
ag62
ag62
ag62
ag62
ag62
ag62
ag62
ag62
ag62
ag62
ag62
ag62
ag62
ag62
ag62
ag62
ag62
ag62
ag62
ag5
(g9
S'}w\xe5\xbaoJ\xb4?'
p63
tp64
Rp65
ag65
ag65
ag65
ag65
ag65
ag65
ag65
ag65
ag65
ag65
ag65
ag65
ag65
ag65
ag65
asS'best_P'
p66
(lp67
(itree
PTree
p68
(dp69
S'root'
p70
ccopy_reg
_reconstructor
p71
(ctree
Feature
p72
c__builtin__
object
p73
Ntp74
Rp75
(dp76
S'index'
p77
I1
sS'name'
p78
S'Day'
p79
sS'l'
p80
g71
(ctree
Action
p81
g73
Ntp82
Rp83
(dp84
S'r'
p85
NsS'is_feature'
p86
I00
sS'value'
p87
S'Flood_Control'
p88
sg80
Nsbsg85
g71
(g81
g73
Ntp89
Rp90
(dp91
g85
Nsg86
I00
sg87
S'Release_Demand'
p92
sg80
NsbsS'threshold'
p93
F183.17977529426074
sg86
I01
sbsS'L'
p94
(lp95
g75
ag83
ag90
asS'N'
p96
I3
sbag68
a(itree
PTree
p97
(dp98
g70
g71
(g72
g73
Ntp99
Rp100
(dp101
g77
I1
sg85
g71
(g81
g73
Ntp102
Rp103
(dp104
g85
Nsg86
I00
sg87
S'Hedge_80'
p105
sg80
Nsbsg78
g79
sg93
F159.98910388692414
sg80
g71
(g81
g73
Ntp106
Rp107
(dp108
g85
Nsg86
I00
sg87
S'Flood_Control'
p109
sg80
Nsbsg86
I01
sbsg94
(lp110
g100
ag107
ag103
asg96
I3
sbag97
a(itree
PTree
p111
(dp112
g70
g71
(g72
g73
Ntp113
Rp114
(dp115
g77
I0
sg85
g71
(g81
g73
Ntp116
Rp117
(dp118
g85
Nsg86
I00
sg87
S'Flood_Control'
p119
sg80
Nsbsg78
S'Storage'
p120
sg93
F492.7446816162401
sg80
g71
(g72
g73
Ntp121
Rp122
(dp123
g77
I0
sg85
g71
(g72
g73
Ntp124
Rp125
(dp126
g77
I1
sg85
g71
(g81
g73
Ntp127
Rp128
(dp129
g85
Nsg86
I00
sg87
S'Hedge_80'
p130
sg80
Nsbsg78
g79
sg93
F233.54701078581817
sg80
g71
(g81
g73
Ntp131
Rp132
(dp133
g85
Nsg86
I00
sg87
S'Hedge_90'
p134
sg80
Nsbsg86
I01
sbsg78
g120
sg93
F206.52930154716398
sg80
g71
(g81
g73
Ntp135
Rp136
(dp137
g85
Nsg86
I00
sg87
S'Hedge_90'
p138
sg80
Nsbsg86
I01
sbsg86
I01
sbsg94
(lp139
g114
ag122
ag136
ag125
ag132
ag128
ag117
asg96
I7
sba(itree
PTree
p140
(dp141
g70
g71
(g72
g73
Ntp142
Rp143
(dp144
g77
I0
sg85
g71
(g81
g73
Ntp145
Rp146
(dp147
g85
Nsg86
I00
sg87
S'Flood_Control'
p148
sg80
Nsbsg78
g120
sg93
F459.18642399496525
sg80
g71
(g81
g73
Ntp149
Rp150
(dp151
g85
Nsg86
I00
sg87
S'Release_Demand'
p152
sg80
Nsbsg86
I01
sbsg94
(lp153
g143
ag150
ag146
asg96
I3
sbag140
a(itree
PTree
p154
(dp155
g70
g71
(g72
g73
Ntp156
Rp157
(dp158
g77
I0
sg85
g71
(g72
g73
Ntp159
Rp160
(dp161
g77
I0
sg85
g71
(g81
g73
Ntp162
Rp163
(dp164
g85
Nsg86
I00
sg87
S'Flood_Control'
p165
sg80
Nsbsg78
g120
sg93
F477.7907323881242
sg80
g71
(g81
g73
Ntp166
Rp167
(dp168
g85
Nsg86
I00
sg87
S'Hedge_90'
p169
sg80
Nsbsg86
I01
sbsg78
g120
sg93
F186.2239794948922
sg80
g71
(g81
g73
Ntp170
Rp171
(dp172
g85
Nsg86
I00
sg87
S'Release_Demand'
p173
sg80
Nsbsg86
I01
sbsg94
(lp174
g157
ag171
ag160
ag167
ag163
asg96
I5
sba(itree
PTree
p175
(dp176
g70
g71
(g72
g73
Ntp177
Rp178
(dp179
g77
I0
sg85
g71
(g81
g73
Ntp180
Rp181
(dp182
g85
Nsg86
I00
sg87
S'Flood_Control'
p183
sg80
Nsbsg78
g120
sg93
F470.9308402251403
sg80
g71
(g81
g73
Ntp184
Rp185
(dp186
g85
Nsg86
I00
sg87
S'Release_Demand'
p187
sg80
Nsbsg86
I01
sbsg94
(lp188
g178
ag185
ag181
asg96
I3
sba(itree
PTree
p189
(dp190
g70
g71
(g72
g73
Ntp191
Rp192
(dp193
g77
I0
sg85
g71
(g81
g73
Ntp194
Rp195
(dp196
g85
Nsg86
I00
sg87
g183
sg80
Nsbsg78
g120
sg93
F553.3530056567905
sg80
g71
(g81
g73
Ntp197
Rp198
(dp199
g85
Nsg86
I00
sg87
g187
sg80
Nsbsg86
I01
sbsg94
(lp200
g192
ag198
ag195
asg96
I3
sba(itree
PTree
p201
(dp202
g70
g71
(g72
g73
Ntp203
Rp204
(dp205
g77
I0
sg85
g71
(g72
g73
Ntp206
Rp207
(dp208
g77
I0
sg85
g71
(g81
g73
Ntp209
Rp210
(dp211
g85
Nsg86
I00
sg87
g165
sg80
Nsbsg78
g120
sg93
F558.9123495087962
sg80
g71
(g81
g73
Ntp212
Rp213
(dp214
g85
Nsg86
I00
sg87
g169
sg80
Nsbsg86
I01
sbsg78
g120
sg93
F1.3970229198327146
sg80
g71
(g81
g73
Ntp215
Rp216
(dp217
g85
Nsg86
I00
sg87
g173
sg80
Nsbsg86
I01
sbsg94
(lp218
g204
ag216
ag207
ag213
ag210
asg96
I5
sba(itree
PTree
p219
(dp220
g70
g71
(g72
g73
Ntp221
Rp222
(dp223
g77
I0
sg85
g71
(g72
g73
Ntp224
Rp225
(dp226
g77
I1
sg85
g71
(g81
g73
Ntp227
Rp228
(dp229
g85
Nsg86
I00
sg87
S'Release_Demand'
p230
sg80
Nsbsg78
g79
sg93
F129.53897984448236
sg80
g71
(g81
g73
Ntp231
Rp232
(dp233
g85
Nsg86
I00
sg87
S'Flood_Control'
p234
sg80
Nsbsg86
I01
sbsg78
g120
sg93
F411.0817554711429
sg80
g71
(g81
g73
Ntp235
Rp236
(dp237
g85
Nsg86
I00
sg87
S'Hedge_70'
p238
sg80
Nsbsg86
I01
sbsg94
(lp239
g222
ag236
ag225
ag232
ag228
asg96
I5
sbag219
ag219
a(itree
PTree
p240
(dp241
g70
g71
(g72
g73
Ntp242
Rp243
(dp244
g77
I1
sg85
g71
(g72
g73
Ntp245
Rp246
(dp247
g77
I0
sg85
g71
(g81
g73
Ntp248
Rp249
(dp250
g85
Nsg86
I00
sg87
S'Hedge_90'
p251
sg80
Nsbsg78
g120
sg93
F823.6866217616304
sg80
g71
(g81
g73
Ntp252
Rp253
(dp254
g85
Nsg86
I00
sg87
S'Hedge_80'
p255
sg80
Nsbsg86
I01
sbsg78
g79
sg93
F344.1787230629273
sg80
g71
(g72
g73
Ntp256
Rp257
(dp258
g77
I1
sg85
g71
(g81
g73
Ntp259
Rp260
(dp261
g85
Nsg86
I00
sg87
S'Hedge_70'
p262
sg80
Nsbsg78
g79
sg93
F329.9049405449696
sg80
g71
(g72
g73
Ntp263
Rp264
(dp265
g77
I0
sg85
g71
(g72
g73
Ntp266
Rp267
(dp268
g77
I1
sg85
g71
(g81
g73
Ntp269
Rp270
(dp271
g85
Nsg86
I00
sg87
S'Release_Demand'
p272
sg80
Nsbsg78
g79
sg93
F175.0399987183174
sg80
g71
(g81
g73
Ntp273
Rp274
(dp275
g85
Nsg86
I00
sg87
S'Flood_Control'
p276
sg80
Nsbsg86
I01
sbsg78
g120
sg93
F415.7618667754634
sg80
g71
(g81
g73
Ntp277
Rp278
(dp279
g85
Nsg86
I00
sg87
S'Hedge_80'
p280
sg80
Nsbsg86
I01
sbsg86
I01
sbsg86
I01
sbsg94
(lp281
g243
ag257
ag264
ag278
ag267
ag274
ag270
ag260
ag246
ag253
ag249
asg96
I11
sbag240
a(itree
PTree
p282
(dp283
g70
g71
(g72
g73
Ntp284
Rp285
(dp286
g77
I0
sg85
g71
(g72
g73
Ntp287
Rp288
(dp289
g77
I1
sg85
g71
(g81
g73
Ntp290
Rp291
(dp292
g85
Nsg86
I00
sg87
g230
sg80
Nsbsg78
g79
sg93
F96.49724502531302
sg80
g71
(g81
g73
Ntp293
Rp294
(dp295
g85
Nsg86
I00
sg87
g234
sg80
Nsbsg86
I01
sbsg78
g120
sg93
F423.4300758438807
sg80
g71
(g81
g73
Ntp296
Rp297
(dp298
g85
Nsg86
I00
sg87
S'Hedge_80'
p299
sg80
Nsbsg86
I01
sbsg94
(lp300
g285
ag297
ag288
ag294
ag291
asg96
I5
sbag282
ag282
ag282
ag282
ag282
ag282
ag282
ag282
ag282
ag282
ag282
ag282
ag282
ag282
ag282
ag282
ag282
ag282
ag282
ag282
ag282
ag282
ag282
ag282
ag282
ag282
ag282
ag282
ag282
ag282
ag282
ag282
ag282
ag282
ag282
ag282
ag282
ag282
ag282
ag282
ag282
ag282
ag282
ag282
ag282
ag282
ag282
ag282
ag282
ag282
ag282
ag282
ag282
ag282
ag282
ag282
ag282
ag282
ag282
ag282
ag282
ag282
ag282
ag282
ag282
ag282
ag282
ag282
ag282
ag282
ag282
ag282
ag282
ag282
ag282
ag282
ag282
ag282
ag282
ag282
ag282
ag282
ag282
ag282
ag282
ag282
ag282
ag282
ag282
ag282
ag282
ag282
ag282
ag282
ag282
ag282
ag282
ag282
a(itree
PTree
p301
(dp302
g70
g71
(g72
g73
Ntp303
Rp304
(dp305
g77
I0
sg85
g71
(g72
g73
Ntp306
Rp307
(dp308
g77
I1
sg85
g71
(g81
g73
Ntp309
Rp310
(dp311
g85
Nsg86
I00
sg87
S'Release_Demand'
p312
sg80
Nsbsg78
g79
sg93
F121.68730649242889
sg80
g71
(g81
g73
Ntp313
Rp314
(dp315
g85
Nsg86
I00
sg87
S'Flood_Control'
p316
sg80
Nsbsg86
I01
sbsg78
g120
sg93
F527.599182616421
sg80
g71
(g81
g73
Ntp317
Rp318
(dp319
g85
Nsg86
I00
sg87
S'Hedge_90'
p320
sg80
Nsbsg86
I01
sbsg94
(lp321
g304
ag318
ag307
ag314
ag310
asg96
I5
sbag301
ag301
ag301
ag301
ag301
ag301
ag301
ag301
ag301
ag301
a(itree
PTree
p322
(dp323
g70
g71
(g72
g73
Ntp324
Rp325
(dp326
g77
I0
sg85
g71
(g72
g73
Ntp327
Rp328
(dp329
g77
I0
sg85
g71
(g72
g73
Ntp330
Rp331
(dp332
g77
I1
sg85
g71
(g81
g73
Ntp333
Rp334
(dp335
g85
Nsg86
I00
sg87
S'Release_Demand'
p336
sg80
Nsbsg78
g79
sg93
F112.99709438056159
sg80
g71
(g81
g73
Ntp337
Rp338
(dp339
g85
Nsg86
I00
sg87
S'Flood_Control'
p340
sg80
Nsbsg86
I01
sbsg78
g120
sg93
F530.2346507723912
sg80
g71
(g81
g73
Ntp341
Rp342
(dp343
g85
Nsg86
I00
sg87
S'Hedge_90'
p344
sg80
Nsbsg86
I01
sbsg78
g120
sg93
F372.87814687260243
sg80
g71
(g81
g73
Ntp345
Rp346
(dp347
g85
Nsg86
I00
sg87
S'Hedge_90'
p348
sg80
Nsbsg86
I01
sbsg94
(lp349
g325
ag346
ag328
ag342
ag331
ag338
ag334
asg96
I7
sbag322
ag322
ag322
a(itree
PTree
p350
(dp351
g70
g71
(g72
g73
Ntp352
Rp353
(dp354
g77
I0
sg85
g71
(g72
g73
Ntp355
Rp356
(dp357
g77
I1
sg85
g71
(g81
g73
Ntp358
Rp359
(dp360
g85
Nsg86
I00
sg87
g312
sg80
Nsbsg78
g79
sg93
F113.10736403012127
sg80
g71
(g81
g73
Ntp361
Rp362
(dp363
g85
Nsg86
I00
sg87
g316
sg80
Nsbsg86
I01
sbsg78
g120
sg93
F541.0341641133557
sg80
g71
(g81
g73
Ntp364
Rp365
(dp366
g85
Nsg86
I00
sg87
g320
sg80
Nsbsg86
I01
sbsg94
(lp367
g353
ag365
ag356
ag362
ag359
asg96
I5
sbag350
ag350
ag350
ag350
a(itree
PTree
p368
(dp369
g70
g71
(g72
g73
Ntp370
Rp371
(dp372
g77
I0
sg85
g71
(g72
g73
Ntp373
Rp374
(dp375
g77
I1
sg85
g71
(g81
g73
Ntp376
Rp377
(dp378
g85
Nsg86
I00
sg87
g312
sg80
Nsbsg78
g79
sg93
F113.19689048950644
sg80
g71
(g81
g73
Ntp379
Rp380
(dp381
g85
Nsg86
I00
sg87
g316
sg80
Nsbsg86
I01
sbsg78
g120
sg93
F539.2025317563259
sg80
g71
(g81
g73
Ntp382
Rp383
(dp384
g85
Nsg86
I00
sg87
g320
sg80
Nsbsg86
I01
sbsg94
(lp385
g371
ag383
ag374
ag380
ag377
asg96
I5
sbag368
ag368
ag368
ag368
ag368
ag368
ag368
ag368
ag368
a(itree
PTree
p386
(dp387
g70
g71
(g72
g73
Ntp388
Rp389
(dp390
g77
I0
sg85
g71
(g72
g73
Ntp391
Rp392
(dp393
g77
I1
sg85
g71
(g81
g73
Ntp394
Rp395
(dp396
g85
Nsg86
I00
sg87
g312
sg80
Nsbsg78
g79
sg93
F105.81229838860109
sg80
g71
(g81
g73
Ntp397
Rp398
(dp399
g85
Nsg86
I00
sg87
g316
sg80
Nsbsg86
I01
sbsg78
g120
sg93
F538.1941240268034
sg80
g71
(g81
g73
Ntp400
Rp401
(dp402
g85
Nsg86
I00
sg87
g320
sg80
Nsbsg86
I01
sbsg94
(lp403
g389
ag401
ag392
ag398
ag395
asg96
I5
sbag386
ag386
ag386
ag386
ag386
ag386
ag386
ag386
ag386
ag386
ag386
ag386
ag386
ag386
ag386
ag386
ag386
ag386
ag386
ag386
ag386
ag386
ag386
ag386
ag386
a(itree
PTree
p404
(dp405
g70
g71
(g72
g73
Ntp406
Rp407
(dp408
g77
I0
sg85
g71
(g72
g73
Ntp409
Rp410
(dp411
g77
I0
sg85
g71
(g72
g73
Ntp412
Rp413
(dp414
g77
I1
sg85
g71
(g81
g73
Ntp415
Rp416
(dp417
g85
Nsg86
I00
sg87
g336
sg80
Nsbsg78
g79
sg93
F100.35631059170991
sg80
g71
(g81
g73
Ntp418
Rp419
(dp420
g85
Nsg86
I00
sg87
g340
sg80
Nsbsg86
I01
sbsg78
g120
sg93
F601.6110181769899
sg80
g71
(g81
g73
Ntp421
Rp422
(dp423
g85
Nsg86
I00
sg87
g344
sg80
Nsbsg86
I01
sbsg78
g120
sg93
F440.5178306725348
sg80
g71
(g81
g73
Ntp424
Rp425
(dp426
g85
Nsg86
I00
sg87
g348
sg80
Nsbsg86
I01
sbsg94
(lp427
g407
ag425
ag410
ag422
ag413
ag419
ag416
asg96
I7
sbag404
ag404
ag404
ag404
ag404
ag404
ag404
ag404
ag404
ag404
ag404
ag404
ag404
ag404
ag404
ag404
ag404
ag404
ag404
ag404
ag404
ag404
ag404
ag404
ag404
ag404
ag404
ag404
ag404
ag404
ag404
ag404
ag404
ag404
ag404
ag404
ag404
ag404
ag404
ag404
ag404
ag404
ag404
ag404
ag404
ag404
ag404
ag404
ag404
ag404
ag404
ag404
ag404
ag404
ag404
ag404
ag404
ag404
ag404
ag404
ag404
ag404
ag404
ag404
ag404
ag404
ag404
ag404
ag404
ag404
ag404
ag404
ag404
ag404
ag404
ag404
ag404
ag404
ag404
ag404
ag404
ag404
ag404
ag404
ag404
ag404
ag404
ag404
ag404
ag404
ag404
ag404
ag404
ag404
ag404
ag404
ag404
ag404
ag404
ag404
ag404
ag404
ag404
ag404
ag404
ag404
ag404
ag404
ag404
ag404
ag404
ag404
ag404
ag404
ag404
ag404
ag404
ag404
ag404
ag404
ag404
ag404
ag404
ag404
ag404
ag404
ag404
ag404
ag404
ag404
ag404
ag404
ag404
ag404
ag404
ag404
ag404
ag404
ag404
ag404
ag404
ag404
ag404
ag404
ag404
ag404
ag404
ag404
ag404
ag404
ag404
ag404
ag404
ag404
ag404
ag404
ag404
ag404
ag404
ag404
ag404
ag404
ag404
ag404
ag404
ag404
ag404
ag404
ag404
ag404
ag404
ag404
ag404
ag404
ag404
ag404
ag404
ag404
ag404
ag404
ag404
ag404
ag404
ag404
ag404
ag404
ag404
ag404
ag404
ag404
ag404
ag404
ag404
ag404
ag404
ag404
ag404
ag404
ag404
ag404
ag404
ag404
ag404
ag404
ag404
ag404
ag404
ag404
ag404
ag404
ag404
ag404
a(itree
PTree
p428
(dp429
g70
g71
(g72
g73
Ntp430
Rp431
(dp432
g77
I0
sg85
g71
(g72
g73
Ntp433
Rp434
(dp435
g77
I0
sg85
g71
(g72
g73
Ntp436
Rp437
(dp438
g77
I1
sg85
g71
(g81
g73
Ntp439
Rp440
(dp441
g85
Nsg86
I00
sg87
g336
sg80
Nsbsg78
g79
sg93
F95.18755540235146
sg80
g71
(g81
g73
Ntp442
Rp443
(dp444
g85
Nsg86
I00
sg87
g340
sg80
Nsbsg86
I01
sbsg78
g120
sg93
F601.6110181769899
sg80
g71
(g81
g73
Ntp445
Rp446
(dp447
g85
Nsg86
I00
sg87
g344
sg80
Nsbsg86
I01
sbsg78
g120
sg93
F401.42539057561424
sg80
g71
(g81
g73
Ntp448
Rp449
(dp450
g85
Nsg86
I00
sg87
g348
sg80
Nsbsg86
I01
sbsg94
(lp451
g431
ag449
ag434
ag446
ag437
ag443
ag440
asg96
I7
sbag428
ag428
ag428
ag428
ag428
ag428
ag428
ag428
ag428
ag428
ag428
ag428
ag428
ag428
ag428
asS'time'
p452
(lp453
I37
aI57
aI76
aI95
aI116
aI138
aI159
aI179
aI197
aI216
aI237
aI258
aI275
aI294
aI315
aI334
aI353
aI374
aI393
aI413
aI433
aI456
aI477
aI499
aI520
aI544
aI569
aI594
aI619
aI644
aI669
aI692
aI712
aI730
aI751
aI770
aI788
aI809
aI829
aI855
aI884
aI912
aI940
aI968
aI997
aI1025
aI1054
aI1082
aI1110
aI1138
aI1166
aI1193
aI1221
aI1250
aI1278
aI1306
aI1335
aI1363
aI1391
aI1419
aI1447
aI1476
aI1514
aI1568
aI1643
aI1670
aI1697
aI1724
aI1751
aI1778
aI1804
aI1830
aI1856
aI1880
aI1902
aI1925
aI1946
aI1967
aI1988
aI2008
aI2026
aI2046
aI2066
aI2086
aI2105
aI2124
aI2144
aI2165
aI2185
aI2206
aI2225
aI2245
aI2267
aI2286
aI2307
aI2329
aI2351
aI2372
aI2393
aI2413
aI2434
aI2455
aI2476
aI2496
aI2519
aI2540
aI2561
aI2583
aI2603
aI2622
aI2643
aI2665
aI2686
aI2707
aI2726
aI2747
aI2768
aI2787
aI2812
aI2839
aI2865
aI2891
aI2918
aI2945
aI2972
aI2998
aI3022
aI3047
aI3069
aI3089
aI3111
aI3133
aI3153
aI3197
aI3290
aI3347
aI3400
aI3454
aI3519
aI3594
aI3676
aI3752
aI3831
aI3914
aI3954
aI3979
aI4004
aI4029
aI4055
aI4080
aI4105
aI4130
aI4167
aI4229
aI4295
aI4364
aI4444
aI4522
aI4601
aI4674
aI4729
aI4752
aI4777
aI4801
aI4825
aI4850
aI4873
aI4896
aI4918
aI4938
aI5015
aI5091
aI5118
aI5144
aI5172
aI5195
aI5216
aI5238
aI5259
aI5282
aI5303
aI5324
aI5345
aI5367
aI5388
aI5410
aI5431
aI5452
aI5506
aI5570
aI5592
aI5614
aI5637
aI5658
aI5680
aI5700
aI5719
aI5739
aI5758
aI5777
aI5798
aI5819
aI5843
aI5870
aI5897
aI5923
aI5948
aI5973
aI5999
aI6026
aI6053
aI6077
aI6102
aI6126
aI6150
aI6175
aI6202
aI6226
aI6248
aI6272
aI6294
aI6315
aI6334
aI6354
aI6373
aI6395
aI6416
aI6435
aI6457
aI6477
aI6498
aI6521
aI6542
aI6563
aI6585
aI6607
aI6627
aI6647
aI6668
aI6688
aI6708
aI6727
aI6749
aI6769
aI6792
aI6818
aI6845
aI6886
aI6914
aI6942
aI6971
aI6999
aI7027
aI7056
aI7083
aI7110
aI7137
aI7163
aI7189
aI7215
aI7239
aI7265
aI7290
aI7315
aI7340
aI7364
aI7388
aI7412
aI7436
aI7460
aI7485
aI7510
aI7537
aI7565
aI7592
aI7620
aI7648
aI7676
aI7704
aI7732
aI7760
aI7789
aI7817
aI7846
aI7874
aI7902
aI7931
aI7960
aI7988
aI8018
aI8048
aI8080
aI8112
aI8145
aI8177
aI8209
aI8242
aI8275
aI8308
aI8339
aI8369
aI8400
aI8432
aI8465
aI8495
aI8527
aI8559
aI8590
aI8618
aI8651
aI8683
aI8715
aI8746
aI8777
aI8808
aI8841
aI8872
aI8902
aI8933
aI8963
aI8995
aI9027
aI9057
aI9088
aI9120
aI9152
aI9184
aI9216
aI9247
aI9279
aI9310
aI9342
aI9373
aI9404
aI9436
aI9469
aI9499
aI9532
aI9563
aI9597
aI9626
aI9657
aI9691
aI9722
aI9753
aI9784
aI9815
aI9847
aI9880
aI9911
aI9942
aI9975
aI10006
aI10039
aI10071
aI10103
aI10134
aI10165
aI10196
aI10228
aI10261
aI10293
aI10324
aI10356
aI10388
aI10419
aI10452
aI10483
aI10514
aI10545
aI10576
aI10607
aI10640
aI10672
aI10704
aI10736
aI10766
aI10796
aI10828
aI10858
aI10892
aI10923
aI10953
aI10985
aI11015
aI11047
aI11078
aI11107
aI11138
aI11169
aI11200
aI11232
aI11266
aI11297
aI11327
aI11359
aI11391
aI11423
aI11455
aI11486
as.