(dp0
S'nfe'
p1
(lp2
I50
aI100
aI150
aI200
aI250
aI300
aI350
aI400
aI450
aI500
aI550
aI600
aI650
aI700
aI750
aI800
aI850
aI900
aI950
aI1000
aI1050
aI1100
aI1150
aI1200
aI1250
aI1300
aI1350
aI1400
aI1450
aI1500
aI1550
aI1600
aI1650
aI1700
aI1750
aI1800
aI1850
aI1900
aI1950
aI2000
aI2050
aI2100
aI2150
aI2200
aI2250
aI2300
aI2350
aI2400
aI2450
aI2500
aI2550
aI2600
aI2650
aI2700
aI2750
aI2800
aI2850
aI2900
aI2950
aI3000
aI3050
aI3100
aI3150
aI3200
aI3250
aI3300
aI3350
aI3400
aI3450
aI3500
aI3550
aI3600
aI3650
aI3700
aI3750
aI3800
aI3850
aI3900
aI3950
aI4000
aI4050
aI4100
aI4150
aI4200
aI4250
aI4300
aI4350
aI4400
aI4450
aI4500
aI4550
aI4600
aI4650
aI4700
aI4750
aI4800
aI4850
aI4900
aI4950
aI5000
aI5050
aI5100
aI5150
aI5200
aI5250
aI5300
aI5350
aI5400
aI5450
aI5500
aI5550
aI5600
aI5650
aI5700
aI5750
aI5800
aI5850
aI5900
aI5950
aI6000
aI6050
aI6100
aI6150
aI6200
aI6250
aI6300
aI6350
aI6400
aI6450
aI6500
aI6550
aI6600
aI6650
aI6700
aI6750
aI6800
aI6850
aI6900
aI6950
aI7000
aI7050
aI7100
aI7150
aI7200
aI7250
aI7300
aI7350
aI7400
aI7450
aI7500
aI7550
aI7600
aI7650
aI7700
aI7750
aI7800
aI7850
aI7900
aI7950
aI8000
aI8050
aI8100
aI8150
aI8200
aI8250
aI8300
aI8350
aI8400
aI8450
aI8500
aI8550
aI8600
aI8650
aI8700
aI8750
aI8800
aI8850
aI8900
aI8950
aI9000
aI9050
aI9100
aI9150
aI9200
aI9250
aI9300
aI9350
aI9400
aI9450
aI9500
aI9550
aI9600
aI9650
aI9700
aI9750
aI9800
aI9850
aI9900
aI9950
aI10000
aI10050
aI10100
aI10150
aI10200
aI10250
aI10300
aI10350
aI10400
aI10450
aI10500
aI10550
aI10600
aI10650
aI10700
aI10750
aI10800
aI10850
aI10900
aI10950
aI11000
aI11050
aI11100
aI11150
aI11200
aI11250
aI11300
aI11350
aI11400
aI11450
aI11500
aI11550
aI11600
aI11650
aI11700
aI11750
aI11800
aI11850
aI11900
aI11950
aI12000
aI12050
aI12100
aI12150
aI12200
aI12250
aI12300
aI12350
aI12400
aI12450
aI12500
aI12550
aI12600
aI12650
aI12700
aI12750
aI12800
aI12850
aI12900
aI12950
aI13000
aI13050
aI13100
aI13150
aI13200
aI13250
aI13300
aI13350
aI13400
aI13450
aI13500
aI13550
aI13600
aI13650
aI13700
aI13750
aI13800
aI13850
aI13900
aI13950
aI14000
aI14050
aI14100
aI14150
aI14200
aI14250
aI14300
aI14350
aI14400
aI14450
aI14500
aI14550
aI14600
aI14650
aI14700
aI14750
aI14800
aI14850
aI14900
aI14950
aI15000
aI15050
aI15100
aI15150
aI15200
aI15250
aI15300
aI15350
aI15400
aI15450
aI15500
aI15550
aI15600
aI15650
aI15700
aI15750
aI15800
aI15850
aI15900
aI15950
aI16000
aI16050
aI16100
aI16150
aI16200
aI16250
aI16300
aI16350
aI16400
aI16450
aI16500
aI16550
aI16600
aI16650
aI16700
aI16750
aI16800
aI16850
aI16900
aI16950
aI17000
aI17050
aI17100
aI17150
aI17200
aI17250
aI17300
aI17350
aI17400
aI17450
aI17500
aI17550
aI17600
aI17650
aI17700
aI17750
aI17800
aI17850
aI17900
aI17950
aI18000
aI18050
aI18100
aI18150
aI18200
aI18250
aI18300
aI18350
aI18400
aI18450
aI18500
aI18550
aI18600
aI18650
aI18700
aI18750
aI18800
aI18850
aI18900
aI18950
aI19000
aI19050
aI19100
aI19150
aI19200
aI19250
aI19300
aI19350
aI19400
aI19450
aI19500
aI19550
aI19600
aI19650
aI19700
aI19750
aI19800
aI19850
aI19900
aI19950
aI20000
asS'best_f'
p3
(lp4
cnumpy.core.multiarray
scalar
p5
(cnumpy
dtype
p6
(S'f8'
p7
I0
I1
tp8
Rp9
(I3
S'<'
p10
NNNI-1
I-1
I0
tp11
bS"\x16\xae\xe2o'\xb5\xfd?"
p12
tp13
Rp14
ag5
(g9
S'\x0fX\x7f\xc2\x99\xde\xf4?'
p15
tp16
Rp17
ag5
(g9
S'\xd4\xb9\xf3cH\x91\xf1?'
p18
tp19
Rp20
ag5
(g9
S'\xb2\x08\xa3\xac\x83;\xe7?'
p21
tp22
Rp23
ag23
ag5
(g9
S'\xde:\xf3w\x15\x9a\xe6?'
p24
tp25
Rp26
ag5
(g9
S'e|\x92\xd9\xa1\x9e\xe4?'
p27
tp28
Rp29
ag29
ag5
(g9
S'\xd4\x11\xc4\xf4N\xe3\xe2?'
p30
tp31
Rp32
ag5
(g9
S'+\x00k\xce!\xf1\xdf?'
p33
tp34
Rp35
ag35
ag5
(g9
S'\xf9\xaf\x16\xc3g\xad\xdf?'
p36
tp37
Rp38
ag38
ag38
ag38
ag38
ag38
ag5
(g9
S'\xc0\r\xb5\xa1\x1d\xee\xd0?'
p39
tp40
Rp41
ag41
ag5
(g9
S'\xf8\x91\xfb\xb1\x83J\xd0?'
p42
tp43
Rp44
ag5
(g9
S'6_\xebeTZ\xcf?'
p45
tp46
Rp47
ag5
(g9
S'\xfe\xff[\x15\xbfF\xcc?'
p48
tp49
Rp50
ag50
ag50
ag50
ag50
ag50
ag50
ag50
ag50
ag50
ag50
ag5
(g9
S'.\xa8@\xd0-|\xcb?'
p51
tp52
Rp53
ag53
ag53
ag53
ag53
ag53
ag53
ag53
ag53
ag53
ag53
ag5
(g9
S'\x83\x12\x0e2b5\xc9?'
p54
tp55
Rp56
ag56
ag56
ag56
ag56
ag56
ag56
ag56
ag5
(g9
S'\xb4\xf5\xcd\xaf\xee\xda\xc7?'
p57
tp58
Rp59
ag59
ag59
ag59
ag59
ag59
ag5
(g9
S'\xdbG\x9eg#\xf5\xc4?'
p60
tp61
Rp62
ag62
ag62
ag62
ag62
ag62
ag62
ag62
ag62
ag5
(g9
S'#\x97\x15U\xf4\xa7\xc4?'
p63
tp64
Rp65
ag65
ag65
ag65
ag65
ag65
ag65
ag65
ag65
ag65
ag65
ag5
(g9
S'\xb0\x98\n\x8fe\xf0\xc2?'
p66
tp67
Rp68
ag68
ag68
ag68
ag68
ag68
ag68
ag68
ag68
ag68
ag68
ag68
ag68
ag68
ag68
ag68
ag68
ag68
ag68
ag68
ag68
ag68
ag68
ag68
ag68
ag68
ag68
ag68
ag68
ag68
ag68
ag68
ag68
ag68
ag68
ag68
ag5
(g9
S'\x9eT)\xb8H4\xc2?'
p69
tp70
Rp71
ag71
ag71
ag71
ag71
ag71
ag71
ag71
ag71
ag71
ag71
ag71
ag71
ag71
ag71
ag71
ag71
ag71
ag71
ag71
ag71
ag71
ag71
ag71
ag71
ag71
ag71
ag71
ag71
ag71
ag71
ag71
ag71
ag71
ag71
ag71
ag71
ag71
ag71
ag71
ag71
ag71
ag71
ag71
ag71
ag71
ag71
ag71
ag71
ag71
ag71
ag71
ag71
ag71
ag71
ag71
ag71
ag71
ag71
ag71
ag71
ag71
ag71
ag71
ag71
ag71
ag71
ag71
ag71
ag71
ag71
ag71
ag71
ag71
ag71
ag71
ag71
ag71
ag71
ag71
ag71
ag71
ag71
ag71
ag71
ag71
ag71
ag71
ag71
ag71
ag71
ag71
ag71
ag71
ag71
ag71
ag71
ag71
ag71
ag71
ag71
ag71
ag5
(g9
S'*3\xb8+\x95*\xc2?'
p72
tp73
Rp74
ag74
ag74
ag74
ag74
ag74
ag74
ag74
ag74
ag5
(g9
S'\xaa\x96\xa9\x13\xa4\x9f\xc1?'
p75
tp76
Rp77
ag77
ag77
ag77
ag77
ag77
ag77
ag77
ag77
ag77
ag77
ag77
ag77
ag77
ag77
ag77
ag77
ag77
ag77
ag77
ag77
ag77
ag77
ag77
ag77
ag77
ag77
ag77
ag77
ag77
ag77
ag77
ag77
ag77
ag77
ag77
ag77
ag77
ag77
ag77
ag77
ag77
ag77
ag77
ag77
ag77
ag77
ag77
ag77
ag77
ag77
ag77
ag77
ag77
ag77
ag77
ag77
ag77
ag77
ag77
ag77
ag77
ag77
ag77
ag77
ag77
ag77
ag77
ag77
ag77
ag77
ag77
ag77
ag77
ag77
ag77
ag77
ag77
ag77
ag77
ag77
ag77
ag77
ag77
ag77
ag77
ag77
ag77
ag77
ag77
ag77
ag77
ag77
ag77
ag77
ag77
ag77
ag77
ag77
ag77
ag77
ag77
ag77
ag77
ag77
ag77
ag77
ag77
ag77
ag77
ag77
ag77
ag77
ag77
ag77
ag77
ag77
ag77
ag77
ag77
ag77
ag77
ag77
ag77
ag77
ag77
ag77
ag77
ag77
ag77
ag77
ag77
ag77
ag77
ag77
ag77
ag5
(g9
S'\xabtG*]\x8e\xc1?'
p78
tp79
Rp80
ag80
ag80
ag80
ag80
ag80
ag80
ag80
ag80
ag80
ag80
ag80
ag80
ag80
ag80
ag80
ag80
ag80
ag80
ag80
ag80
ag80
ag80
ag80
ag80
ag80
ag80
ag80
ag80
ag80
ag80
ag80
ag80
ag80
ag80
ag80
ag80
ag80
ag80
ag80
asS'best_P'
p81
(lp82
(itree
PTree
p83
(dp84
S'root'
p85
ccopy_reg
_reconstructor
p86
(ctree
Feature
p87
c__builtin__
object
p88
Ntp89
Rp90
(dp91
S'index'
p92
I1
sS'name'
p93
S'Day'
p94
sS'l'
p95
g86
(ctree
Action
p96
g88
Ntp97
Rp98
(dp99
S'r'
p100
NsS'is_feature'
p101
I00
sS'value'
p102
S'Flood_Control'
p103
sg95
Nsbsg100
g86
(g96
g88
Ntp104
Rp105
(dp106
g100
Nsg101
I00
sg102
S'Hedge_90'
p107
sg95
NsbsS'threshold'
p108
F255.9919817285131
sg101
I01
sbsS'L'
p109
(lp110
g90
ag98
ag105
asS'N'
p111
I3
sba(itree
PTree
p112
(dp113
g85
g86
(g87
g88
Ntp114
Rp115
(dp116
g92
I0
sg100
g86
(g96
g88
Ntp117
Rp118
(dp119
g100
Nsg101
I00
sg102
S'Flood_Control'
p120
sg95
Nsbsg93
S'Storage'
p121
sg108
F560.8492088467248
sg95
g86
(g96
g88
Ntp122
Rp123
(dp124
g100
Nsg101
I00
sg102
S'Hedge_70'
p125
sg95
Nsbsg101
I01
sbsg109
(lp126
g115
ag123
ag118
asg111
I3
sba(itree
PTree
p127
(dp128
g85
g86
(g87
g88
Ntp129
Rp130
(dp131
g92
I1
sg100
g86
(g96
g88
Ntp132
Rp133
(dp134
g100
Nsg101
I00
sg102
S'Hedge_80'
p135
sg95
Nsbsg93
g94
sg108
F196.5227498126819
sg95
g86
(g96
g88
Ntp136
Rp137
(dp138
g100
Nsg101
I00
sg102
S'Flood_Control'
p139
sg95
Nsbsg101
I01
sbsg109
(lp140
g130
ag137
ag133
asg111
I3
sba(itree
PTree
p141
(dp142
g85
g86
(g87
g88
Ntp143
Rp144
(dp145
g92
I1
sg100
g86
(g96
g88
Ntp146
Rp147
(dp148
g100
Nsg101
I00
sg102
g135
sg95
Nsbsg93
g94
sg108
F147.36632419084356
sg95
g86
(g96
g88
Ntp149
Rp150
(dp151
g100
Nsg101
I00
sg102
S'Flood_Control'
p152
sg95
Nsbsg101
I01
sbsg109
(lp153
g144
ag150
ag147
asg111
I3
sbag141
a(itree
PTree
p154
(dp155
g85
g86
(g87
g88
Ntp156
Rp157
(dp158
g92
I1
sg100
g86
(g96
g88
Ntp159
Rp160
(dp161
g100
Nsg101
I00
sg102
g135
sg95
Nsbsg93
g94
sg108
F138.27505054160653
sg95
g86
(g96
g88
Ntp162
Rp163
(dp164
g100
Nsg101
I00
sg102
g139
sg95
Nsbsg101
I01
sbsg109
(lp165
g157
ag163
ag160
asg111
I3
sba(itree
PTree
p166
(dp167
g85
g86
(g87
g88
Ntp168
Rp169
(dp170
g92
I1
sg100
g86
(g96
g88
Ntp171
Rp172
(dp173
g100
Nsg101
I00
sg102
S'Release_Demand'
p174
sg95
Nsbsg93
g94
sg108
F127.94928612460838
sg95
g86
(g96
g88
Ntp175
Rp176
(dp177
g100
Nsg101
I00
sg102
S'Flood_Control'
p178
sg95
Nsbsg101
I01
sbsg109
(lp179
g169
ag176
ag172
asg111
I3
sbag166
a(itree
PTree
p180
(dp181
g85
g86
(g87
g88
Ntp182
Rp183
(dp184
g92
I1
sg100
g86
(g96
g88
Ntp185
Rp186
(dp187
g100
Nsg101
I00
sg102
S'Release_Demand'
p188
sg95
Nsbsg93
g94
sg108
F106.66339431605793
sg95
g86
(g96
g88
Ntp189
Rp190
(dp191
g100
Nsg101
I00
sg102
g178
sg95
Nsbsg101
I01
sbsg109
(lp192
g183
ag190
ag186
asg111
I3
sba(itree
PTree
p193
(dp194
g85
g86
(g87
g88
Ntp195
Rp196
(dp197
g92
I1
sg100
g86
(g96
g88
Ntp198
Rp199
(dp200
g100
Nsg101
I00
sg102
S'Hedge_90'
p201
sg95
Nsbsg93
g94
sg108
F98.14218788634821
sg95
g86
(g96
g88
Ntp202
Rp203
(dp204
g100
Nsg101
I00
sg102
S'Flood_Control'
p205
sg95
Nsbsg101
I01
sbsg109
(lp206
g196
ag203
ag199
asg111
I3
sbag193
a(itree
PTree
p207
(dp208
g85
g86
(g87
g88
Ntp209
Rp210
(dp211
g92
I1
sg100
g86
(g96
g88
Ntp212
Rp213
(dp214
g100
Nsg101
I00
sg102
S'Hedge_90'
p215
sg95
Nsbsg93
g94
sg108
F110.59263787908709
sg95
g86
(g96
g88
Ntp216
Rp217
(dp218
g100
Nsg101
I00
sg102
S'Flood_Control'
p219
sg95
Nsbsg101
I01
sbsg109
(lp220
g210
ag217
ag213
asg111
I3
sbag207
ag207
ag207
ag207
ag207
a(itree
PTree
p221
(dp222
g85
g86
(g87
g88
Ntp223
Rp224
(dp225
g92
I1
sg100
g86
(g96
g88
Ntp226
Rp227
(dp228
g100
Nsg101
I00
sg102
S'Release_Demand'
p229
sg95
Nsbsg93
g94
sg108
F165.36631798771975
sg95
g86
(g87
g88
Ntp230
Rp231
(dp232
g92
I0
sg100
g86
(g96
g88
Ntp233
Rp234
(dp235
g100
Nsg101
I00
sg102
S'Flood_Control'
p236
sg95
Nsbsg93
g121
sg108
F537.138578325085
sg95
g86
(g96
g88
Ntp237
Rp238
(dp239
g100
Nsg101
I00
sg102
S'Release_Demand'
p240
sg95
Nsbsg101
I01
sbsg101
I01
sbsg109
(lp241
g224
ag231
ag238
ag234
ag227
asg111
I5
sbag221
a(itree
PTree
p242
(dp243
g85
g86
(g87
g88
Ntp244
Rp245
(dp246
g92
I1
sg100
g86
(g96
g88
Ntp247
Rp248
(dp249
g100
Nsg101
I00
sg102
g229
sg95
Nsbsg93
g94
sg108
F129.0527014283709
sg95
g86
(g87
g88
Ntp250
Rp251
(dp252
g92
I0
sg100
g86
(g96
g88
Ntp253
Rp254
(dp255
g100
Nsg101
I00
sg102
S'Flood_Control'
p256
sg95
Nsbsg93
g121
sg108
F535.7512490797003
sg95
g86
(g96
g88
Ntp257
Rp258
(dp259
g100
Nsg101
I00
sg102
S'Release_Demand'
p260
sg95
Nsbsg101
I01
sbsg101
I01
sbsg109
(lp261
g245
ag251
ag258
ag254
ag248
asg111
I5
sba(itree
PTree
p262
(dp263
g85
g86
(g87
g88
Ntp264
Rp265
(dp266
g92
I1
sg100
g86
(g96
g88
Ntp267
Rp268
(dp269
g100
Nsg101
I00
sg102
g229
sg95
Nsbsg93
g94
sg108
F125.17948760047621
sg95
g86
(g87
g88
Ntp270
Rp271
(dp272
g92
I0
sg100
g86
(g96
g88
Ntp273
Rp274
(dp275
g100
Nsg101
I00
sg102
g236
sg95
Nsbsg93
g121
sg108
F556.2949671313258
sg95
g86
(g96
g88
Ntp276
Rp277
(dp278
g100
Nsg101
I00
sg102
g240
sg95
Nsbsg101
I01
sbsg101
I01
sbsg109
(lp279
g265
ag271
ag277
ag274
ag268
asg111
I5
sba(itree
PTree
p280
(dp281
g85
g86
(g87
g88
Ntp282
Rp283
(dp284
g92
I1
sg100
g86
(g96
g88
Ntp285
Rp286
(dp287
g100
Nsg101
I00
sg102
g229
sg95
Nsbsg93
g94
sg108
F100.99285973267246
sg95
g86
(g87
g88
Ntp288
Rp289
(dp290
g92
I0
sg100
g86
(g96
g88
Ntp291
Rp292
(dp293
g100
Nsg101
I00
sg102
g236
sg95
Nsbsg93
g121
sg108
F556.2949671313258
sg95
g86
(g96
g88
Ntp294
Rp295
(dp296
g100
Nsg101
I00
sg102
g240
sg95
Nsbsg101
I01
sbsg101
I01
sbsg109
(lp297
g283
ag289
ag295
ag292
ag286
asg111
I5
sbag280
ag280
ag280
ag280
ag280
ag280
ag280
ag280
ag280
ag280
a(itree
PTree
p298
(dp299
g85
g86
(g87
g88
Ntp300
Rp301
(dp302
g92
I1
sg100
g86
(g96
g88
Ntp303
Rp304
(dp305
g100
Nsg101
I00
sg102
g229
sg95
Nsbsg93
g94
sg108
F100.99285973267246
sg95
g86
(g87
g88
Ntp306
Rp307
(dp308
g92
I0
sg100
g86
(g96
g88
Ntp309
Rp310
(dp311
g100
Nsg101
I00
sg102
g236
sg95
Nsbsg93
g121
sg108
F550.1631899988979
sg95
g86
(g96
g88
Ntp312
Rp313
(dp314
g100
Nsg101
I00
sg102
g240
sg95
Nsbsg101
I01
sbsg101
I01
sbsg109
(lp315
g301
ag307
ag313
ag310
ag304
asg111
I5
sbag298
ag298
ag298
ag298
ag298
ag298
ag298
ag298
ag298
ag298
a(itree
PTree
p316
(dp317
g85
g86
(g87
g88
Ntp318
Rp319
(dp320
g92
I1
sg100
g86
(g96
g88
Ntp321
Rp322
(dp323
g100
Nsg101
I00
sg102
S'Hedge_90'
p324
sg95
Nsbsg93
g94
sg108
F107.37658128219952
sg95
g86
(g87
g88
Ntp325
Rp326
(dp327
g92
I0
sg100
g86
(g96
g88
Ntp328
Rp329
(dp330
g100
Nsg101
I00
sg102
S'Flood_Control'
p331
sg95
Nsbsg93
g121
sg108
F516.2186713670279
sg95
g86
(g96
g88
Ntp332
Rp333
(dp334
g100
Nsg101
I00
sg102
S'Release_Demand'
p335
sg95
Nsbsg101
I01
sbsg101
I01
sbsg109
(lp336
g319
ag326
ag333
ag329
ag322
asg111
I5
sbag316
ag316
ag316
ag316
ag316
ag316
ag316
a(itree
PTree
p337
(dp338
g85
g86
(g87
g88
Ntp339
Rp340
(dp341
g92
I1
sg100
g86
(g96
g88
Ntp342
Rp343
(dp344
g100
Nsg101
I00
sg102
g324
sg95
Nsbsg93
g94
sg108
F102.54380762495607
sg95
g86
(g87
g88
Ntp345
Rp346
(dp347
g92
I0
sg100
g86
(g96
g88
Ntp348
Rp349
(dp350
g100
Nsg101
I00
sg102
g331
sg95
Nsbsg93
g121
sg108
F534.571077885891
sg95
g86
(g96
g88
Ntp351
Rp352
(dp353
g100
Nsg101
I00
sg102
g335
sg95
Nsbsg101
I01
sbsg101
I01
sbsg109
(lp354
g340
ag346
ag352
ag349
ag343
asg111
I5
sbag337
ag337
ag337
ag337
ag337
a(itree
PTree
p355
(dp356
g85
g86
(g87
g88
Ntp357
Rp358
(dp359
g92
I1
sg100
g86
(g96
g88
Ntp360
Rp361
(dp362
g100
Nsg101
I00
sg102
g324
sg95
Nsbsg93
g94
sg108
F102.54380762495607
sg95
g86
(g87
g88
Ntp363
Rp364
(dp365
g92
I0
sg100
g86
(g96
g88
Ntp366
Rp367
(dp368
g100
Nsg101
I00
sg102
g331
sg95
Nsbsg93
g121
sg108
F553.3650665391243
sg95
g86
(g96
g88
Ntp369
Rp370
(dp371
g100
Nsg101
I00
sg102
g335
sg95
Nsbsg101
I01
sbsg101
I01
sbsg109
(lp372
g358
ag364
ag370
ag367
ag361
asg111
I5
sbag355
ag355
ag355
ag355
ag355
ag355
ag355
ag355
a(itree
PTree
p373
(dp374
g85
g86
(g87
g88
Ntp375
Rp376
(dp377
g92
I1
sg100
g86
(g96
g88
Ntp378
Rp379
(dp380
g100
Nsg101
I00
sg102
S'Hedge_90'
p381
sg95
Nsbsg93
g94
sg108
F113.5877491711522
sg95
g86
(g87
g88
Ntp382
Rp383
(dp384
g92
I0
sg100
g86
(g96
g88
Ntp385
Rp386
(dp387
g100
Nsg101
I00
sg102
S'Flood_Control'
p388
sg95
Nsbsg93
g121
sg108
F561.3711471108846
sg95
g86
(g96
g88
Ntp389
Rp390
(dp391
g100
Nsg101
I00
sg102
S'Hedge_90'
p392
sg95
Nsbsg101
I01
sbsg101
I01
sbsg109
(lp393
g376
ag383
ag390
ag386
ag379
asg111
I5
sbag373
ag373
ag373
ag373
ag373
ag373
ag373
ag373
ag373
ag373
a(itree
PTree
p394
(dp395
g85
g86
(g87
g88
Ntp396
Rp397
(dp398
g92
I1
sg100
g86
(g96
g88
Ntp399
Rp400
(dp401
g100
Nsg101
I00
sg102
g381
sg95
Nsbsg93
g94
sg108
F113.5877491711522
sg95
g86
(g87
g88
Ntp402
Rp403
(dp404
g92
I0
sg100
g86
(g96
g88
Ntp405
Rp406
(dp407
g100
Nsg101
I00
sg102
g388
sg95
Nsbsg93
g121
sg108
F588.1096042768
sg95
g86
(g96
g88
Ntp408
Rp409
(dp410
g100
Nsg101
I00
sg102
g392
sg95
Nsbsg101
I01
sbsg101
I01
sbsg109
(lp411
g397
ag403
ag409
ag406
ag400
asg111
I5
sbag394
ag394
ag394
ag394
ag394
ag394
ag394
ag394
ag394
ag394
ag394
ag394
ag394
ag394
ag394
ag394
ag394
ag394
ag394
ag394
ag394
ag394
ag394
ag394
ag394
ag394
ag394
ag394
ag394
ag394
ag394
ag394
ag394
ag394
ag394
a(itree
PTree
p412
(dp413
g85
g86
(g87
g88
Ntp414
Rp415
(dp416
g92
I1
sg100
g86
(g96
g88
Ntp417
Rp418
(dp419
g100
Nsg101
I00
sg102
g381
sg95
Nsbsg93
g94
sg108
F109.13717961803641
sg95
g86
(g87
g88
Ntp420
Rp421
(dp422
g92
I0
sg100
g86
(g96
g88
Ntp423
Rp424
(dp425
g100
Nsg101
I00
sg102
g388
sg95
Nsbsg93
g121
sg108
F587.2716467381252
sg95
g86
(g96
g88
Ntp426
Rp427
(dp428
g100
Nsg101
I00
sg102
g392
sg95
Nsbsg101
I01
sbsg101
I01
sbsg109
(lp429
g415
ag421
ag427
ag424
ag418
asg111
I5
sbag412
ag412
ag412
ag412
ag412
ag412
ag412
ag412
ag412
ag412
ag412
ag412
ag412
ag412
ag412
ag412
ag412
ag412
ag412
ag412
ag412
ag412
ag412
ag412
ag412
ag412
ag412
ag412
ag412
ag412
ag412
ag412
ag412
ag412
ag412
ag412
ag412
ag412
ag412
ag412
ag412
ag412
ag412
ag412
ag412
ag412
ag412
ag412
ag412
ag412
ag412
ag412
ag412
ag412
ag412
ag412
ag412
ag412
ag412
ag412
ag412
ag412
ag412
ag412
ag412
ag412
ag412
ag412
ag412
ag412
ag412
ag412
ag412
ag412
ag412
ag412
ag412
ag412
ag412
ag412
ag412
ag412
ag412
ag412
ag412
ag412
ag412
ag412
ag412
ag412
ag412
ag412
ag412
ag412
ag412
ag412
ag412
ag412
ag412
ag412
ag412
a(itree
PTree
p430
(dp431
g85
g86
(g87
g88
Ntp432
Rp433
(dp434
g92
I1
sg100
g86
(g96
g88
Ntp435
Rp436
(dp437
g100
Nsg101
I00
sg102
S'Hedge_90'
p438
sg95
Nsbsg93
g94
sg108
F97.54301475554266
sg95
g86
(g87
g88
Ntp439
Rp440
(dp441
g92
I1
sg100
g86
(g96
g88
Ntp442
Rp443
(dp444
g100
Nsg101
I00
sg102
S'Flood_Control'
p445
sg95
Nsbsg93
g94
sg108
F133.53920998839746
sg95
g86
(g87
g88
Ntp446
Rp447
(dp448
g92
I0
sg100
g86
(g96
g88
Ntp449
Rp450
(dp451
g100
Nsg101
I00
sg102
S'Flood_Control'
p452
sg95
Nsbsg93
g121
sg108
F600.0282946318931
sg95
g86
(g96
g88
Ntp453
Rp454
(dp455
g100
Nsg101
I00
sg102
S'Hedge_90'
p456
sg95
Nsbsg101
I01
sbsg101
I01
sbsg101
I01
sbsg109
(lp457
g433
ag440
ag447
ag454
ag450
ag443
ag436
asg111
I7
sbag430
ag430
ag430
ag430
ag430
ag430
ag430
ag430
a(itree
PTree
p458
(dp459
g85
g86
(g87
g88
Ntp460
Rp461
(dp462
g92
I1
sg100
g86
(g96
g88
Ntp463
Rp464
(dp465
g100
Nsg101
I00
sg102
g324
sg95
Nsbsg93
g94
sg108
F96.88677455964391
sg95
g86
(g87
g88
Ntp466
Rp467
(dp468
g92
I0
sg100
g86
(g96
g88
Ntp469
Rp470
(dp471
g100
Nsg101
I00
sg102
g331
sg95
Nsbsg93
g121
sg108
F600.6859972214439
sg95
g86
(g96
g88
Ntp472
Rp473
(dp474
g100
Nsg101
I00
sg102
g335
sg95
Nsbsg101
I01
sbsg101
I01
sbsg109
(lp475
g461
ag467
ag473
ag470
ag464
asg111
I5
sbag458
ag458
ag458
ag458
ag458
ag458
ag458
ag458
ag458
ag458
ag458
ag458
ag458
ag458
ag458
ag458
ag458
ag458
ag458
ag458
ag458
ag458
ag458
ag458
ag458
ag458
ag458
ag458
ag458
ag458
ag458
ag458
ag458
ag458
ag458
ag458
ag458
ag458
ag458
ag458
ag458
ag458
ag458
ag458
ag458
ag458
ag458
ag458
ag458
ag458
ag458
ag458
ag458
ag458
ag458
ag458
ag458
ag458
ag458
ag458
ag458
ag458
ag458
ag458
ag458
ag458
ag458
ag458
ag458
ag458
ag458
ag458
ag458
ag458
ag458
ag458
ag458
ag458
ag458
ag458
ag458
ag458
ag458
ag458
ag458
ag458
ag458
ag458
ag458
ag458
ag458
ag458
ag458
ag458
ag458
ag458
ag458
ag458
ag458
ag458
ag458
ag458
ag458
ag458
ag458
ag458
ag458
ag458
ag458
ag458
ag458
ag458
ag458
ag458
ag458
ag458
ag458
ag458
ag458
ag458
ag458
ag458
ag458
ag458
ag458
ag458
ag458
ag458
ag458
ag458
ag458
ag458
ag458
ag458
ag458
a(itree
PTree
p476
(dp477
g85
g86
(g87
g88
Ntp478
Rp479
(dp480
g92
I1
sg100
g86
(g96
g88
Ntp481
Rp482
(dp483
g100
Nsg101
I00
sg102
g324
sg95
Nsbsg93
g94
sg108
F94.25798732338102
sg95
g86
(g87
g88
Ntp484
Rp485
(dp486
g92
I0
sg100
g86
(g96
g88
Ntp487
Rp488
(dp489
g100
Nsg101
I00
sg102
g331
sg95
Nsbsg93
g121
sg108
F600.6859972214439
sg95
g86
(g96
g88
Ntp490
Rp491
(dp492
g100
Nsg101
I00
sg102
g335
sg95
Nsbsg101
I01
sbsg101
I01
sbsg109
(lp493
g479
ag485
ag491
ag488
ag482
asg111
I5
sbag476
ag476
ag476
ag476
ag476
ag476
ag476
ag476
ag476
ag476
ag476
ag476
ag476
ag476
ag476
ag476
ag476
ag476
ag476
ag476
ag476
ag476
ag476
ag476
ag476
ag476
ag476
ag476
ag476
ag476
ag476
ag476
ag476
ag476
ag476
ag476
ag476
ag476
ag476
asS'time'
p494
(lp495
I54
aI81
aI109
aI137
aI166
aI194
aI223
aI251
aI280
aI309
aI338
aI367
aI395
aI424
aI452
aI481
aI510
aI538
aI568
aI596
aI624
aI653
aI682
aI711
aI739
aI768
aI797
aI824
aI853
aI881
aI909
aI937
aI965
aI993
aI1021
aI1048
aI1077
aI1105
aI1133
aI1160
aI1188
aI1215
aI1242
aI1270
aI1297
aI1325
aI1352
aI1379
aI1406
aI1433
aI1461
aI1488
aI1515
aI1543
aI1570
aI1597
aI1624
aI1652
aI1679
aI1707
aI1734
aI1762
aI1789
aI1817
aI1844
aI1872
aI1899
aI1927
aI1954
aI1981
aI2009
aI2037
aI2065
aI2093
aI2120
aI2148
aI2176
aI2204
aI2232
aI2261
aI2289
aI2317
aI2345
aI2373
aI2402
aI2430
aI2458
aI2486
aI2514
aI2542
aI2570
aI2598
aI2625
aI2654
aI2682
aI2710
aI2738
aI2766
aI2794
aI2821
aI2849
aI2877
aI2905
aI2933
aI2960
aI2988
aI3016
aI3045
aI3073
aI3101
aI3129
aI3158
aI3185
aI3213
aI3242
aI3271
aI3300
aI3328
aI3357
aI3386
aI3415
aI3443
aI3472
aI3501
aI3529
aI3558
aI3587
aI3615
aI3644
aI3672
aI3701
aI3729
aI3758
aI3787
aI3816
aI3844
aI3873
aI3902
aI3930
aI3959
aI3988
aI4017
aI4045
aI4074
aI4102
aI4130
aI4159
aI4188
aI4216
aI4245
aI4274
aI4303
aI4331
aI4360
aI4389
aI4418
aI4447
aI4475
aI4504
aI4533
aI4561
aI4590
aI4619
aI4648
aI4677
aI4706
aI4735
aI4764
aI4793
aI4821
aI4850
aI4879
aI4908
aI4936
aI4965
aI4993
aI5022
aI5051
aI5080
aI5108
aI5137
aI5166
aI5195
aI5224
aI5253
aI5282
aI5311
aI5340
aI5368
aI5398
aI5427
aI5455
aI5484
aI5514
aI5543
aI5572
aI5600
aI5629
aI5657
aI5686
aI5715
aI5744
aI5772
aI5801
aI5831
aI5860
aI5888
aI5917
aI5946
aI5975
aI6004
aI6032
aI6061
aI6090
aI6119
aI6148
aI6177
aI6206
aI6234
aI6263
aI6292
aI6321
aI6349
aI6378
aI6407
aI6435
aI6464
aI6492
aI6521
aI6550
aI6579
aI6608
aI6637
aI6665
aI6694
aI6723
aI6752
aI6780
aI6809
aI6837
aI6866
aI6894
aI6922
aI6951
aI6981
aI7010
aI7039
aI7068
aI7096
aI7125
aI7154
aI7183
aI7211
aI7240
aI7268
aI7297
aI7326
aI7354
aI7382
aI7410
aI7439
aI7467
aI7495
aI7523
aI7551
aI7579
aI7608
aI7636
aI7664
aI7692
aI7720
aI7748
aI7776
aI7805
aI7833
aI7862
aI7891
aI7919
aI7948
aI7977
aI8005
aI8034
aI8063
aI8091
aI8120
aI8149
aI8177
aI8206
aI8235
aI8264
aI8293
aI8321
aI8350
aI8379
aI8408
aI8437
aI8465
aI8494
aI8523
aI8552
aI8581
aI8609
aI8638
aI8666
aI8695
aI8723
aI8752
aI8781
aI8809
aI8838
aI8867
aI8896
aI8925
aI8953
aI8982
aI9011
aI9040
aI9069
aI9097
aI9126
aI9155
aI9184
aI9213
aI9241
aI9270
aI9299
aI9328
aI9357
aI9386
aI9415
aI9444
aI9473
aI9501
aI9530
aI9558
aI9587
aI9616
aI9645
aI9674
aI9702
aI9731
aI9760
aI9788
aI9817
aI9846
aI9876
aI9905
aI9934
aI9962
aI9991
aI10019
aI10048
aI10077
aI10106
aI10135
aI10163
aI10192
aI10221
aI10250
aI10279
aI10307
aI10336
aI10364
aI10393
aI10421
aI10450
aI10478
aI10507
aI10536
aI10564
aI10593
aI10621
aI10650
aI10679
aI10709
aI10738
aI10767
aI10796
aI10825
aI10853
aI10882
aI10911
aI10940
aI10968
aI10997
aI11025
aI11055
aI11084
aI11112
aI11141
aI11170
aI11199
aI11228
aI11257
aI11286
aI11315
aI11344
aI11372
aI11401
aI11430
as.