(dp0
S'nfe'
p1
(lp2
I50
aI100
aI150
aI200
aI250
aI300
aI350
aI400
aI450
aI500
aI550
aI600
aI650
aI700
aI750
aI800
aI850
aI900
aI950
aI1000
aI1050
aI1100
aI1150
aI1200
aI1250
aI1300
aI1350
aI1400
aI1450
aI1500
aI1550
aI1600
aI1650
aI1700
aI1750
aI1800
aI1850
aI1900
aI1950
aI2000
aI2050
aI2100
aI2150
aI2200
aI2250
aI2300
aI2350
aI2400
aI2450
aI2500
aI2550
aI2600
aI2650
aI2700
aI2750
aI2800
aI2850
aI2900
aI2950
aI3000
aI3050
aI3100
aI3150
aI3200
aI3250
aI3300
aI3350
aI3400
aI3450
aI3500
aI3550
aI3600
aI3650
aI3700
aI3750
aI3800
aI3850
aI3900
aI3950
aI4000
aI4050
aI4100
aI4150
aI4200
aI4250
aI4300
aI4350
aI4400
aI4450
aI4500
aI4550
aI4600
aI4650
aI4700
aI4750
aI4800
aI4850
aI4900
aI4950
aI5000
aI5050
aI5100
aI5150
aI5200
aI5250
aI5300
aI5350
aI5400
aI5450
aI5500
aI5550
aI5600
aI5650
aI5700
aI5750
aI5800
aI5850
aI5900
aI5950
aI6000
aI6050
aI6100
aI6150
aI6200
aI6250
aI6300
aI6350
aI6400
aI6450
aI6500
aI6550
aI6600
aI6650
aI6700
aI6750
aI6800
aI6850
aI6900
aI6950
aI7000
aI7050
aI7100
aI7150
aI7200
aI7250
aI7300
aI7350
aI7400
aI7450
aI7500
aI7550
aI7600
aI7650
aI7700
aI7750
aI7800
aI7850
aI7900
aI7950
aI8000
aI8050
aI8100
aI8150
aI8200
aI8250
aI8300
aI8350
aI8400
aI8450
aI8500
aI8550
aI8600
aI8650
aI8700
aI8750
aI8800
aI8850
aI8900
aI8950
aI9000
aI9050
aI9100
aI9150
aI9200
aI9250
aI9300
aI9350
aI9400
aI9450
aI9500
aI9550
aI9600
aI9650
aI9700
aI9750
aI9800
aI9850
aI9900
aI9950
aI10000
aI10050
aI10100
aI10150
aI10200
aI10250
aI10300
aI10350
aI10400
aI10450
aI10500
aI10550
aI10600
aI10650
aI10700
aI10750
aI10800
aI10850
aI10900
aI10950
aI11000
aI11050
aI11100
aI11150
aI11200
aI11250
aI11300
aI11350
aI11400
aI11450
aI11500
aI11550
aI11600
aI11650
aI11700
aI11750
aI11800
aI11850
aI11900
aI11950
aI12000
aI12050
aI12100
aI12150
aI12200
aI12250
aI12300
aI12350
aI12400
aI12450
aI12500
aI12550
aI12600
aI12650
aI12700
aI12750
aI12800
aI12850
aI12900
aI12950
aI13000
aI13050
aI13100
aI13150
aI13200
aI13250
aI13300
aI13350
aI13400
aI13450
aI13500
aI13550
aI13600
aI13650
aI13700
aI13750
aI13800
aI13850
aI13900
aI13950
aI14000
aI14050
aI14100
aI14150
aI14200
aI14250
aI14300
aI14350
aI14400
aI14450
aI14500
aI14550
aI14600
aI14650
aI14700
aI14750
aI14800
aI14850
aI14900
aI14950
aI15000
aI15050
aI15100
aI15150
aI15200
aI15250
aI15300
aI15350
aI15400
aI15450
aI15500
aI15550
aI15600
aI15650
aI15700
aI15750
aI15800
aI15850
aI15900
aI15950
aI16000
aI16050
aI16100
aI16150
aI16200
aI16250
aI16300
aI16350
aI16400
aI16450
aI16500
aI16550
aI16600
aI16650
aI16700
aI16750
aI16800
aI16850
aI16900
aI16950
aI17000
aI17050
aI17100
aI17150
aI17200
aI17250
aI17300
aI17350
aI17400
aI17450
aI17500
aI17550
aI17600
aI17650
aI17700
aI17750
aI17800
aI17850
aI17900
aI17950
aI18000
aI18050
aI18100
aI18150
aI18200
aI18250
aI18300
aI18350
aI18400
aI18450
aI18500
aI18550
aI18600
aI18650
aI18700
aI18750
aI18800
aI18850
aI18900
aI18950
aI19000
aI19050
aI19100
aI19150
aI19200
aI19250
aI19300
aI19350
aI19400
aI19450
aI19500
aI19550
aI19600
aI19650
aI19700
aI19750
aI19800
aI19850
aI19900
aI19950
aI20000
asS'best_f'
p3
(lp4
cnumpy.core.multiarray
scalar
p5
(cnumpy
dtype
p6
(S'f8'
p7
I0
I1
tp8
Rp9
(I3
S'<'
p10
NNNI-1
I-1
I0
tp11
bS'\xcfT\xeb\x8e\xe8E\xf1?'
p12
tp13
Rp14
ag5
(g9
S'\xbb=\xbft\x13\xfb\xe8?'
p15
tp16
Rp17
ag5
(g9
S'\xa2\x83W )\x03\xd6?'
p18
tp19
Rp20
ag20
ag5
(g9
S"'\xf09<\xda\xcd\xd5?"
p21
tp22
Rp23
ag23
ag23
ag23
ag5
(g9
S'\xee\xfc\xfd\xf8E\xc2\xd5?'
p24
tp25
Rp26
ag5
(g9
S'\xe5\xd5\x93\xbb\xa4\x9a\xd5?'
p27
tp28
Rp29
ag29
ag5
(g9
S'\x10\xdbH\xe6\xd1\x01\xd5?'
p30
tp31
Rp32
ag5
(g9
S'ko\xca\x1c\rp\xd4?'
p33
tp34
Rp35
ag35
ag35
ag35
ag35
ag5
(g9
S'U\xf4L3$^\xd3?'
p36
tp37
Rp38
ag38
ag38
ag38
ag38
ag38
ag38
ag38
ag38
ag38
ag38
ag38
ag38
ag38
ag38
ag38
ag5
(g9
S'\xb79\xa4+;;\xd3?'
p39
tp40
Rp41
ag41
ag5
(g9
S'\xa7I\x1aNzX\xd2?'
p42
tp43
Rp44
ag44
ag44
ag44
ag5
(g9
S'`\x7f\xc9\xceUE\xc5?'
p45
tp46
Rp47
ag47
ag47
ag47
ag47
ag47
ag47
ag47
ag47
ag47
ag47
ag47
ag47
ag47
ag47
ag47
ag47
ag5
(g9
S'\x98v7\x13A$\xc5?'
p48
tp49
Rp50
ag50
ag50
ag50
ag50
ag50
ag50
ag50
ag50
ag50
ag5
(g9
S'$\x93\xda~I\xed\xc2?'
p51
tp52
Rp53
ag53
ag53
ag53
ag53
ag53
ag53
ag53
ag53
ag53
ag53
ag53
ag53
ag53
ag53
ag53
ag53
ag53
ag53
ag53
ag53
ag53
ag53
ag53
ag53
ag53
ag53
ag53
ag53
ag53
ag53
ag53
ag53
ag53
ag53
ag53
ag53
ag53
ag53
ag53
ag53
ag53
ag53
ag53
ag53
ag53
ag53
ag53
ag53
ag53
ag53
ag53
ag53
ag5
(g9
S'\xf1\x98a\xcd4\x04\xc2?'
p54
tp55
Rp56
ag56
ag56
ag56
ag56
ag56
ag56
ag56
ag56
ag56
ag56
ag56
ag56
ag56
ag56
ag56
ag56
ag56
ag56
ag56
ag56
ag56
ag56
ag56
ag5
(g9
S'\xc0\xed\x89  \xfd\xc1?'
p57
tp58
Rp59
ag59
ag59
ag59
ag59
ag59
ag59
ag59
ag59
ag59
ag59
ag59
ag59
ag59
ag59
ag59
ag59
ag59
ag59
ag59
ag59
ag59
ag59
ag59
ag59
ag59
ag59
ag59
ag59
ag59
ag59
ag59
ag59
ag59
ag59
ag5
(g9
S'\x01\x84k\xad\xf3\xdd\xc1?'
p60
tp61
Rp62
ag62
ag5
(g9
S'\x93\xfd\x1c\xaf\xd2\xd0\xc1?'
p63
tp64
Rp65
ag65
ag65
ag65
ag65
ag65
ag65
ag65
ag65
ag65
ag65
ag65
ag65
ag65
ag65
ag65
ag65
ag65
ag65
ag65
ag65
ag65
ag65
ag65
ag65
ag65
ag65
ag65
ag65
ag65
ag65
ag65
ag65
ag65
ag65
ag65
ag65
ag65
ag65
ag65
ag65
ag65
ag65
ag65
ag65
ag65
ag65
ag65
ag5
(g9
S'\x95\x0f\xc9\xb5p\xcc\xc1?'
p66
tp67
Rp68
ag68
ag68
ag68
ag68
ag68
ag68
ag68
ag68
ag68
ag68
ag68
ag68
ag68
ag68
ag68
ag68
ag68
ag68
ag68
ag68
ag68
ag68
ag68
ag68
ag68
ag68
ag68
ag68
ag68
ag68
ag68
ag68
ag68
ag68
ag68
ag68
ag68
ag68
ag68
ag68
ag68
ag68
ag68
ag68
ag68
ag68
ag68
ag68
ag68
ag68
ag68
ag68
ag68
ag68
ag68
ag68
ag68
ag68
ag68
ag68
ag68
ag68
ag68
ag68
ag68
ag68
ag68
ag68
ag68
ag68
ag68
ag68
ag68
ag68
ag68
ag68
ag68
ag68
ag68
ag68
ag68
ag68
ag68
ag68
ag68
ag68
ag68
ag68
ag68
ag68
ag68
ag68
ag68
ag68
ag68
ag68
ag68
ag68
ag68
ag68
ag68
ag68
ag68
ag68
ag68
ag68
ag68
ag68
ag68
ag68
ag68
ag68
ag68
ag68
ag68
ag68
ag68
ag68
ag68
ag68
ag68
ag68
ag68
ag68
ag68
ag68
ag68
ag68
ag68
ag68
ag68
ag68
ag68
ag68
ag68
ag68
ag68
ag68
ag68
ag68
ag68
ag68
ag68
ag68
ag68
ag68
ag68
ag68
ag68
ag68
ag68
ag68
ag68
ag68
ag68
ag68
ag68
ag68
ag68
ag68
ag68
ag68
ag68
ag68
ag68
ag68
ag68
ag68
ag68
ag68
ag68
asS'best_P'
p69
(lp70
(itree
PTree
p71
(dp72
S'root'
p73
ccopy_reg
_reconstructor
p74
(ctree
Feature
p75
c__builtin__
object
p76
Ntp77
Rp78
(dp79
S'index'
p80
I1
sS'name'
p81
S'Day'
p82
sS'l'
p83
g74
(g75
g76
Ntp84
Rp85
(dp86
g80
I0
sg81
S'Storage'
p87
sg83
g74
(ctree
Action
p88
g76
Ntp89
Rp90
(dp91
S'r'
p92
NsS'is_feature'
p93
I00
sS'value'
p94
S'Hedge_90'
p95
sg83
Nsbsg92
g74
(g88
g76
Ntp96
Rp97
(dp98
g92
Nsg93
I00
sg94
S'Flood_Control'
p99
sg83
NsbsS'threshold'
p100
F281.62614378042474
sg93
I01
sbsg92
g74
(g88
g76
Ntp101
Rp102
(dp103
g92
Nsg93
I00
sg94
S'Hedge_90'
p104
sg83
Nsbsg100
F273.1631738860434
sg93
I01
sbsS'L'
p105
(lp106
g78
ag85
ag90
ag97
ag102
asS'N'
p107
I5
sba(itree
PTree
p108
(dp109
g73
g74
(g75
g76
Ntp110
Rp111
(dp112
g80
I1
sg92
g74
(g75
g76
Ntp113
Rp114
(dp115
g80
I0
sg92
g74
(g88
g76
Ntp116
Rp117
(dp118
g92
Nsg93
I00
sg94
S'Hedge_90'
p119
sg83
Nsbsg81
g87
sg100
F948.8860355374727
sg83
g74
(g75
g76
Ntp120
Rp121
(dp122
g80
I1
sg92
g74
(g88
g76
Ntp123
Rp124
(dp125
g92
Nsg93
I00
sg94
S'Hedge_90'
p126
sg83
Nsbsg81
g82
sg100
F272.48099094300767
sg83
g74
(g88
g76
Ntp127
Rp128
(dp129
g92
Nsg93
I00
sg94
S'Hedge_80'
p130
sg83
Nsbsg93
I01
sbsg93
I01
sbsg81
g82
sg100
F173.35670442373168
sg83
g74
(g88
g76
Ntp131
Rp132
(dp133
g92
Nsg93
I00
sg94
S'Flood_Control'
p134
sg83
Nsbsg93
I01
sbsg105
(lp135
g111
ag132
ag114
ag121
ag128
ag124
ag117
asg107
I7
sba(itree
PTree
p136
(dp137
g73
g74
(g75
g76
Ntp138
Rp139
(dp140
g80
I0
sg92
g74
(g88
g76
Ntp141
Rp142
(dp143
g92
Nsg93
I00
sg94
S'Flood_Control'
p144
sg83
Nsbsg81
g87
sg100
F548.5480762385029
sg83
g74
(g88
g76
Ntp145
Rp146
(dp147
g92
Nsg93
I00
sg94
S'Hedge_90'
p148
sg83
Nsbsg93
I01
sbsg105
(lp149
g139
ag146
ag142
asg107
I3
sbag136
a(itree
PTree
p150
(dp151
g73
g74
(g75
g76
Ntp152
Rp153
(dp154
g80
I0
sg92
g74
(g88
g76
Ntp155
Rp156
(dp157
g92
Nsg93
I00
sg94
g144
sg83
Nsbsg81
g87
sg100
F551.1373478524702
sg83
g74
(g88
g76
Ntp158
Rp159
(dp160
g92
Nsg93
I00
sg94
g148
sg83
Nsbsg93
I01
sbsg105
(lp161
g153
ag159
ag156
asg107
I3
sbag150
ag150
ag150
a(itree
PTree
p162
(dp163
g73
g74
(g75
g76
Ntp164
Rp165
(dp166
g80
I1
sg92
g74
(g88
g76
Ntp167
Rp168
(dp169
g92
Nsg93
I00
sg94
g104
sg83
Nsbsg81
g82
sg100
F339.73718925580226
sg83
g74
(g75
g76
Ntp170
Rp171
(dp172
g80
I0
sg92
g74
(g88
g76
Ntp173
Rp174
(dp175
g92
Nsg93
I00
sg94
g99
sg83
Nsbsg81
g87
sg100
F550.5766616224054
sg83
g74
(g88
g76
Ntp176
Rp177
(dp178
g92
Nsg93
I00
sg94
g95
sg83
Nsbsg93
I01
sbsg93
I01
sbsg105
(lp179
g165
ag171
ag177
ag174
ag168
asg107
I5
sba(itree
PTree
p180
(dp181
g73
g74
(g75
g76
Ntp182
Rp183
(dp184
g80
I1
sg92
g74
(g88
g76
Ntp185
Rp186
(dp187
g92
Nsg93
I00
sg94
S'Release_Demand'
p188
sg83
Nsbsg81
g82
sg100
F310.63767860704405
sg83
g74
(g75
g76
Ntp189
Rp190
(dp191
g80
I0
sg92
g74
(g88
g76
Ntp192
Rp193
(dp194
g92
Nsg93
I00
sg94
S'Flood_Control'
p195
sg83
Nsbsg81
g87
sg100
F527.2437297394364
sg83
g74
(g88
g76
Ntp196
Rp197
(dp198
g92
Nsg93
I00
sg94
S'Hedge_90'
p199
sg83
Nsbsg93
I01
sbsg93
I01
sbsg105
(lp200
g183
ag190
ag197
ag193
ag186
asg107
I5
sbag180
a(itree
PTree
p201
(dp202
g73
g74
(g75
g76
Ntp203
Rp204
(dp205
g80
I0
sg92
g74
(g88
g76
Ntp206
Rp207
(dp208
g92
Nsg93
I00
sg94
g144
sg83
Nsbsg81
g87
sg100
F584.1354872775793
sg83
g74
(g88
g76
Ntp209
Rp210
(dp211
g92
Nsg93
I00
sg94
g148
sg83
Nsbsg93
I01
sbsg105
(lp212
g204
ag210
ag207
asg107
I3
sba(itree
PTree
p213
(dp214
g73
g74
(g75
g76
Ntp215
Rp216
(dp217
g80
I1
sg92
g74
(g88
g76
Ntp218
Rp219
(dp220
g92
Nsg93
I00
sg94
g188
sg83
Nsbsg81
g82
sg100
F293.7873708034898
sg83
g74
(g75
g76
Ntp221
Rp222
(dp223
g80
I0
sg92
g74
(g88
g76
Ntp224
Rp225
(dp226
g92
Nsg93
I00
sg94
g195
sg83
Nsbsg81
g87
sg100
F558.2270344585068
sg83
g74
(g88
g76
Ntp227
Rp228
(dp229
g92
Nsg93
I00
sg94
g199
sg83
Nsbsg93
I01
sbsg93
I01
sbsg105
(lp230
g216
ag222
ag228
ag225
ag219
asg107
I5
sbag213
ag213
ag213
ag213
a(itree
PTree
p231
(dp232
g73
g74
(g75
g76
Ntp233
Rp234
(dp235
g80
I1
sg92
g74
(g75
g76
Ntp236
Rp237
(dp238
g80
I0
sg92
g74
(g88
g76
Ntp239
Rp240
(dp241
g92
Nsg93
I00
sg94
S'Flood_Control'
p242
sg83
Nsbsg81
g87
sg100
F591.8515760665576
sg83
g74
(g75
g76
Ntp243
Rp244
(dp245
g80
I0
sg92
g74
(g88
g76
Ntp246
Rp247
(dp248
g92
Nsg93
I00
sg94
S'Flood_Control'
p249
sg83
Nsbsg81
g87
sg100
F593.4251473833808
sg83
g74
(g88
g76
Ntp250
Rp251
(dp252
g92
Nsg93
I00
sg94
S'Release_Demand'
p253
sg83
Nsbsg93
I01
sbsg93
I01
sbsg81
g82
sg100
F11.70629004890377
sg83
g74
(g88
g76
Ntp254
Rp255
(dp256
g92
Nsg93
I00
sg94
S'Hedge_90'
p257
sg83
Nsbsg93
I01
sbsg105
(lp258
g234
ag255
ag237
ag244
ag251
ag247
ag240
asg107
I7
sbag231
ag231
ag231
ag231
ag231
ag231
ag231
ag231
ag231
ag231
ag231
ag231
ag231
ag231
ag231
a(itree
PTree
p259
(dp260
g73
g74
(g75
g76
Ntp261
Rp262
(dp263
g80
I1
sg92
g74
(g88
g76
Ntp264
Rp265
(dp266
g92
Nsg93
I00
sg94
g104
sg83
Nsbsg81
g82
sg100
F208.43136433531583
sg83
g74
(g75
g76
Ntp267
Rp268
(dp269
g80
I0
sg92
g74
(g88
g76
Ntp270
Rp271
(dp272
g92
Nsg93
I00
sg94
g99
sg83
Nsbsg81
g87
sg100
F588.3032549578138
sg83
g74
(g88
g76
Ntp273
Rp274
(dp275
g92
Nsg93
I00
sg94
g95
sg83
Nsbsg93
I01
sbsg93
I01
sbsg105
(lp276
g262
ag268
ag274
ag271
ag265
asg107
I5
sbag259
a(itree
PTree
p277
(dp278
g73
g74
(g75
g76
Ntp279
Rp280
(dp281
g80
I1
sg92
g74
(g88
g76
Ntp282
Rp283
(dp284
g92
Nsg93
I00
sg94
g104
sg83
Nsbsg81
g82
sg100
F201.33095654164975
sg83
g74
(g75
g76
Ntp285
Rp286
(dp287
g80
I0
sg92
g74
(g88
g76
Ntp288
Rp289
(dp290
g92
Nsg93
I00
sg94
g99
sg83
Nsbsg81
g87
sg100
F588.3032549578138
sg83
g74
(g88
g76
Ntp291
Rp292
(dp293
g92
Nsg93
I00
sg94
g95
sg83
Nsbsg93
I01
sbsg93
I01
sbsg105
(lp294
g280
ag286
ag292
ag289
ag283
asg107
I5
sbag277
ag277
ag277
a(itree
PTree
p295
(dp296
g73
g74
(g75
g76
Ntp297
Rp298
(dp299
g80
I1
sg92
g74
(g88
g76
Ntp300
Rp301
(dp302
g92
Nsg93
I00
sg94
g104
sg83
Nsbsg81
g82
sg100
F142.49202854651358
sg83
g74
(g75
g76
Ntp303
Rp304
(dp305
g80
I0
sg92
g74
(g88
g76
Ntp306
Rp307
(dp308
g92
Nsg93
I00
sg94
g99
sg83
Nsbsg81
g87
sg100
F588.3032549578138
sg83
g74
(g88
g76
Ntp309
Rp310
(dp311
g92
Nsg93
I00
sg94
g95
sg83
Nsbsg93
I01
sbsg93
I01
sbsg105
(lp312
g298
ag304
ag310
ag307
ag301
asg107
I5
sbag295
ag295
ag295
ag295
ag295
ag295
ag295
ag295
ag295
ag295
ag295
ag295
ag295
ag295
ag295
ag295
a(itree
PTree
p313
(dp314
g73
g74
(g75
g76
Ntp315
Rp316
(dp317
g80
I1
sg92
g74
(g88
g76
Ntp318
Rp319
(dp320
g92
Nsg93
I00
sg94
g104
sg83
Nsbsg81
g82
sg100
F132.81131460036573
sg83
g74
(g75
g76
Ntp321
Rp322
(dp323
g80
I0
sg92
g74
(g88
g76
Ntp324
Rp325
(dp326
g92
Nsg93
I00
sg94
g99
sg83
Nsbsg81
g87
sg100
F588.3032549578138
sg83
g74
(g88
g76
Ntp327
Rp328
(dp329
g92
Nsg93
I00
sg94
g95
sg83
Nsbsg93
I01
sbsg93
I01
sbsg105
(lp330
g316
ag322
ag328
ag325
ag319
asg107
I5
sbag313
ag313
ag313
ag313
ag313
ag313
ag313
ag313
ag313
a(itree
PTree
p331
(dp332
g73
g74
(g75
g76
Ntp333
Rp334
(dp335
g80
I1
sg92
g74
(g88
g76
Ntp336
Rp337
(dp338
g92
Nsg93
I00
sg94
g104
sg83
Nsbsg81
g82
sg100
F107.35627914573362
sg83
g74
(g75
g76
Ntp339
Rp340
(dp341
g80
I0
sg92
g74
(g88
g76
Ntp342
Rp343
(dp344
g92
Nsg93
I00
sg94
g99
sg83
Nsbsg81
g87
sg100
F588.3032549578138
sg83
g74
(g88
g76
Ntp345
Rp346
(dp347
g92
Nsg93
I00
sg94
g95
sg83
Nsbsg93
I01
sbsg93
I01
sbsg105
(lp348
g334
ag340
ag346
ag343
ag337
asg107
I5
sbag331
ag331
ag331
ag331
ag331
ag331
ag331
ag331
ag331
ag331
ag331
ag331
ag331
ag331
ag331
ag331
ag331
ag331
ag331
ag331
ag331
ag331
ag331
ag331
ag331
ag331
ag331
ag331
ag331
ag331
ag331
ag331
ag331
ag331
ag331
ag331
ag331
ag331
ag331
ag331
ag331
ag331
ag331
ag331
ag331
ag331
ag331
ag331
ag331
ag331
ag331
ag331
a(itree
PTree
p349
(dp350
g73
g74
(g75
g76
Ntp351
Rp352
(dp353
g80
I1
sg92
g74
(g88
g76
Ntp354
Rp355
(dp356
g92
Nsg93
I00
sg94
S'Hedge_90'
p357
sg83
Nsbsg81
g82
sg100
F100.85002172101302
sg83
g74
(g75
g76
Ntp358
Rp359
(dp360
g80
I0
sg92
g74
(g88
g76
Ntp361
Rp362
(dp363
g92
Nsg93
I00
sg94
g195
sg83
Nsbsg81
g87
sg100
F598.3367712371155
sg83
g74
(g88
g76
Ntp364
Rp365
(dp366
g92
Nsg93
I00
sg94
g199
sg83
Nsbsg93
I01
sbsg93
I01
sbsg105
(lp367
g352
ag359
ag365
ag362
ag355
asg107
I5
sbag349
ag349
ag349
ag349
ag349
ag349
ag349
ag349
ag349
ag349
ag349
ag349
ag349
ag349
ag349
ag349
ag349
ag349
ag349
ag349
ag349
ag349
ag349
a(itree
PTree
p368
(dp369
g73
g74
(g75
g76
Ntp370
Rp371
(dp372
g80
I1
sg92
g74
(g88
g76
Ntp373
Rp374
(dp375
g92
Nsg93
I00
sg94
S'Hedge_90'
p376
sg83
Nsbsg81
g82
sg100
F96.96891028549157
sg83
g74
(g75
g76
Ntp377
Rp378
(dp379
g80
I0
sg92
g74
(g88
g76
Ntp380
Rp381
(dp382
g92
Nsg93
I00
sg94
S'Flood_Control'
p383
sg83
Nsbsg81
g87
sg100
F598.3367712371155
sg83
g74
(g88
g76
Ntp384
Rp385
(dp386
g92
Nsg93
I00
sg94
g199
sg83
Nsbsg93
I01
sbsg93
I01
sbsg105
(lp387
g371
ag378
ag385
ag381
ag374
asg107
I5
sbag368
ag368
ag368
ag368
ag368
ag368
ag368
ag368
ag368
ag368
ag368
ag368
ag368
ag368
ag368
ag368
ag368
ag368
ag368
ag368
ag368
ag368
ag368
ag368
ag368
ag368
ag368
ag368
ag368
ag368
ag368
ag368
ag368
ag368
a(itree
PTree
p388
(dp389
g73
g74
(g75
g76
Ntp390
Rp391
(dp392
g80
I1
sg92
g74
(g88
g76
Ntp393
Rp394
(dp395
g92
Nsg93
I00
sg94
S'Hedge_90'
p396
sg83
Nsbsg81
g82
sg100
F120.83974354120551
sg83
g74
(g75
g76
Ntp397
Rp398
(dp399
g80
I0
sg92
g74
(g88
g76
Ntp400
Rp401
(dp402
g92
Nsg93
I00
sg94
S'Flood_Control'
p403
sg83
Nsbsg81
g87
sg100
F598.3367712371155
sg83
g74
(g88
g76
Ntp404
Rp405
(dp406
g92
Nsg93
I00
sg94
S'Hedge_90'
p407
sg83
Nsbsg93
I01
sbsg93
I01
sbsg105
(lp408
g391
ag398
ag405
ag401
ag394
asg107
I5
sbag388
a(itree
PTree
p409
(dp410
g73
g74
(g75
g76
Ntp411
Rp412
(dp413
g80
I1
sg92
g74
(g88
g76
Ntp414
Rp415
(dp416
g92
Nsg93
I00
sg94
g357
sg83
Nsbsg81
g82
sg100
F115.41455752376696
sg83
g74
(g75
g76
Ntp417
Rp418
(dp419
g80
I0
sg92
g74
(g88
g76
Ntp420
Rp421
(dp422
g92
Nsg93
I00
sg94
g195
sg83
Nsbsg81
g87
sg100
F598.3367712371155
sg83
g74
(g88
g76
Ntp423
Rp424
(dp425
g92
Nsg93
I00
sg94
g199
sg83
Nsbsg93
I01
sbsg93
I01
sbsg105
(lp426
g412
ag418
ag424
ag421
ag415
asg107
I5
sbag409
ag409
ag409
ag409
ag409
ag409
ag409
ag409
ag409
ag409
ag409
ag409
ag409
ag409
ag409
ag409
ag409
ag409
ag409
ag409
ag409
ag409
ag409
ag409
ag409
ag409
ag409
ag409
ag409
ag409
ag409
ag409
ag409
ag409
ag409
ag409
ag409
ag409
ag409
ag409
ag409
ag409
ag409
ag409
ag409
ag409
ag409
a(itree
PTree
p427
(dp428
g73
g74
(g75
g76
Ntp429
Rp430
(dp431
g80
I1
sg92
g74
(g88
g76
Ntp432
Rp433
(dp434
g92
Nsg93
I00
sg94
g376
sg83
Nsbsg81
g82
sg100
F111.89364673747522
sg83
g74
(g75
g76
Ntp435
Rp436
(dp437
g80
I0
sg92
g74
(g88
g76
Ntp438
Rp439
(dp440
g92
Nsg93
I00
sg94
g383
sg83
Nsbsg81
g87
sg100
F598.3367712371155
sg83
g74
(g88
g76
Ntp441
Rp442
(dp443
g92
Nsg93
I00
sg94
g199
sg83
Nsbsg93
I01
sbsg93
I01
sbsg105
(lp444
g430
ag436
ag442
ag439
ag433
asg107
I5
sbag427
ag427
ag427
ag427
ag427
ag427
ag427
ag427
ag427
ag427
ag427
ag427
ag427
ag427
ag427
ag427
ag427
ag427
ag427
ag427
ag427
ag427
ag427
ag427
ag427
ag427
ag427
ag427
ag427
ag427
ag427
ag427
ag427
ag427
ag427
ag427
ag427
ag427
ag427
ag427
ag427
ag427
ag427
ag427
ag427
ag427
ag427
ag427
ag427
ag427
ag427
ag427
ag427
ag427
ag427
ag427
ag427
ag427
ag427
ag427
ag427
ag427
ag427
ag427
ag427
ag427
ag427
ag427
ag427
ag427
ag427
ag427
ag427
ag427
ag427
ag427
ag427
ag427
ag427
ag427
ag427
ag427
ag427
ag427
ag427
ag427
ag427
ag427
ag427
ag427
ag427
ag427
ag427
ag427
ag427
ag427
ag427
ag427
ag427
ag427
ag427
ag427
ag427
ag427
ag427
ag427
ag427
ag427
ag427
ag427
ag427
ag427
ag427
ag427
ag427
ag427
ag427
ag427
ag427
ag427
ag427
ag427
ag427
ag427
ag427
ag427
ag427
ag427
ag427
ag427
ag427
ag427
ag427
ag427
ag427
ag427
ag427
ag427
ag427
ag427
ag427
ag427
ag427
ag427
ag427
ag427
ag427
ag427
ag427
ag427
ag427
ag427
ag427
ag427
ag427
ag427
ag427
ag427
ag427
ag427
ag427
ag427
ag427
ag427
ag427
ag427
ag427
ag427
ag427
ag427
ag427
asS'time'
p445
(lp446
I37
aI56
aI74
aI92
aI112
aI132
aI150
aI167
aI185
aI203
aI222
aI242
aI262
aI281
aI299
aI317
aI336
aI354
aI374
aI395
aI414
aI433
aI453
aI471
aI490
aI509
aI529
aI552
aI576
aI600
aI622
aI647
aI670
aI690
aI709
aI727
aI745
aI830
aI858
aI885
aI912
aI939
aI966
aI993
aI1020
aI1047
aI1075
aI1101
aI1129
aI1156
aI1184
aI1211
aI1239
aI1266
aI1293
aI1320
aI1347
aI1375
aI1402
aI1429
aI1456
aI1484
aI1507
aI1530
aI1553
aI1576
aI1596
aI1615
aI1634
aI1659
aI1685
aI1711
aI1736
aI1762
aI1787
aI1812
aI1839
aI1861
aI1884
aI1904
aI1924
aI1945
aI1965
aI1983
aI2000
aI2017
aI2037
aI2055
aI2074
aI2093
aI2112
aI2130
aI2148
aI2167
aI2187
aI2207
aI2226
aI2245
aI2264
aI2284
aI2305
aI2325
aI2348
aI2368
aI2388
aI2408
aI2429
aI2449
aI2466
aI2485
aI2507
aI2528
aI2546
aI2564
aI2583
aI2603
aI2622
aI2642
aI2662
aI2682
aI2702
aI2721
aI2741
aI2760
aI2778
aI2798
aI2824
aI2849
aI2875
aI2901
aI2927
aI2953
aI2977
aI3001
aI3023
aI3044
aI3066
aI3086
aI3109
aI3131
aI3152
aI3172
aI3192
aI3211
aI3232
aI3253
aI3274
aI3297
aI3320
aI3344
aI3369
aI3393
aI3417
aI3443
aI3466
aI3488
aI3511
aI3534
aI3555
aI3576
aI3598
aI3616
aI3634
aI3652
aI3675
aI3697
aI3718
aI3736
aI3756
aI3776
aI3797
aI3818
aI3839
aI3860
aI3881
aI3900
aI3919
aI3943
aI3971
aI3998
aI4026
aI4054
aI4081
aI4110
aI4138
aI4164
aI4187
aI4212
aI4234
aI4257
aI4279
aI4302
aI4325
aI4345
aI4367
aI4387
aI4408
aI4429
aI4450
aI4471
aI4491
aI4513
aI4533
aI4554
aI4576
aI4597
aI4618
aI4640
aI4725
aI4809
aI4894
aI4983
aI5040
aI5062
aI5088
aI5117
aI5145
aI5174
aI5235
aI5282
aI5302
aI5322
aI5343
aI5362
aI5382
aI5404
aI5425
aI5447
aI5466
aI5487
aI5505
aI5525
aI5543
aI5563
aI5583
aI5603
aI5623
aI5645
aI5665
aI5683
aI5702
aI5723
aI5744
aI5763
aI5783
aI5802
aI5821
aI5846
aI5872
aI5898
aI5922
aI5945
aI5970
aI5995
aI6020
aI6047
aI6072
aI6095
aI6119
aI6143
aI6167
aI6191
aI6214
aI6238
aI6259
aI6282
aI6303
aI6323
aI6343
aI6362
aI6382
aI6402
aI6421
aI6442
aI6461
aI6480
aI6504
aI6526
aI6547
aI6569
aI6590
aI6622
aI6682
aI6701
aI6720
aI6741
aI6762
aI6780
aI6807
aI6833
aI6857
aI6883
aI6911
aI6938
aI6966
aI6994
aI7021
aI7049
aI7076
aI7102
aI7129
aI7155
aI7181
aI7207
aI7231
aI7255
aI7280
aI7304
aI7328
aI7353
aI7377
aI7401
aI7427
aI7450
aI7474
aI7498
aI7524
aI7552
aI7580
aI7608
aI7637
aI7665
aI7693
aI7722
aI7750
aI7778
aI7807
aI7835
aI7863
aI7892
aI7920
aI7949
aI7978
aI8008
aI8038
aI8072
aI8103
aI8133
aI8164
aI8195
aI8225
aI8255
aI8287
aI8317
aI8346
aI8378
aI8409
aI8440
aI8471
aI8503
aI8535
aI8567
aI8599
aI8631
aI8661
aI8691
aI8721
aI8754
aI8787
aI8818
aI8849
aI8882
aI8913
aI8945
aI8977
aI9010
aI9040
aI9071
aI9102
aI9134
aI9167
aI9198
aI9227
aI9258
aI9290
aI9320
aI9351
aI9382
aI9414
aI9446
aI9478
aI9509
aI9541
aI9573
aI9604
aI9634
aI9666
aI9698
aI9730
aI9761
aI9792
aI9823
aI9855
aI9886
aI9917
aI9948
aI9979
aI10009
aI10041
aI10071
as.