(dp0
S'nfe'
p1
(lp2
I50
aI100
aI150
aI200
aI250
aI300
aI350
aI400
aI450
aI500
aI550
aI600
aI650
aI700
aI750
aI800
aI850
aI900
aI950
aI1000
aI1050
aI1100
aI1150
aI1200
aI1250
aI1300
aI1350
aI1400
aI1450
aI1500
aI1550
aI1600
aI1650
aI1700
aI1750
aI1800
aI1850
aI1900
aI1950
aI2000
aI2050
aI2100
aI2150
aI2200
aI2250
aI2300
aI2350
aI2400
aI2450
aI2500
aI2550
aI2600
aI2650
aI2700
aI2750
aI2800
aI2850
aI2900
aI2950
aI3000
aI3050
aI3100
aI3150
aI3200
aI3250
aI3300
aI3350
aI3400
aI3450
aI3500
aI3550
aI3600
aI3650
aI3700
aI3750
aI3800
aI3850
aI3900
aI3950
aI4000
aI4050
aI4100
aI4150
aI4200
aI4250
aI4300
aI4350
aI4400
aI4450
aI4500
aI4550
aI4600
aI4650
aI4700
aI4750
aI4800
aI4850
aI4900
aI4950
aI5000
aI5050
aI5100
aI5150
aI5200
aI5250
aI5300
aI5350
aI5400
aI5450
aI5500
aI5550
aI5600
aI5650
aI5700
aI5750
aI5800
aI5850
aI5900
aI5950
aI6000
aI6050
aI6100
aI6150
aI6200
aI6250
aI6300
aI6350
aI6400
aI6450
aI6500
aI6550
aI6600
aI6650
aI6700
aI6750
aI6800
aI6850
aI6900
aI6950
aI7000
aI7050
aI7100
aI7150
aI7200
aI7250
aI7300
aI7350
aI7400
aI7450
aI7500
aI7550
aI7600
aI7650
aI7700
aI7750
aI7800
aI7850
aI7900
aI7950
aI8000
aI8050
aI8100
aI8150
aI8200
aI8250
aI8300
aI8350
aI8400
aI8450
aI8500
aI8550
aI8600
aI8650
aI8700
aI8750
aI8800
aI8850
aI8900
aI8950
aI9000
aI9050
aI9100
aI9150
aI9200
aI9250
aI9300
aI9350
aI9400
aI9450
aI9500
aI9550
aI9600
aI9650
aI9700
aI9750
aI9800
aI9850
aI9900
aI9950
aI10000
aI10050
aI10100
aI10150
aI10200
aI10250
aI10300
aI10350
aI10400
aI10450
aI10500
aI10550
aI10600
aI10650
aI10700
aI10750
aI10800
aI10850
aI10900
aI10950
aI11000
aI11050
aI11100
aI11150
aI11200
aI11250
aI11300
aI11350
aI11400
aI11450
aI11500
aI11550
aI11600
aI11650
aI11700
aI11750
aI11800
aI11850
aI11900
aI11950
aI12000
aI12050
aI12100
aI12150
aI12200
aI12250
aI12300
aI12350
aI12400
aI12450
aI12500
aI12550
aI12600
aI12650
aI12700
aI12750
aI12800
aI12850
aI12900
aI12950
aI13000
aI13050
aI13100
aI13150
aI13200
aI13250
aI13300
aI13350
aI13400
aI13450
aI13500
aI13550
aI13600
aI13650
aI13700
aI13750
aI13800
aI13850
aI13900
aI13950
aI14000
aI14050
aI14100
aI14150
aI14200
aI14250
aI14300
aI14350
aI14400
aI14450
aI14500
aI14550
aI14600
aI14650
aI14700
aI14750
aI14800
aI14850
aI14900
aI14950
aI15000
aI15050
aI15100
aI15150
aI15200
aI15250
aI15300
aI15350
aI15400
aI15450
aI15500
aI15550
aI15600
aI15650
aI15700
aI15750
aI15800
aI15850
aI15900
aI15950
aI16000
aI16050
aI16100
aI16150
aI16200
aI16250
aI16300
aI16350
aI16400
aI16450
aI16500
aI16550
aI16600
aI16650
aI16700
aI16750
aI16800
aI16850
aI16900
aI16950
aI17000
aI17050
aI17100
aI17150
aI17200
aI17250
aI17300
aI17350
aI17400
aI17450
aI17500
aI17550
aI17600
aI17650
aI17700
aI17750
aI17800
aI17850
aI17900
aI17950
aI18000
aI18050
aI18100
aI18150
aI18200
aI18250
aI18300
aI18350
aI18400
aI18450
aI18500
aI18550
aI18600
aI18650
aI18700
aI18750
aI18800
aI18850
aI18900
aI18950
aI19000
aI19050
aI19100
aI19150
aI19200
aI19250
aI19300
aI19350
aI19400
aI19450
aI19500
aI19550
aI19600
aI19650
aI19700
aI19750
aI19800
aI19850
aI19900
aI19950
aI20000
asS'best_f'
p3
(lp4
cnumpy.core.multiarray
scalar
p5
(cnumpy
dtype
p6
(S'f8'
p7
I0
I1
tp8
Rp9
(I3
S'<'
p10
NNNI-1
I-1
I0
tp11
bS'L\xd1@F\x9d\x16\x00@'
p12
tp13
Rp14
ag5
(g9
S'\x8a\x823F6(\xe6?'
p15
tp16
Rp17
ag5
(g9
S'\xbc[\xd9P\x8aw\xd8?'
p18
tp19
Rp20
ag20
ag20
ag5
(g9
S'wN\xc6\x7fD\x96\xd5?'
p21
tp22
Rp23
ag23
ag23
ag23
ag23
ag23
ag23
ag5
(g9
S'\xbfsm\xb2\\\xff\xd4?'
p24
tp25
Rp26
ag26
ag26
ag26
ag26
ag26
ag26
ag26
ag5
(g9
S'\xe0\x0b\x96\x8bK\x85\xd4?'
p27
tp28
Rp29
ag29
ag29
ag29
ag29
ag5
(g9
S'\xfb\x1b\xbe\xec\xbaq\xd3?'
p30
tp31
Rp32
ag32
ag32
ag32
ag32
ag32
ag32
ag32
ag32
ag32
ag32
ag32
ag32
ag32
ag32
ag32
ag32
ag32
ag32
ag32
ag32
ag32
ag32
ag32
ag32
ag32
ag32
ag32
ag32
ag32
ag32
ag32
ag32
ag32
ag32
ag32
ag32
ag32
ag32
ag32
ag32
ag32
ag32
ag32
ag32
ag32
ag32
ag32
ag32
ag32
ag32
ag32
ag32
ag32
ag32
ag32
ag32
ag32
ag32
ag32
ag32
ag32
ag32
ag32
ag32
ag32
ag32
ag32
ag32
ag32
ag32
ag32
ag32
ag32
ag32
ag32
ag32
ag32
ag32
ag32
ag32
ag32
ag32
ag32
ag32
ag32
ag32
ag32
ag32
ag32
ag32
ag32
ag32
ag32
ag32
ag32
ag32
ag32
ag32
ag32
ag32
ag32
ag32
ag32
ag32
ag32
ag32
ag32
ag32
ag32
ag32
ag32
ag32
ag32
ag32
ag32
ag32
ag32
ag32
ag32
ag32
ag32
ag32
ag32
ag32
ag32
ag32
ag32
ag32
ag32
ag32
ag32
ag32
ag32
ag32
ag32
ag32
ag32
ag32
ag5
(g9
S'\xd3Z\x07\x0c\xadi\xd3?'
p33
tp34
Rp35
ag35
ag35
ag35
ag35
ag35
ag35
ag35
ag35
ag35
ag35
ag35
ag35
ag35
ag35
ag35
ag35
ag35
ag35
ag35
ag35
ag35
ag35
ag35
ag35
ag35
ag35
ag35
ag35
ag35
ag35
ag35
ag35
ag35
ag35
ag35
ag35
ag35
ag35
ag35
ag35
ag35
ag35
ag35
ag35
ag35
ag35
ag35
ag35
ag35
ag35
ag35
ag35
ag35
ag35
ag35
ag35
ag35
ag35
ag35
ag35
ag35
ag35
ag35
ag35
ag35
ag35
ag35
ag35
ag35
ag35
ag35
ag35
ag35
ag35
ag35
ag35
ag35
ag35
ag35
ag35
ag35
ag35
ag35
ag35
ag35
ag35
ag35
ag35
ag35
ag35
ag35
ag35
ag35
ag35
ag35
ag35
ag35
ag35
ag35
ag35
ag35
ag35
ag35
ag35
ag35
ag35
ag35
ag35
ag35
ag35
ag35
ag35
ag35
ag35
ag35
ag35
ag35
ag35
ag35
ag35
ag35
ag35
ag35
ag35
ag35
ag35
ag35
ag35
ag35
ag35
ag35
ag35
ag35
ag35
ag35
ag35
ag35
ag35
ag35
ag35
ag35
ag35
ag35
ag35
ag35
ag35
ag35
ag35
ag35
ag35
ag35
ag35
ag35
ag35
ag35
ag35
ag35
ag35
ag35
ag35
ag35
ag35
ag35
ag35
ag35
ag35
ag35
ag35
ag35
ag35
ag35
ag35
ag35
ag35
ag35
ag35
ag35
ag35
ag35
ag35
ag35
ag35
ag35
ag35
ag35
ag35
ag35
ag35
ag35
ag35
ag35
ag35
ag35
ag35
ag35
ag5
(g9
S'\x1c\x05\xbe\x8bAs\xd1?'
p36
tp37
Rp38
ag38
ag38
ag38
ag38
ag5
(g9
S'\x89\xb9G\xb6Y\x17\xd1?'
p39
tp40
Rp41
ag41
ag41
ag41
ag41
ag5
(g9
S'Z\xa8\x11]-\x01\xd1?'
p42
tp43
Rp44
ag44
ag44
ag5
(g9
S'\xc99\xb8\xcfE\x06\xd0?'
p45
tp46
Rp47
ag47
ag47
ag5
(g9
S'\xb8Bd0\xc1\xd0\xcf?'
p48
tp49
Rp50
ag50
ag5
(g9
S'-\xaf\x19jVh\xc2?'
p51
tp52
Rp53
ag53
ag53
ag53
ag53
ag53
ag53
ag53
ag53
ag53
ag53
ag53
ag53
ag53
ag53
ag53
ag53
ag53
ag53
ag53
ag53
ag53
asS'best_P'
p54
(lp55
(itree
PTree
p56
(dp57
S'root'
p58
ccopy_reg
_reconstructor
p59
(ctree
Feature
p60
c__builtin__
object
p61
Ntp62
Rp63
(dp64
S'index'
p65
I0
sS'name'
p66
S'Storage'
p67
sS'l'
p68
g59
(ctree
Action
p69
g61
Ntp70
Rp71
(dp72
S'r'
p73
NsS'is_feature'
p74
I00
sS'value'
p75
S'Flood_Control'
p76
sg68
Nsbsg73
g59
(g69
g61
Ntp77
Rp78
(dp79
g73
Nsg74
I00
sg75
S'Hedge_80'
p80
sg68
NsbsS'threshold'
p81
F767.6888442355449
sg74
I01
sbsS'L'
p82
(lp83
g63
ag71
ag78
asS'N'
p84
I3
sba(itree
PTree
p85
(dp86
g58
g59
(g60
g61
Ntp87
Rp88
(dp89
g65
I1
sg73
g59
(g60
g61
Ntp90
Rp91
(dp92
g65
I0
sg73
g59
(g69
g61
Ntp93
Rp94
(dp95
g73
Nsg74
I00
sg75
S'Hedge_90'
p96
sg68
Nsbsg66
g67
sg81
F140.01041675981975
sg68
g59
(g69
g61
Ntp97
Rp98
(dp99
g73
Nsg74
I00
sg75
S'Hedge_50'
p100
sg68
Nsbsg74
I01
sbsg66
S'Day'
p101
sg81
F148.82009995353837
sg68
g59
(g69
g61
Ntp102
Rp103
(dp104
g73
Nsg74
I00
sg75
S'Flood_Control'
p105
sg68
Nsbsg74
I01
sbsg82
(lp106
g88
ag103
ag91
ag98
ag94
asg84
I5
sba(itree
PTree
p107
(dp108
g58
g59
(g60
g61
Ntp109
Rp110
(dp111
g65
I0
sg73
g59
(g69
g61
Ntp112
Rp113
(dp114
g73
Nsg74
I00
sg75
S'Flood_Control'
p115
sg68
Nsbsg66
g67
sg81
F511.9513437131471
sg68
g59
(g69
g61
Ntp116
Rp117
(dp118
g73
Nsg74
I00
sg75
S'Release_Demand'
p119
sg68
Nsbsg74
I01
sbsg82
(lp120
g110
ag117
ag113
asg84
I3
sbag107
ag107
a(itree
PTree
p121
(dp122
g58
g59
(g60
g61
Ntp123
Rp124
(dp125
g65
I0
sg73
g59
(g69
g61
Ntp126
Rp127
(dp128
g73
Nsg74
I00
sg75
g115
sg68
Nsbsg66
g67
sg81
F553.3723895243367
sg68
g59
(g69
g61
Ntp129
Rp130
(dp131
g73
Nsg74
I00
sg75
S'Release_Demand'
p132
sg68
Nsbsg74
I01
sbsg82
(lp133
g124
ag130
ag127
asg84
I3
sbag121
ag121
ag121
ag121
ag121
ag121
a(itree
PTree
p134
(dp135
g58
g59
(g60
g61
Ntp136
Rp137
(dp138
g65
I0
sg73
g59
(g69
g61
Ntp139
Rp140
(dp141
g73
Nsg74
I00
sg75
g115
sg68
Nsbsg66
g67
sg81
F567.3031418174853
sg68
g59
(g69
g61
Ntp142
Rp143
(dp144
g73
Nsg74
I00
sg75
g132
sg68
Nsbsg74
I01
sbsg82
(lp145
g137
ag143
ag140
asg84
I3
sbag134
ag134
ag134
ag134
ag134
ag134
ag134
a(itree
PTree
p146
(dp147
g58
g59
(g60
g61
Ntp148
Rp149
(dp150
g65
I0
sg73
g59
(g69
g61
Ntp151
Rp152
(dp153
g73
Nsg74
I00
sg75
S'Flood_Control'
p154
sg68
Nsbsg66
g67
sg81
F595.060008756343
sg68
g59
(g69
g61
Ntp155
Rp156
(dp157
g73
Nsg74
I00
sg75
S'Hedge_90'
p158
sg68
Nsbsg74
I01
sbsg82
(lp159
g149
ag156
ag152
asg84
I3
sbag146
ag146
ag146
ag146
a(itree
PTree
p160
(dp161
g58
g59
(g60
g61
Ntp162
Rp163
(dp164
g65
I0
sg73
g59
(g69
g61
Ntp165
Rp166
(dp167
g73
Nsg74
I00
sg75
g154
sg68
Nsbsg66
g67
sg81
F591.135881662523
sg68
g59
(g69
g61
Ntp168
Rp169
(dp170
g73
Nsg74
I00
sg75
S'Release_Demand'
p171
sg68
Nsbsg74
I01
sbsg82
(lp172
g163
ag169
ag166
asg84
I3
sbag160
ag160
ag160
ag160
ag160
ag160
ag160
ag160
ag160
ag160
ag160
ag160
ag160
ag160
ag160
ag160
ag160
ag160
ag160
ag160
ag160
ag160
ag160
ag160
ag160
ag160
ag160
ag160
ag160
ag160
ag160
ag160
ag160
ag160
ag160
ag160
ag160
ag160
ag160
ag160
ag160
ag160
ag160
ag160
ag160
ag160
ag160
ag160
ag160
ag160
ag160
ag160
ag160
ag160
ag160
ag160
ag160
ag160
ag160
ag160
ag160
ag160
ag160
ag160
ag160
ag160
ag160
ag160
ag160
ag160
ag160
ag160
ag160
ag160
ag160
ag160
ag160
ag160
ag160
ag160
ag160
ag160
ag160
ag160
ag160
ag160
ag160
ag160
ag160
ag160
ag160
ag160
ag160
ag160
ag160
ag160
ag160
ag160
ag160
ag160
ag160
ag160
ag160
ag160
ag160
ag160
ag160
ag160
ag160
ag160
ag160
ag160
ag160
ag160
ag160
ag160
ag160
ag160
ag160
ag160
ag160
ag160
ag160
ag160
ag160
ag160
ag160
ag160
ag160
ag160
ag160
ag160
ag160
ag160
ag160
ag160
ag160
ag160
a(itree
PTree
p173
(dp174
g58
g59
(g60
g61
Ntp175
Rp176
(dp177
g65
I0
sg73
g59
(g69
g61
Ntp178
Rp179
(dp180
g73
Nsg74
I00
sg75
S'Flood_Control'
p181
sg68
Nsbsg66
g67
sg81
F591.0131398666853
sg68
g59
(g69
g61
Ntp182
Rp183
(dp184
g73
Nsg74
I00
sg75
S'Release_Demand'
p185
sg68
Nsbsg74
I01
sbsg82
(lp186
g176
ag183
ag179
asg84
I3
sbag173
ag173
ag173
ag173
ag173
ag173
ag173
ag173
ag173
ag173
ag173
ag173
ag173
ag173
ag173
ag173
ag173
ag173
ag173
ag173
ag173
ag173
ag173
ag173
ag173
ag173
ag173
ag173
ag173
ag173
ag173
ag173
ag173
ag173
ag173
ag173
ag173
ag173
ag173
ag173
ag173
ag173
ag173
ag173
ag173
ag173
ag173
ag173
ag173
ag173
ag173
ag173
ag173
ag173
ag173
ag173
ag173
ag173
ag173
ag173
ag173
ag173
ag173
ag173
ag173
ag173
ag173
ag173
ag173
ag173
ag173
ag173
ag173
ag173
ag173
ag173
ag173
ag173
ag173
ag173
ag173
ag173
ag173
ag173
ag173
ag173
ag173
ag173
ag173
ag173
ag173
ag173
ag173
ag173
ag173
ag173
ag173
ag173
ag173
ag173
ag173
ag173
ag173
ag173
ag173
ag173
ag173
ag173
ag173
ag173
ag173
ag173
ag173
ag173
ag173
ag173
ag173
ag173
ag173
ag173
ag173
ag173
ag173
ag173
ag173
ag173
ag173
ag173
ag173
ag173
ag173
ag173
ag173
ag173
ag173
ag173
ag173
ag173
ag173
ag173
ag173
ag173
ag173
ag173
ag173
ag173
ag173
ag173
ag173
ag173
ag173
ag173
ag173
ag173
ag173
ag173
ag173
ag173
ag173
ag173
ag173
ag173
ag173
ag173
ag173
ag173
ag173
ag173
ag173
ag173
ag173
ag173
ag173
ag173
ag173
ag173
ag173
ag173
ag173
ag173
ag173
ag173
ag173
ag173
ag173
ag173
ag173
ag173
ag173
ag173
ag173
ag173
ag173
ag173
ag173
a(itree
PTree
p187
(dp188
g58
g59
(g60
g61
Ntp189
Rp190
(dp191
g65
I1
sg73
g59
(g69
g61
Ntp192
Rp193
(dp194
g73
Nsg74
I00
sg75
S'Release_Demand'
p195
sg68
Nsbsg66
g101
sg81
F172.31863089796866
sg68
g59
(g60
g61
Ntp196
Rp197
(dp198
g65
I0
sg73
g59
(g69
g61
Ntp199
Rp200
(dp201
g73
Nsg74
I00
sg75
S'Flood_Control'
p202
sg68
Nsbsg66
g67
sg81
F549.8947569825577
sg68
g59
(g69
g61
Ntp203
Rp204
(dp205
g73
Nsg74
I00
sg75
S'Release_Demand'
p206
sg68
Nsbsg74
I01
sbsg74
I01
sbsg82
(lp207
g190
ag197
ag204
ag200
ag193
asg84
I5
sbag187
ag187
ag187
ag187
a(itree
PTree
p208
(dp209
g58
g59
(g60
g61
Ntp210
Rp211
(dp212
g65
I1
sg73
g59
(g69
g61
Ntp213
Rp214
(dp215
g73
Nsg74
I00
sg75
g195
sg68
Nsbsg66
g101
sg81
F150.18909582017147
sg68
g59
(g60
g61
Ntp216
Rp217
(dp218
g65
I0
sg73
g59
(g69
g61
Ntp219
Rp220
(dp221
g73
Nsg74
I00
sg75
g202
sg68
Nsbsg66
g67
sg81
F521.1781063007912
sg68
g59
(g69
g61
Ntp222
Rp223
(dp224
g73
Nsg74
I00
sg75
g206
sg68
Nsbsg74
I01
sbsg74
I01
sbsg82
(lp225
g211
ag217
ag223
ag220
ag214
asg84
I5
sbag208
ag208
ag208
ag208
a(itree
PTree
p226
(dp227
g58
g59
(g60
g61
Ntp228
Rp229
(dp230
g65
I1
sg73
g59
(g69
g61
Ntp231
Rp232
(dp233
g73
Nsg74
I00
sg75
S'Hedge_90'
p234
sg68
Nsbsg66
g101
sg81
F183.75187179622887
sg68
g59
(g60
g61
Ntp235
Rp236
(dp237
g65
I0
sg73
g59
(g69
g61
Ntp238
Rp239
(dp240
g73
Nsg74
I00
sg75
S'Flood_Control'
p241
sg68
Nsbsg66
g67
sg81
F586.6719074063017
sg68
g59
(g69
g61
Ntp242
Rp243
(dp244
g73
Nsg74
I00
sg75
S'Hedge_90'
p245
sg68
Nsbsg74
I01
sbsg74
I01
sbsg82
(lp246
g229
ag236
ag243
ag239
ag232
asg84
I5
sbag226
ag226
a(itree
PTree
p247
(dp248
g58
g59
(g60
g61
Ntp249
Rp250
(dp251
g65
I1
sg73
g59
(g69
g61
Ntp252
Rp253
(dp254
g73
Nsg74
I00
sg75
g234
sg68
Nsbsg66
g101
sg81
F183.75187179622887
sg68
g59
(g60
g61
Ntp255
Rp256
(dp257
g65
I0
sg73
g59
(g69
g61
Ntp258
Rp259
(dp260
g73
Nsg74
I00
sg75
g241
sg68
Nsbsg66
g67
sg81
F590.3272794524898
sg68
g59
(g69
g61
Ntp261
Rp262
(dp263
g73
Nsg74
I00
sg75
g245
sg68
Nsbsg74
I01
sbsg74
I01
sbsg82
(lp264
g250
ag256
ag262
ag259
ag253
asg84
I5
sbag247
ag247
a(itree
PTree
p265
(dp266
g58
g59
(g60
g61
Ntp267
Rp268
(dp269
g65
I1
sg73
g59
(g69
g61
Ntp270
Rp271
(dp272
g73
Nsg74
I00
sg75
S'Release_Demand'
p273
sg68
Nsbsg66
g101
sg81
F136.62016708111594
sg68
g59
(g60
g61
Ntp274
Rp275
(dp276
g65
I0
sg73
g59
(g69
g61
Ntp277
Rp278
(dp279
g73
Nsg74
I00
sg75
S'Flood_Control'
p280
sg68
Nsbsg66
g67
sg81
F561.323628292101
sg68
g59
(g69
g61
Ntp281
Rp282
(dp283
g73
Nsg74
I00
sg75
S'Release_Demand'
p284
sg68
Nsbsg74
I01
sbsg74
I01
sbsg82
(lp285
g268
ag275
ag282
ag278
ag271
asg84
I5
sbag265
a(itree
PTree
p286
(dp287
g58
g59
(g60
g61
Ntp288
Rp289
(dp290
g65
I1
sg73
g59
(g69
g61
Ntp291
Rp292
(dp293
g73
Nsg74
I00
sg75
g234
sg68
Nsbsg66
g101
sg81
F99.71842285950262
sg68
g59
(g60
g61
Ntp294
Rp295
(dp296
g65
I0
sg73
g59
(g69
g61
Ntp297
Rp298
(dp299
g73
Nsg74
I00
sg75
g241
sg68
Nsbsg66
g67
sg81
F587.5859601414032
sg68
g59
(g69
g61
Ntp300
Rp301
(dp302
g73
Nsg74
I00
sg75
g245
sg68
Nsbsg74
I01
sbsg74
I01
sbsg82
(lp303
g289
ag295
ag301
ag298
ag292
asg84
I5
sbag286
ag286
ag286
ag286
ag286
ag286
ag286
ag286
ag286
ag286
ag286
ag286
ag286
ag286
ag286
ag286
ag286
ag286
ag286
ag286
ag286
asS'time'
p304
(lp305
I56
aI84
aI112
aI141
aI170
aI199
aI227
aI256
aI283
aI312
aI339
aI367
aI395
aI423
aI451
aI479
aI506
aI534
aI560
aI588
aI614
aI641
aI668
aI694
aI721
aI748
aI775
aI801
aI828
aI854
aI881
aI908
aI935
aI961
aI989
aI1015
aI1042
aI1068
aI1095
aI1122
aI1149
aI1175
aI1202
aI1228
aI1255
aI1281
aI1308
aI1335
aI1362
aI1388
aI1415
aI1442
aI1468
aI1495
aI1522
aI1549
aI1575
aI1602
aI1629
aI1656
aI1682
aI1709
aI1736
aI1763
aI1789
aI1816
aI1843
aI1870
aI1896
aI1923
aI1950
aI1977
aI2003
aI2030
aI2057
aI2084
aI2110
aI2137
aI2164
aI2191
aI2218
aI2245
aI2271
aI2298
aI2325
aI2352
aI2378
aI2405
aI2432
aI2459
aI2485
aI2512
aI2539
aI2565
aI2592
aI2619
aI2647
aI2674
aI2701
aI2727
aI2754
aI2781
aI2808
aI2834
aI2861
aI2887
aI2914
aI2941
aI2968
aI2994
aI3021
aI3048
aI3075
aI3101
aI3128
aI3154
aI3181
aI3208
aI3235
aI3261
aI3288
aI3315
aI3341
aI3368
aI3395
aI3421
aI3448
aI3474
aI3502
aI3528
aI3555
aI3582
aI3609
aI3636
aI3663
aI3690
aI3716
aI3743
aI3769
aI3796
aI3823
aI3849
aI3876
aI3903
aI3930
aI3956
aI3983
aI4009
aI4036
aI4063
aI4089
aI4116
aI4142
aI4169
aI4196
aI4222
aI4249
aI4276
aI4303
aI4329
aI4356
aI4383
aI4410
aI4436
aI4463
aI4490
aI4516
aI4543
aI4570
aI4597
aI4623
aI4650
aI4676
aI4703
aI4730
aI4756
aI4783
aI4810
aI4836
aI4863
aI4890
aI4917
aI4943
aI4970
aI4996
aI5023
aI5050
aI5076
aI5103
aI5129
aI5155
aI5182
aI5209
aI5236
aI5263
aI5289
aI5316
aI5342
aI5369
aI5396
aI5423
aI5449
aI5476
aI5503
aI5530
aI5557
aI5584
aI5611
aI5637
aI5664
aI5691
aI5718
aI5744
aI5771
aI5798
aI5825
aI5851
aI5878
aI5905
aI5932
aI5959
aI5985
aI6011
aI6038
aI6065
aI6091
aI6118
aI6145
aI6171
aI6198
aI6225
aI6251
aI6278
aI6305
aI6332
aI6358
aI6385
aI6412
aI6439
aI6466
aI6493
aI6519
aI6546
aI6573
aI6600
aI6627
aI6653
aI6680
aI6707
aI6733
aI6760
aI6787
aI6813
aI6840
aI6866
aI6894
aI6920
aI6947
aI6974
aI7001
aI7027
aI7054
aI7081
aI7107
aI7134
aI7161
aI7187
aI7214
aI7241
aI7267
aI7294
aI7321
aI7347
aI7374
aI7401
aI7428
aI7454
aI7481
aI7508
aI7535
aI7562
aI7588
aI7615
aI7642
aI7668
aI7694
aI7721
aI7748
aI7774
aI7801
aI7828
aI7855
aI7881
aI7908
aI7935
aI7962
aI7988
aI8015
aI8042
aI8068
aI8095
aI8122
aI8148
aI8175
aI8201
aI8228
aI8255
aI8281
aI8309
aI8335
aI8362
aI8388
aI8415
aI8442
aI8469
aI8495
aI8522
aI8548
aI8575
aI8601
aI8628
aI8655
aI8682
aI8708
aI8735
aI8762
aI8789
aI8815
aI8842
aI8868
aI8895
aI8922
aI8949
aI8975
aI9002
aI9029
aI9056
aI9082
aI9109
aI9136
aI9163
aI9190
aI9216
aI9243
aI9270
aI9297
aI9324
aI9350
aI9377
aI9404
aI9430
aI9457
aI9484
aI9511
aI9538
aI9564
aI9591
aI9618
aI9645
aI9672
aI9699
aI9726
aI9753
aI9780
aI9807
aI9834
aI9861
aI9888
aI9915
aI9943
aI9970
aI9997
aI10025
aI10053
aI10080
aI10109
aI10136
aI10164
aI10192
aI10219
aI10247
aI10274
aI10302
aI10330
aI10357
aI10385
aI10412
aI10439
aI10467
aI10495
aI10522
aI10550
aI10578
aI10607
aI10634
aI10662
aI10690
aI10719
aI10747
aI10776
as.