(dp0
S'nfe'
p1
(lp2
I50
aI100
aI150
aI200
aI250
aI300
aI350
aI400
aI450
aI500
aI550
aI600
aI650
aI700
aI750
aI800
aI850
aI900
aI950
aI1000
aI1050
aI1100
aI1150
aI1200
aI1250
aI1300
aI1350
aI1400
aI1450
aI1500
aI1550
aI1600
aI1650
aI1700
aI1750
aI1800
aI1850
aI1900
aI1950
aI2000
aI2050
aI2100
aI2150
aI2200
aI2250
aI2300
aI2350
aI2400
aI2450
aI2500
aI2550
aI2600
aI2650
aI2700
aI2750
aI2800
aI2850
aI2900
aI2950
aI3000
aI3050
aI3100
aI3150
aI3200
aI3250
aI3300
aI3350
aI3400
aI3450
aI3500
aI3550
aI3600
aI3650
aI3700
aI3750
aI3800
aI3850
aI3900
aI3950
aI4000
aI4050
aI4100
aI4150
aI4200
aI4250
aI4300
aI4350
aI4400
aI4450
aI4500
aI4550
aI4600
aI4650
aI4700
aI4750
aI4800
aI4850
aI4900
aI4950
aI5000
aI5050
aI5100
aI5150
aI5200
aI5250
aI5300
aI5350
aI5400
aI5450
aI5500
aI5550
aI5600
aI5650
aI5700
aI5750
aI5800
aI5850
aI5900
aI5950
aI6000
aI6050
aI6100
aI6150
aI6200
aI6250
aI6300
aI6350
aI6400
aI6450
aI6500
aI6550
aI6600
aI6650
aI6700
aI6750
aI6800
aI6850
aI6900
aI6950
aI7000
aI7050
aI7100
aI7150
aI7200
aI7250
aI7300
aI7350
aI7400
aI7450
aI7500
aI7550
aI7600
aI7650
aI7700
aI7750
aI7800
aI7850
aI7900
aI7950
aI8000
aI8050
aI8100
aI8150
aI8200
aI8250
aI8300
aI8350
aI8400
aI8450
aI8500
aI8550
aI8600
aI8650
aI8700
aI8750
aI8800
aI8850
aI8900
aI8950
aI9000
aI9050
aI9100
aI9150
aI9200
aI9250
aI9300
aI9350
aI9400
aI9450
aI9500
aI9550
aI9600
aI9650
aI9700
aI9750
aI9800
aI9850
aI9900
aI9950
aI10000
aI10050
aI10100
aI10150
aI10200
aI10250
aI10300
aI10350
aI10400
aI10450
aI10500
aI10550
aI10600
aI10650
aI10700
aI10750
aI10800
aI10850
aI10900
aI10950
aI11000
aI11050
aI11100
aI11150
aI11200
aI11250
aI11300
aI11350
aI11400
aI11450
aI11500
aI11550
aI11600
aI11650
aI11700
aI11750
aI11800
aI11850
aI11900
aI11950
aI12000
aI12050
aI12100
aI12150
aI12200
aI12250
aI12300
aI12350
aI12400
aI12450
aI12500
aI12550
aI12600
aI12650
aI12700
aI12750
aI12800
aI12850
aI12900
aI12950
aI13000
aI13050
aI13100
aI13150
aI13200
aI13250
aI13300
aI13350
aI13400
aI13450
aI13500
aI13550
aI13600
aI13650
aI13700
aI13750
aI13800
aI13850
aI13900
aI13950
aI14000
aI14050
aI14100
aI14150
aI14200
aI14250
aI14300
aI14350
aI14400
aI14450
aI14500
aI14550
aI14600
aI14650
aI14700
aI14750
aI14800
aI14850
aI14900
aI14950
aI15000
aI15050
aI15100
aI15150
aI15200
aI15250
aI15300
aI15350
aI15400
aI15450
aI15500
aI15550
aI15600
aI15650
aI15700
aI15750
aI15800
aI15850
aI15900
aI15950
aI16000
aI16050
aI16100
aI16150
aI16200
aI16250
aI16300
aI16350
aI16400
aI16450
aI16500
aI16550
aI16600
aI16650
aI16700
aI16750
aI16800
aI16850
aI16900
aI16950
aI17000
aI17050
aI17100
aI17150
aI17200
aI17250
aI17300
aI17350
aI17400
aI17450
aI17500
aI17550
aI17600
aI17650
aI17700
aI17750
aI17800
aI17850
aI17900
aI17950
aI18000
aI18050
aI18100
aI18150
aI18200
aI18250
aI18300
aI18350
aI18400
aI18450
aI18500
aI18550
aI18600
aI18650
aI18700
aI18750
aI18800
aI18850
aI18900
aI18950
aI19000
aI19050
aI19100
aI19150
aI19200
aI19250
aI19300
aI19350
aI19400
aI19450
aI19500
aI19550
aI19600
aI19650
aI19700
aI19750
aI19800
aI19850
aI19900
aI19950
aI20000
aI20050
aI20100
aI20150
aI20200
aI20250
aI20300
aI20350
aI20400
aI20450
aI20500
aI20550
aI20600
aI20650
aI20700
aI20750
aI20800
aI20850
aI20900
aI20950
aI21000
aI21050
aI21100
aI21150
aI21200
aI21250
aI21300
aI21350
aI21400
aI21450
aI21500
aI21550
aI21600
aI21650
aI21700
aI21750
aI21800
aI21850
aI21900
aI21950
aI22000
aI22050
aI22100
aI22150
aI22200
aI22250
aI22300
aI22350
aI22400
aI22450
aI22500
aI22550
aI22600
aI22650
aI22700
aI22750
aI22800
aI22850
aI22900
aI22950
aI23000
aI23050
aI23100
aI23150
aI23200
aI23250
aI23300
aI23350
aI23400
aI23450
aI23500
aI23550
aI23600
aI23650
aI23700
aI23750
aI23800
aI23850
aI23900
aI23950
aI24000
aI24050
aI24100
aI24150
aI24200
aI24250
aI24300
aI24350
aI24400
aI24450
aI24500
aI24550
aI24600
aI24650
aI24700
aI24750
aI24800
aI24850
aI24900
aI24950
aI25000
asS'best_f'
p3
(lp4
cnumpy.core.multiarray
scalar
p5
(cnumpy
dtype
p6
(S'f8'
p7
I0
I1
tp8
Rp9
(I3
S'<'
p10
NNNI-1
I-1
I0
tp11
bS'V]\x13\x89\xe3O\x02A'
p12
tp13
Rp14
ag5
(g9
S'ou:\xf0\x8a\x90\x00A'
p15
tp16
Rp17
ag5
(g9
S'\xc9\x0e^E\xb6\x9a\xea@'
p18
tp19
Rp20
ag20
ag20
ag5
(g9
S'&1\x1c\x8b\x88\x8f\xea@'
p21
tp22
Rp23
ag5
(g9
S'K5\xec\xb9\xc2\x81\xea@'
p24
tp25
Rp26
ag26
ag26
ag26
ag26
ag26
ag26
ag26
ag26
ag5
(g9
S'U\xb5o\xf1\x9f\x81\xea@'
p27
tp28
Rp29
ag29
ag5
(g9
S'\x91m\xdc4\xa8\x7f\xea@'
p30
tp31
Rp32
ag5
(g9
S"H'\x13U\xbc{\xea@"
p33
tp34
Rp35
ag5
(g9
S';\x98\x95q\xb7{\xea@'
p36
tp37
Rp38
ag38
ag38
ag38
ag38
ag38
ag38
ag38
ag38
ag38
ag38
ag38
ag38
ag38
ag38
ag38
ag38
ag38
ag38
ag38
ag38
ag38
ag38
ag38
ag5
(g9
S'\xa5a`\xec\xb1{\xea@'
p39
tp40
Rp41
ag41
ag41
ag41
ag41
ag5
(g9
S'\x137\x9b\x14\xa8{\xea@'
p42
tp43
Rp44
ag44
ag44
ag44
ag44
ag44
ag44
ag44
ag44
ag44
ag44
ag5
(g9
S':\x10\xa5\x1c\xfaz\xea@'
p45
tp46
Rp47
ag47
ag5
(g9
S'\xd2<i\x1b\xfaz\xea@'
p48
tp49
Rp50
ag50
ag5
(g9
S'h&\xc3\x0f\xfaz\xea@'
p51
tp52
Rp53
ag53
ag53
ag53
ag53
ag53
ag53
ag53
ag53
ag53
ag53
ag53
ag53
ag53
ag5
(g9
S'\xb1T\x1f\t\xfaz\xea@'
p54
tp55
Rp56
ag56
ag5
(g9
S'\x00D\x07\xfd\xf9z\xea@'
p57
tp58
Rp59
ag59
ag5
(g9
S'\xcb\xbc\xa1\xf3\xf9z\xea@'
p60
tp61
Rp62
ag62
ag62
ag62
ag62
ag62
ag62
ag62
ag62
ag62
ag62
ag62
ag62
ag62
ag5
(g9
S'6~\xf4\xeb\xf9z\xea@'
p63
tp64
Rp65
ag5
(g9
S'\x07\xddl\xe5\xf9z\xea@'
p66
tp67
Rp68
ag68
ag68
ag68
ag68
ag5
(g9
S'\xa25\xcf?\xedz\xea@'
p69
tp70
Rp71
ag71
ag71
ag71
ag71
ag5
(g9
S'K\xc3\x12\x83\xe2z\xea@'
p72
tp73
Rp74
ag74
ag74
ag74
ag74
ag74
ag74
ag74
ag74
ag74
ag74
ag74
ag74
ag74
ag74
ag74
ag74
ag74
ag5
(g9
S'*\xe6\\4\xcaz\xea@'
p75
tp76
Rp77
ag77
ag77
ag77
ag77
ag77
ag77
ag77
ag77
ag77
ag77
ag77
ag77
ag77
ag77
ag5
(g9
S'|\xa92\xacSz\xea@'
p78
tp79
Rp80
ag80
ag80
ag80
ag5
(g9
S'/\x1d\x92\xeaDz\xea@'
p81
tp82
Rp83
ag83
ag83
ag83
ag83
ag83
ag83
ag83
ag83
ag83
ag83
ag83
ag5
(g9
S',\x9cx\x98.z\xea@'
p84
tp85
Rp86
ag86
ag86
ag86
ag86
ag86
ag86
ag5
(g9
S'\x8eq\xdc\xd3\tz\xea@'
p87
tp88
Rp89
ag89
ag89
ag89
ag89
ag89
ag89
ag89
ag89
ag89
ag89
ag5
(g9
S'\xf6\xef\x82\x14\x08z\xea@'
p90
tp91
Rp92
ag92
ag92
ag92
ag92
ag92
ag92
ag92
ag92
ag92
ag92
ag92
ag92
ag92
ag92
ag92
ag92
ag92
ag92
ag92
ag92
ag92
ag92
ag92
ag92
ag92
ag92
ag92
ag92
ag92
ag92
ag92
ag92
ag92
ag92
ag92
ag5
(g9
S'2S\xfd2\x05z\xea@'
p93
tp94
Rp95
ag95
ag95
ag95
ag95
ag95
ag95
ag95
ag95
ag95
ag95
ag95
ag95
ag95
ag95
ag95
ag95
ag95
ag95
ag95
ag95
ag95
ag95
ag5
(g9
S'\x89_QK\x00z\xea@'
p96
tp97
Rp98
ag98
ag98
ag98
ag98
ag98
ag98
ag98
ag98
ag98
ag98
ag98
ag98
ag98
ag98
ag98
ag98
ag98
ag98
ag98
ag98
ag98
ag98
ag98
ag98
ag98
ag98
ag98
ag98
ag98
ag98
ag98
ag98
ag98
ag98
ag98
ag98
ag98
ag98
ag98
ag98
ag98
ag98
ag98
ag98
ag98
ag5
(g9
S'643Q\xfby\xea@'
p99
tp100
Rp101
ag101
ag101
ag101
ag101
ag101
ag101
ag101
ag101
ag101
ag101
ag101
ag101
ag101
ag101
ag101
ag101
ag101
ag101
ag101
ag101
ag101
ag101
ag101
ag101
ag101
ag101
ag101
ag101
ag101
ag101
ag101
ag101
ag101
ag101
ag101
ag101
ag101
ag101
ag101
ag101
ag101
ag101
ag101
ag101
ag101
ag101
ag101
ag101
ag101
ag101
ag101
ag101
ag101
ag101
ag101
ag101
ag101
ag101
ag101
ag101
ag101
ag101
ag101
ag101
ag101
ag101
ag101
ag101
ag101
ag101
ag101
ag101
ag101
ag101
ag101
ag101
ag101
ag101
ag101
ag101
ag101
ag101
ag101
ag101
ag101
ag101
ag101
ag101
ag101
ag5
(g9
S'\x17\xfa\x8a.\xfay\xea@'
p102
tp103
Rp104
ag104
ag104
ag104
ag104
ag104
ag104
ag104
ag104
ag104
ag104
ag104
ag104
ag104
ag104
ag104
ag104
ag104
ag104
ag104
ag104
ag104
ag104
ag104
ag104
ag104
ag104
ag104
ag104
ag104
ag104
ag104
ag104
ag104
ag104
ag104
ag104
ag104
ag104
ag104
ag104
ag104
ag104
ag104
ag104
ag104
ag104
ag104
ag104
ag104
ag104
ag104
ag104
ag104
ag104
ag104
ag104
ag104
ag104
ag104
ag104
ag104
ag104
ag104
ag104
ag104
ag104
ag104
ag104
ag104
ag104
ag104
ag104
ag104
ag104
ag104
ag104
ag104
ag104
ag104
ag104
ag104
ag104
ag104
ag104
ag104
ag104
ag104
ag104
ag104
ag104
ag104
ag104
ag104
ag104
ag104
ag104
ag104
ag104
ag104
ag104
ag104
ag104
ag104
ag104
ag104
ag104
ag104
ag104
ag104
ag104
ag104
ag104
ag104
ag104
ag104
ag104
ag104
ag104
ag104
ag104
ag104
ag104
ag104
ag104
ag104
ag104
ag104
ag104
ag104
ag104
ag104
asS'best_P'
p105
(lp106
(itree
PTree
p107
(dp108
S'root'
p109
ccopy_reg
_reconstructor
p110
(ctree
Feature
p111
c__builtin__
object
p112
Ntp113
Rp114
(dp115
S'index'
p116
I1
sS'name'
p117
S'Day'
p118
sS'l'
p119
g110
(g111
g112
Ntp120
Rp121
(dp122
g116
I0
sg117
S'Storage'
p123
sg119
g110
(ctree
Action
p124
g112
Ntp125
Rp126
(dp127
S'r'
p128
NsS'is_feature'
p129
I00
sS'value'
p130
S'Hedge_80'
p131
sg119
Nsbsg128
g110
(g111
g112
Ntp132
Rp133
(dp134
g116
I0
sg117
g123
sg119
g110
(g124
g112
Ntp135
Rp136
(dp137
g128
Nsg129
I00
sg130
S'Flood_Control'
p138
sg119
Nsbsg128
g110
(g124
g112
Ntp139
Rp140
(dp141
g128
Nsg129
I00
sg130
S'Hedge_50'
p142
sg119
NsbsS'threshold'
p143
F745.6371927074961
sg129
I01
sbsg143
F135.4279030721699
sg129
I01
sbsg128
g110
(g124
g112
Ntp144
Rp145
(dp146
g128
Nsg129
I00
sg130
S'Hedge_80'
p147
sg119
Nsbsg143
F362.38887154139405
sg129
I01
sbsS'L'
p148
(lp149
g114
ag121
ag126
ag133
ag136
ag140
ag145
asS'N'
p150
I7
sba(itree
PTree
p151
(dp152
g109
g110
(g111
g112
Ntp153
Rp154
(dp155
g116
I0
sg128
g110
(g111
g112
Ntp156
Rp157
(dp158
g116
I0
sg128
g110
(g124
g112
Ntp159
Rp160
(dp161
g128
Nsg129
I00
sg130
S'Hedge_90'
p162
sg119
Nsbsg117
g123
sg143
F738.324053482797
sg119
g110
(g124
g112
Ntp163
Rp164
(dp165
g128
Nsg129
I00
sg130
g138
sg119
Nsbsg129
I01
sbsg117
g123
sg143
F102.26071373658576
sg119
g110
(g124
g112
Ntp166
Rp167
(dp168
g128
Nsg129
I00
sg130
S'Hedge_70'
p169
sg119
Nsbsg129
I01
sbsg148
(lp170
g154
ag167
ag157
ag164
ag160
asg150
I5
sba(itree
PTree
p171
(dp172
g109
g110
(g111
g112
Ntp173
Rp174
(dp175
g116
I0
sg128
g110
(g111
g112
Ntp176
Rp177
(dp178
g116
I0
sg128
g110
(g124
g112
Ntp179
Rp180
(dp181
g128
Nsg129
I00
sg130
g162
sg119
Nsbsg117
g123
sg143
F643.3376675340312
sg119
g110
(g124
g112
Ntp182
Rp183
(dp184
g128
Nsg129
I00
sg130
S'Flood_Control'
p185
sg119
Nsbsg129
I01
sbsg117
g123
sg143
F3.364268027431991
sg119
g110
(g124
g112
Ntp186
Rp187
(dp188
g128
Nsg129
I00
sg130
S'Flood_Control'
p189
sg119
Nsbsg129
I01
sbsg148
(lp190
g174
ag187
ag177
ag183
ag180
asg150
I5
sbag171
ag171
a(itree
PTree
p191
(dp192
g109
g110
(g111
g112
Ntp193
Rp194
(dp195
g116
I1
sg128
g110
(g124
g112
Ntp196
Rp197
(dp198
g128
Nsg129
I00
sg130
S'Hedge_80'
p199
sg119
Nsbsg117
g118
sg143
F285.9463750008585
sg119
g110
(g111
g112
Ntp200
Rp201
(dp202
g116
I0
sg128
g110
(g111
g112
Ntp203
Rp204
(dp205
g116
I0
sg128
g110
(g124
g112
Ntp206
Rp207
(dp208
g128
Nsg129
I00
sg130
S'Hedge_80'
p209
sg119
Nsbsg117
g123
sg143
F686.8468831942628
sg119
g110
(g124
g112
Ntp210
Rp211
(dp212
g128
Nsg129
I00
sg130
S'Flood_Control'
p213
sg119
Nsbsg129
I01
sbsg117
g123
sg143
F2.182929406620869
sg119
g110
(g124
g112
Ntp214
Rp215
(dp216
g128
Nsg129
I00
sg130
S'Hedge_60'
p217
sg119
Nsbsg129
I01
sbsg129
I01
sbsg148
(lp218
g194
ag201
ag215
ag204
ag211
ag207
ag197
asg150
I7
sba(itree
PTree
p219
(dp220
g109
g110
(g111
g112
Ntp221
Rp222
(dp223
g116
I0
sg128
g110
(g111
g112
Ntp224
Rp225
(dp226
g116
I0
sg128
g110
(g124
g112
Ntp227
Rp228
(dp229
g128
Nsg129
I00
sg130
S'Hedge_70'
p230
sg119
Nsbsg117
g123
sg143
F791.3749255966202
sg119
g110
(g124
g112
Ntp231
Rp232
(dp233
g128
Nsg129
I00
sg130
g138
sg119
Nsbsg129
I01
sbsg117
g123
sg143
F0.726959949206414
sg119
g110
(g124
g112
Ntp234
Rp235
(dp236
g128
Nsg129
I00
sg130
S'Hedge_90'
p237
sg119
Nsbsg129
I01
sbsg148
(lp238
g222
ag235
ag225
ag232
ag228
asg150
I5
sbag219
ag219
ag219
ag219
ag219
ag219
ag219
ag219
a(itree
PTree
p239
(dp240
g109
g110
(g111
g112
Ntp241
Rp242
(dp243
g116
I1
sg128
g110
(g124
g112
Ntp244
Rp245
(dp246
g128
Nsg129
I00
sg130
S'Hedge_50'
p247
sg119
Nsbsg117
g118
sg143
F221.00545919485427
sg119
g110
(g111
g112
Ntp248
Rp249
(dp250
g116
I0
sg128
g110
(g111
g112
Ntp251
Rp252
(dp253
g116
I0
sg128
g110
(g124
g112
Ntp254
Rp255
(dp256
g128
Nsg129
I00
sg130
S'Hedge_90'
p257
sg119
Nsbsg117
g123
sg143
F794.415143157235
sg119
g110
(g124
g112
Ntp258
Rp259
(dp260
g128
Nsg129
I00
sg130
g185
sg119
Nsbsg129
I01
sbsg117
g123
sg143
F0.7269983397593781
sg119
g110
(g124
g112
Ntp261
Rp262
(dp263
g128
Nsg129
I00
sg130
S'Hedge_80'
p264
sg119
Nsbsg129
I01
sbsg129
I01
sbsg148
(lp265
g242
ag249
ag262
ag252
ag259
ag255
ag245
asg150
I7
sbag239
a(itree
PTree
p266
(dp267
g109
g110
(g111
g112
Ntp268
Rp269
(dp270
g116
I1
sg128
g110
(g124
g112
Ntp271
Rp272
(dp273
g128
Nsg129
I00
sg130
S'Flood_Control'
p274
sg119
Nsbsg117
g118
sg143
F257.7654559770135
sg119
g110
(g111
g112
Ntp275
Rp276
(dp277
g116
I0
sg128
g110
(g124
g112
Ntp278
Rp279
(dp280
g128
Nsg129
I00
sg130
S'Flood_Control'
p281
sg119
Nsbsg117
g123
sg143
F0.49749827090824295
sg119
g110
(g124
g112
Ntp282
Rp283
(dp284
g128
Nsg129
I00
sg130
S'Hedge_60'
p285
sg119
Nsbsg129
I01
sbsg129
I01
sbsg148
(lp286
g269
ag276
ag283
ag279
ag272
asg150
I5
sba(itree
PTree
p287
(dp288
g109
g110
(g111
g112
Ntp289
Rp290
(dp291
g116
I0
sg128
g110
(g111
g112
Ntp292
Rp293
(dp294
g116
I0
sg128
g110
(g124
g112
Ntp295
Rp296
(dp297
g128
Nsg129
I00
sg130
S'Release_Demand'
p298
sg119
Nsbsg117
g123
sg143
F710.8993349473676
sg119
g110
(g124
g112
Ntp299
Rp300
(dp301
g128
Nsg129
I00
sg130
S'Flood_Control'
p302
sg119
Nsbsg129
I01
sbsg117
g123
sg143
F0.0906798547378588
sg119
g110
(g124
g112
Ntp303
Rp304
(dp305
g128
Nsg129
I00
sg130
S'Hedge_90'
p306
sg119
Nsbsg129
I01
sbsg148
(lp307
g290
ag304
ag293
ag300
ag296
asg150
I5
sba(itree
PTree
p308
(dp309
g109
g110
(g111
g112
Ntp310
Rp311
(dp312
g116
I0
sg128
g110
(g111
g112
Ntp313
Rp314
(dp315
g116
I0
sg128
g110
(g124
g112
Ntp316
Rp317
(dp318
g128
Nsg129
I00
sg130
g298
sg119
Nsbsg117
g123
sg143
F641.2340668212535
sg119
g110
(g124
g112
Ntp319
Rp320
(dp321
g128
Nsg129
I00
sg130
g302
sg119
Nsbsg129
I01
sbsg117
g123
sg143
F0.0906798547378588
sg119
g110
(g124
g112
Ntp322
Rp323
(dp324
g128
Nsg129
I00
sg130
g306
sg119
Nsbsg129
I01
sbsg148
(lp325
g311
ag323
ag314
ag320
ag317
asg150
I5
sbag308
ag308
ag308
ag308
ag308
ag308
ag308
ag308
ag308
ag308
ag308
ag308
ag308
ag308
ag308
ag308
ag308
ag308
ag308
ag308
ag308
ag308
ag308
a(itree
PTree
p326
(dp327
g109
g110
(g111
g112
Ntp328
Rp329
(dp330
g116
I0
sg128
g110
(g111
g112
Ntp331
Rp332
(dp333
g116
I0
sg128
g110
(g124
g112
Ntp334
Rp335
(dp336
g128
Nsg129
I00
sg130
g298
sg119
Nsbsg117
g123
sg143
F577.8812685248979
sg119
g110
(g124
g112
Ntp337
Rp338
(dp339
g128
Nsg129
I00
sg130
g302
sg119
Nsbsg129
I01
sbsg117
g123
sg143
F0.0906798547378588
sg119
g110
(g124
g112
Ntp340
Rp341
(dp342
g128
Nsg129
I00
sg130
g306
sg119
Nsbsg129
I01
sbsg148
(lp343
g329
ag341
ag332
ag338
ag335
asg150
I5
sbag326
ag326
ag326
ag326
a(itree
PTree
p344
(dp345
g109
g110
(g111
g112
Ntp346
Rp347
(dp348
g116
I0
sg128
g110
(g111
g112
Ntp349
Rp350
(dp351
g116
I0
sg128
g110
(g124
g112
Ntp352
Rp353
(dp354
g128
Nsg129
I00
sg130
g230
sg119
Nsbsg117
g123
sg143
F771.3011263032898
sg119
g110
(g124
g112
Ntp355
Rp356
(dp357
g128
Nsg129
I00
sg130
g138
sg119
Nsbsg129
I01
sbsg117
g123
sg143
F0.0823976672650569
sg119
g110
(g124
g112
Ntp358
Rp359
(dp360
g128
Nsg129
I00
sg130
g237
sg119
Nsbsg129
I01
sbsg148
(lp361
g347
ag359
ag350
ag356
ag353
asg150
I5
sbag344
ag344
ag344
ag344
ag344
ag344
ag344
ag344
ag344
ag344
a(itree
PTree
p362
(dp363
g109
g110
(g111
g112
Ntp364
Rp365
(dp366
g116
I1
sg128
g110
(g124
g112
Ntp367
Rp368
(dp369
g128
Nsg129
I00
sg130
S'Hedge_90'
p370
sg119
Nsbsg117
g118
sg143
F360.6178900854681
sg119
g110
(g111
g112
Ntp371
Rp372
(dp373
g116
I0
sg128
g110
(g124
g112
Ntp374
Rp375
(dp376
g128
Nsg129
I00
sg130
g281
sg119
Nsbsg117
g123
sg143
F0.0090355379708937
sg119
g110
(g124
g112
Ntp377
Rp378
(dp379
g128
Nsg129
I00
sg130
S'Hedge_80'
p380
sg119
Nsbsg129
I01
sbsg129
I01
sbsg148
(lp381
g365
ag372
ag378
ag375
ag368
asg150
I5
sbag362
a(itree
PTree
p382
(dp383
g109
g110
(g111
g112
Ntp384
Rp385
(dp386
g116
I1
sg128
g110
(g124
g112
Ntp387
Rp388
(dp389
g128
Nsg129
I00
sg130
S'Release_Demand'
p390
sg119
Nsbsg117
g118
sg143
F321.3344466342995
sg119
g110
(g111
g112
Ntp391
Rp392
(dp393
g116
I0
sg128
g110
(g124
g112
Ntp394
Rp395
(dp396
g128
Nsg129
I00
sg130
g281
sg119
Nsbsg117
g123
sg143
F0.0090355379708937
sg119
g110
(g124
g112
Ntp397
Rp398
(dp399
g128
Nsg129
I00
sg130
g380
sg119
Nsbsg129
I01
sbsg129
I01
sbsg148
(lp400
g385
ag392
ag398
ag395
ag388
asg150
I5
sbag382
a(itree
PTree
p401
(dp402
g109
g110
(g111
g112
Ntp403
Rp404
(dp405
g116
I0
sg128
g110
(g124
g112
Ntp406
Rp407
(dp408
g128
Nsg129
I00
sg130
g281
sg119
Nsbsg117
g123
sg143
F0.0090355379708937
sg119
g110
(g124
g112
Ntp409
Rp410
(dp411
g128
Nsg129
I00
sg130
S'Hedge_60'
p412
sg119
Nsbsg129
I01
sbsg148
(lp413
g404
ag410
ag407
asg150
I3
sbag401
ag401
ag401
ag401
ag401
ag401
ag401
ag401
ag401
ag401
ag401
ag401
ag401
a(itree
PTree
p414
(dp415
g109
g110
(g111
g112
Ntp416
Rp417
(dp418
g116
I1
sg128
g110
(g124
g112
Ntp419
Rp420
(dp421
g128
Nsg129
I00
sg130
g390
sg119
Nsbsg117
g118
sg143
F304.7182665146813
sg119
g110
(g111
g112
Ntp422
Rp423
(dp424
g116
I0
sg128
g110
(g124
g112
Ntp425
Rp426
(dp427
g128
Nsg129
I00
sg130
g281
sg119
Nsbsg117
g123
sg143
F0.0090355379708937
sg119
g110
(g124
g112
Ntp428
Rp429
(dp430
g128
Nsg129
I00
sg130
g380
sg119
Nsbsg129
I01
sbsg129
I01
sbsg148
(lp431
g417
ag423
ag429
ag426
ag420
asg150
I5
sbag414
a(itree
PTree
p432
(dp433
g109
g110
(g111
g112
Ntp434
Rp435
(dp436
g116
I1
sg128
g110
(g124
g112
Ntp437
Rp438
(dp439
g128
Nsg129
I00
sg130
g390
sg119
Nsbsg117
g118
sg143
F298.8858745061065
sg119
g110
(g111
g112
Ntp440
Rp441
(dp442
g116
I0
sg128
g110
(g124
g112
Ntp443
Rp444
(dp445
g128
Nsg129
I00
sg130
g281
sg119
Nsbsg117
g123
sg143
F0.0090355379708937
sg119
g110
(g124
g112
Ntp446
Rp447
(dp448
g128
Nsg129
I00
sg130
S'Hedge_90'
p449
sg119
Nsbsg129
I01
sbsg129
I01
sbsg148
(lp450
g435
ag441
ag447
ag444
ag438
asg150
I5
sbag432
a(itree
PTree
p451
(dp452
g109
g110
(g111
g112
Ntp453
Rp454
(dp455
g116
I1
sg128
g110
(g124
g112
Ntp456
Rp457
(dp458
g128
Nsg129
I00
sg130
S'Hedge_90'
p459
sg119
Nsbsg117
g118
sg143
F294.25080676010333
sg119
g110
(g111
g112
Ntp460
Rp461
(dp462
g116
I0
sg128
g110
(g124
g112
Ntp463
Rp464
(dp465
g128
Nsg129
I00
sg130
S'Flood_Control'
p466
sg119
Nsbsg117
g123
sg143
F0.0090355379708937
sg119
g110
(g124
g112
Ntp467
Rp468
(dp469
g128
Nsg129
I00
sg130
S'Hedge_50'
p470
sg119
Nsbsg129
I01
sbsg129
I01
sbsg148
(lp471
g454
ag461
ag468
ag464
ag457
asg150
I5
sbag451
ag451
ag451
ag451
ag451
ag451
ag451
ag451
ag451
ag451
ag451
ag451
ag451
a(itree
PTree
p472
(dp473
g109
g110
(g111
g112
Ntp474
Rp475
(dp476
g116
I1
sg128
g110
(g124
g112
Ntp477
Rp478
(dp479
g128
Nsg129
I00
sg130
S'Hedge_70'
p480
sg119
Nsbsg117
g118
sg143
F295.2033524449686
sg119
g110
(g111
g112
Ntp481
Rp482
(dp483
g116
I0
sg128
g110
(g124
g112
Ntp484
Rp485
(dp486
g128
Nsg129
I00
sg130
S'Flood_Control'
p487
sg119
Nsbsg117
g123
sg143
F0.0090355379708937
sg119
g110
(g124
g112
Ntp488
Rp489
(dp490
g128
Nsg129
I00
sg130
S'Hedge_80'
p491
sg119
Nsbsg129
I01
sbsg129
I01
sbsg148
(lp492
g475
ag482
ag489
ag485
ag478
asg150
I5
sba(itree
PTree
p493
(dp494
g109
g110
(g111
g112
Ntp495
Rp496
(dp497
g116
I1
sg128
g110
(g124
g112
Ntp498
Rp499
(dp500
g128
Nsg129
I00
sg130
S'Hedge_70'
p501
sg119
Nsbsg117
g118
sg143
F284.4251258858313
sg119
g110
(g111
g112
Ntp502
Rp503
(dp504
g116
I0
sg128
g110
(g124
g112
Ntp505
Rp506
(dp507
g128
Nsg129
I00
sg130
S'Flood_Control'
p508
sg119
Nsbsg117
g123
sg143
F0.0090355379708937
sg119
g110
(g124
g112
Ntp509
Rp510
(dp511
g128
Nsg129
I00
sg130
g412
sg119
Nsbsg129
I01
sbsg129
I01
sbsg148
(lp512
g496
ag503
ag510
ag506
ag499
asg150
I5
sbag493
ag493
ag493
ag493
a(itree
PTree
p513
(dp514
g109
g110
(g111
g112
Ntp515
Rp516
(dp517
g116
I1
sg128
g110
(g124
g112
Ntp518
Rp519
(dp520
g128
Nsg129
I00
sg130
S'Hedge_70'
p521
sg119
Nsbsg117
g118
sg143
F233.64320532450427
sg119
g110
(g111
g112
Ntp522
Rp523
(dp524
g116
I0
sg128
g110
(g124
g112
Ntp525
Rp526
(dp527
g128
Nsg129
I00
sg130
S'Flood_Control'
p528
sg119
Nsbsg117
g123
sg143
F0.0090355379708937
sg119
g110
(g124
g112
Ntp529
Rp530
(dp531
g128
Nsg129
I00
sg130
S'Hedge_50'
p532
sg119
Nsbsg129
I01
sbsg129
I01
sbsg148
(lp533
g516
ag523
ag530
ag526
ag519
asg150
I5
sbag513
ag513
ag513
ag513
a(itree
PTree
p534
(dp535
g109
g110
(g111
g112
Ntp536
Rp537
(dp538
g116
I1
sg128
g110
(g124
g112
Ntp539
Rp540
(dp541
g128
Nsg129
I00
sg130
g521
sg119
Nsbsg117
g118
sg143
F225.80827414951688
sg119
g110
(g111
g112
Ntp542
Rp543
(dp544
g116
I0
sg128
g110
(g124
g112
Ntp545
Rp546
(dp547
g128
Nsg129
I00
sg130
g528
sg119
Nsbsg117
g123
sg143
F0.0090355379708937
sg119
g110
(g124
g112
Ntp548
Rp549
(dp550
g128
Nsg129
I00
sg130
g532
sg119
Nsbsg129
I01
sbsg129
I01
sbsg148
(lp551
g537
ag543
ag549
ag546
ag540
asg150
I5
sbag534
ag534
ag534
ag534
ag534
ag534
ag534
ag534
ag534
ag534
ag534
ag534
ag534
ag534
ag534
ag534
ag534
a(itree
PTree
p552
(dp553
g109
g110
(g111
g112
Ntp554
Rp555
(dp556
g116
I1
sg128
g110
(g124
g112
Ntp557
Rp558
(dp559
g128
Nsg129
I00
sg130
g390
sg119
Nsbsg117
g118
sg143
F207.15582238909602
sg119
g110
(g111
g112
Ntp560
Rp561
(dp562
g116
I0
sg128
g110
(g124
g112
Ntp563
Rp564
(dp565
g128
Nsg129
I00
sg130
g281
sg119
Nsbsg117
g123
sg143
F0.0090355379708937
sg119
g110
(g124
g112
Ntp566
Rp567
(dp568
g128
Nsg129
I00
sg130
g380
sg119
Nsbsg129
I01
sbsg129
I01
sbsg148
(lp569
g555
ag561
ag567
ag564
ag558
asg150
I5
sbag552
ag552
ag552
ag552
ag552
ag552
ag552
ag552
ag552
ag552
ag552
ag552
ag552
ag552
a(itree
PTree
p570
(dp571
g109
g110
(g111
g112
Ntp572
Rp573
(dp574
g116
I1
sg128
g110
(g124
g112
Ntp575
Rp576
(dp577
g128
Nsg129
I00
sg130
g521
sg119
Nsbsg117
g118
sg143
F184.95449905244774
sg119
g110
(g111
g112
Ntp578
Rp579
(dp580
g116
I0
sg128
g110
(g124
g112
Ntp581
Rp582
(dp583
g128
Nsg129
I00
sg130
g528
sg119
Nsbsg117
g123
sg143
F0.0090355379708937
sg119
g110
(g124
g112
Ntp584
Rp585
(dp586
g128
Nsg129
I00
sg130
g532
sg119
Nsbsg129
I01
sbsg129
I01
sbsg148
(lp587
g573
ag579
ag585
ag582
ag576
asg150
I5
sbag570
ag570
ag570
a(itree
PTree
p588
(dp589
g109
g110
(g111
g112
Ntp590
Rp591
(dp592
g116
I1
sg128
g110
(g124
g112
Ntp593
Rp594
(dp595
g128
Nsg129
I00
sg130
g521
sg119
Nsbsg117
g118
sg143
F180.11465818958806
sg119
g110
(g111
g112
Ntp596
Rp597
(dp598
g116
I0
sg128
g110
(g124
g112
Ntp599
Rp600
(dp601
g128
Nsg129
I00
sg130
g528
sg119
Nsbsg117
g123
sg143
F0.0090355379708937
sg119
g110
(g124
g112
Ntp602
Rp603
(dp604
g128
Nsg129
I00
sg130
g532
sg119
Nsbsg129
I01
sbsg129
I01
sbsg148
(lp605
g591
ag597
ag603
ag600
ag594
asg150
I5
sbag588
ag588
ag588
ag588
ag588
ag588
ag588
ag588
ag588
ag588
ag588
a(itree
PTree
p606
(dp607
g109
g110
(g111
g112
Ntp608
Rp609
(dp610
g116
I1
sg128
g110
(g124
g112
Ntp611
Rp612
(dp613
g128
Nsg129
I00
sg130
g501
sg119
Nsbsg117
g118
sg143
F172.58757993636794
sg119
g110
(g111
g112
Ntp614
Rp615
(dp616
g116
I0
sg128
g110
(g124
g112
Ntp617
Rp618
(dp619
g128
Nsg129
I00
sg130
g508
sg119
Nsbsg117
g123
sg143
F0.0090355379708937
sg119
g110
(g124
g112
Ntp620
Rp621
(dp622
g128
Nsg129
I00
sg130
g412
sg119
Nsbsg129
I01
sbsg129
I01
sbsg148
(lp623
g609
ag615
ag621
ag618
ag612
asg150
I5
sbag606
ag606
ag606
ag606
ag606
ag606
a(itree
PTree
p624
(dp625
g109
g110
(g111
g112
Ntp626
Rp627
(dp628
g116
I1
sg128
g110
(g124
g112
Ntp629
Rp630
(dp631
g128
Nsg129
I00
sg130
g521
sg119
Nsbsg117
g118
sg143
F147.16883433834317
sg119
g110
(g111
g112
Ntp632
Rp633
(dp634
g116
I0
sg128
g110
(g124
g112
Ntp635
Rp636
(dp637
g128
Nsg129
I00
sg130
g528
sg119
Nsbsg117
g123
sg143
F0.0090355379708937
sg119
g110
(g124
g112
Ntp638
Rp639
(dp640
g128
Nsg129
I00
sg130
g532
sg119
Nsbsg129
I01
sbsg129
I01
sbsg148
(lp641
g627
ag633
ag639
ag636
ag630
asg150
I5
sbag624
ag624
ag624
ag624
ag624
ag624
ag624
ag624
ag624
ag624
a(itree
PTree
p642
(dp643
g109
g110
(g111
g112
Ntp644
Rp645
(dp646
g116
I1
sg128
g110
(g124
g112
Ntp647
Rp648
(dp649
g128
Nsg129
I00
sg130
S'Hedge_70'
p650
sg119
Nsbsg117
g118
sg143
F145.84588816861827
sg119
g110
(g111
g112
Ntp651
Rp652
(dp653
g116
I0
sg128
g110
(g124
g112
Ntp654
Rp655
(dp656
g128
Nsg129
I00
sg130
g281
sg119
Nsbsg117
g123
sg143
F0.0090355379708937
sg119
g110
(g124
g112
Ntp657
Rp658
(dp659
g128
Nsg129
I00
sg130
S'Hedge_50'
p660
sg119
Nsbsg129
I01
sbsg129
I01
sbsg148
(lp661
g645
ag652
ag658
ag655
ag648
asg150
I5
sbag642
ag642
ag642
ag642
ag642
ag642
ag642
ag642
ag642
ag642
ag642
ag642
ag642
ag642
ag642
ag642
ag642
ag642
ag642
ag642
ag642
ag642
ag642
ag642
ag642
ag642
ag642
ag642
ag642
ag642
ag642
ag642
ag642
ag642
ag642
a(itree
PTree
p662
(dp663
g109
g110
(g111
g112
Ntp664
Rp665
(dp666
g116
I1
sg128
g110
(g124
g112
Ntp667
Rp668
(dp669
g128
Nsg129
I00
sg130
S'Hedge_70'
p670
sg119
Nsbsg117
g118
sg143
F140.49158126831725
sg119
g110
(g111
g112
Ntp671
Rp672
(dp673
g116
I0
sg128
g110
(g124
g112
Ntp674
Rp675
(dp676
g128
Nsg129
I00
sg130
S'Flood_Control'
p677
sg119
Nsbsg117
g123
sg143
F0.0090355379708937
sg119
g110
(g124
g112
Ntp678
Rp679
(dp680
g128
Nsg129
I00
sg130
S'Hedge_70'
p681
sg119
Nsbsg129
I01
sbsg129
I01
sbsg148
(lp682
g665
ag672
ag679
ag675
ag668
asg150
I5
sbag662
ag662
ag662
ag662
ag662
ag662
ag662
ag662
ag662
ag662
ag662
ag662
ag662
ag662
ag662
ag662
ag662
ag662
ag662
ag662
ag662
ag662
a(itree
PTree
p683
(dp684
g109
g110
(g111
g112
Ntp685
Rp686
(dp687
g116
I1
sg128
g110
(g124
g112
Ntp688
Rp689
(dp690
g128
Nsg129
I00
sg130
S'Hedge_90'
p691
sg119
Nsbsg117
g118
sg143
F145.3256727768536
sg119
g110
(g111
g112
Ntp692
Rp693
(dp694
g116
I0
sg128
g110
(g124
g112
Ntp695
Rp696
(dp697
g128
Nsg129
I00
sg130
S'Flood_Control'
p698
sg119
Nsbsg117
g123
sg143
F0.0090355379708937
sg119
g110
(g124
g112
Ntp699
Rp700
(dp701
g128
Nsg129
I00
sg130
S'Release_Demand'
p702
sg119
Nsbsg129
I01
sbsg129
I01
sbsg148
(lp703
g686
ag693
ag700
ag696
ag689
asg150
I5
sbag683
ag683
ag683
ag683
ag683
ag683
ag683
ag683
ag683
ag683
ag683
ag683
ag683
ag683
ag683
ag683
ag683
ag683
ag683
ag683
ag683
ag683
ag683
ag683
ag683
ag683
ag683
ag683
ag683
ag683
ag683
ag683
ag683
ag683
ag683
ag683
ag683
ag683
ag683
ag683
ag683
ag683
ag683
ag683
ag683
a(itree
PTree
p704
(dp705
g109
g110
(g111
g112
Ntp706
Rp707
(dp708
g116
I1
sg128
g110
(g124
g112
Ntp709
Rp710
(dp711
g128
Nsg129
I00
sg130
S'Hedge_90'
p712
sg119
Nsbsg117
g118
sg143
F141.17144743322854
sg119
g110
(g111
g112
Ntp713
Rp714
(dp715
g116
I0
sg128
g110
(g124
g112
Ntp716
Rp717
(dp718
g128
Nsg129
I00
sg130
g677
sg119
Nsbsg117
g123
sg143
F0.0090355379708937
sg119
g110
(g124
g112
Ntp719
Rp720
(dp721
g128
Nsg129
I00
sg130
S'Hedge_80'
p722
sg119
Nsbsg129
I01
sbsg129
I01
sbsg148
(lp723
g707
ag714
ag720
ag717
ag710
asg150
I5
sbag704
ag704
ag704
ag704
ag704
ag704
ag704
ag704
ag704
ag704
ag704
ag704
ag704
ag704
ag704
ag704
ag704
ag704
ag704
ag704
ag704
ag704
ag704
ag704
ag704
ag704
ag704
ag704
ag704
ag704
ag704
ag704
ag704
ag704
ag704
ag704
ag704
ag704
ag704
ag704
ag704
ag704
ag704
ag704
ag704
ag704
ag704
ag704
ag704
ag704
ag704
ag704
ag704
ag704
ag704
ag704
ag704
ag704
ag704
ag704
ag704
ag704
ag704
ag704
ag704
ag704
ag704
ag704
ag704
ag704
ag704
ag704
ag704
ag704
ag704
ag704
ag704
ag704
ag704
ag704
ag704
ag704
ag704
ag704
ag704
ag704
ag704
ag704
ag704
a(itree
PTree
p724
(dp725
g109
g110
(g111
g112
Ntp726
Rp727
(dp728
g116
I1
sg128
g110
(g124
g112
Ntp729
Rp730
(dp731
g128
Nsg129
I00
sg130
g712
sg119
Nsbsg117
g118
sg143
F207.4396526791901
sg119
g110
(g111
g112
Ntp732
Rp733
(dp734
g116
I1
sg128
g110
(g124
g112
Ntp735
Rp736
(dp737
g128
Nsg129
I00
sg130
S'Hedge_90'
p738
sg119
Nsbsg117
g118
sg143
F140.80199637256484
sg119
g110
(g111
g112
Ntp739
Rp740
(dp741
g116
I0
sg128
g110
(g124
g112
Ntp742
Rp743
(dp744
g128
Nsg129
I00
sg130
S'Flood_Control'
p745
sg119
Nsbsg117
g123
sg143
F0.0090355379708937
sg119
g110
(g124
g112
Ntp746
Rp747
(dp748
g128
Nsg129
I00
sg130
S'Hedge_80'
p749
sg119
Nsbsg129
I01
sbsg129
I01
sbsg129
I01
sbsg148
(lp750
g727
ag733
ag740
ag747
ag743
ag736
ag730
asg150
I7
sbag724
ag724
ag724
ag724
ag724
ag724
ag724
ag724
ag724
ag724
ag724
ag724
ag724
ag724
ag724
ag724
ag724
ag724
ag724
ag724
ag724
ag724
ag724
ag724
ag724
ag724
ag724
ag724
ag724
ag724
ag724
ag724
ag724
ag724
ag724
ag724
ag724
ag724
ag724
ag724
ag724
ag724
ag724
ag724
ag724
ag724
ag724
ag724
ag724
ag724
ag724
ag724
ag724
ag724
ag724
ag724
ag724
ag724
ag724
ag724
ag724
ag724
ag724
ag724
ag724
ag724
ag724
ag724
ag724
ag724
ag724
ag724
ag724
ag724
ag724
ag724
ag724
ag724
ag724
ag724
ag724
ag724
ag724
ag724
ag724
ag724
ag724
ag724
ag724
ag724
ag724
ag724
ag724
ag724
ag724
ag724
ag724
ag724
ag724
ag724
ag724
ag724
ag724
ag724
ag724
ag724
ag724
ag724
ag724
ag724
ag724
ag724
ag724
ag724
ag724
ag724
ag724
ag724
ag724
ag724
ag724
ag724
ag724
ag724
ag724
ag724
ag724
ag724
ag724
ag724
ag724
asS'time'
p751
(lp752
I174
aI262
aI351
aI440
aI527
aI617
aI705
aI792
aI879
aI967
aI1056
aI1142
aI1230
aI1319
aI1408
aI1499
aI1588
aI1676
aI1763
aI1852
aI1941
aI2028
aI2113
aI2198
aI2284
aI2368
aI2453
aI2538
aI2623
aI2708
aI2793
aI2879
aI2963
aI3047
aI3133
aI3218
aI3303
aI3388
aI3473
aI3557
aI3642
aI3727
aI3812
aI3896
aI3980
aI4064
aI4148
aI4233
aI4316
aI4400
aI4484
aI4568
aI4653
aI4738
aI4824
aI4909
aI4995
aI5080
aI5165
aI5249
aI5334
aI5419
aI5504
aI5588
aI5673
aI5757
aI5842
aI5927
aI6010
aI6095
aI6180
aI6265
aI6352
aI6436
aI6521
aI6607
aI6692
aI6778
aI6864
aI6949
aI7037
aI7124
aI7210
aI7297
aI7384
aI7471
aI7559
aI7645
aI7730
aI7816
aI7901
aI7987
aI8071
aI8158
aI8242
aI8327
aI8412
aI8498
aI8583
aI8670
aI8755
aI8843
aI8929
aI9016
aI9102
aI9188
aI9275
aI9362
aI9448
aI9535
aI9621
aI9709
aI9797
aI9885
aI9972
aI10060
aI10147
aI10234
aI10321
aI10408
aI10495
aI10583
aI10670
aI10757
aI10843
aI10930
aI11018
aI11104
aI11190
aI11278
aI11363
aI11450
aI11538
aI11626
aI11713
aI11801
aI11888
aI11976
aI12063
aI12150
aI12237
aI12325
aI12412
aI12497
aI12584
aI12670
aI12758
aI12846
aI12935
aI13023
aI13112
aI13199
aI13286
aI13372
aI13459
aI13547
aI13635
aI13722
aI13810
aI13898
aI13986
aI14073
aI14161
aI14249
aI14336
aI14425
aI14512
aI14598
aI14685
aI14771
aI14858
aI14945
aI15033
aI15120
aI15207
aI15294
aI15381
aI15469
aI15555
aI15643
aI15730
aI15817
aI15904
aI15991
aI16079
aI16166
aI16253
aI16340
aI16427
aI16515
aI16602
aI16690
aI16777
aI16864
aI16953
aI17040
aI17127
aI17215
aI17302
aI17391
aI17478
aI17564
aI17651
aI17739
aI17826
aI17914
aI18001
aI18089
aI18176
aI18264
aI18352
aI18440
aI18528
aI18616
aI18703
aI18790
aI18878
aI18966
aI19052
aI19140
aI19228
aI19315
aI19402
aI19489
aI19576
aI19663
aI19751
aI19840
aI19926
aI20015
aI20102
aI20189
aI20277
aI20365
aI20452
aI20539
aI20627
aI20714
aI20802
aI20889
aI20978
aI21065
aI21153
aI21240
aI21328
aI21416
aI21503
aI21590
aI21677
aI21765
aI21853
aI21940
aI22029
aI22115
aI22202
aI22288
aI22377
aI22466
aI22554
aI22641
aI22728
aI22817
aI22905
aI22993
aI23080
aI23169
aI23258
aI23345
aI23433
aI23521
aI23610
aI23697
aI23786
aI23874
aI23962
aI24050
aI24137
aI24225
aI24313
aI24400
aI24488
aI24575
aI24662
aI24750
aI24837
aI24924
aI25011
aI25099
aI25186
aI25274
aI25362
aI25449
aI25536
aI25624
aI25712
aI25800
aI25887
aI25975
aI26062
aI26150
aI26238
aI26326
aI26414
aI26501
aI26588
aI26675
aI26764
aI26852
aI26940
aI27028
aI27114
aI27202
aI27290
aI27378
aI27464
aI27552
aI27641
aI27729
aI27816
aI27903
aI27989
aI28077
aI28165
aI28252
aI28339
aI28426
aI28513
aI28600
aI28688
aI28775
aI28862
aI28950
aI29038
aI29126
aI29214
aI29302
aI29390
aI29477
aI29566
aI29653
aI29741
aI29827
aI29915
aI30003
aI30091
aI30179
aI30267
aI30356
aI30443
aI30531
aI30619
aI30706
aI30794
aI30881
aI30969
aI31057
aI31145
aI31232
aI31318
aI31406
aI31493
aI31580
aI31668
aI31756
aI31843
aI31932
aI32020
aI32107
aI32195
aI32283
aI32370
aI32457
aI32545
aI32633
aI32720
aI32806
aI32894
aI32982
aI33069
aI33156
aI33243
aI33331
aI33418
aI33506
aI33593
aI33682
aI33770
aI33858
aI33946
aI34032
aI34121
aI34209
aI34296
aI34384
aI34472
aI34559
aI34647
aI34735
aI34823
aI34911
aI34999
aI35086
aI35174
aI35261
aI35349
aI35436
aI35523
aI35610
aI35697
aI35784
aI35871
aI35957
aI36044
aI36131
aI36219
aI36307
aI36395
aI36483
aI36571
aI36658
aI36746
aI36833
aI36921
aI37009
aI37096
aI37185
aI37271
aI37360
aI37448
aI37535
aI37622
aI37711
aI37798
aI37886
aI37974
aI38063
aI38150
aI38239
aI38325
aI38412
aI38499
aI38586
aI38673
aI38760
aI38848
aI38934
aI39014
aI39096
aI39179
aI39261
aI39343
aI39424
aI39506
aI39587
aI39669
aI39752
aI39835
aI39918
aI39999
aI40077
aI40154
aI40229
aI40305
aI40378
aI40448
aI40520
aI40592
aI40665
aI40737
aI40807
aI40878
aI40952
aI41026
aI41097
aI41168
aI41237
aI41310
aI41381
aI41447
aI41513
aI41572
aI41632
aI41690
aI41744
aI41796
aI41844
aI41905
aI41955
aI42037
aI42123
aI42209
aI42294
aI42365
aI42409
aI42451
aI42492
aI42532
aI42588
aI42629
aI42667
as.