(dp0
S'nfe'
p1
(lp2
I50
aI100
aI150
aI200
aI250
aI300
aI350
aI400
aI450
aI500
aI550
aI600
aI650
aI700
aI750
aI800
aI850
aI900
aI950
aI1000
aI1050
aI1100
aI1150
aI1200
aI1250
aI1300
aI1350
aI1400
aI1450
aI1500
aI1550
aI1600
aI1650
aI1700
aI1750
aI1800
aI1850
aI1900
aI1950
aI2000
aI2050
aI2100
aI2150
aI2200
aI2250
aI2300
aI2350
aI2400
aI2450
aI2500
aI2550
aI2600
aI2650
aI2700
aI2750
aI2800
aI2850
aI2900
aI2950
aI3000
aI3050
aI3100
aI3150
aI3200
aI3250
aI3300
aI3350
aI3400
aI3450
aI3500
aI3550
aI3600
aI3650
aI3700
aI3750
aI3800
aI3850
aI3900
aI3950
aI4000
aI4050
aI4100
aI4150
aI4200
aI4250
aI4300
aI4350
aI4400
aI4450
aI4500
aI4550
aI4600
aI4650
aI4700
aI4750
aI4800
aI4850
aI4900
aI4950
aI5000
aI5050
aI5100
aI5150
aI5200
aI5250
aI5300
aI5350
aI5400
aI5450
aI5500
aI5550
aI5600
aI5650
aI5700
aI5750
aI5800
aI5850
aI5900
aI5950
aI6000
aI6050
aI6100
aI6150
aI6200
aI6250
aI6300
aI6350
aI6400
aI6450
aI6500
aI6550
aI6600
aI6650
aI6700
aI6750
aI6800
aI6850
aI6900
aI6950
aI7000
aI7050
aI7100
aI7150
aI7200
aI7250
aI7300
aI7350
aI7400
aI7450
aI7500
aI7550
aI7600
aI7650
aI7700
aI7750
aI7800
aI7850
aI7900
aI7950
aI8000
aI8050
aI8100
aI8150
aI8200
aI8250
aI8300
aI8350
aI8400
aI8450
aI8500
aI8550
aI8600
aI8650
aI8700
aI8750
aI8800
aI8850
aI8900
aI8950
aI9000
aI9050
aI9100
aI9150
aI9200
aI9250
aI9300
aI9350
aI9400
aI9450
aI9500
aI9550
aI9600
aI9650
aI9700
aI9750
aI9800
aI9850
aI9900
aI9950
aI10000
aI10050
aI10100
aI10150
aI10200
aI10250
aI10300
aI10350
aI10400
aI10450
aI10500
aI10550
aI10600
aI10650
aI10700
aI10750
aI10800
aI10850
aI10900
aI10950
aI11000
aI11050
aI11100
aI11150
aI11200
aI11250
aI11300
aI11350
aI11400
aI11450
aI11500
aI11550
aI11600
aI11650
aI11700
aI11750
aI11800
aI11850
aI11900
aI11950
aI12000
aI12050
aI12100
aI12150
aI12200
aI12250
aI12300
aI12350
aI12400
aI12450
aI12500
aI12550
aI12600
aI12650
aI12700
aI12750
aI12800
aI12850
aI12900
aI12950
aI13000
aI13050
aI13100
aI13150
aI13200
aI13250
aI13300
aI13350
aI13400
aI13450
aI13500
aI13550
aI13600
aI13650
aI13700
aI13750
aI13800
aI13850
aI13900
aI13950
aI14000
aI14050
aI14100
aI14150
aI14200
aI14250
aI14300
aI14350
aI14400
aI14450
aI14500
aI14550
aI14600
aI14650
aI14700
aI14750
aI14800
aI14850
aI14900
aI14950
aI15000
aI15050
aI15100
aI15150
aI15200
aI15250
aI15300
aI15350
aI15400
aI15450
aI15500
aI15550
aI15600
aI15650
aI15700
aI15750
aI15800
aI15850
aI15900
aI15950
aI16000
aI16050
aI16100
aI16150
aI16200
aI16250
aI16300
aI16350
aI16400
aI16450
aI16500
aI16550
aI16600
aI16650
aI16700
aI16750
aI16800
aI16850
aI16900
aI16950
aI17000
aI17050
aI17100
aI17150
aI17200
aI17250
aI17300
aI17350
aI17400
aI17450
aI17500
aI17550
aI17600
aI17650
aI17700
aI17750
aI17800
aI17850
aI17900
aI17950
aI18000
aI18050
aI18100
aI18150
aI18200
aI18250
aI18300
aI18350
aI18400
aI18450
aI18500
aI18550
aI18600
aI18650
aI18700
aI18750
aI18800
aI18850
aI18900
aI18950
aI19000
aI19050
aI19100
aI19150
aI19200
aI19250
aI19300
aI19350
aI19400
aI19450
aI19500
aI19550
aI19600
aI19650
aI19700
aI19750
aI19800
aI19850
aI19900
aI19950
aI20000
aI20050
aI20100
aI20150
aI20200
aI20250
aI20300
aI20350
aI20400
aI20450
aI20500
aI20550
aI20600
aI20650
aI20700
aI20750
aI20800
aI20850
aI20900
aI20950
aI21000
aI21050
aI21100
aI21150
aI21200
aI21250
aI21300
aI21350
aI21400
aI21450
aI21500
aI21550
aI21600
aI21650
aI21700
aI21750
aI21800
aI21850
aI21900
aI21950
aI22000
aI22050
aI22100
aI22150
aI22200
aI22250
aI22300
aI22350
aI22400
aI22450
aI22500
aI22550
aI22600
aI22650
aI22700
aI22750
aI22800
aI22850
aI22900
aI22950
aI23000
aI23050
aI23100
aI23150
aI23200
aI23250
aI23300
aI23350
aI23400
aI23450
aI23500
aI23550
aI23600
aI23650
aI23700
aI23750
aI23800
aI23850
aI23900
aI23950
aI24000
aI24050
aI24100
aI24150
aI24200
aI24250
aI24300
aI24350
aI24400
aI24450
aI24500
aI24550
aI24600
aI24650
aI24700
aI24750
aI24800
aI24850
aI24900
aI24950
aI25000
asS'best_f'
p3
(lp4
cnumpy.core.multiarray
scalar
p5
(cnumpy
dtype
p6
(S'f8'
p7
I0
I1
tp8
Rp9
(I3
S'<'
p10
NNNI-1
I-1
I0
tp11
bS'M\nlLAG\xe2@'
p12
tp13
Rp14
ag14
ag5
(g9
S'\x94P)\xdePg!@'
p15
tp16
Rp17
ag17
ag17
ag5
(g9
S'\xc1\xb3\xaf\xb6DO\x19@'
p18
tp19
Rp20
ag5
(g9
S'\xf3\xcbT\x1e\xfb\xcc\x0f@'
p21
tp22
Rp23
ag5
(g9
S'\xc1\x0b\x87\x7f\xaa\xa8\x0f@'
p24
tp25
Rp26
ag5
(g9
S'\x06\xcfE-\xa6u\x02@'
p27
tp28
Rp29
ag29
ag29
ag5
(g9
S'a\x7f\xd7\xc4\xed\xfb\x00@'
p30
tp31
Rp32
ag32
ag32
ag32
ag5
(g9
S'cIz\x8c \xf7\x00@'
p33
tp34
Rp35
ag35
ag5
(g9
S'\xb0\xca\xa8\xdb\xea[\x00@'
p36
tp37
Rp38
ag5
(g9
S'\xc6\xbc8;R\xee\xff?'
p39
tp40
Rp41
ag41
ag41
ag41
ag41
ag41
ag41
ag41
ag41
ag41
ag41
ag41
ag41
ag41
ag41
ag41
ag41
ag5
(g9
S'\xe8\xcbn\x12N\xad\xff?'
p42
tp43
Rp44
ag44
ag44
ag44
ag44
ag44
ag44
ag44
ag44
ag44
ag44
ag44
ag44
ag44
ag5
(g9
S'C\n\x8e\xb9\xbf&\xff?'
p45
tp46
Rp47
ag47
ag47
ag47
ag47
ag47
ag47
ag47
ag47
ag47
ag47
ag47
ag47
ag47
ag47
ag47
ag47
ag47
ag47
ag47
ag47
ag47
ag47
ag47
ag47
ag47
ag47
ag47
ag47
ag47
ag47
ag47
ag47
ag47
ag47
ag47
ag47
ag47
ag47
ag5
(g9
S'\x99\xce\xeeKpt\xfe?'
p48
tp49
Rp50
ag50
ag50
ag50
ag50
ag5
(g9
S'\x13\xa9tuds\xfe?'
p51
tp52
Rp53
ag53
ag53
ag53
ag53
ag53
ag53
ag53
ag53
ag53
ag53
ag53
ag53
ag53
ag53
ag53
ag53
ag53
ag5
(g9
S'\xcaSg\x1f\xb9\xdf\xfd?'
p54
tp55
Rp56
ag56
ag56
ag56
ag56
ag56
ag56
ag56
ag56
ag56
ag56
ag56
ag56
ag56
ag56
ag56
ag56
ag56
ag56
ag56
ag56
ag56
ag56
ag56
ag56
ag56
ag56
ag56
ag56
ag56
ag56
ag56
ag56
ag56
ag56
ag56
ag56
ag56
ag56
ag56
ag56
ag56
ag56
ag56
ag56
ag56
ag56
ag56
ag56
ag56
ag56
ag56
ag56
ag56
ag56
ag56
ag56
ag56
ag56
ag56
ag56
ag56
ag56
ag56
ag56
ag56
ag56
ag5
(g9
S'\xb7n\xe7X\xe8\xd4\xf2?'
p57
tp58
Rp59
ag59
ag59
ag59
ag59
ag59
ag59
ag59
ag59
ag59
ag59
ag59
ag59
ag59
ag59
ag59
ag59
ag59
ag59
ag59
ag59
ag59
ag59
ag59
ag59
ag59
ag59
ag59
ag59
ag59
ag59
ag59
ag59
ag59
ag59
ag59
ag59
ag59
ag59
ag59
ag59
ag59
ag59
ag59
ag59
ag59
ag59
ag59
ag59
ag59
ag59
ag59
ag59
ag59
ag59
ag59
ag59
ag59
ag59
ag59
ag59
ag59
ag59
ag59
ag59
ag59
ag59
ag59
ag59
ag59
ag59
ag5
(g9
S'"\xc5B\r|\xd3\xf2?'
p60
tp61
Rp62
ag62
ag62
ag62
ag62
ag62
ag62
ag62
ag62
ag62
ag62
ag62
ag62
ag62
ag62
ag62
ag62
ag62
ag62
ag62
ag62
ag62
ag62
ag62
ag62
ag62
ag62
ag62
ag62
ag62
ag62
ag62
ag62
ag62
ag62
ag62
ag62
ag62
ag62
ag62
ag62
ag62
ag62
ag62
ag62
ag62
ag62
ag62
ag62
ag62
ag62
ag62
ag62
ag62
ag62
ag62
ag62
ag62
ag62
ag62
ag62
ag62
ag62
ag62
ag62
ag62
ag62
ag62
ag62
ag62
ag62
ag62
ag62
ag62
ag62
ag62
ag62
ag62
ag62
ag62
ag62
ag62
ag62
ag62
ag62
ag62
ag62
ag62
ag62
ag62
ag62
ag62
ag62
ag62
ag62
ag62
ag62
ag62
ag62
ag62
ag62
ag62
ag62
ag62
ag62
ag62
ag62
ag62
ag62
ag62
ag62
ag62
ag62
ag62
ag62
ag62
ag62
ag62
ag62
ag62
ag62
ag62
ag62
ag62
ag62
ag62
ag62
ag62
ag62
ag62
ag62
ag62
ag62
ag62
ag62
ag62
ag62
ag62
ag62
ag62
ag62
ag62
ag62
ag62
ag62
ag62
ag62
ag62
ag62
ag62
ag62
ag62
ag62
ag62
ag62
ag62
ag62
ag62
ag62
ag62
ag62
ag62
ag62
ag62
ag62
ag62
ag62
ag62
ag62
ag62
ag62
ag62
ag62
ag62
ag62
ag62
ag62
ag62
ag62
ag62
ag62
ag62
ag62
ag62
ag62
ag62
ag62
ag62
ag62
ag62
ag5
(g9
S'<\x9a\x18?\x0b\xa0\xf2?'
p63
tp64
Rp65
ag65
ag65
ag65
ag65
ag65
ag65
ag5
(g9
S'w+\xc2\xc5(\xd1\xf1?'
p66
tp67
Rp68
ag68
ag68
ag68
ag68
ag68
ag68
ag68
ag68
ag68
ag68
ag68
ag68
ag68
ag68
ag68
ag68
ag68
ag68
ag68
ag68
ag68
ag68
ag68
ag68
ag68
ag68
ag68
ag68
ag68
ag68
ag68
ag68
ag68
ag68
ag68
ag68
ag68
ag68
ag68
ag68
ag68
ag68
ag68
ag68
ag68
ag68
ag68
ag68
ag68
ag68
ag68
ag68
ag68
asS'best_P'
p69
(lp70
(itree
PTree
p71
(dp72
S'root'
p73
ccopy_reg
_reconstructor
p74
(ctree
Feature
p75
c__builtin__
object
p76
Ntp77
Rp78
(dp79
S'index'
p80
I1
sS'name'
p81
S'Day'
p82
sS'l'
p83
g74
(g75
g76
Ntp84
Rp85
(dp86
g80
I0
sg81
S'Storage'
p87
sg83
g74
(ctree
Action
p88
g76
Ntp89
Rp90
(dp91
S'r'
p92
NsS'is_feature'
p93
I00
sS'value'
p94
S'Release_Demand'
p95
sg83
Nsbsg92
g74
(g75
g76
Ntp96
Rp97
(dp98
g80
I0
sg81
g87
sg83
g74
(g88
g76
Ntp99
Rp100
(dp101
g92
Nsg93
I00
sg94
S'Hedge_50'
p102
sg83
Nsbsg92
g74
(g88
g76
Ntp103
Rp104
(dp105
g92
Nsg93
I00
sg94
S'Flood_Control'
p106
sg83
NsbsS'threshold'
p107
F185.11430600649504
sg93
I01
sbsg107
F16.462760063757685
sg93
I01
sbsg92
g74
(g75
g76
Ntp108
Rp109
(dp110
g80
I0
sg81
g87
sg83
g74
(g88
g76
Ntp111
Rp112
(dp113
g92
Nsg93
I00
sg94
S'Hedge_70'
p114
sg83
Nsbsg92
g74
(g88
g76
Ntp115
Rp116
(dp117
g92
Nsg93
I00
sg94
S'Release_Demand'
p118
sg83
Nsbsg107
F68.20934841670412
sg93
I01
sbsg107
F329.9984719207994
sg93
I01
sbsS'L'
p119
(lp120
g78
ag85
ag90
ag97
ag100
ag104
ag109
ag112
ag116
asS'N'
p121
I9
sbag71
a(itree
PTree
p122
(dp123
g73
g74
(g75
g76
Ntp124
Rp125
(dp126
g80
I1
sg92
g74
(g75
g76
Ntp127
Rp128
(dp129
g80
I0
sg92
g74
(g88
g76
Ntp130
Rp131
(dp132
g92
Nsg93
I00
sg94
g118
sg83
Nsbsg81
g87
sg107
F87.25337639624844
sg83
g74
(g88
g76
Ntp133
Rp134
(dp135
g92
Nsg93
I00
sg94
g114
sg83
Nsbsg93
I01
sbsg81
g82
sg107
F322.7560447796593
sg83
g74
(g75
g76
Ntp136
Rp137
(dp138
g80
I0
sg92
g74
(g75
g76
Ntp139
Rp140
(dp141
g80
I0
sg92
g74
(g88
g76
Ntp142
Rp143
(dp144
g92
Nsg93
I00
sg94
g106
sg83
Nsbsg81
g87
sg107
F78.02142793819644
sg83
g74
(g88
g76
Ntp145
Rp146
(dp147
g92
Nsg93
I00
sg94
g102
sg83
Nsbsg93
I01
sbsg81
g87
sg107
F1.1162735775581931
sg83
g74
(g88
g76
Ntp148
Rp149
(dp150
g92
Nsg93
I00
sg94
g95
sg83
Nsbsg93
I01
sbsg93
I01
sbsg119
(lp151
g125
ag137
ag149
ag140
ag146
ag143
ag128
ag134
ag131
asg121
I9
sbag122
ag122
a(itree
PTree
p152
(dp153
g73
g74
(g75
g76
Ntp154
Rp155
(dp156
g80
I1
sg92
g74
(g88
g76
Ntp157
Rp158
(dp159
g92
Nsg93
I00
sg94
S'Hedge_70'
p160
sg83
Nsbsg81
g82
sg107
F204.18633861473697
sg83
g74
(g75
g76
Ntp161
Rp162
(dp163
g80
I0
sg92
g74
(g88
g76
Ntp164
Rp165
(dp166
g92
Nsg93
I00
sg94
S'Flood_Control'
p167
sg83
Nsbsg81
g87
sg107
F36.23733877106336
sg83
g74
(g88
g76
Ntp168
Rp169
(dp170
g92
Nsg93
I00
sg94
S'Hedge_70'
p171
sg83
Nsbsg93
I01
sbsg93
I01
sbsg119
(lp172
g155
ag162
ag169
ag165
ag158
asg121
I5
sba(itree
PTree
p173
(dp174
g73
g74
(g75
g76
Ntp175
Rp176
(dp177
g80
I1
sg92
g74
(g88
g76
Ntp178
Rp179
(dp180
g92
Nsg93
I00
sg94
S'Hedge_50'
p181
sg83
Nsbsg81
g82
sg107
F152.39125113415574
sg83
g74
(g75
g76
Ntp182
Rp183
(dp184
g80
I0
sg92
g74
(g88
g76
Ntp185
Rp186
(dp187
g92
Nsg93
I00
sg94
S'Flood_Control'
p188
sg83
Nsbsg81
g87
sg107
F79.62975616153491
sg83
g74
(g88
g76
Ntp189
Rp190
(dp191
g92
Nsg93
I00
sg94
S'Hedge_50'
p192
sg83
Nsbsg93
I01
sbsg93
I01
sbsg119
(lp193
g176
ag183
ag190
ag186
ag179
asg121
I5
sba(itree
PTree
p194
(dp195
g73
g74
(g75
g76
Ntp196
Rp197
(dp198
g80
I1
sg92
g74
(g88
g76
Ntp199
Rp200
(dp201
g92
Nsg93
I00
sg94
g181
sg83
Nsbsg81
g82
sg107
F140.70789940772838
sg83
g74
(g75
g76
Ntp202
Rp203
(dp204
g80
I0
sg92
g74
(g88
g76
Ntp205
Rp206
(dp207
g92
Nsg93
I00
sg94
g188
sg83
Nsbsg81
g87
sg107
F12.691584058797584
sg83
g74
(g88
g76
Ntp208
Rp209
(dp210
g92
Nsg93
I00
sg94
g192
sg83
Nsbsg93
I01
sbsg93
I01
sbsg119
(lp211
g197
ag203
ag209
ag206
ag200
asg121
I5
sba(itree
PTree
p212
(dp213
g73
g74
(g75
g76
Ntp214
Rp215
(dp216
g80
I1
sg92
g74
(g88
g76
Ntp217
Rp218
(dp219
g92
Nsg93
I00
sg94
S'Release_Demand'
p220
sg83
Nsbsg81
g82
sg107
F140.70789940772838
sg83
g74
(g75
g76
Ntp221
Rp222
(dp223
g80
I1
sg92
g74
(g88
g76
Ntp224
Rp225
(dp226
g92
Nsg93
I00
sg94
S'Hedge_70'
p227
sg83
Nsbsg81
g82
sg107
F135.8988881891174
sg83
g74
(g75
g76
Ntp228
Rp229
(dp230
g80
I0
sg92
g74
(g88
g76
Ntp231
Rp232
(dp233
g92
Nsg93
I00
sg94
S'Flood_Control'
p234
sg83
Nsbsg81
g87
sg107
F8.85073056375245
sg83
g74
(g88
g76
Ntp235
Rp236
(dp237
g92
Nsg93
I00
sg94
S'Hedge_60'
p238
sg83
Nsbsg93
I01
sbsg93
I01
sbsg93
I01
sbsg119
(lp239
g215
ag222
ag229
ag236
ag232
ag225
ag218
asg121
I7
sbag212
ag212
a(itree
PTree
p240
(dp241
g73
g74
(g75
g76
Ntp242
Rp243
(dp244
g80
I1
sg92
g74
(g75
g76
Ntp245
Rp246
(dp247
g80
I0
sg92
g74
(g88
g76
Ntp248
Rp249
(dp250
g92
Nsg93
I00
sg94
S'Hedge_90'
p251
sg83
Nsbsg81
g87
sg107
F13.5625220221786
sg83
g74
(g88
g76
Ntp252
Rp253
(dp254
g92
Nsg93
I00
sg94
g238
sg83
Nsbsg93
I01
sbsg81
g82
sg107
F131.64187918449284
sg83
g74
(g75
g76
Ntp255
Rp256
(dp257
g80
I0
sg92
g74
(g88
g76
Ntp258
Rp259
(dp260
g92
Nsg93
I00
sg94
S'Flood_Control'
p261
sg83
Nsbsg81
g87
sg107
F50.12930969596989
sg83
g74
(g88
g76
Ntp262
Rp263
(dp264
g92
Nsg93
I00
sg94
S'Hedge_80'
p265
sg83
Nsbsg93
I01
sbsg93
I01
sbsg119
(lp266
g243
ag256
ag263
ag259
ag246
ag253
ag249
asg121
I7
sbag240
ag240
ag240
a(itree
PTree
p267
(dp268
g73
g74
(g75
g76
Ntp269
Rp270
(dp271
g80
I1
sg92
g74
(g88
g76
Ntp272
Rp273
(dp274
g92
Nsg93
I00
sg94
S'Release_Demand'
p275
sg83
Nsbsg81
g82
sg107
F177.0951899375377
sg83
g74
(g75
g76
Ntp276
Rp277
(dp278
g80
I1
sg92
g74
(g88
g76
Ntp279
Rp280
(dp281
g92
Nsg93
I00
sg94
S'Hedge_50'
p282
sg83
Nsbsg81
g82
sg107
F135.3501658033587
sg83
g74
(g75
g76
Ntp283
Rp284
(dp285
g80
I0
sg92
g74
(g88
g76
Ntp286
Rp287
(dp288
g92
Nsg93
I00
sg94
S'Flood_Control'
p289
sg83
Nsbsg81
g87
sg107
F80.41234573118514
sg83
g74
(g88
g76
Ntp290
Rp291
(dp292
g92
Nsg93
I00
sg94
S'Hedge_80'
p293
sg83
Nsbsg93
I01
sbsg93
I01
sbsg93
I01
sbsg119
(lp294
g270
ag277
ag284
ag291
ag287
ag280
ag273
asg121
I7
sbag267
a(itree
PTree
p295
(dp296
g73
g74
(g75
g76
Ntp297
Rp298
(dp299
g80
I1
sg92
g74
(g75
g76
Ntp300
Rp301
(dp302
g80
I1
sg92
g74
(g88
g76
Ntp303
Rp304
(dp305
g92
Nsg93
I00
sg94
S'Release_Demand'
p306
sg83
Nsbsg81
g82
sg107
F194.24522628288315
sg83
g74
(g75
g76
Ntp307
Rp308
(dp309
g80
I0
sg92
g74
(g88
g76
Ntp310
Rp311
(dp312
g92
Nsg93
I00
sg94
S'Hedge_80'
p313
sg83
Nsbsg81
g87
sg107
F52.61014505329648
sg83
g74
(g88
g76
Ntp314
Rp315
(dp316
g92
Nsg93
I00
sg94
S'Hedge_60'
p317
sg83
Nsbsg93
I01
sbsg93
I01
sbsg81
g82
sg107
F128.72104945692104
sg83
g74
(g75
g76
Ntp318
Rp319
(dp320
g80
I0
sg92
g74
(g88
g76
Ntp321
Rp322
(dp323
g92
Nsg93
I00
sg94
S'Flood_Control'
p324
sg83
Nsbsg81
g87
sg107
F68.80800741062863
sg83
g74
(g88
g76
Ntp325
Rp326
(dp327
g92
Nsg93
I00
sg94
S'Hedge_90'
p328
sg83
Nsbsg93
I01
sbsg93
I01
sbsg119
(lp329
g298
ag319
ag326
ag322
ag301
ag308
ag315
ag311
ag304
asg121
I9
sba(itree
PTree
p330
(dp331
g73
g74
(g75
g76
Ntp332
Rp333
(dp334
g80
I1
sg92
g74
(g75
g76
Ntp335
Rp336
(dp337
g80
I0
sg92
g74
(g88
g76
Ntp338
Rp339
(dp340
g92
Nsg93
I00
sg94
S'Release_Demand'
p341
sg83
Nsbsg81
g87
sg107
F126.64537677923371
sg83
g74
(g88
g76
Ntp342
Rp343
(dp344
g92
Nsg93
I00
sg94
S'Hedge_80'
p345
sg83
Nsbsg93
I01
sbsg81
g82
sg107
F127.33603798354402
sg83
g74
(g75
g76
Ntp346
Rp347
(dp348
g80
I0
sg92
g74
(g88
g76
Ntp349
Rp350
(dp351
g92
Nsg93
I00
sg94
g324
sg83
Nsbsg81
g87
sg107
F68.80800741062863
sg83
g74
(g88
g76
Ntp352
Rp353
(dp354
g92
Nsg93
I00
sg94
S'Hedge_70'
p355
sg83
Nsbsg93
I01
sbsg93
I01
sbsg119
(lp356
g333
ag347
ag353
ag350
ag336
ag343
ag339
asg121
I7
sbag330
ag330
ag330
ag330
ag330
ag330
ag330
ag330
ag330
ag330
ag330
ag330
ag330
ag330
ag330
ag330
a(itree
PTree
p357
(dp358
g73
g74
(g75
g76
Ntp359
Rp360
(dp361
g80
I1
sg92
g74
(g75
g76
Ntp362
Rp363
(dp364
g80
I0
sg92
g74
(g88
g76
Ntp365
Rp366
(dp367
g92
Nsg93
I00
sg94
g341
sg83
Nsbsg81
g87
sg107
F126.64537677923371
sg83
g74
(g88
g76
Ntp368
Rp369
(dp370
g92
Nsg93
I00
sg94
g345
sg83
Nsbsg93
I01
sbsg81
g82
sg107
F127.33603798354402
sg83
g74
(g75
g76
Ntp371
Rp372
(dp373
g80
I0
sg92
g74
(g88
g76
Ntp374
Rp375
(dp376
g92
Nsg93
I00
sg94
g324
sg83
Nsbsg81
g87
sg107
F79.40741648666389
sg83
g74
(g88
g76
Ntp377
Rp378
(dp379
g92
Nsg93
I00
sg94
g355
sg83
Nsbsg93
I01
sbsg93
I01
sbsg119
(lp380
g360
ag372
ag378
ag375
ag363
ag369
ag366
asg121
I7
sbag357
ag357
ag357
ag357
ag357
ag357
ag357
ag357
ag357
ag357
ag357
ag357
ag357
a(itree
PTree
p381
(dp382
g73
g74
(g75
g76
Ntp383
Rp384
(dp385
g80
I1
sg92
g74
(g75
g76
Ntp386
Rp387
(dp388
g80
I1
sg92
g74
(g88
g76
Ntp389
Rp390
(dp391
g92
Nsg93
I00
sg94
g306
sg83
Nsbsg81
g82
sg107
F246.0851550078428
sg83
g74
(g75
g76
Ntp392
Rp393
(dp394
g80
I0
sg92
g74
(g88
g76
Ntp395
Rp396
(dp397
g92
Nsg93
I00
sg94
g313
sg83
Nsbsg81
g87
sg107
F102.5770318633125
sg83
g74
(g88
g76
Ntp398
Rp399
(dp400
g92
Nsg93
I00
sg94
g317
sg83
Nsbsg93
I01
sbsg93
I01
sbsg81
g82
sg107
F125.47063930100413
sg83
g74
(g75
g76
Ntp401
Rp402
(dp403
g80
I0
sg92
g74
(g88
g76
Ntp404
Rp405
(dp406
g92
Nsg93
I00
sg94
g324
sg83
Nsbsg81
g87
sg107
F85.99810484360374
sg83
g74
(g88
g76
Ntp407
Rp408
(dp409
g92
Nsg93
I00
sg94
g328
sg83
Nsbsg93
I01
sbsg93
I01
sbsg119
(lp410
g384
ag402
ag408
ag405
ag387
ag393
ag399
ag396
ag390
asg121
I9
sbag381
ag381
ag381
ag381
ag381
ag381
ag381
ag381
ag381
ag381
ag381
ag381
ag381
ag381
ag381
ag381
ag381
ag381
ag381
ag381
ag381
ag381
ag381
ag381
ag381
ag381
ag381
ag381
ag381
ag381
ag381
ag381
ag381
ag381
ag381
ag381
ag381
ag381
a(itree
PTree
p411
(dp412
g73
g74
(g75
g76
Ntp413
Rp414
(dp415
g80
I1
sg92
g74
(g75
g76
Ntp416
Rp417
(dp418
g80
I0
sg92
g74
(g88
g76
Ntp419
Rp420
(dp421
g92
Nsg93
I00
sg94
g341
sg83
Nsbsg81
g87
sg107
F355.91802925598967
sg83
g74
(g88
g76
Ntp422
Rp423
(dp424
g92
Nsg93
I00
sg94
g345
sg83
Nsbsg93
I01
sbsg81
g82
sg107
F131.84365971179454
sg83
g74
(g75
g76
Ntp425
Rp426
(dp427
g80
I0
sg92
g74
(g88
g76
Ntp428
Rp429
(dp430
g92
Nsg93
I00
sg94
g324
sg83
Nsbsg81
g87
sg107
F77.59298493338711
sg83
g74
(g88
g76
Ntp431
Rp432
(dp433
g92
Nsg93
I00
sg94
g355
sg83
Nsbsg93
I01
sbsg93
I01
sbsg119
(lp434
g414
ag426
ag432
ag429
ag417
ag423
ag420
asg121
I7
sbag411
ag411
ag411
ag411
a(itree
PTree
p435
(dp436
g73
g74
(g75
g76
Ntp437
Rp438
(dp439
g80
I1
sg92
g74
(g75
g76
Ntp440
Rp441
(dp442
g80
I0
sg92
g74
(g88
g76
Ntp443
Rp444
(dp445
g92
Nsg93
I00
sg94
g341
sg83
Nsbsg81
g87
sg107
F440.03213691553117
sg83
g74
(g88
g76
Ntp446
Rp447
(dp448
g92
Nsg93
I00
sg94
g345
sg83
Nsbsg93
I01
sbsg81
g82
sg107
F129.36166211590353
sg83
g74
(g75
g76
Ntp449
Rp450
(dp451
g80
I0
sg92
g74
(g88
g76
Ntp452
Rp453
(dp454
g92
Nsg93
I00
sg94
g324
sg83
Nsbsg81
g87
sg107
F78.85416846590077
sg83
g74
(g88
g76
Ntp455
Rp456
(dp457
g92
Nsg93
I00
sg94
g355
sg83
Nsbsg93
I01
sbsg93
I01
sbsg119
(lp458
g438
ag450
ag456
ag453
ag441
ag447
ag444
asg121
I7
sbag435
ag435
ag435
ag435
ag435
ag435
ag435
ag435
ag435
ag435
ag435
ag435
ag435
ag435
ag435
ag435
ag435
a(itree
PTree
p459
(dp460
g73
g74
(g75
g76
Ntp461
Rp462
(dp463
g80
I1
sg92
g74
(g75
g76
Ntp464
Rp465
(dp466
g80
I0
sg92
g74
(g88
g76
Ntp467
Rp468
(dp469
g92
Nsg93
I00
sg94
S'Release_Demand'
p470
sg83
Nsbsg81
g87
sg107
F317.42735225492385
sg83
g74
(g88
g76
Ntp471
Rp472
(dp473
g92
Nsg93
I00
sg94
S'Hedge_70'
p474
sg83
Nsbsg93
I01
sbsg81
g82
sg107
F128.88471265902274
sg83
g74
(g75
g76
Ntp475
Rp476
(dp477
g80
I0
sg92
g74
(g88
g76
Ntp478
Rp479
(dp480
g92
Nsg93
I00
sg94
S'Flood_Control'
p481
sg83
Nsbsg81
g87
sg107
F68.66527034764377
sg83
g74
(g88
g76
Ntp482
Rp483
(dp484
g92
Nsg93
I00
sg94
S'Hedge_70'
p485
sg83
Nsbsg93
I01
sbsg93
I01
sbsg119
(lp486
g462
ag476
ag483
ag479
ag465
ag472
ag468
asg121
I7
sbag459
ag459
ag459
ag459
ag459
ag459
ag459
ag459
ag459
ag459
ag459
ag459
ag459
ag459
ag459
ag459
ag459
ag459
ag459
ag459
ag459
ag459
ag459
ag459
ag459
ag459
ag459
ag459
ag459
ag459
ag459
ag459
ag459
ag459
ag459
ag459
ag459
ag459
ag459
ag459
ag459
ag459
ag459
ag459
ag459
ag459
ag459
ag459
ag459
ag459
ag459
ag459
ag459
ag459
ag459
ag459
ag459
ag459
ag459
ag459
ag459
ag459
ag459
ag459
ag459
ag459
a(itree
PTree
p487
(dp488
g73
g74
(g75
g76
Ntp489
Rp490
(dp491
g80
I1
sg92
g74
(g75
g76
Ntp492
Rp493
(dp494
g80
I1
sg92
g74
(g88
g76
Ntp495
Rp496
(dp497
g92
Nsg93
I00
sg94
S'Hedge_90'
p498
sg83
Nsbsg81
g82
sg107
F186.2775344897265
sg83
g74
(g75
g76
Ntp499
Rp500
(dp501
g80
I1
sg92
g74
(g88
g76
Ntp502
Rp503
(dp504
g92
Nsg93
I00
sg94
S'Release_Demand'
p505
sg83
Nsbsg81
g82
sg107
F122.58092574775036
sg83
g74
(g75
g76
Ntp506
Rp507
(dp508
g80
I0
sg92
g74
(g88
g76
Ntp509
Rp510
(dp511
g92
Nsg93
I00
sg94
S'Flood_Control'
p512
sg83
Nsbsg81
g87
sg107
F69.11837438176498
sg83
g74
(g88
g76
Ntp513
Rp514
(dp515
g92
Nsg93
I00
sg94
S'Hedge_70'
p516
sg83
Nsbsg93
I01
sbsg93
I01
sbsg93
I01
sbsg81
g82
sg107
F81.03728651424596
sg83
g74
(g75
g76
Ntp517
Rp518
(dp519
g80
I0
sg92
g74
(g88
g76
Ntp520
Rp521
(dp522
g92
Nsg93
I00
sg94
S'Release_Demand'
p523
sg83
Nsbsg81
g87
sg107
F79.41671437052604
sg83
g74
(g88
g76
Ntp524
Rp525
(dp526
g92
Nsg93
I00
sg94
S'Hedge_70'
p527
sg83
Nsbsg93
I01
sbsg93
I01
sbsg119
(lp528
g490
ag518
ag525
ag521
ag493
ag500
ag507
ag514
ag510
ag503
ag496
asg121
I11
sbag487
ag487
ag487
ag487
ag487
ag487
ag487
ag487
ag487
ag487
ag487
ag487
ag487
ag487
ag487
ag487
ag487
ag487
ag487
ag487
ag487
ag487
ag487
ag487
ag487
ag487
ag487
ag487
ag487
ag487
ag487
ag487
ag487
ag487
ag487
ag487
ag487
ag487
ag487
ag487
ag487
ag487
ag487
ag487
ag487
ag487
ag487
ag487
ag487
ag487
ag487
ag487
ag487
ag487
ag487
ag487
ag487
ag487
ag487
ag487
ag487
ag487
ag487
ag487
ag487
ag487
ag487
ag487
ag487
ag487
a(itree
PTree
p529
(dp530
g73
g74
(g75
g76
Ntp531
Rp532
(dp533
g80
I1
sg92
g74
(g75
g76
Ntp534
Rp535
(dp536
g80
I1
sg92
g74
(g88
g76
Ntp537
Rp538
(dp539
g92
Nsg93
I00
sg94
S'Hedge_90'
p540
sg83
Nsbsg81
g82
sg107
F125.4780582304294
sg83
g74
(g75
g76
Ntp541
Rp542
(dp543
g80
I0
sg92
g74
(g88
g76
Ntp544
Rp545
(dp546
g92
Nsg93
I00
sg94
S'Flood_Control'
p547
sg83
Nsbsg81
g87
sg107
F82.99763067865759
sg83
g74
(g88
g76
Ntp548
Rp549
(dp550
g92
Nsg93
I00
sg94
S'Release_Demand'
p551
sg83
Nsbsg93
I01
sbsg93
I01
sbsg81
g82
sg107
F64.32707946125083
sg83
g74
(g88
g76
Ntp552
Rp553
(dp554
g92
Nsg93
I00
sg94
S'Release_Demand'
p555
sg83
Nsbsg93
I01
sbsg119
(lp556
g532
ag553
ag535
ag542
ag549
ag545
ag538
asg121
I7
sbag529
ag529
ag529
ag529
ag529
ag529
ag529
ag529
ag529
ag529
ag529
ag529
ag529
ag529
ag529
ag529
ag529
ag529
ag529
ag529
ag529
ag529
ag529
ag529
ag529
ag529
ag529
ag529
ag529
ag529
ag529
ag529
ag529
ag529
ag529
ag529
ag529
ag529
ag529
ag529
ag529
ag529
ag529
ag529
ag529
ag529
ag529
ag529
ag529
ag529
ag529
ag529
ag529
ag529
ag529
ag529
ag529
ag529
ag529
ag529
ag529
ag529
ag529
ag529
ag529
ag529
ag529
ag529
ag529
ag529
ag529
ag529
ag529
ag529
ag529
ag529
ag529
ag529
ag529
ag529
ag529
ag529
ag529
ag529
ag529
ag529
ag529
ag529
ag529
ag529
ag529
ag529
ag529
ag529
ag529
ag529
ag529
ag529
ag529
ag529
ag529
ag529
ag529
ag529
ag529
ag529
ag529
ag529
ag529
ag529
ag529
ag529
ag529
ag529
ag529
ag529
ag529
ag529
ag529
ag529
ag529
ag529
ag529
ag529
ag529
ag529
ag529
ag529
ag529
ag529
ag529
ag529
ag529
ag529
ag529
ag529
ag529
ag529
ag529
ag529
ag529
ag529
ag529
ag529
ag529
ag529
ag529
ag529
ag529
ag529
ag529
ag529
ag529
ag529
ag529
ag529
ag529
ag529
ag529
ag529
ag529
ag529
ag529
ag529
ag529
ag529
ag529
ag529
ag529
ag529
ag529
ag529
ag529
ag529
ag529
ag529
ag529
ag529
ag529
ag529
ag529
ag529
ag529
ag529
ag529
ag529
ag529
ag529
ag529
a(itree
PTree
p557
(dp558
g73
g74
(g75
g76
Ntp559
Rp560
(dp561
g80
I1
sg92
g74
(g75
g76
Ntp562
Rp563
(dp564
g80
I1
sg92
g74
(g88
g76
Ntp565
Rp566
(dp567
g92
Nsg93
I00
sg94
S'Hedge_90'
p568
sg83
Nsbsg81
g82
sg107
F126.74687711299508
sg83
g74
(g75
g76
Ntp569
Rp570
(dp571
g80
I0
sg92
g74
(g88
g76
Ntp572
Rp573
(dp574
g92
Nsg93
I00
sg94
S'Flood_Control'
p575
sg83
Nsbsg81
g87
sg107
F79.20058042986005
sg83
g74
(g88
g76
Ntp576
Rp577
(dp578
g92
Nsg93
I00
sg94
S'Release_Demand'
p579
sg83
Nsbsg93
I01
sbsg93
I01
sbsg81
g82
sg107
F72.38970958434221
sg83
g74
(g88
g76
Ntp580
Rp581
(dp582
g92
Nsg93
I00
sg94
S'Release_Demand'
p583
sg83
Nsbsg93
I01
sbsg119
(lp584
g560
ag581
ag563
ag570
ag577
ag573
ag566
asg121
I7
sbag557
ag557
ag557
ag557
ag557
ag557
a(itree
PTree
p585
(dp586
g73
g74
(g75
g76
Ntp587
Rp588
(dp589
g80
I1
sg92
g74
(g75
g76
Ntp590
Rp591
(dp592
g80
I1
sg92
g74
(g88
g76
Ntp593
Rp594
(dp595
g92
Nsg93
I00
sg94
g498
sg83
Nsbsg81
g82
sg107
F225.8673173147565
sg83
g74
(g75
g76
Ntp596
Rp597
(dp598
g80
I1
sg92
g74
(g88
g76
Ntp599
Rp600
(dp601
g92
Nsg93
I00
sg94
S'Hedge_70'
p602
sg83
Nsbsg81
g82
sg107
F124.20744725460953
sg83
g74
(g75
g76
Ntp603
Rp604
(dp605
g80
I0
sg92
g74
(g88
g76
Ntp606
Rp607
(dp608
g92
Nsg93
I00
sg94
g512
sg83
Nsbsg81
g87
sg107
F81.71661061747021
sg83
g74
(g88
g76
Ntp609
Rp610
(dp611
g92
Nsg93
I00
sg94
S'Release_Demand'
p612
sg83
Nsbsg93
I01
sbsg93
I01
sbsg93
I01
sbsg81
g82
sg107
F79.85705766519305
sg83
g74
(g75
g76
Ntp613
Rp614
(dp615
g80
I0
sg92
g74
(g88
g76
Ntp616
Rp617
(dp618
g92
Nsg93
I00
sg94
S'Hedge_90'
p619
sg83
Nsbsg81
g87
sg107
F118.11871970330796
sg83
g74
(g88
g76
Ntp620
Rp621
(dp622
g92
Nsg93
I00
sg94
S'Hedge_50'
p623
sg83
Nsbsg93
I01
sbsg93
I01
sbsg119
(lp624
g588
ag614
ag621
ag617
ag591
ag597
ag604
ag610
ag607
ag600
ag594
asg121
I11
sbag585
ag585
ag585
ag585
ag585
ag585
ag585
ag585
ag585
ag585
ag585
ag585
ag585
ag585
ag585
ag585
ag585
ag585
ag585
ag585
ag585
ag585
ag585
ag585
ag585
ag585
ag585
ag585
ag585
ag585
ag585
ag585
ag585
ag585
ag585
ag585
ag585
ag585
ag585
ag585
ag585
ag585
ag585
ag585
ag585
ag585
ag585
ag585
ag585
ag585
ag585
ag585
ag585
asS'time'
p625
(lp626
I172
aI258
aI345
aI432
aI519
aI605
aI692
aI779
aI866
aI954
aI1042
aI1130
aI1218
aI1306
aI1394
aI1481
aI1568
aI1657
aI1744
aI1831
aI1918
aI2005
aI2092
aI2179
aI2267
aI2354
aI2440
aI2528
aI2615
aI2701
aI2788
aI2877
aI2964
aI3052
aI3139
aI3226
aI3313
aI3400
aI3489
aI3575
aI3662
aI3750
aI3837
aI3924
aI4012
aI4099
aI4187
aI4274
aI4362
aI4449
aI4538
aI4626
aI4714
aI4801
aI4890
aI4978
aI5066
aI5153
aI5241
aI5331
aI5418
aI5506
aI5594
aI5682
aI5770
aI5858
aI5946
aI6035
aI6122
aI6210
aI6298
aI6386
aI6474
aI6561
aI6648
aI6736
aI6824
aI6912
aI7001
aI7088
aI7175
aI7261
aI7347
aI7434
aI7522
aI7610
aI7697
aI7785
aI7873
aI7961
aI8050
aI8138
aI8226
aI8313
aI8401
aI8489
aI8578
aI8666
aI8754
aI8843
aI8931
aI9021
aI9109
aI9198
aI9286
aI9373
aI9461
aI9548
aI9636
aI9724
aI9812
aI9900
aI9988
aI10077
aI10165
aI10253
aI10340
aI10428
aI10516
aI10604
aI10693
aI10782
aI10870
aI10957
aI11044
aI11132
aI11221
aI11309
aI11397
aI11484
aI11572
aI11660
aI11750
aI11838
aI11926
aI12013
aI12101
aI12190
aI12278
aI12365
aI12454
aI12542
aI12630
aI12718
aI12806
aI12894
aI12983
aI13071
aI13159
aI13247
aI13336
aI13424
aI13513
aI13601
aI13688
aI13778
aI13865
aI13953
aI14042
aI14128
aI14217
aI14305
aI14392
aI14480
aI14569
aI14658
aI14746
aI14834
aI14922
aI15009
aI15096
aI15183
aI15272
aI15359
aI15448
aI15535
aI15623
aI15711
aI15800
aI15889
aI15978
aI16065
aI16155
aI16243
aI16331
aI16419
aI16509
aI16597
aI16686
aI16775
aI16864
aI16951
aI17039
aI17127
aI17215
aI17302
aI17391
aI17480
aI17568
aI17656
aI17743
aI17831
aI17920
aI18010
aI18099
aI18188
aI18277
aI18366
aI18454
aI18543
aI18632
aI18722
aI18811
aI18898
aI18987
aI19077
aI19164
aI19255
aI19343
aI19430
aI19518
aI19607
aI19695
aI19785
aI19873
aI19963
aI20052
aI20141
aI20231
aI20319
aI20407
aI20497
aI20587
aI20676
aI20764
aI20854
aI20943
aI21033
aI21121
aI21210
aI21300
aI21390
aI21480
aI21568
aI21658
aI21749
aI21840
aI21928
aI22017
aI22106
aI22196
aI22285
aI22374
aI22463
aI22552
aI22641
aI22730
aI22820
aI22910
aI23000
aI23089
aI23180
aI23270
aI23360
aI23450
aI23540
aI23628
aI23720
aI23810
aI23900
aI23989
aI24079
aI24168
aI24258
aI24347
aI24439
aI24530
aI24621
aI24711
aI24802
aI24892
aI24982
aI25073
aI25162
aI25253
aI25343
aI25432
aI25522
aI25612
aI25701
aI25791
aI25881
aI25971
aI26063
aI26153
aI26243
aI26332
aI26421
aI26510
aI26601
aI26691
aI26780
aI26870
aI26960
aI27050
aI27141
aI27231
aI27322
aI27413
aI27503
aI27594
aI27685
aI27775
aI27865
aI27953
aI28042
aI28131
aI28220
aI28310
aI28400
aI28490
aI28581
aI28669
aI28759
aI28849
aI28938
aI29026
aI29117
aI29207
aI29298
aI29387
aI29478
aI29568
aI29658
aI29748
aI29837
aI29928
aI30018
aI30106
aI30196
aI30286
aI30375
aI30464
aI30554
aI30645
aI30734
aI30824
aI30917
aI31006
aI31097
aI31188
aI31278
aI31368
aI31459
aI31548
aI31639
aI31728
aI31818
aI31907
aI32000
aI32088
aI32177
aI32269
aI32360
aI32450
aI32540
aI32630
aI32719
aI32807
aI32897
aI32987
aI33077
aI33167
aI33258
aI33347
aI33439
aI33529
aI33618
aI33708
aI33799
aI33889
aI33979
aI34069
aI34160
aI34250
aI34338
aI34428
aI34518
aI34608
aI34698
aI34788
aI34879
aI34969
aI35059
aI35150
aI35240
aI35330
aI35420
aI35509
aI35599
aI35690
aI35781
aI35871
aI35961
aI36051
aI36140
aI36230
aI36319
aI36409
aI36500
aI36591
aI36683
aI36772
aI36860
aI36950
aI37039
aI37129
aI37220
aI37310
aI37402
aI37490
aI37580
aI37670
aI37760
aI37850
aI37939
aI38028
aI38119
aI38209
aI38298
aI38388
aI38477
aI38568
aI38656
aI38746
aI38836
aI38925
aI39016
aI39106
aI39196
aI39285
aI39376
aI39467
aI39557
aI39648
aI39740
aI39830
aI39921
aI40009
aI40093
aI40179
aI40259
aI40338
aI40420
aI40494
aI40562
aI40629
aI40701
aI40769
aI40836
aI40907
aI40974
aI41043
aI41112
aI41182
aI41250
aI41318
aI41383
aI41449
aI41518
aI41591
aI41656
aI41721
aI41782
aI41843
aI41905
aI41969
aI42030
aI42085
aI42132
aI42179
aI42231
aI42307
aI42378
aI42422
aI42465
aI42507
aI42550
aI42592
aI42635
aI42676
aI42717
aI42759
aI42800
aI42841
aI42882
aI42922
aI42964
aI43005
aI43045
as.