(dp0
S'nfe'
p1
(lp2
I50
aI100
aI150
aI200
aI250
aI300
aI350
aI400
aI450
aI500
aI550
aI600
aI650
aI700
aI750
aI800
aI850
aI900
aI950
aI1000
aI1050
aI1100
aI1150
aI1200
aI1250
aI1300
aI1350
aI1400
aI1450
aI1500
aI1550
aI1600
aI1650
aI1700
aI1750
aI1800
aI1850
aI1900
aI1950
aI2000
aI2050
aI2100
aI2150
aI2200
aI2250
aI2300
aI2350
aI2400
aI2450
aI2500
aI2550
aI2600
aI2650
aI2700
aI2750
aI2800
aI2850
aI2900
aI2950
aI3000
aI3050
aI3100
aI3150
aI3200
aI3250
aI3300
aI3350
aI3400
aI3450
aI3500
aI3550
aI3600
aI3650
aI3700
aI3750
aI3800
aI3850
aI3900
aI3950
aI4000
aI4050
aI4100
aI4150
aI4200
aI4250
aI4300
aI4350
aI4400
aI4450
aI4500
aI4550
aI4600
aI4650
aI4700
aI4750
aI4800
aI4850
aI4900
aI4950
aI5000
aI5050
aI5100
aI5150
aI5200
aI5250
aI5300
aI5350
aI5400
aI5450
aI5500
aI5550
aI5600
aI5650
aI5700
aI5750
aI5800
aI5850
aI5900
aI5950
aI6000
aI6050
aI6100
aI6150
aI6200
aI6250
aI6300
aI6350
aI6400
aI6450
aI6500
aI6550
aI6600
aI6650
aI6700
aI6750
aI6800
aI6850
aI6900
aI6950
aI7000
aI7050
aI7100
aI7150
aI7200
aI7250
aI7300
aI7350
aI7400
aI7450
aI7500
aI7550
aI7600
aI7650
aI7700
aI7750
aI7800
aI7850
aI7900
aI7950
aI8000
aI8050
aI8100
aI8150
aI8200
aI8250
aI8300
aI8350
aI8400
aI8450
aI8500
aI8550
aI8600
aI8650
aI8700
aI8750
aI8800
aI8850
aI8900
aI8950
aI9000
aI9050
aI9100
aI9150
aI9200
aI9250
aI9300
aI9350
aI9400
aI9450
aI9500
aI9550
aI9600
aI9650
aI9700
aI9750
aI9800
aI9850
aI9900
aI9950
aI10000
aI10050
aI10100
aI10150
aI10200
aI10250
aI10300
aI10350
aI10400
aI10450
aI10500
aI10550
aI10600
aI10650
aI10700
aI10750
aI10800
aI10850
aI10900
aI10950
aI11000
aI11050
aI11100
aI11150
aI11200
aI11250
aI11300
aI11350
aI11400
aI11450
aI11500
aI11550
aI11600
aI11650
aI11700
aI11750
aI11800
aI11850
aI11900
aI11950
aI12000
aI12050
aI12100
aI12150
aI12200
aI12250
aI12300
aI12350
aI12400
aI12450
aI12500
aI12550
aI12600
aI12650
aI12700
aI12750
aI12800
aI12850
aI12900
aI12950
aI13000
aI13050
aI13100
aI13150
aI13200
aI13250
aI13300
aI13350
aI13400
aI13450
aI13500
aI13550
aI13600
aI13650
aI13700
aI13750
aI13800
aI13850
aI13900
aI13950
aI14000
aI14050
aI14100
aI14150
aI14200
aI14250
aI14300
aI14350
aI14400
aI14450
aI14500
aI14550
aI14600
aI14650
aI14700
aI14750
aI14800
aI14850
aI14900
aI14950
aI15000
aI15050
aI15100
aI15150
aI15200
aI15250
aI15300
aI15350
aI15400
aI15450
aI15500
aI15550
aI15600
aI15650
aI15700
aI15750
aI15800
aI15850
aI15900
aI15950
aI16000
aI16050
aI16100
aI16150
aI16200
aI16250
aI16300
aI16350
aI16400
aI16450
aI16500
aI16550
aI16600
aI16650
aI16700
aI16750
aI16800
aI16850
aI16900
aI16950
aI17000
aI17050
aI17100
aI17150
aI17200
aI17250
aI17300
aI17350
aI17400
aI17450
aI17500
aI17550
aI17600
aI17650
aI17700
aI17750
aI17800
aI17850
aI17900
aI17950
aI18000
aI18050
aI18100
aI18150
aI18200
aI18250
aI18300
aI18350
aI18400
aI18450
aI18500
aI18550
aI18600
aI18650
aI18700
aI18750
aI18800
aI18850
aI18900
aI18950
aI19000
aI19050
aI19100
aI19150
aI19200
aI19250
aI19300
aI19350
aI19400
aI19450
aI19500
aI19550
aI19600
aI19650
aI19700
aI19750
aI19800
aI19850
aI19900
aI19950
aI20000
aI20050
aI20100
aI20150
aI20200
aI20250
aI20300
aI20350
aI20400
aI20450
aI20500
aI20550
aI20600
aI20650
aI20700
aI20750
aI20800
aI20850
aI20900
aI20950
aI21000
aI21050
aI21100
aI21150
aI21200
aI21250
aI21300
aI21350
aI21400
aI21450
aI21500
aI21550
aI21600
aI21650
aI21700
aI21750
aI21800
aI21850
aI21900
aI21950
aI22000
aI22050
aI22100
aI22150
aI22200
aI22250
aI22300
aI22350
aI22400
aI22450
aI22500
aI22550
aI22600
aI22650
aI22700
aI22750
aI22800
aI22850
aI22900
aI22950
aI23000
aI23050
aI23100
aI23150
aI23200
aI23250
aI23300
aI23350
aI23400
aI23450
aI23500
aI23550
aI23600
aI23650
aI23700
aI23750
aI23800
aI23850
aI23900
aI23950
aI24000
aI24050
aI24100
aI24150
aI24200
aI24250
aI24300
aI24350
aI24400
aI24450
aI24500
aI24550
aI24600
aI24650
aI24700
aI24750
aI24800
aI24850
aI24900
aI24950
aI25000
asS'best_f'
p3
(lp4
cnumpy.core.multiarray
scalar
p5
(cnumpy
dtype
p6
(S'f8'
p7
I0
I1
tp8
Rp9
(I3
S'<'
p10
NNNI-1
I-1
I0
tp11
bS'\x84\xa2\xeer|r\x11A'
p12
tp13
Rp14
ag5
(g9
S'F\x9f\xe6\x9b\xfb\xc7\x10A'
p15
tp16
Rp17
ag5
(g9
S'32}"=}\x0eA'
p18
tp19
Rp20
ag5
(g9
S'\xa9\xcd\xf5m\x81\x1b\x0eA'
p21
tp22
Rp23
ag5
(g9
S'\xab`emM\x03\x0eA'
p24
tp25
Rp26
ag26
ag26
ag26
ag5
(g9
S'\x0e\x9e\x92\xa5\x1e\xd9\rA'
p27
tp28
Rp29
ag29
ag5
(g9
S'E\xb4_\xde\x13\xae\rA'
p30
tp31
Rp32
ag32
ag5
(g9
S'b\xe7\x00[\xd6\xa7\rA'
p33
tp34
Rp35
ag35
ag35
ag35
ag5
(g9
S'\xaeB\x84\xb5\xb1\x9f\rA'
p36
tp37
Rp38
ag38
ag38
ag38
ag38
ag38
ag38
ag38
ag38
ag38
ag38
ag38
ag38
ag38
ag38
ag38
ag38
ag38
ag38
ag38
ag38
ag38
ag38
ag38
ag38
ag38
ag38
ag38
ag38
ag38
ag38
ag38
ag38
ag38
ag38
ag38
ag38
ag38
ag5
(g9
S'xP\x83\xe8\xfc\x9d\rA'
p39
tp40
Rp41
ag41
ag41
ag41
ag41
ag41
ag5
(g9
S'\xdb\xb9#}W\x9c\rA'
p42
tp43
Rp44
ag44
ag44
ag44
ag44
ag44
ag44
ag44
ag44
ag44
ag44
ag44
ag44
ag44
ag44
ag44
ag44
ag44
ag44
ag44
ag44
ag44
ag44
ag44
ag44
ag44
ag44
ag44
ag44
ag5
(g9
S'\x1eh\x7f\x17\x18\x9a\rA'
p45
tp46
Rp47
ag47
ag47
ag47
ag47
ag47
ag47
ag47
ag47
ag47
ag47
ag47
ag47
ag47
ag47
ag47
ag47
ag47
ag47
ag47
ag47
ag47
ag47
ag47
ag47
ag47
ag47
ag47
ag47
ag47
ag47
ag47
ag47
ag47
ag47
ag47
ag47
ag47
ag47
ag47
ag47
ag47
ag47
ag47
ag47
ag47
ag47
ag47
ag47
ag47
ag47
ag47
ag47
ag47
ag47
ag47
ag5
(g9
S' E\xa8\x13x\x99\rA'
p48
tp49
Rp50
ag50
ag50
ag50
ag50
ag50
ag50
ag50
ag50
ag50
ag50
ag50
ag50
ag50
ag50
ag50
ag50
ag50
ag50
ag50
ag50
ag50
ag50
ag50
ag50
ag50
ag50
ag50
ag50
ag50
ag50
ag50
ag50
ag50
ag50
ag50
ag50
ag50
ag50
ag50
ag50
ag50
ag50
ag50
ag50
ag50
ag50
ag50
ag50
ag50
ag50
ag50
ag50
ag50
ag50
ag50
ag50
ag50
ag50
ag50
ag50
ag50
ag50
ag50
ag50
ag50
ag50
ag50
ag50
ag50
ag50
ag50
ag50
ag50
ag50
ag50
ag50
ag50
ag50
ag50
ag50
ag50
ag50
ag50
ag50
ag50
ag50
ag50
ag50
ag50
ag50
ag50
ag50
ag50
ag50
ag50
ag50
ag50
ag50
ag50
ag50
ag50
ag50
ag50
ag50
ag50
ag50
ag50
ag50
ag50
ag50
ag50
ag50
ag50
ag50
ag50
ag50
ag50
ag50
ag50
ag50
ag50
ag50
ag50
ag50
ag50
ag50
ag50
ag50
ag50
ag50
ag50
ag50
ag50
ag50
ag50
ag50
ag50
ag50
ag50
ag50
ag50
ag50
ag50
ag50
ag50
ag50
ag50
ag50
ag50
ag50
ag50
ag50
ag50
ag50
ag50
ag50
ag50
ag50
ag50
ag50
ag50
ag50
ag50
ag50
ag50
ag50
ag50
ag50
ag50
ag50
ag50
ag50
ag50
ag50
ag50
ag50
ag50
ag50
ag50
ag50
ag50
ag5
(g9
S"\x94'\xa1\xc7v\x99\rA"
p51
tp52
Rp53
ag53
ag53
ag53
ag53
ag53
ag53
ag53
ag53
ag53
ag53
ag53
ag53
ag53
ag53
ag53
ag53
ag53
ag53
ag53
ag53
ag53
ag53
ag53
ag53
ag53
ag53
ag53
ag53
ag53
ag53
ag53
ag53
ag53
ag53
ag53
ag53
ag53
ag53
ag53
ag53
ag53
ag53
ag53
ag53
ag53
ag53
ag53
ag53
ag53
ag53
ag53
ag53
ag53
ag53
ag53
ag53
ag53
ag53
ag53
ag53
ag53
ag53
ag53
ag53
ag53
ag53
ag53
ag53
ag53
ag53
ag53
ag53
ag53
ag53
ag53
ag53
ag53
ag53
ag53
ag53
ag53
ag53
ag53
ag53
ag53
ag53
ag53
ag5
(g9
S'6\xaa\x0c\x15m\x99\rA'
p54
tp55
Rp56
ag56
ag56
ag56
ag56
ag56
ag56
ag56
ag56
ag56
ag56
ag56
ag56
ag56
ag56
ag56
ag56
ag56
ag56
ag56
ag56
ag56
ag56
ag56
ag56
ag56
ag56
ag56
ag56
ag56
ag56
ag56
ag56
ag56
ag56
ag56
ag56
ag56
ag56
ag56
ag56
ag56
ag56
ag56
ag56
ag56
ag56
ag56
ag56
ag56
ag56
ag56
ag56
ag56
ag56
ag56
ag56
ag56
ag56
ag56
ag56
ag56
ag56
ag56
ag56
ag56
ag56
ag56
ag56
ag56
ag56
ag56
ag56
ag56
ag56
ag56
ag56
ag56
ag56
ag56
ag56
ag56
ag56
ag56
ag56
asS'best_P'
p57
(lp58
(itree
PTree
p59
(dp60
S'root'
p61
ccopy_reg
_reconstructor
p62
(ctree
Feature
p63
c__builtin__
object
p64
Ntp65
Rp66
(dp67
S'index'
p68
I1
sS'name'
p69
S'Day'
p70
sS'l'
p71
g62
(g63
g64
Ntp72
Rp73
(dp74
g68
I0
sg69
S'Storage'
p75
sg71
g62
(ctree
Action
p76
g64
Ntp77
Rp78
(dp79
S'r'
p80
NsS'is_feature'
p81
I00
sS'value'
p82
S'Hedge_80'
p83
sg71
Nsbsg80
g62
(g63
g64
Ntp84
Rp85
(dp86
g68
I0
sg69
g75
sg71
g62
(g76
g64
Ntp87
Rp88
(dp89
g80
Nsg81
I00
sg82
S'Flood_Control'
p90
sg71
Nsbsg80
g62
(g76
g64
Ntp91
Rp92
(dp93
g80
Nsg81
I00
sg82
S'Hedge_50'
p94
sg71
NsbsS'threshold'
p95
F745.6371927074961
sg81
I01
sbsg95
F135.4279030721699
sg81
I01
sbsg80
g62
(g76
g64
Ntp96
Rp97
(dp98
g80
Nsg81
I00
sg82
S'Hedge_80'
p99
sg71
Nsbsg95
F362.38887154139405
sg81
I01
sbsS'L'
p100
(lp101
g66
ag73
ag78
ag85
ag88
ag92
ag97
asS'N'
p102
I7
sba(itree
PTree
p103
(dp104
g61
g62
(g63
g64
Ntp105
Rp106
(dp107
g68
I1
sg80
g62
(g63
g64
Ntp108
Rp109
(dp110
g68
I0
sg80
g62
(g76
g64
Ntp111
Rp112
(dp113
g80
Nsg81
I00
sg82
S'Hedge_80'
p114
sg71
Nsbsg69
g75
sg95
F165.9815597596724
sg71
g62
(g76
g64
Ntp115
Rp116
(dp117
g80
Nsg81
I00
sg82
S'Release_Demand'
p118
sg71
Nsbsg81
I01
sbsg69
g70
sg95
F312.08155034025356
sg71
g62
(g63
g64
Ntp119
Rp120
(dp121
g68
I0
sg80
g62
(g76
g64
Ntp122
Rp123
(dp124
g80
Nsg81
I00
sg82
S'Flood_Control'
p125
sg71
Nsbsg69
g75
sg95
F75.37170077622457
sg71
g62
(g76
g64
Ntp126
Rp127
(dp128
g80
Nsg81
I00
sg82
S'Hedge_60'
p129
sg71
Nsbsg81
I01
sbsg81
I01
sbsg100
(lp130
g106
ag120
ag127
ag123
ag109
ag116
ag112
asg102
I7
sba(itree
PTree
p131
(dp132
g61
g62
(g63
g64
Ntp133
Rp134
(dp135
g68
I1
sg80
g62
(g63
g64
Ntp136
Rp137
(dp138
g68
I0
sg80
g62
(g76
g64
Ntp139
Rp140
(dp141
g80
Nsg81
I00
sg82
S'Release_Demand'
p142
sg71
Nsbsg69
g75
sg95
F153.1011979526429
sg71
g62
(g76
g64
Ntp143
Rp144
(dp145
g80
Nsg81
I00
sg82
S'Hedge_70'
p146
sg71
Nsbsg81
I01
sbsg69
g70
sg95
F315.86541796075693
sg71
g62
(g63
g64
Ntp147
Rp148
(dp149
g68
I0
sg80
g62
(g63
g64
Ntp150
Rp151
(dp152
g68
I0
sg80
g62
(g76
g64
Ntp153
Rp154
(dp155
g80
Nsg81
I00
sg82
S'Flood_Control'
p156
sg71
Nsbsg69
g75
sg95
F18.570673108176006
sg71
g62
(g76
g64
Ntp157
Rp158
(dp159
g80
Nsg81
I00
sg82
S'Hedge_50'
p160
sg71
Nsbsg81
I01
sbsg69
g75
sg95
F70.575842617127
sg71
g62
(g76
g64
Ntp161
Rp162
(dp163
g80
Nsg81
I00
sg82
S'Release_Demand'
p164
sg71
Nsbsg81
I01
sbsg81
I01
sbsg100
(lp165
g134
ag148
ag162
ag151
ag158
ag154
ag137
ag144
ag140
asg102
I9
sba(itree
PTree
p166
(dp167
g61
g62
(g63
g64
Ntp168
Rp169
(dp170
g68
I0
sg80
g62
(g76
g64
Ntp171
Rp172
(dp173
g80
Nsg81
I00
sg82
S'Flood_Control'
p174
sg71
Nsbsg69
g75
sg95
F10.647069057373255
sg71
g62
(g76
g64
Ntp175
Rp176
(dp177
g80
Nsg81
I00
sg82
S'Release_Demand'
p178
sg71
Nsbsg81
I01
sbsg100
(lp179
g169
ag176
ag172
asg102
I3
sba(itree
PTree
p180
(dp181
g61
g62
(g63
g64
Ntp182
Rp183
(dp184
g68
I0
sg80
g62
(g76
g64
Ntp185
Rp186
(dp187
g80
Nsg81
I00
sg82
S'Flood_Control'
p188
sg71
Nsbsg69
g75
sg95
F8.669444899951415
sg71
g62
(g76
g64
Ntp189
Rp190
(dp191
g80
Nsg81
I00
sg82
g178
sg71
Nsbsg81
I01
sbsg100
(lp192
g183
ag190
ag186
asg102
I3
sbag180
ag180
ag180
a(itree
PTree
p193
(dp194
g61
g62
(g63
g64
Ntp195
Rp196
(dp197
g68
I0
sg80
g62
(g76
g64
Ntp198
Rp199
(dp200
g80
Nsg81
I00
sg82
S'Flood_Control'
p201
sg71
Nsbsg69
g75
sg95
F5.222717703040917
sg71
g62
(g76
g64
Ntp202
Rp203
(dp204
g80
Nsg81
I00
sg82
S'Hedge_60'
p205
sg71
Nsbsg81
I01
sbsg100
(lp206
g196
ag203
ag199
asg102
I3
sbag193
a(itree
PTree
p207
(dp208
g61
g62
(g63
g64
Ntp209
Rp210
(dp211
g68
I0
sg80
g62
(g76
g64
Ntp212
Rp213
(dp214
g80
Nsg81
I00
sg82
S'Flood_Control'
p215
sg71
Nsbsg69
g75
sg95
F1.7057720655843474
sg71
g62
(g76
g64
Ntp216
Rp217
(dp218
g80
Nsg81
I00
sg82
S'Hedge_70'
p219
sg71
Nsbsg81
I01
sbsg100
(lp220
g210
ag217
ag213
asg102
I3
sbag207
a(itree
PTree
p221
(dp222
g61
g62
(g63
g64
Ntp223
Rp224
(dp225
g68
I0
sg80
g62
(g76
g64
Ntp226
Rp227
(dp228
g80
Nsg81
I00
sg82
g201
sg71
Nsbsg69
g75
sg95
F1.1958817659778707
sg71
g62
(g76
g64
Ntp229
Rp230
(dp231
g80
Nsg81
I00
sg82
g205
sg71
Nsbsg81
I01
sbsg100
(lp232
g224
ag230
ag227
asg102
I3
sbag221
ag221
ag221
a(itree
PTree
p233
(dp234
g61
g62
(g63
g64
Ntp235
Rp236
(dp237
g68
I0
sg80
g62
(g76
g64
Ntp238
Rp239
(dp240
g80
Nsg81
I00
sg82
S'Flood_Control'
p241
sg71
Nsbsg69
g75
sg95
F0.5305093393866076
sg71
g62
(g76
g64
Ntp242
Rp243
(dp244
g80
Nsg81
I00
sg82
S'Hedge_90'
p245
sg71
Nsbsg81
I01
sbsg100
(lp246
g236
ag243
ag239
asg102
I3
sbag233
ag233
ag233
ag233
ag233
ag233
ag233
ag233
ag233
ag233
ag233
ag233
ag233
ag233
ag233
ag233
ag233
ag233
ag233
ag233
ag233
ag233
ag233
ag233
ag233
ag233
ag233
ag233
ag233
ag233
ag233
ag233
ag233
ag233
ag233
ag233
ag233
a(itree
PTree
p247
(dp248
g61
g62
(g63
g64
Ntp249
Rp250
(dp251
g68
I0
sg80
g62
(g76
g64
Ntp252
Rp253
(dp254
g80
Nsg81
I00
sg82
S'Flood_Control'
p255
sg71
Nsbsg69
g75
sg95
F0.3910922263799471
sg71
g62
(g76
g64
Ntp256
Rp257
(dp258
g80
Nsg81
I00
sg82
S'Hedge_50'
p259
sg71
Nsbsg81
I01
sbsg100
(lp260
g250
ag257
ag253
asg102
I3
sbag247
ag247
ag247
ag247
ag247
a(itree
PTree
p261
(dp262
g61
g62
(g63
g64
Ntp263
Rp264
(dp265
g68
I0
sg80
g62
(g76
g64
Ntp266
Rp267
(dp268
g80
Nsg81
I00
sg82
g255
sg71
Nsbsg69
g75
sg95
F0.2564050792556331
sg71
g62
(g76
g64
Ntp269
Rp270
(dp271
g80
Nsg81
I00
sg82
g259
sg71
Nsbsg81
I01
sbsg100
(lp272
g264
ag270
ag267
asg102
I3
sbag261
ag261
ag261
ag261
ag261
ag261
ag261
ag261
ag261
ag261
ag261
ag261
ag261
ag261
ag261
ag261
ag261
ag261
ag261
ag261
ag261
ag261
ag261
ag261
ag261
ag261
ag261
ag261
a(itree
PTree
p273
(dp274
g61
g62
(g63
g64
Ntp275
Rp276
(dp277
g68
I0
sg80
g62
(g76
g64
Ntp278
Rp279
(dp280
g80
Nsg81
I00
sg82
S'Flood_Control'
p281
sg71
Nsbsg69
g75
sg95
F0.06925590608426019
sg71
g62
(g76
g64
Ntp282
Rp283
(dp284
g80
Nsg81
I00
sg82
S'Hedge_50'
p285
sg71
Nsbsg81
I01
sbsg100
(lp286
g276
ag283
ag279
asg102
I3
sbag273
ag273
ag273
ag273
ag273
ag273
ag273
ag273
ag273
ag273
ag273
ag273
ag273
ag273
ag273
ag273
ag273
ag273
ag273
ag273
ag273
ag273
ag273
ag273
ag273
ag273
ag273
ag273
ag273
ag273
ag273
ag273
ag273
ag273
ag273
ag273
ag273
ag273
ag273
ag273
ag273
ag273
ag273
ag273
ag273
ag273
ag273
ag273
ag273
ag273
ag273
ag273
ag273
ag273
ag273
a(itree
PTree
p287
(dp288
g61
g62
(g63
g64
Ntp289
Rp290
(dp291
g68
I0
sg80
g62
(g76
g64
Ntp292
Rp293
(dp294
g80
Nsg81
I00
sg82
S'Flood_Control'
p295
sg71
Nsbsg69
g75
sg95
F0.017210633003552828
sg71
g62
(g76
g64
Ntp296
Rp297
(dp298
g80
Nsg81
I00
sg82
S'Hedge_80'
p299
sg71
Nsbsg81
I01
sbsg100
(lp300
g290
ag297
ag293
asg102
I3
sbag287
ag287
ag287
ag287
ag287
ag287
ag287
ag287
ag287
ag287
ag287
ag287
ag287
ag287
ag287
ag287
ag287
ag287
ag287
ag287
ag287
ag287
ag287
ag287
ag287
ag287
ag287
ag287
ag287
ag287
ag287
ag287
ag287
ag287
ag287
ag287
ag287
ag287
ag287
ag287
ag287
ag287
ag287
ag287
ag287
ag287
ag287
ag287
ag287
ag287
ag287
ag287
ag287
ag287
ag287
ag287
ag287
ag287
ag287
ag287
ag287
ag287
ag287
ag287
ag287
ag287
ag287
ag287
ag287
ag287
ag287
ag287
ag287
ag287
ag287
ag287
ag287
ag287
ag287
ag287
ag287
ag287
ag287
ag287
ag287
ag287
ag287
ag287
ag287
ag287
ag287
ag287
ag287
ag287
ag287
ag287
ag287
ag287
ag287
ag287
ag287
ag287
ag287
ag287
ag287
ag287
ag287
ag287
ag287
ag287
ag287
ag287
ag287
ag287
ag287
ag287
ag287
ag287
ag287
ag287
ag287
ag287
ag287
ag287
ag287
ag287
ag287
ag287
ag287
ag287
ag287
ag287
ag287
ag287
ag287
ag287
ag287
ag287
ag287
ag287
ag287
ag287
ag287
ag287
ag287
ag287
ag287
ag287
ag287
ag287
ag287
ag287
ag287
ag287
ag287
ag287
ag287
ag287
ag287
ag287
ag287
ag287
ag287
ag287
ag287
ag287
ag287
ag287
ag287
ag287
ag287
ag287
ag287
ag287
ag287
ag287
ag287
ag287
ag287
ag287
ag287
a(itree
PTree
p301
(dp302
g61
g62
(g63
g64
Ntp303
Rp304
(dp305
g68
I0
sg80
g62
(g76
g64
Ntp306
Rp307
(dp308
g80
Nsg81
I00
sg82
S'Flood_Control'
p309
sg71
Nsbsg69
g75
sg95
F0.016788785857928153
sg71
g62
(g76
g64
Ntp310
Rp311
(dp312
g80
Nsg81
I00
sg82
S'Flood_Control'
p313
sg71
Nsbsg81
I01
sbsg100
(lp314
g304
ag311
ag307
asg102
I3
sbag301
ag301
ag301
ag301
ag301
ag301
ag301
ag301
ag301
ag301
ag301
ag301
ag301
ag301
ag301
ag301
ag301
ag301
ag301
ag301
ag301
ag301
ag301
ag301
ag301
ag301
ag301
ag301
ag301
ag301
ag301
ag301
ag301
ag301
ag301
ag301
ag301
ag301
ag301
ag301
ag301
ag301
ag301
ag301
ag301
ag301
ag301
ag301
ag301
ag301
ag301
ag301
ag301
ag301
ag301
ag301
ag301
ag301
ag301
ag301
ag301
ag301
ag301
ag301
ag301
ag301
ag301
ag301
ag301
ag301
ag301
ag301
ag301
ag301
ag301
ag301
ag301
ag301
ag301
ag301
ag301
ag301
ag301
ag301
ag301
ag301
ag301
a(itree
PTree
p315
(dp316
g61
g62
(g63
g64
Ntp317
Rp318
(dp319
g68
I0
sg80
g62
(g76
g64
Ntp320
Rp321
(dp322
g80
Nsg81
I00
sg82
S'Flood_Control'
p323
sg71
Nsbsg69
g75
sg95
F0.01363462429858801
sg71
g62
(g76
g64
Ntp324
Rp325
(dp326
g80
Nsg81
I00
sg82
S'Hedge_80'
p327
sg71
Nsbsg81
I01
sbsg100
(lp328
g318
ag325
ag321
asg102
I3
sbag315
ag315
ag315
ag315
ag315
ag315
ag315
ag315
ag315
ag315
ag315
ag315
ag315
ag315
ag315
ag315
ag315
ag315
ag315
ag315
ag315
ag315
ag315
ag315
ag315
ag315
ag315
ag315
ag315
ag315
ag315
ag315
ag315
ag315
ag315
ag315
ag315
ag315
ag315
ag315
ag315
ag315
ag315
ag315
ag315
ag315
ag315
ag315
ag315
ag315
ag315
ag315
ag315
ag315
ag315
ag315
ag315
ag315
ag315
ag315
ag315
ag315
ag315
ag315
ag315
ag315
ag315
ag315
ag315
ag315
ag315
ag315
ag315
ag315
ag315
ag315
ag315
ag315
ag315
ag315
ag315
ag315
ag315
ag315
asS'time'
p329
(lp330
I169
aI252
aI336
aI417
aI500
aI581
aI665
aI748
aI831
aI913
aI995
aI1077
aI1159
aI1240
aI1321
aI1400
aI1480
aI1559
aI1640
aI1720
aI1800
aI1879
aI1959
aI2039
aI2118
aI2198
aI2278
aI2358
aI2440
aI2522
aI2603
aI2685
aI2767
aI2848
aI2931
aI3013
aI3095
aI3177
aI3258
aI3339
aI3420
aI3502
aI3583
aI3664
aI3744
aI3824
aI3904
aI3984
aI4065
aI4145
aI4223
aI4303
aI4384
aI4464
aI4544
aI4624
aI4704
aI4784
aI4863
aI4944
aI5025
aI5106
aI5186
aI5267
aI5348
aI5427
aI5508
aI5588
aI5669
aI5748
aI5829
aI5909
aI5989
aI6069
aI6150
aI6230
aI6309
aI6390
aI6471
aI6551
aI6631
aI6711
aI6791
aI6871
aI6952
aI7033
aI7114
aI7194
aI7274
aI7355
aI7436
aI7516
aI7597
aI7677
aI7757
aI7838
aI7918
aI7999
aI8080
aI8160
aI8241
aI8320
aI8401
aI8482
aI8562
aI8643
aI8723
aI8803
aI8882
aI8962
aI9042
aI9123
aI9204
aI9285
aI9365
aI9445
aI9524
aI9604
aI9684
aI9763
aI9844
aI9924
aI10004
aI10084
aI10164
aI10243
aI10324
aI10404
aI10484
aI10564
aI10644
aI10724
aI10803
aI10884
aI10965
aI11045
aI11125
aI11206
aI11287
aI11368
aI11448
aI11529
aI11609
aI11689
aI11770
aI11850
aI11931
aI12011
aI12091
aI12172
aI12253
aI12333
aI12413
aI12494
aI12574
aI12654
aI12734
aI12815
aI12896
aI12977
aI13057
aI13138
aI13218
aI13299
aI13379
aI13459
aI13540
aI13620
aI13701
aI13782
aI13862
aI13942
aI14022
aI14103
aI14183
aI14261
aI14341
aI14421
aI14501
aI14581
aI14661
aI14741
aI14821
aI14901
aI14981
aI15061
aI15141
aI15223
aI15303
aI15383
aI15463
aI15543
aI15624
aI15705
aI15785
aI15865
aI15945
aI16025
aI16105
aI16184
aI16265
aI16345
aI16425
aI16506
aI16586
aI16666
aI16747
aI16827
aI16907
aI16988
aI17069
aI17149
aI17230
aI17313
aI17395
aI17478
aI17560
aI17643
aI17725
aI17807
aI17889
aI17971
aI18053
aI18135
aI18216
aI18297
aI18380
aI18463
aI18545
aI18626
aI18708
aI18790
aI18872
aI18956
aI19037
aI19118
aI19200
aI19282
aI19363
aI19445
aI19528
aI19609
aI19691
aI19773
aI19854
aI19936
aI20018
aI20100
aI20182
aI20263
aI20344
aI20426
aI20508
aI20588
aI20668
aI20749
aI20829
aI20909
aI20989
aI21070
aI21151
aI21232
aI21312
aI21392
aI21473
aI21552
aI21632
aI21714
aI21794
aI21874
aI21955
aI22036
aI22117
aI22197
aI22278
aI22357
aI22438
aI22519
aI22599
aI22679
aI22760
aI22840
aI22920
aI23000
aI23081
aI23161
aI23242
aI23323
aI23402
aI23483
aI23562
aI23642
aI23721
aI23801
aI23881
aI23962
aI24041
aI24122
aI24203
aI24283
aI24363
aI24445
aI24524
aI24604
aI24684
aI24764
aI24845
aI24925
aI25007
aI25087
aI25167
aI25248
aI25330
aI25409
aI25491
aI25571
aI25652
aI25732
aI25812
aI25891
aI25971
aI26051
aI26130
aI26211
aI26291
aI26372
aI26453
aI26533
aI26614
aI26694
aI26775
aI26856
aI26936
aI27016
aI27096
aI27176
aI27257
aI27336
aI27416
aI27497
aI27577
aI27657
aI27737
aI27818
aI27898
aI27980
aI28062
aI28143
aI28224
aI28305
aI28384
aI28465
aI28545
aI28625
aI28706
aI28787
aI28868
aI28948
aI29028
aI29109
aI29189
aI29269
aI29349
aI29430
aI29510
aI29590
aI29670
aI29750
aI29831
aI29912
aI29992
aI30073
aI30154
aI30236
aI30315
aI30396
aI30477
aI30557
aI30639
aI30719
aI30800
aI30880
aI30960
aI31041
aI31121
aI31200
aI31280
aI31360
aI31440
aI31519
aI31600
aI31680
aI31760
aI31839
aI31919
aI32000
aI32081
aI32161
aI32241
aI32321
aI32402
aI32482
aI32561
aI32641
aI32722
aI32804
aI32884
aI32963
aI33043
aI33122
aI33203
aI33283
aI33363
aI33442
aI33523
aI33603
aI33682
aI33763
aI33843
aI33923
aI34003
aI34083
aI34164
aI34243
aI34325
aI34405
aI34485
aI34565
aI34645
aI34725
aI34805
aI34886
aI34966
aI35047
aI35126
aI35207
aI35287
aI35367
aI35448
aI35527
aI35608
aI35689
aI35769
aI35849
aI35929
aI36008
aI36089
aI36170
aI36249
aI36329
aI36409
aI36490
aI36570
aI36649
aI36729
aI36809
aI36890
aI36970
aI37051
aI37131
aI37211
aI37290
aI37366
aI37448
aI37531
aI37613
aI37695
aI37778
aI37860
aI37943
aI38024
aI38107
aI38189
aI38271
aI38352
aI38428
aI38504
aI38579
aI38654
aI38728
aI38801
aI38871
aI38944
aI39010
aI39078
aI39145
aI39211
aI39275
aI39338
aI39398
aI39459
aI39519
aI39582
aI39646
aI39708
aI39770
aI39834
aI39895
aI39955
aI40014
as.