(dp0
S'nfe'
p1
(lp2
I50
aI100
aI150
aI200
aI250
aI300
aI350
aI400
aI450
aI500
aI550
aI600
aI650
aI700
aI750
aI800
aI850
aI900
aI950
aI1000
aI1050
aI1100
aI1150
aI1200
aI1250
aI1300
aI1350
aI1400
aI1450
aI1500
aI1550
aI1600
aI1650
aI1700
aI1750
aI1800
aI1850
aI1900
aI1950
aI2000
aI2050
aI2100
aI2150
aI2200
aI2250
aI2300
aI2350
aI2400
aI2450
aI2500
aI2550
aI2600
aI2650
aI2700
aI2750
aI2800
aI2850
aI2900
aI2950
aI3000
aI3050
aI3100
aI3150
aI3200
aI3250
aI3300
aI3350
aI3400
aI3450
aI3500
aI3550
aI3600
aI3650
aI3700
aI3750
aI3800
aI3850
aI3900
aI3950
aI4000
aI4050
aI4100
aI4150
aI4200
aI4250
aI4300
aI4350
aI4400
aI4450
aI4500
aI4550
aI4600
aI4650
aI4700
aI4750
aI4800
aI4850
aI4900
aI4950
aI5000
aI5050
aI5100
aI5150
aI5200
aI5250
aI5300
aI5350
aI5400
aI5450
aI5500
aI5550
aI5600
aI5650
aI5700
aI5750
aI5800
aI5850
aI5900
aI5950
aI6000
aI6050
aI6100
aI6150
aI6200
aI6250
aI6300
aI6350
aI6400
aI6450
aI6500
aI6550
aI6600
aI6650
aI6700
aI6750
aI6800
aI6850
aI6900
aI6950
aI7000
aI7050
aI7100
aI7150
aI7200
aI7250
aI7300
aI7350
aI7400
aI7450
aI7500
aI7550
aI7600
aI7650
aI7700
aI7750
aI7800
aI7850
aI7900
aI7950
aI8000
aI8050
aI8100
aI8150
aI8200
aI8250
aI8300
aI8350
aI8400
aI8450
aI8500
aI8550
aI8600
aI8650
aI8700
aI8750
aI8800
aI8850
aI8900
aI8950
aI9000
aI9050
aI9100
aI9150
aI9200
aI9250
aI9300
aI9350
aI9400
aI9450
aI9500
aI9550
aI9600
aI9650
aI9700
aI9750
aI9800
aI9850
aI9900
aI9950
aI10000
aI10050
aI10100
aI10150
aI10200
aI10250
aI10300
aI10350
aI10400
aI10450
aI10500
aI10550
aI10600
aI10650
aI10700
aI10750
aI10800
aI10850
aI10900
aI10950
aI11000
aI11050
aI11100
aI11150
aI11200
aI11250
aI11300
aI11350
aI11400
aI11450
aI11500
aI11550
aI11600
aI11650
aI11700
aI11750
aI11800
aI11850
aI11900
aI11950
aI12000
aI12050
aI12100
aI12150
aI12200
aI12250
aI12300
aI12350
aI12400
aI12450
aI12500
aI12550
aI12600
aI12650
aI12700
aI12750
aI12800
aI12850
aI12900
aI12950
aI13000
aI13050
aI13100
aI13150
aI13200
aI13250
aI13300
aI13350
aI13400
aI13450
aI13500
aI13550
aI13600
aI13650
aI13700
aI13750
aI13800
aI13850
aI13900
aI13950
aI14000
aI14050
aI14100
aI14150
aI14200
aI14250
aI14300
aI14350
aI14400
aI14450
aI14500
aI14550
aI14600
aI14650
aI14700
aI14750
aI14800
aI14850
aI14900
aI14950
aI15000
aI15050
aI15100
aI15150
aI15200
aI15250
aI15300
aI15350
aI15400
aI15450
aI15500
aI15550
aI15600
aI15650
aI15700
aI15750
aI15800
aI15850
aI15900
aI15950
aI16000
aI16050
aI16100
aI16150
aI16200
aI16250
aI16300
aI16350
aI16400
aI16450
aI16500
aI16550
aI16600
aI16650
aI16700
aI16750
aI16800
aI16850
aI16900
aI16950
aI17000
aI17050
aI17100
aI17150
aI17200
aI17250
aI17300
aI17350
aI17400
aI17450
aI17500
aI17550
aI17600
aI17650
aI17700
aI17750
aI17800
aI17850
aI17900
aI17950
aI18000
aI18050
aI18100
aI18150
aI18200
aI18250
aI18300
aI18350
aI18400
aI18450
aI18500
aI18550
aI18600
aI18650
aI18700
aI18750
aI18800
aI18850
aI18900
aI18950
aI19000
aI19050
aI19100
aI19150
aI19200
aI19250
aI19300
aI19350
aI19400
aI19450
aI19500
aI19550
aI19600
aI19650
aI19700
aI19750
aI19800
aI19850
aI19900
aI19950
aI20000
aI20050
aI20100
aI20150
aI20200
aI20250
aI20300
aI20350
aI20400
aI20450
aI20500
aI20550
aI20600
aI20650
aI20700
aI20750
aI20800
aI20850
aI20900
aI20950
aI21000
aI21050
aI21100
aI21150
aI21200
aI21250
aI21300
aI21350
aI21400
aI21450
aI21500
aI21550
aI21600
aI21650
aI21700
aI21750
aI21800
aI21850
aI21900
aI21950
aI22000
aI22050
aI22100
aI22150
aI22200
aI22250
aI22300
aI22350
aI22400
aI22450
aI22500
aI22550
aI22600
aI22650
aI22700
aI22750
aI22800
aI22850
aI22900
aI22950
aI23000
aI23050
aI23100
aI23150
aI23200
aI23250
aI23300
aI23350
aI23400
aI23450
aI23500
aI23550
aI23600
aI23650
aI23700
aI23750
aI23800
aI23850
aI23900
aI23950
aI24000
aI24050
aI24100
aI24150
aI24200
aI24250
aI24300
aI24350
aI24400
aI24450
aI24500
aI24550
aI24600
aI24650
aI24700
aI24750
aI24800
aI24850
aI24900
aI24950
aI25000
asS'best_f'
p3
(lp4
cnumpy.core.multiarray
scalar
p5
(cnumpy
dtype
p6
(S'f8'
p7
I0
I1
tp8
Rp9
(I3
S'<'
p10
NNNI-1
I-1
I0
tp11
bS'(\xaaU\xc3\xb1\x8b\xd9?'
p12
tp13
Rp14
ag5
(g9
S'\xa4o\xa3\xcez;\xd9?'
p15
tp16
Rp17
ag17
ag5
(g9
S'}\xe0\x9c0\x1e\x13\xd4?'
p18
tp19
Rp20
ag20
ag20
ag20
ag5
(g9
S'\xed\xb76\xd2\x7f\xd3\xd2?'
p21
tp22
Rp23
ag5
(g9
S'\xceu\xcd\xe9\xa1\xa1\xd1?'
p24
tp25
Rp26
ag5
(g9
S'\x10?\xdd\x1c\xaf\x9a\xd1?'
p27
tp28
Rp29
ag5
(g9
S'\x8b\xc6\x16%\xb6\x84\xd1?'
p30
tp31
Rp32
ag5
(g9
S'\x03\x96\xa5Hn\x7f\xd1?'
p33
tp34
Rp35
ag35
ag35
ag5
(g9
S'\xa3\x90\x12\x08\xe4]\xd1?'
p36
tp37
Rp38
ag38
ag38
ag38
ag5
(g9
S'\xe7`}\x8b\xceR\xd1?'
p39
tp40
Rp41
ag41
ag41
ag41
ag41
ag41
ag41
ag41
ag41
ag41
ag41
ag5
(g9
S'\xde<\xcfQ\xadI\xd1?'
p42
tp43
Rp44
ag44
ag44
ag44
ag44
ag44
ag44
ag44
ag44
ag44
ag44
ag44
ag44
ag44
ag44
ag44
ag44
ag44
ag44
ag44
ag5
(g9
S'\x99\x10;\x91\xd2G\xd1?'
p45
tp46
Rp47
ag47
ag47
ag47
ag47
ag47
ag47
ag47
ag47
ag47
ag47
ag47
ag47
ag47
ag47
ag47
ag47
ag47
ag47
ag47
ag47
ag47
ag47
ag47
ag47
ag47
ag47
ag47
ag47
ag47
ag47
ag47
ag47
ag47
ag47
ag47
ag47
ag47
ag47
ag47
ag47
ag47
ag47
ag47
ag47
ag47
ag47
ag47
ag47
ag47
ag47
ag47
ag47
ag47
ag47
ag47
ag47
ag47
ag47
ag47
ag47
ag47
ag47
ag47
ag47
ag47
ag47
ag47
ag47
ag47
ag47
ag47
ag47
ag47
ag47
ag47
ag47
ag47
ag47
ag47
ag47
ag47
ag47
ag47
ag47
ag47
ag47
ag47
ag47
ag47
ag47
ag47
ag47
ag47
ag47
ag47
ag47
ag47
ag47
ag47
ag47
ag47
ag47
ag47
ag47
ag47
ag47
ag47
ag47
ag47
ag47
ag47
ag47
ag47
ag47
ag47
ag47
ag47
ag47
ag47
ag47
ag47
ag47
ag47
ag47
ag47
ag47
ag47
ag47
ag47
ag47
ag47
ag47
ag47
ag47
ag47
ag47
ag47
ag47
ag47
ag47
ag47
ag47
ag47
ag47
ag47
ag47
ag47
ag47
ag47
ag47
ag47
ag47
ag47
ag47
ag47
ag47
ag47
ag47
ag47
ag47
ag47
ag47
ag47
ag47
ag47
ag47
ag47
ag47
ag47
ag47
ag47
ag47
ag47
ag47
ag47
ag47
ag47
ag47
ag47
ag47
ag47
ag47
ag47
ag47
ag47
ag47
ag47
ag47
ag47
ag47
ag47
ag47
ag47
ag47
ag47
ag47
ag47
ag47
ag47
ag47
ag47
ag47
ag47
ag47
ag47
ag47
ag47
ag47
ag47
ag47
ag47
ag47
ag47
ag47
ag47
ag47
ag47
ag47
ag47
ag47
ag47
ag47
ag47
ag47
ag47
ag47
ag47
ag47
ag47
ag47
ag47
ag47
ag47
ag47
ag47
ag47
ag47
ag47
ag47
ag47
ag47
ag47
ag47
ag47
ag47
ag47
ag47
ag47
ag47
ag47
ag47
ag47
ag47
ag47
ag47
ag47
ag47
ag47
ag47
ag47
ag47
ag47
ag47
ag47
ag47
ag47
ag47
ag47
ag47
ag47
ag47
ag47
ag47
ag47
ag47
ag47
ag47
ag47
ag47
ag47
ag47
ag47
ag47
ag47
ag47
ag47
ag47
ag47
ag47
ag47
ag47
ag47
ag47
ag47
ag47
ag47
ag47
ag47
ag47
ag47
ag47
ag47
ag47
ag47
ag47
ag47
ag47
ag47
ag47
ag47
ag47
ag47
ag47
ag47
ag47
ag47
ag47
ag47
ag47
ag47
ag47
ag47
ag47
ag47
ag47
ag47
ag47
ag47
ag47
ag47
ag47
ag47
ag47
ag47
ag47
ag47
ag47
ag47
ag47
ag47
ag47
ag47
ag47
ag47
ag47
ag47
ag47
ag47
ag47
ag47
ag47
ag47
ag47
ag47
ag47
ag47
ag47
ag47
ag47
ag47
ag47
ag47
ag47
ag47
ag47
ag47
ag47
ag47
ag47
ag47
ag47
ag47
ag47
ag47
ag47
ag47
ag47
ag47
ag47
ag47
ag47
ag47
ag47
ag47
ag47
ag47
ag47
ag47
ag47
ag47
ag47
ag47
ag47
ag47
ag47
ag47
ag47
ag47
ag47
ag47
ag47
ag47
ag47
ag47
ag47
ag47
ag47
ag47
ag47
ag47
ag47
ag47
ag47
ag47
ag47
ag47
ag47
ag47
ag47
ag47
ag47
ag47
ag47
ag47
ag47
ag47
ag47
ag47
ag47
ag47
ag47
ag47
ag47
ag47
ag47
ag47
ag47
ag47
ag47
ag47
ag47
ag47
ag47
ag47
ag47
ag47
ag47
ag47
ag47
ag47
asS'best_P'
p48
(lp49
(itree
PTree
p50
(dp51
S'root'
p52
ccopy_reg
_reconstructor
p53
(ctree
Feature
p54
c__builtin__
object
p55
Ntp56
Rp57
(dp58
S'index'
p59
I1
sS'name'
p60
S'Day'
p61
sS'l'
p62
g53
(ctree
Action
p63
g55
Ntp64
Rp65
(dp66
S'r'
p67
NsS'is_feature'
p68
I00
sS'value'
p69
S'Hedge_70'
p70
sg62
Nsbsg67
g53
(g63
g55
Ntp71
Rp72
(dp73
g67
Nsg68
I00
sg69
S'Hedge_90'
p74
sg62
NsbsS'threshold'
p75
F197.90101496612024
sg68
I01
sbsS'L'
p76
(lp77
g57
ag65
ag72
asS'N'
p78
I3
sba(itree
PTree
p79
(dp80
g52
g53
(g54
g55
Ntp81
Rp82
(dp83
g59
I1
sg67
g53
(g63
g55
Ntp84
Rp85
(dp86
g67
Nsg68
I00
sg69
S'Hedge_90'
p87
sg62
Nsbsg60
g61
sg75
F233.42924159471016
sg62
g53
(g63
g55
Ntp88
Rp89
(dp90
g67
Nsg68
I00
sg69
S'Hedge_80'
p91
sg62
Nsbsg68
I01
sbsg76
(lp92
g82
ag89
ag85
asg78
I3
sbag79
a(itree
PTree
p93
(dp94
g52
g53
(g54
g55
Ntp95
Rp96
(dp97
g59
I0
sg67
g53
(g63
g55
Ntp98
Rp99
(dp100
g67
Nsg68
I00
sg69
S'Hedge_90'
p101
sg62
Nsbsg60
S'Storage'
p102
sg75
F551.1367588564182
sg62
g53
(g63
g55
Ntp103
Rp104
(dp105
g67
Nsg68
I00
sg69
S'Hedge_80'
p106
sg62
Nsbsg68
I01
sbsg76
(lp107
g96
ag104
ag99
asg78
I3
sbag93
ag93
ag93
a(itree
PTree
p108
(dp109
g52
g53
(g54
g55
Ntp110
Rp111
(dp112
g59
I0
sg67
g53
(g63
g55
Ntp113
Rp114
(dp115
g67
Nsg68
I00
sg69
S'Release_Demand'
p116
sg62
Nsbsg60
g102
sg75
F651.104408573097
sg62
g53
(g63
g55
Ntp117
Rp118
(dp119
g67
Nsg68
I00
sg69
S'Hedge_80'
p120
sg62
Nsbsg68
I01
sbsg76
(lp121
g111
ag118
ag114
asg78
I3
sba(itree
PTree
p122
(dp123
g52
g53
(g54
g55
Ntp124
Rp125
(dp126
g59
I0
sg67
g53
(g63
g55
Ntp127
Rp128
(dp129
g67
Nsg68
I00
sg69
S'Release_Demand'
p130
sg62
Nsbsg60
g102
sg75
F378.16388023716695
sg62
g53
(g63
g55
Ntp131
Rp132
(dp133
g67
Nsg68
I00
sg69
S'Hedge_70'
p134
sg62
Nsbsg68
I01
sbsg76
(lp135
g125
ag132
ag128
asg78
I3
sba(itree
PTree
p136
(dp137
g52
g53
(g54
g55
Ntp138
Rp139
(dp140
g59
I0
sg67
g53
(g63
g55
Ntp141
Rp142
(dp143
g67
Nsg68
I00
sg69
g130
sg62
Nsbsg60
g102
sg75
F368.71870983944785
sg62
g53
(g63
g55
Ntp144
Rp145
(dp146
g67
Nsg68
I00
sg69
S'Hedge_70'
p147
sg62
Nsbsg68
I01
sbsg76
(lp148
g139
ag145
ag142
asg78
I3
sba(itree
PTree
p149
(dp150
g52
g53
(g54
g55
Ntp151
Rp152
(dp153
g59
I0
sg67
g53
(g63
g55
Ntp154
Rp155
(dp156
g67
Nsg68
I00
sg69
S'Release_Demand'
p157
sg62
Nsbsg60
g102
sg75
F493.0341591655147
sg62
g53
(g63
g55
Ntp158
Rp159
(dp160
g67
Nsg68
I00
sg69
S'Hedge_80'
p161
sg62
Nsbsg68
I01
sbsg76
(lp162
g152
ag159
ag155
asg78
I3
sba(itree
PTree
p163
(dp164
g52
g53
(g54
g55
Ntp165
Rp166
(dp167
g59
I0
sg67
g53
(g63
g55
Ntp168
Rp169
(dp170
g67
Nsg68
I00
sg69
g116
sg62
Nsbsg60
g102
sg75
F590.8015374282537
sg62
g53
(g63
g55
Ntp171
Rp172
(dp173
g67
Nsg68
I00
sg69
g120
sg62
Nsbsg68
I01
sbsg76
(lp174
g166
ag172
ag169
asg78
I3
sbag163
ag163
a(itree
PTree
p175
(dp176
g52
g53
(g54
g55
Ntp177
Rp178
(dp179
g59
I0
sg67
g53
(g63
g55
Ntp180
Rp181
(dp182
g67
Nsg68
I00
sg69
g157
sg62
Nsbsg60
g102
sg75
F579.7236203858994
sg62
g53
(g63
g55
Ntp183
Rp184
(dp185
g67
Nsg68
I00
sg69
g161
sg62
Nsbsg68
I01
sbsg76
(lp186
g178
ag184
ag181
asg78
I3
sbag175
ag175
ag175
a(itree
PTree
p187
(dp188
g52
g53
(g54
g55
Ntp189
Rp190
(dp191
g59
I0
sg67
g53
(g63
g55
Ntp192
Rp193
(dp194
g67
Nsg68
I00
sg69
S'Release_Demand'
p195
sg62
Nsbsg60
g102
sg75
F518.8503300708644
sg62
g53
(g63
g55
Ntp196
Rp197
(dp198
g67
Nsg68
I00
sg69
S'Hedge_80'
p199
sg62
Nsbsg68
I01
sbsg76
(lp200
g190
ag197
ag193
asg78
I3
sbag187
ag187
ag187
ag187
ag187
ag187
ag187
ag187
ag187
ag187
a(itree
PTree
p201
(dp202
g52
g53
(g54
g55
Ntp203
Rp204
(dp205
g59
I0
sg67
g53
(g63
g55
Ntp206
Rp207
(dp208
g67
Nsg68
I00
sg69
S'Release_Demand'
p209
sg62
Nsbsg60
g102
sg75
F516.5810279736606
sg62
g53
(g63
g55
Ntp210
Rp211
(dp212
g67
Nsg68
I00
sg69
S'Hedge_80'
p213
sg62
Nsbsg68
I01
sbsg76
(lp214
g204
ag211
ag207
asg78
I3
sbag201
ag201
ag201
ag201
ag201
ag201
ag201
ag201
ag201
ag201
ag201
ag201
ag201
ag201
ag201
ag201
ag201
ag201
ag201
a(itree
PTree
p215
(dp216
g52
g53
(g54
g55
Ntp217
Rp218
(dp219
g59
I0
sg67
g53
(g63
g55
Ntp220
Rp221
(dp222
g67
Nsg68
I00
sg69
g116
sg62
Nsbsg60
g102
sg75
F516.2213378912334
sg62
g53
(g63
g55
Ntp223
Rp224
(dp225
g67
Nsg68
I00
sg69
g120
sg62
Nsbsg68
I01
sbsg76
(lp226
g218
ag224
ag221
asg78
I3
sbag215
ag215
ag215
ag215
ag215
ag215
ag215
ag215
ag215
ag215
ag215
ag215
ag215
ag215
ag215
ag215
ag215
ag215
ag215
ag215
ag215
ag215
ag215
ag215
ag215
ag215
ag215
ag215
ag215
ag215
ag215
ag215
ag215
ag215
ag215
ag215
ag215
ag215
ag215
ag215
ag215
ag215
ag215
ag215
ag215
ag215
ag215
ag215
ag215
ag215
ag215
ag215
ag215
ag215
ag215
ag215
ag215
ag215
ag215
ag215
ag215
ag215
ag215
ag215
ag215
ag215
ag215
ag215
ag215
ag215
ag215
ag215
ag215
ag215
ag215
ag215
ag215
ag215
ag215
ag215
ag215
ag215
ag215
ag215
ag215
ag215
ag215
ag215
ag215
ag215
ag215
ag215
ag215
ag215
ag215
ag215
ag215
ag215
ag215
ag215
ag215
ag215
ag215
ag215
ag215
ag215
ag215
ag215
ag215
ag215
ag215
ag215
ag215
ag215
ag215
ag215
ag215
ag215
ag215
ag215
ag215
ag215
ag215
ag215
ag215
ag215
ag215
ag215
ag215
ag215
ag215
ag215
ag215
ag215
ag215
ag215
ag215
ag215
ag215
ag215
ag215
ag215
ag215
ag215
ag215
ag215
ag215
ag215
ag215
ag215
ag215
ag215
ag215
ag215
ag215
ag215
ag215
ag215
ag215
ag215
ag215
ag215
ag215
ag215
ag215
ag215
ag215
ag215
ag215
ag215
ag215
ag215
ag215
ag215
ag215
ag215
ag215
ag215
ag215
ag215
ag215
ag215
ag215
ag215
ag215
ag215
ag215
ag215
ag215
ag215
ag215
ag215
ag215
ag215
ag215
ag215
ag215
ag215
ag215
ag215
ag215
ag215
ag215
ag215
ag215
ag215
ag215
ag215
ag215
ag215
ag215
ag215
ag215
ag215
ag215
ag215
ag215
ag215
ag215
ag215
ag215
ag215
ag215
ag215
ag215
ag215
ag215
ag215
ag215
ag215
ag215
ag215
ag215
ag215
ag215
ag215
ag215
ag215
ag215
ag215
ag215
ag215
ag215
ag215
ag215
ag215
ag215
ag215
ag215
ag215
ag215
ag215
ag215
ag215
ag215
ag215
ag215
ag215
ag215
ag215
ag215
ag215
ag215
ag215
ag215
ag215
ag215
ag215
ag215
ag215
ag215
ag215
ag215
ag215
ag215
ag215
ag215
ag215
ag215
ag215
ag215
ag215
ag215
ag215
ag215
ag215
ag215
ag215
ag215
ag215
ag215
ag215
ag215
ag215
ag215
ag215
ag215
ag215
ag215
ag215
ag215
ag215
ag215
ag215
ag215
ag215
ag215
ag215
ag215
ag215
ag215
ag215
ag215
ag215
ag215
ag215
ag215
ag215
ag215
ag215
ag215
ag215
ag215
ag215
ag215
ag215
ag215
ag215
ag215
ag215
ag215
ag215
ag215
ag215
ag215
ag215
ag215
ag215
ag215
ag215
ag215
ag215
ag215
ag215
ag215
ag215
ag215
ag215
ag215
ag215
ag215
ag215
ag215
ag215
ag215
ag215
ag215
ag215
ag215
ag215
ag215
ag215
ag215
ag215
ag215
ag215
ag215
ag215
ag215
ag215
ag215
ag215
ag215
ag215
ag215
ag215
ag215
ag215
ag215
ag215
ag215
ag215
ag215
ag215
ag215
ag215
ag215
ag215
ag215
ag215
ag215
ag215
ag215
ag215
ag215
ag215
ag215
ag215
ag215
ag215
ag215
ag215
ag215
ag215
ag215
ag215
ag215
ag215
ag215
ag215
ag215
ag215
ag215
ag215
ag215
ag215
ag215
ag215
ag215
ag215
ag215
ag215
ag215
ag215
ag215
ag215
ag215
ag215
ag215
ag215
ag215
ag215
ag215
ag215
ag215
ag215
ag215
ag215
ag215
ag215
ag215
ag215
ag215
ag215
ag215
ag215
ag215
ag215
ag215
ag215
asS'time'
p227
(lp228
I73
aI111
aI147
aI183
aI218
aI257
aI290
aI324
aI357
aI390
aI422
aI456
aI489
aI523
aI557
aI590
aI623
aI661
aI694
aI727
aI761
aI796
aI831
aI867
aI900
aI933
aI967
aI1000
aI1034
aI1067
aI1101
aI1134
aI1168
aI1201
aI1235
aI1268
aI1301
aI1335
aI1368
aI1401
aI1434
aI1468
aI1501
aI1534
aI1567
aI1601
aI1634
aI1668
aI1701
aI1734
aI1767
aI1799
aI1832
aI1865
aI1898
aI1931
aI1966
aI2000
aI2034
aI2068
aI2101
aI2134
aI2167
aI2202
aI2235
aI2268
aI2302
aI2331
aI2362
aI2396
aI2429
aI2462
aI2496
aI2529
aI2562
aI2596
aI2629
aI2662
aI2695
aI2729
aI2764
aI2798
aI2832
aI2867
aI2901
aI2935
aI2969
aI3004
aI3038
aI3072
aI3106
aI3139
aI3173
aI3206
aI3239
aI3273
aI3306
aI3339
aI3373
aI3406
aI3440
aI3473
aI3507
aI3543
aI3577
aI3611
aI3646
aI3680
aI3716
aI3752
aI3789
aI3829
aI3870
aI3909
aI3949
aI3989
aI4030
aI4070
aI4110
aI4147
aI4181
aI4216
aI4251
aI4285
aI4320
aI4355
aI4389
aI4424
aI4458
aI4492
aI4527
aI4561
aI4595
aI4628
aI4657
aI4690
aI4725
aI4760
aI4795
aI4829
aI4864
aI4900
aI4935
aI4970
aI5006
aI5040
aI5076
aI5110
aI5144
aI5177
aI5208
aI5242
aI5275
aI5309
aI5342
aI5376
aI5409
aI5442
aI5475
aI5508
aI5542
aI5575
aI5609
aI5642
aI5675
aI5709
aI5742
aI5775
aI5808
aI5842
aI5875
aI5908
aI5941
aI5974
aI6007
aI6040
aI6074
aI6108
aI6140
aI6174
aI6207
aI6241
aI6267
aI6299
aI6331
aI6361
aI6388
aI6421
aI6455
aI6493
aI6529
aI6565
aI6604
aI6639
aI6675
aI6711
aI6747
aI6784
aI6820
aI6856
aI6891
aI6927
aI6962
aI6998
aI7032
aI7068
aI7103
aI7139
aI7174
aI7209
aI7244
aI7280
aI7317
aI7358
aI7400
aI7442
aI7481
aI7520
aI7559
aI7596
aI7631
aI7666
aI7702
aI7737
aI7773
aI7808
aI7842
aI7878
aI7913
aI7951
aI7990
aI8027
aI8064
aI8100
aI8135
aI8171
aI8206
aI8242
aI8278
aI8316
aI8351
aI8386
aI8420
aI8455
aI8489
aI8524
aI8560
aI8595
aI8630
aI8666
aI8701
aI8736
aI8771
aI8807
aI8842
aI8877
aI8912
aI8948
aI8983
aI9018
aI9053
aI9088
aI9123
aI9159
aI9194
aI9229
aI9264
aI9300
aI9339
aI9377
aI9413
aI9448
aI9484
aI9520
aI9556
aI9592
aI9628
aI9664
aI9699
aI9735
aI9775
aI9812
aI9846
aI9881
aI9915
aI9950
aI9985
aI10020
aI10054
aI10089
aI10124
aI10159
aI10193
aI10228
aI10262
aI10297
aI10332
aI10366
aI10401
aI10436
aI10472
aI10506
aI10539
aI10572
aI10606
aI10639
aI10674
aI10710
aI10747
aI10781
aI10814
aI10848
aI10881
aI10915
aI10948
aI10982
aI11015
aI11048
aI11082
aI11116
aI11149
aI11183
aI11216
aI11250
aI11283
aI11316
aI11352
aI11390
aI11428
aI11466
aI11507
aI11546
aI11583
aI11619
aI11657
aI11694
aI11729
aI11762
aI11796
aI11831
aI11865
aI11899
aI11932
aI11968
aI12006
aI12044
aI12081
aI12115
aI12150
aI12188
aI12226
aI12264
aI12302
aI12340
aI12378
aI12416
aI12450
aI12483
aI12516
aI12550
aI12583
aI12616
aI12649
aI12683
aI12716
aI12754
aI12793
aI12832
aI12870
aI12908
aI12947
aI12986
aI13025
aI13064
aI13103
aI13142
aI13181
aI13219
aI13258
aI13296
aI13334
aI13370
aI13405
aI13439
aI13475
aI13511
aI13544
aI13578
aI13611
aI13648
aI13684
aI13719
aI13753
aI13790
aI13826
aI13861
aI13896
aI13930
aI13964
aI13997
aI14026
aI14058
aI14092
aI14125
aI14159
aI14189
aI14223
aI14255
aI14287
aI14322
aI14359
aI14392
aI14426
aI14459
aI14492
aI14526
aI14563
aI14599
aI14633
aI14668
aI14702
aI14736
aI14770
aI14804
aI14838
aI14872
aI14905
aI14939
aI14972
aI15008
aI15044
aI15077
aI15109
aI15143
aI15178
aI15212
aI15247
aI15281
aI15307
aI15341
aI15374
aI15407
aI15441
aI15474
aI15507
aI15540
aI15573
aI15606
aI15639
aI15672
aI15705
aI15738
aI15771
aI15804
aI15835
aI15867
aI15901
aI15936
aI15970
aI16004
aI16038
aI16072
aI16106
aI16140
aI16174
aI16208
aI16242
aI16277
aI16311
aI16345
aI16380
aI16414
aI16448
aI16482
aI16516
aI16550
aI16585
aI16619
aI16653
aI16688
aI16722
aI16756
aI16790
aI16824
aI16859
aI16893
aI16924
aI16958
aI16993
aI17028
aI17063
aI17098
aI17129
aI17160
aI17181
aI17213
aI17246
aI17280
aI17314
aI17349
as.