(dp0
S'nfe'
p1
(lp2
I50
aI100
aI150
aI200
aI250
aI300
aI350
aI400
aI450
aI500
aI550
aI600
aI650
aI700
aI750
aI800
aI850
aI900
aI950
aI1000
aI1050
aI1100
aI1150
aI1200
aI1250
aI1300
aI1350
aI1400
aI1450
aI1500
aI1550
aI1600
aI1650
aI1700
aI1750
aI1800
aI1850
aI1900
aI1950
aI2000
aI2050
aI2100
aI2150
aI2200
aI2250
aI2300
aI2350
aI2400
aI2450
aI2500
aI2550
aI2600
aI2650
aI2700
aI2750
aI2800
aI2850
aI2900
aI2950
aI3000
aI3050
aI3100
aI3150
aI3200
aI3250
aI3300
aI3350
aI3400
aI3450
aI3500
aI3550
aI3600
aI3650
aI3700
aI3750
aI3800
aI3850
aI3900
aI3950
aI4000
aI4050
aI4100
aI4150
aI4200
aI4250
aI4300
aI4350
aI4400
aI4450
aI4500
aI4550
aI4600
aI4650
aI4700
aI4750
aI4800
aI4850
aI4900
aI4950
aI5000
aI5050
aI5100
aI5150
aI5200
aI5250
aI5300
aI5350
aI5400
aI5450
aI5500
aI5550
aI5600
aI5650
aI5700
aI5750
aI5800
aI5850
aI5900
aI5950
aI6000
aI6050
aI6100
aI6150
aI6200
aI6250
aI6300
aI6350
aI6400
aI6450
aI6500
aI6550
aI6600
aI6650
aI6700
aI6750
aI6800
aI6850
aI6900
aI6950
aI7000
aI7050
aI7100
aI7150
aI7200
aI7250
aI7300
aI7350
aI7400
aI7450
aI7500
aI7550
aI7600
aI7650
aI7700
aI7750
aI7800
aI7850
aI7900
aI7950
aI8000
aI8050
aI8100
aI8150
aI8200
aI8250
aI8300
aI8350
aI8400
aI8450
aI8500
aI8550
aI8600
aI8650
aI8700
aI8750
aI8800
aI8850
aI8900
aI8950
aI9000
aI9050
aI9100
aI9150
aI9200
aI9250
aI9300
aI9350
aI9400
aI9450
aI9500
aI9550
aI9600
aI9650
aI9700
aI9750
aI9800
aI9850
aI9900
aI9950
aI10000
aI10050
aI10100
aI10150
aI10200
aI10250
aI10300
aI10350
aI10400
aI10450
aI10500
aI10550
aI10600
aI10650
aI10700
aI10750
aI10800
aI10850
aI10900
aI10950
aI11000
aI11050
aI11100
aI11150
aI11200
aI11250
aI11300
aI11350
aI11400
aI11450
aI11500
aI11550
aI11600
aI11650
aI11700
aI11750
aI11800
aI11850
aI11900
aI11950
aI12000
aI12050
aI12100
aI12150
aI12200
aI12250
aI12300
aI12350
aI12400
aI12450
aI12500
aI12550
aI12600
aI12650
aI12700
aI12750
aI12800
aI12850
aI12900
aI12950
aI13000
aI13050
aI13100
aI13150
aI13200
aI13250
aI13300
aI13350
aI13400
aI13450
aI13500
aI13550
aI13600
aI13650
aI13700
aI13750
aI13800
aI13850
aI13900
aI13950
aI14000
aI14050
aI14100
aI14150
aI14200
aI14250
aI14300
aI14350
aI14400
aI14450
aI14500
aI14550
aI14600
aI14650
aI14700
aI14750
aI14800
aI14850
aI14900
aI14950
aI15000
aI15050
aI15100
aI15150
aI15200
aI15250
aI15300
aI15350
aI15400
aI15450
aI15500
aI15550
aI15600
aI15650
aI15700
aI15750
aI15800
aI15850
aI15900
aI15950
aI16000
aI16050
aI16100
aI16150
aI16200
aI16250
aI16300
aI16350
aI16400
aI16450
aI16500
aI16550
aI16600
aI16650
aI16700
aI16750
aI16800
aI16850
aI16900
aI16950
aI17000
aI17050
aI17100
aI17150
aI17200
aI17250
aI17300
aI17350
aI17400
aI17450
aI17500
aI17550
aI17600
aI17650
aI17700
aI17750
aI17800
aI17850
aI17900
aI17950
aI18000
aI18050
aI18100
aI18150
aI18200
aI18250
aI18300
aI18350
aI18400
aI18450
aI18500
aI18550
aI18600
aI18650
aI18700
aI18750
aI18800
aI18850
aI18900
aI18950
aI19000
aI19050
aI19100
aI19150
aI19200
aI19250
aI19300
aI19350
aI19400
aI19450
aI19500
aI19550
aI19600
aI19650
aI19700
aI19750
aI19800
aI19850
aI19900
aI19950
aI20000
aI20050
aI20100
aI20150
aI20200
aI20250
aI20300
aI20350
aI20400
aI20450
aI20500
aI20550
aI20600
aI20650
aI20700
aI20750
aI20800
aI20850
aI20900
aI20950
aI21000
aI21050
aI21100
aI21150
aI21200
aI21250
aI21300
aI21350
aI21400
aI21450
aI21500
aI21550
aI21600
aI21650
aI21700
aI21750
aI21800
aI21850
aI21900
aI21950
aI22000
aI22050
aI22100
aI22150
aI22200
aI22250
aI22300
aI22350
aI22400
aI22450
aI22500
aI22550
aI22600
aI22650
aI22700
aI22750
aI22800
aI22850
aI22900
aI22950
aI23000
aI23050
aI23100
aI23150
aI23200
aI23250
aI23300
aI23350
aI23400
aI23450
aI23500
aI23550
aI23600
aI23650
aI23700
aI23750
aI23800
aI23850
aI23900
aI23950
aI24000
aI24050
aI24100
aI24150
aI24200
aI24250
aI24300
aI24350
aI24400
aI24450
aI24500
aI24550
aI24600
aI24650
aI24700
aI24750
aI24800
aI24850
aI24900
aI24950
aI25000
asS'best_f'
p3
(lp4
cnumpy.core.multiarray
scalar
p5
(cnumpy
dtype
p6
(S'f8'
p7
I0
I1
tp8
Rp9
(I3
S'<'
p10
NNNI-1
I-1
I0
tp11
bS'aP`\xe2\xcc\x08\xd6?'
p12
tp13
Rp14
ag5
(g9
S'\x0e\x93f\x0cmp\xd4?'
p15
tp16
Rp17
ag5
(g9
S'\xd9f\x00\xf3\x86\xaa\xd1?'
p18
tp19
Rp20
ag20
ag5
(g9
S'\x011\xb6\t\xa2\x8c\xd1?'
p21
tp22
Rp23
ag23
ag23
ag23
ag23
ag5
(g9
S'[\x7f\xcf\xadhy\xd1?'
p24
tp25
Rp26
ag26
ag5
(g9
S'\xbdQl?\xd0D\xd1?'
p27
tp28
Rp29
ag29
ag29
ag29
ag5
(g9
S'\x8d.\xe3\t\x0e\x00\xd1?'
p30
tp31
Rp32
ag32
ag32
ag32
ag32
ag5
(g9
S'\xff\xa9~,\xb1\x9b\xd0?'
p33
tp34
Rp35
ag5
(g9
S'Lu\x19]\xb5\x1f\xd0?'
p36
tp37
Rp38
ag38
ag38
ag5
(g9
S'`\x996\xc9%\xd8\xcf?'
p39
tp40
Rp41
ag41
ag41
ag41
ag41
ag5
(g9
S']q\x8an,\xaa\xcf?'
p42
tp43
Rp44
ag44
ag44
ag44
ag44
ag44
ag44
ag44
ag44
ag44
ag44
ag44
ag44
ag44
ag44
ag44
ag44
ag44
ag44
ag44
ag44
ag44
ag44
ag44
ag44
ag44
ag44
ag44
ag44
ag44
ag44
ag44
ag44
ag44
ag44
ag44
ag44
ag44
ag44
ag44
ag5
(g9
S'p\xbe\xff\xfaUF\xcf?'
p45
tp46
Rp47
ag47
ag47
ag47
ag47
ag47
ag5
(g9
S'\xfb{"\xf1\x16\xff\xce?'
p48
tp49
Rp50
ag50
ag50
ag50
ag50
ag50
ag50
ag50
ag50
ag50
ag50
ag50
ag50
ag50
ag50
ag5
(g9
S'\xca\x9d:\x15(\xbf\xce?'
p51
tp52
Rp53
ag53
ag53
ag53
ag53
ag53
ag53
ag53
ag5
(g9
S'q\xa3\xa7\xdb4\xb9\xce?'
p54
tp55
Rp56
ag56
ag56
ag5
(g9
S'J\x11\x9fi\x9bl\xce?'
p57
tp58
Rp59
ag59
ag59
ag5
(g9
S'\xc4`\x0638^\xce?'
p60
tp61
Rp62
ag62
ag62
ag62
ag62
ag62
ag62
ag62
ag62
ag62
ag62
ag62
ag62
ag62
ag62
ag62
ag62
ag62
ag62
ag62
ag62
ag62
ag62
ag62
ag62
ag62
ag62
ag62
ag62
ag62
ag62
ag5
(g9
S'\x00zZ\xf8\x07G\xce?'
p63
tp64
Rp65
ag5
(g9
S'\xe7c\xe92\xaa7\xce?'
p66
tp67
Rp68
ag68
ag68
ag68
ag68
ag68
ag68
ag68
ag68
ag68
ag68
ag68
ag68
ag68
ag68
ag68
ag68
ag68
ag68
ag68
ag68
ag68
ag68
ag68
ag68
ag68
ag68
ag68
ag68
ag68
ag68
ag68
ag68
ag68
ag68
ag68
ag5
(g9
S'sX\xef\xe1j\x12\xce?'
p69
tp70
Rp71
ag71
ag71
ag71
ag71
ag71
ag71
ag71
ag71
ag71
ag71
ag71
ag71
ag71
ag71
ag71
ag71
ag71
ag71
ag71
ag71
ag71
ag71
ag71
ag71
ag71
ag71
ag71
ag71
ag71
ag71
ag71
ag71
ag71
ag71
ag71
ag71
ag71
ag71
ag71
ag71
ag71
ag71
ag71
ag71
ag71
ag71
ag71
ag71
ag71
ag71
ag71
ag71
ag71
ag71
ag71
ag71
ag71
ag71
ag71
ag71
ag71
ag71
ag71
ag71
ag71
ag71
ag71
ag71
ag71
ag71
ag71
ag71
ag71
ag71
ag71
ag71
ag71
ag71
ag71
ag71
ag71
ag71
ag71
ag71
ag71
ag71
ag71
ag71
ag71
ag71
ag71
ag71
ag71
ag71
ag71
ag71
ag71
ag71
ag71
ag71
ag71
ag71
ag71
ag71
ag71
ag71
ag71
ag71
ag71
ag71
ag71
ag71
ag71
ag71
ag71
ag71
ag71
ag71
ag71
ag5
(g9
S'i\xbdc\xf4\x93\xbe\xcd?'
p72
tp73
Rp74
ag5
(g9
S'\xbeA\x9f\x9f\x9c\x12\xcd?'
p75
tp76
Rp77
ag77
ag77
ag77
ag77
ag77
ag77
ag77
ag77
ag77
ag77
ag77
ag5
(g9
S'\x04\x7f{\xbc\xdd\xcf\xcc?'
p78
tp79
Rp80
ag80
ag80
ag80
ag80
ag80
ag80
ag80
ag80
ag80
ag80
ag80
ag80
ag80
ag80
ag80
ag80
ag80
ag80
ag80
ag80
ag80
ag80
ag80
ag80
ag80
ag80
ag80
ag80
ag80
ag80
ag80
ag80
ag80
ag80
ag80
ag80
ag80
ag80
ag80
ag80
ag80
ag80
ag80
ag80
ag80
ag80
ag80
ag80
ag80
ag80
ag80
ag80
ag80
ag80
ag80
ag80
ag80
ag80
ag5
(g9
S'\x03\xebW\xbe\xda\xce\xcc?'
p81
tp82
Rp83
ag83
ag83
ag83
ag83
ag83
ag83
ag83
ag83
ag83
ag83
ag83
ag83
ag83
ag83
ag83
ag83
ag5
(g9
S'g\x1a\xa9S$\xc1\xcc?'
p84
tp85
Rp86
ag86
ag86
ag86
ag5
(g9
S"o\x8f\xd4'\xe2\x91\xcc?"
p87
tp88
Rp89
ag89
ag89
ag89
ag89
ag89
ag89
ag89
ag89
ag89
ag89
ag89
ag89
ag89
ag89
ag89
ag89
ag89
ag89
ag89
ag89
ag89
ag89
ag89
ag89
ag89
ag89
ag89
ag89
ag89
ag89
ag89
ag89
ag89
ag89
ag89
ag89
ag89
ag89
ag89
ag89
ag89
ag89
ag89
ag89
ag89
ag89
ag89
ag89
ag89
ag89
ag89
ag89
ag89
ag89
ag89
ag89
ag89
ag89
ag89
ag5
(g9
S'\x10\x92\x17_B{\xcc?'
p90
tp91
Rp92
ag92
ag92
ag92
ag92
ag92
ag92
ag92
ag92
ag92
ag92
ag92
ag92
ag92
ag92
ag92
ag92
ag92
ag92
ag92
ag92
ag92
ag92
ag92
ag92
ag92
ag92
ag92
ag92
ag92
ag92
ag92
ag92
ag92
ag92
ag92
ag92
ag92
ag92
ag92
ag92
ag92
ag92
ag92
ag92
ag92
ag92
ag92
ag92
ag92
ag92
ag92
ag92
ag92
ag92
asS'best_P'
p93
(lp94
(itree
PTree
p95
(dp96
S'root'
p97
ccopy_reg
_reconstructor
p98
(ctree
Feature
p99
c__builtin__
object
p100
Ntp101
Rp102
(dp103
S'index'
p104
I0
sS'name'
p105
S'Storage'
p106
sS'l'
p107
g98
(ctree
Action
p108
g100
Ntp109
Rp110
(dp111
S'r'
p112
NsS'is_feature'
p113
I00
sS'value'
p114
S'Hedge_50'
p115
sg107
Nsbsg112
g98
(g99
g100
Ntp116
Rp117
(dp118
g104
I1
sg105
S'Day'
p119
sg107
g98
(g99
g100
Ntp120
Rp121
(dp122
g104
I0
sg105
g106
sg107
g98
(g108
g100
Ntp123
Rp124
(dp125
g112
Nsg113
I00
sg114
S'Hedge_50'
p126
sg107
Nsbsg112
g98
(g108
g100
Ntp127
Rp128
(dp129
g112
Nsg113
I00
sg114
S'Hedge_80'
p130
sg107
NsbsS'threshold'
p131
F732.8215928816966
sg113
I01
sbsg112
g98
(g108
g100
Ntp132
Rp133
(dp134
g112
Nsg113
I00
sg114
S'Hedge_90'
p135
sg107
Nsbsg131
F1.4071245256458829
sg113
I01
sbsg131
F292.9255395934356
sg113
I01
sbsS'L'
p136
(lp137
g102
ag110
ag117
ag121
ag124
ag128
ag133
asS'N'
p138
I7
sba(itree
PTree
p139
(dp140
g97
g98
(g99
g100
Ntp141
Rp142
(dp143
g104
I0
sg112
g98
(g108
g100
Ntp144
Rp145
(dp146
g112
Nsg113
I00
sg114
S'Hedge_90'
p147
sg107
Nsbsg105
g106
sg131
F634.7374473698861
sg107
g98
(g99
g100
Ntp148
Rp149
(dp150
g104
I0
sg112
g98
(g108
g100
Ntp151
Rp152
(dp153
g112
Nsg113
I00
sg114
S'Hedge_80'
p154
sg107
Nsbsg105
g106
sg131
F224.9677581428373
sg107
g98
(g99
g100
Ntp155
Rp156
(dp157
g104
I0
sg112
g98
(g108
g100
Ntp158
Rp159
(dp160
g112
Nsg113
I00
sg114
S'Hedge_50'
p161
sg107
Nsbsg105
g106
sg131
F46.592688159867144
sg107
g98
(g108
g100
Ntp162
Rp163
(dp164
g112
Nsg113
I00
sg114
S'Hedge_70'
p165
sg107
Nsbsg113
I01
sbsg113
I01
sbsg113
I01
sbsg136
(lp166
g142
ag149
ag156
ag163
ag159
ag152
ag145
asg138
I7
sba(itree
PTree
p167
(dp168
g97
g98
(g99
g100
Ntp169
Rp170
(dp171
g104
I0
sg112
g98
(g108
g100
Ntp172
Rp173
(dp174
g112
Nsg113
I00
sg114
S'Release_Demand'
p175
sg107
Nsbsg105
g106
sg131
F389.0954611237824
sg107
g98
(g108
g100
Ntp176
Rp177
(dp178
g112
Nsg113
I00
sg114
S'Hedge_70'
p179
sg107
Nsbsg113
I01
sbsg136
(lp180
g170
ag177
ag173
asg138
I3
sbag167
a(itree
PTree
p181
(dp182
g97
g98
(g99
g100
Ntp183
Rp184
(dp185
g104
I0
sg112
g98
(g108
g100
Ntp186
Rp187
(dp188
g112
Nsg113
I00
sg114
S'Release_Demand'
p189
sg107
Nsbsg105
g106
sg131
F513.5257192333196
sg107
g98
(g99
g100
Ntp190
Rp191
(dp192
g104
I0
sg112
g98
(g108
g100
Ntp193
Rp194
(dp195
g112
Nsg113
I00
sg114
S'Hedge_80'
p196
sg107
Nsbsg105
g106
sg131
F66.8636450940491
sg107
g98
(g108
g100
Ntp197
Rp198
(dp199
g112
Nsg113
I00
sg114
S'Hedge_90'
p200
sg107
Nsbsg113
I01
sbsg113
I01
sbsg136
(lp201
g184
ag191
ag198
ag194
ag187
asg138
I5
sbag181
ag181
ag181
ag181
a(itree
PTree
p202
(dp203
g97
g98
(g99
g100
Ntp204
Rp205
(dp206
g104
I0
sg112
g98
(g108
g100
Ntp207
Rp208
(dp209
g112
Nsg113
I00
sg114
S'Release_Demand'
p210
sg107
Nsbsg105
g106
sg131
F481.64478731206344
sg107
g98
(g99
g100
Ntp211
Rp212
(dp213
g104
I0
sg112
g98
(g108
g100
Ntp214
Rp215
(dp216
g112
Nsg113
I00
sg114
g196
sg107
Nsbsg105
g106
sg131
F50.51829105714126
sg107
g98
(g108
g100
Ntp217
Rp218
(dp219
g112
Nsg113
I00
sg114
S'Hedge_70'
p220
sg107
Nsbsg113
I01
sbsg113
I01
sbsg136
(lp221
g205
ag212
ag218
ag215
ag208
asg138
I5
sbag202
a(itree
PTree
p222
(dp223
g97
g98
(g99
g100
Ntp224
Rp225
(dp226
g104
I0
sg112
g98
(g108
g100
Ntp227
Rp228
(dp229
g112
Nsg113
I00
sg114
g210
sg107
Nsbsg105
g106
sg131
F608.5439494604714
sg107
g98
(g99
g100
Ntp230
Rp231
(dp232
g104
I0
sg112
g98
(g108
g100
Ntp233
Rp234
(dp235
g112
Nsg113
I00
sg114
g196
sg107
Nsbsg105
g106
sg131
F134.9488685843658
sg107
g98
(g108
g100
Ntp236
Rp237
(dp238
g112
Nsg113
I00
sg114
g220
sg107
Nsbsg113
I01
sbsg113
I01
sbsg136
(lp239
g225
ag231
ag237
ag234
ag228
asg138
I5
sbag222
ag222
ag222
a(itree
PTree
p240
(dp241
g97
g98
(g99
g100
Ntp242
Rp243
(dp244
g104
I0
sg112
g98
(g108
g100
Ntp245
Rp246
(dp247
g112
Nsg113
I00
sg114
g210
sg107
Nsbsg105
g106
sg131
F526.7588751387968
sg107
g98
(g99
g100
Ntp248
Rp249
(dp250
g104
I0
sg112
g98
(g108
g100
Ntp251
Rp252
(dp253
g112
Nsg113
I00
sg114
g196
sg107
Nsbsg105
g106
sg131
F134.9488685843658
sg107
g98
(g108
g100
Ntp254
Rp255
(dp256
g112
Nsg113
I00
sg114
g220
sg107
Nsbsg113
I01
sbsg113
I01
sbsg136
(lp257
g243
ag249
ag255
ag252
ag246
asg138
I5
sbag240
ag240
ag240
ag240
a(itree
PTree
p258
(dp259
g97
g98
(g99
g100
Ntp260
Rp261
(dp262
g104
I0
sg112
g98
(g108
g100
Ntp263
Rp264
(dp265
g112
Nsg113
I00
sg114
g210
sg107
Nsbsg105
g106
sg131
F458.81519536234197
sg107
g98
(g99
g100
Ntp266
Rp267
(dp268
g104
I0
sg112
g98
(g108
g100
Ntp269
Rp270
(dp271
g112
Nsg113
I00
sg114
g196
sg107
Nsbsg105
g106
sg131
F181.567710718105
sg107
g98
(g108
g100
Ntp272
Rp273
(dp274
g112
Nsg113
I00
sg114
g220
sg107
Nsbsg113
I01
sbsg113
I01
sbsg136
(lp275
g261
ag267
ag273
ag270
ag264
asg138
I5
sba(itree
PTree
p276
(dp277
g97
g98
(g99
g100
Ntp278
Rp279
(dp280
g104
I0
sg112
g98
(g108
g100
Ntp281
Rp282
(dp283
g112
Nsg113
I00
sg114
g210
sg107
Nsbsg105
g106
sg131
F491.11078133430885
sg107
g98
(g99
g100
Ntp284
Rp285
(dp286
g104
I0
sg112
g98
(g108
g100
Ntp287
Rp288
(dp289
g112
Nsg113
I00
sg114
g196
sg107
Nsbsg105
g106
sg131
F288.79924223175146
sg107
g98
(g108
g100
Ntp290
Rp291
(dp292
g112
Nsg113
I00
sg114
g220
sg107
Nsbsg113
I01
sbsg113
I01
sbsg136
(lp293
g279
ag285
ag291
ag288
ag282
asg138
I5
sbag276
ag276
a(itree
PTree
p294
(dp295
g97
g98
(g99
g100
Ntp296
Rp297
(dp298
g104
I0
sg112
g98
(g108
g100
Ntp299
Rp300
(dp301
g112
Nsg113
I00
sg114
g210
sg107
Nsbsg105
g106
sg131
F491.11078133430885
sg107
g98
(g99
g100
Ntp302
Rp303
(dp304
g104
I0
sg112
g98
(g108
g100
Ntp305
Rp306
(dp307
g112
Nsg113
I00
sg114
g196
sg107
Nsbsg105
g106
sg131
F241.74195405470854
sg107
g98
(g108
g100
Ntp308
Rp309
(dp310
g112
Nsg113
I00
sg114
g220
sg107
Nsbsg113
I01
sbsg113
I01
sbsg136
(lp311
g297
ag303
ag309
ag306
ag300
asg138
I5
sbag294
ag294
ag294
ag294
a(itree
PTree
p312
(dp313
g97
g98
(g99
g100
Ntp314
Rp315
(dp316
g104
I0
sg112
g98
(g108
g100
Ntp317
Rp318
(dp319
g112
Nsg113
I00
sg114
g210
sg107
Nsbsg105
g106
sg131
F491.11078133430885
sg107
g98
(g99
g100
Ntp320
Rp321
(dp322
g104
I0
sg112
g98
(g108
g100
Ntp323
Rp324
(dp325
g112
Nsg113
I00
sg114
g196
sg107
Nsbsg105
g106
sg131
F250.7763600173183
sg107
g98
(g108
g100
Ntp326
Rp327
(dp328
g112
Nsg113
I00
sg114
g220
sg107
Nsbsg113
I01
sbsg113
I01
sbsg136
(lp329
g315
ag321
ag327
ag324
ag318
asg138
I5
sbag312
ag312
ag312
ag312
ag312
ag312
ag312
ag312
ag312
ag312
ag312
ag312
ag312
ag312
ag312
ag312
ag312
ag312
ag312
ag312
ag312
ag312
ag312
ag312
ag312
ag312
ag312
ag312
ag312
ag312
ag312
ag312
ag312
ag312
ag312
ag312
ag312
ag312
ag312
a(itree
PTree
p330
(dp331
g97
g98
(g99
g100
Ntp332
Rp333
(dp334
g104
I0
sg112
g98
(g108
g100
Ntp335
Rp336
(dp337
g112
Nsg113
I00
sg114
g210
sg107
Nsbsg105
g106
sg131
F427.72566576096943
sg107
g98
(g99
g100
Ntp338
Rp339
(dp340
g104
I0
sg112
g98
(g108
g100
Ntp341
Rp342
(dp343
g112
Nsg113
I00
sg114
g196
sg107
Nsbsg105
g106
sg131
F298.0667114376633
sg107
g98
(g108
g100
Ntp344
Rp345
(dp346
g112
Nsg113
I00
sg114
g220
sg107
Nsbsg113
I01
sbsg113
I01
sbsg136
(lp347
g333
ag339
ag345
ag342
ag336
asg138
I5
sbag330
ag330
ag330
ag330
ag330
a(itree
PTree
p348
(dp349
g97
g98
(g99
g100
Ntp350
Rp351
(dp352
g104
I0
sg112
g98
(g108
g100
Ntp353
Rp354
(dp355
g112
Nsg113
I00
sg114
S'Release_Demand'
p356
sg107
Nsbsg105
g106
sg131
F655.8779837647635
sg107
g98
(g99
g100
Ntp357
Rp358
(dp359
g104
I0
sg112
g98
(g108
g100
Ntp360
Rp361
(dp362
g112
Nsg113
I00
sg114
S'Hedge_90'
p363
sg107
Nsbsg105
g106
sg131
F318.88997178563653
sg107
g98
(g108
g100
Ntp364
Rp365
(dp366
g112
Nsg113
I00
sg114
S'Hedge_70'
p367
sg107
Nsbsg113
I01
sbsg113
I01
sbsg136
(lp368
g351
ag358
ag365
ag361
ag354
asg138
I5
sbag348
ag348
ag348
ag348
ag348
ag348
ag348
ag348
ag348
ag348
ag348
ag348
ag348
ag348
a(itree
PTree
p369
(dp370
g97
g98
(g99
g100
Ntp371
Rp372
(dp373
g104
I0
sg112
g98
(g108
g100
Ntp374
Rp375
(dp376
g112
Nsg113
I00
sg114
g356
sg107
Nsbsg105
g106
sg131
F651.450859195239
sg107
g98
(g99
g100
Ntp377
Rp378
(dp379
g104
I0
sg112
g98
(g108
g100
Ntp380
Rp381
(dp382
g112
Nsg113
I00
sg114
g363
sg107
Nsbsg105
g106
sg131
F300.2807561820797
sg107
g98
(g108
g100
Ntp383
Rp384
(dp385
g112
Nsg113
I00
sg114
g367
sg107
Nsbsg113
I01
sbsg113
I01
sbsg136
(lp386
g372
ag378
ag384
ag381
ag375
asg138
I5
sbag369
ag369
ag369
ag369
ag369
ag369
ag369
a(itree
PTree
p387
(dp388
g97
g98
(g99
g100
Ntp389
Rp390
(dp391
g104
I0
sg112
g98
(g108
g100
Ntp392
Rp393
(dp394
g112
Nsg113
I00
sg114
g356
sg107
Nsbsg105
g106
sg131
F648.7239125271932
sg107
g98
(g99
g100
Ntp395
Rp396
(dp397
g104
I0
sg112
g98
(g108
g100
Ntp398
Rp399
(dp400
g112
Nsg113
I00
sg114
g363
sg107
Nsbsg105
g106
sg131
F300.2807561820797
sg107
g98
(g108
g100
Ntp401
Rp402
(dp403
g112
Nsg113
I00
sg114
g367
sg107
Nsbsg113
I01
sbsg113
I01
sbsg136
(lp404
g390
ag396
ag402
ag399
ag393
asg138
I5
sbag387
ag387
a(itree
PTree
p405
(dp406
g97
g98
(g99
g100
Ntp407
Rp408
(dp409
g104
I0
sg112
g98
(g108
g100
Ntp410
Rp411
(dp412
g112
Nsg113
I00
sg114
S'Release_Demand'
p413
sg107
Nsbsg105
g106
sg131
F449.03330188899866
sg107
g98
(g99
g100
Ntp414
Rp415
(dp416
g104
I0
sg112
g98
(g108
g100
Ntp417
Rp418
(dp419
g112
Nsg113
I00
sg114
S'Release_Demand'
p420
sg107
Nsbsg105
g106
sg131
F413.0815522610959
sg107
g98
(g99
g100
Ntp421
Rp422
(dp423
g104
I0
sg112
g98
(g108
g100
Ntp424
Rp425
(dp426
g112
Nsg113
I00
sg114
S'Hedge_80'
p427
sg107
Nsbsg105
g106
sg131
F184.26848449841398
sg107
g98
(g108
g100
Ntp428
Rp429
(dp430
g112
Nsg113
I00
sg114
S'Hedge_50'
p431
sg107
Nsbsg113
I01
sbsg113
I01
sbsg113
I01
sbsg136
(lp432
g408
ag415
ag422
ag429
ag425
ag418
ag411
asg138
I7
sbag405
ag405
a(itree
PTree
p433
(dp434
g97
g98
(g99
g100
Ntp435
Rp436
(dp437
g104
I0
sg112
g98
(g108
g100
Ntp438
Rp439
(dp440
g112
Nsg113
I00
sg114
g413
sg107
Nsbsg105
g106
sg131
F627.5743288667961
sg107
g98
(g99
g100
Ntp441
Rp442
(dp443
g104
I0
sg112
g98
(g108
g100
Ntp444
Rp445
(dp446
g112
Nsg113
I00
sg114
g420
sg107
Nsbsg105
g106
sg131
F433.80251862985426
sg107
g98
(g99
g100
Ntp447
Rp448
(dp449
g104
I0
sg112
g98
(g108
g100
Ntp450
Rp451
(dp452
g112
Nsg113
I00
sg114
g427
sg107
Nsbsg105
g106
sg131
F199.85160849850303
sg107
g98
(g108
g100
Ntp453
Rp454
(dp455
g112
Nsg113
I00
sg114
g431
sg107
Nsbsg113
I01
sbsg113
I01
sbsg113
I01
sbsg136
(lp456
g436
ag442
ag448
ag454
ag451
ag445
ag439
asg138
I7
sbag433
ag433
ag433
ag433
ag433
ag433
ag433
ag433
ag433
ag433
ag433
ag433
ag433
ag433
ag433
ag433
ag433
ag433
ag433
ag433
ag433
ag433
ag433
ag433
ag433
ag433
ag433
ag433
ag433
ag433
a(itree
PTree
p457
(dp458
g97
g98
(g99
g100
Ntp459
Rp460
(dp461
g104
I0
sg112
g98
(g108
g100
Ntp462
Rp463
(dp464
g112
Nsg113
I00
sg114
S'Release_Demand'
p465
sg107
Nsbsg105
g106
sg131
F482.0103009263231
sg107
g98
(g99
g100
Ntp466
Rp467
(dp468
g104
I0
sg112
g98
(g108
g100
Ntp469
Rp470
(dp471
g112
Nsg113
I00
sg114
S'Hedge_80'
p472
sg107
Nsbsg105
g106
sg131
F170.2385981695924
sg107
g98
(g108
g100
Ntp473
Rp474
(dp475
g112
Nsg113
I00
sg114
S'Hedge_50'
p476
sg107
Nsbsg113
I01
sbsg113
I01
sbsg136
(lp477
g460
ag467
ag474
ag470
ag463
asg138
I5
sba(itree
PTree
p478
(dp479
g97
g98
(g99
g100
Ntp480
Rp481
(dp482
g104
I0
sg112
g98
(g108
g100
Ntp483
Rp484
(dp485
g112
Nsg113
I00
sg114
g413
sg107
Nsbsg105
g106
sg131
F734.4727037216524
sg107
g98
(g99
g100
Ntp486
Rp487
(dp488
g104
I0
sg112
g98
(g108
g100
Ntp489
Rp490
(dp491
g112
Nsg113
I00
sg114
g420
sg107
Nsbsg105
g106
sg131
F442.63222420620906
sg107
g98
(g99
g100
Ntp492
Rp493
(dp494
g104
I0
sg112
g98
(g108
g100
Ntp495
Rp496
(dp497
g112
Nsg113
I00
sg114
g427
sg107
Nsbsg105
g106
sg131
F199.85160849850303
sg107
g98
(g108
g100
Ntp498
Rp499
(dp500
g112
Nsg113
I00
sg114
g431
sg107
Nsbsg113
I01
sbsg113
I01
sbsg113
I01
sbsg136
(lp501
g481
ag487
ag493
ag499
ag496
ag490
ag484
asg138
I7
sbag478
ag478
ag478
ag478
ag478
ag478
ag478
ag478
ag478
ag478
ag478
ag478
ag478
ag478
ag478
ag478
ag478
ag478
ag478
ag478
ag478
ag478
ag478
ag478
ag478
ag478
ag478
ag478
ag478
ag478
ag478
ag478
ag478
ag478
ag478
a(itree
PTree
p502
(dp503
g97
g98
(g99
g100
Ntp504
Rp505
(dp506
g104
I0
sg112
g98
(g108
g100
Ntp507
Rp508
(dp509
g112
Nsg113
I00
sg114
g413
sg107
Nsbsg105
g106
sg131
F935.2619865317316
sg107
g98
(g99
g100
Ntp510
Rp511
(dp512
g104
I0
sg112
g98
(g108
g100
Ntp513
Rp514
(dp515
g112
Nsg113
I00
sg114
g420
sg107
Nsbsg105
g106
sg131
F442.63222420620906
sg107
g98
(g99
g100
Ntp516
Rp517
(dp518
g104
I0
sg112
g98
(g108
g100
Ntp519
Rp520
(dp521
g112
Nsg113
I00
sg114
g427
sg107
Nsbsg105
g106
sg131
F192.78960090252232
sg107
g98
(g108
g100
Ntp522
Rp523
(dp524
g112
Nsg113
I00
sg114
g431
sg107
Nsbsg113
I01
sbsg113
I01
sbsg113
I01
sbsg136
(lp525
g505
ag511
ag517
ag523
ag520
ag514
ag508
asg138
I7
sbag502
ag502
ag502
ag502
ag502
ag502
ag502
ag502
ag502
ag502
ag502
ag502
ag502
ag502
ag502
ag502
ag502
ag502
ag502
ag502
ag502
ag502
ag502
ag502
ag502
ag502
ag502
ag502
ag502
ag502
ag502
ag502
ag502
ag502
ag502
ag502
ag502
ag502
ag502
ag502
ag502
ag502
ag502
ag502
ag502
ag502
ag502
ag502
ag502
ag502
ag502
ag502
ag502
ag502
ag502
ag502
ag502
ag502
ag502
ag502
ag502
ag502
ag502
ag502
ag502
ag502
ag502
ag502
ag502
ag502
ag502
ag502
ag502
ag502
ag502
ag502
ag502
ag502
ag502
ag502
ag502
ag502
ag502
ag502
ag502
ag502
ag502
ag502
ag502
ag502
ag502
ag502
ag502
ag502
ag502
ag502
ag502
ag502
ag502
ag502
ag502
ag502
ag502
ag502
ag502
ag502
ag502
ag502
ag502
ag502
ag502
ag502
ag502
ag502
ag502
ag502
ag502
ag502
ag502
a(itree
PTree
p526
(dp527
g97
g98
(g99
g100
Ntp528
Rp529
(dp530
g104
I0
sg112
g98
(g108
g100
Ntp531
Rp532
(dp533
g112
Nsg113
I00
sg114
S'Release_Demand'
p534
sg107
Nsbsg105
g106
sg131
F650.3839145609296
sg107
g98
(g99
g100
Ntp535
Rp536
(dp537
g104
I0
sg112
g98
(g108
g100
Ntp538
Rp539
(dp540
g112
Nsg113
I00
sg114
S'Hedge_90'
p541
sg107
Nsbsg105
g106
sg131
F476.9589364975759
sg107
g98
(g99
g100
Ntp542
Rp543
(dp544
g104
I0
sg112
g98
(g108
g100
Ntp545
Rp546
(dp547
g112
Nsg113
I00
sg114
g472
sg107
Nsbsg105
g106
sg131
F159.7854103862844
sg107
g98
(g108
g100
Ntp548
Rp549
(dp550
g112
Nsg113
I00
sg114
S'Hedge_50'
p551
sg107
Nsbsg113
I01
sbsg113
I01
sbsg113
I01
sbsg136
(lp552
g529
ag536
ag543
ag549
ag546
ag539
ag532
asg138
I7
sba(itree
PTree
p553
(dp554
g97
g98
(g99
g100
Ntp555
Rp556
(dp557
g104
I0
sg112
g98
(g108
g100
Ntp558
Rp559
(dp560
g112
Nsg113
I00
sg114
g534
sg107
Nsbsg105
g106
sg131
F691.8204180871662
sg107
g98
(g99
g100
Ntp561
Rp562
(dp563
g104
I0
sg112
g98
(g108
g100
Ntp564
Rp565
(dp566
g112
Nsg113
I00
sg114
g541
sg107
Nsbsg105
g106
sg131
F397.26114684749524
sg107
g98
(g99
g100
Ntp567
Rp568
(dp569
g104
I0
sg112
g98
(g108
g100
Ntp570
Rp571
(dp572
g112
Nsg113
I00
sg114
g472
sg107
Nsbsg105
g106
sg131
F184.13087200515875
sg107
g98
(g108
g100
Ntp573
Rp574
(dp575
g112
Nsg113
I00
sg114
g551
sg107
Nsbsg113
I01
sbsg113
I01
sbsg113
I01
sbsg136
(lp576
g556
ag562
ag568
ag574
ag571
ag565
ag559
asg138
I7
sbag553
ag553
ag553
ag553
ag553
ag553
ag553
ag553
ag553
ag553
ag553
a(itree
PTree
p577
(dp578
g97
g98
(g99
g100
Ntp579
Rp580
(dp581
g104
I0
sg112
g98
(g108
g100
Ntp582
Rp583
(dp584
g112
Nsg113
I00
sg114
g534
sg107
Nsbsg105
g106
sg131
F572.6082315106828
sg107
g98
(g99
g100
Ntp585
Rp586
(dp587
g104
I0
sg112
g98
(g108
g100
Ntp588
Rp589
(dp590
g112
Nsg113
I00
sg114
g541
sg107
Nsbsg105
g106
sg131
F410.5175373888668
sg107
g98
(g99
g100
Ntp591
Rp592
(dp593
g104
I0
sg112
g98
(g108
g100
Ntp594
Rp595
(dp596
g112
Nsg113
I00
sg114
g472
sg107
Nsbsg105
g106
sg131
F182.2621498408679
sg107
g98
(g108
g100
Ntp597
Rp598
(dp599
g112
Nsg113
I00
sg114
g551
sg107
Nsbsg113
I01
sbsg113
I01
sbsg113
I01
sbsg136
(lp600
g580
ag586
ag592
ag598
ag595
ag589
ag583
asg138
I7
sbag577
ag577
ag577
ag577
ag577
ag577
ag577
ag577
ag577
ag577
ag577
ag577
ag577
ag577
ag577
ag577
ag577
ag577
ag577
ag577
ag577
ag577
ag577
ag577
ag577
ag577
ag577
ag577
ag577
ag577
ag577
ag577
ag577
ag577
ag577
ag577
ag577
ag577
ag577
ag577
ag577
ag577
ag577
ag577
ag577
ag577
ag577
ag577
ag577
ag577
ag577
ag577
ag577
ag577
ag577
ag577
ag577
ag577
a(itree
PTree
p601
(dp602
g97
g98
(g99
g100
Ntp603
Rp604
(dp605
g104
I0
sg112
g98
(g108
g100
Ntp606
Rp607
(dp608
g112
Nsg113
I00
sg114
g534
sg107
Nsbsg105
g106
sg131
F640.055515902301
sg107
g98
(g99
g100
Ntp609
Rp610
(dp611
g104
I0
sg112
g98
(g108
g100
Ntp612
Rp613
(dp614
g112
Nsg113
I00
sg114
S'Hedge_90'
p615
sg107
Nsbsg105
g106
sg131
F402.25147229568086
sg107
g98
(g99
g100
Ntp616
Rp617
(dp618
g104
I0
sg112
g98
(g108
g100
Ntp619
Rp620
(dp621
g112
Nsg113
I00
sg114
S'Hedge_80'
p622
sg107
Nsbsg105
g106
sg131
F196.54630649691728
sg107
g98
(g108
g100
Ntp623
Rp624
(dp625
g112
Nsg113
I00
sg114
S'Hedge_50'
p626
sg107
Nsbsg113
I01
sbsg113
I01
sbsg113
I01
sbsg136
(lp627
g604
ag610
ag617
ag624
ag620
ag613
ag607
asg138
I7
sbag601
ag601
ag601
ag601
ag601
ag601
ag601
ag601
ag601
ag601
ag601
ag601
ag601
ag601
ag601
ag601
a(itree
PTree
p628
(dp629
g97
g98
(g99
g100
Ntp630
Rp631
(dp632
g104
I0
sg112
g98
(g108
g100
Ntp633
Rp634
(dp635
g112
Nsg113
I00
sg114
g534
sg107
Nsbsg105
g106
sg131
F660.2505632204593
sg107
g98
(g99
g100
Ntp636
Rp637
(dp638
g104
I0
sg112
g98
(g108
g100
Ntp639
Rp640
(dp641
g112
Nsg113
I00
sg114
g615
sg107
Nsbsg105
g106
sg131
F402.25147229568086
sg107
g98
(g99
g100
Ntp642
Rp643
(dp644
g104
I0
sg112
g98
(g108
g100
Ntp645
Rp646
(dp647
g112
Nsg113
I00
sg114
g622
sg107
Nsbsg105
g106
sg131
F168.05127753520895
sg107
g98
(g108
g100
Ntp648
Rp649
(dp650
g112
Nsg113
I00
sg114
g626
sg107
Nsbsg113
I01
sbsg113
I01
sbsg113
I01
sbsg136
(lp651
g631
ag637
ag643
ag649
ag646
ag640
ag634
asg138
I7
sbag628
ag628
ag628
a(itree
PTree
p652
(dp653
g97
g98
(g99
g100
Ntp654
Rp655
(dp656
g104
I0
sg112
g98
(g108
g100
Ntp657
Rp658
(dp659
g112
Nsg113
I00
sg114
g534
sg107
Nsbsg105
g106
sg131
F632.0425102395029
sg107
g98
(g99
g100
Ntp660
Rp661
(dp662
g104
I0
sg112
g98
(g108
g100
Ntp663
Rp664
(dp665
g112
Nsg113
I00
sg114
g541
sg107
Nsbsg105
g106
sg131
F410.5175373888668
sg107
g98
(g99
g100
Ntp666
Rp667
(dp668
g104
I0
sg112
g98
(g108
g100
Ntp669
Rp670
(dp671
g112
Nsg113
I00
sg114
g472
sg107
Nsbsg105
g106
sg131
F182.2621498408679
sg107
g98
(g108
g100
Ntp672
Rp673
(dp674
g112
Nsg113
I00
sg114
g551
sg107
Nsbsg113
I01
sbsg113
I01
sbsg113
I01
sbsg136
(lp675
g655
ag661
ag667
ag673
ag670
ag664
ag658
asg138
I7
sbag652
ag652
ag652
ag652
ag652
ag652
ag652
ag652
ag652
ag652
ag652
ag652
ag652
ag652
ag652
ag652
ag652
ag652
ag652
ag652
ag652
ag652
ag652
ag652
ag652
ag652
ag652
ag652
ag652
ag652
ag652
ag652
ag652
ag652
ag652
ag652
ag652
ag652
ag652
ag652
ag652
ag652
ag652
ag652
ag652
ag652
ag652
ag652
ag652
ag652
ag652
ag652
ag652
ag652
ag652
ag652
ag652
ag652
ag652
a(itree
PTree
p676
(dp677
g97
g98
(g99
g100
Ntp678
Rp679
(dp680
g104
I0
sg112
g98
(g108
g100
Ntp681
Rp682
(dp683
g112
Nsg113
I00
sg114
g534
sg107
Nsbsg105
g106
sg131
F632.0425102395029
sg107
g98
(g99
g100
Ntp684
Rp685
(dp686
g104
I0
sg112
g98
(g108
g100
Ntp687
Rp688
(dp689
g112
Nsg113
I00
sg114
g541
sg107
Nsbsg105
g106
sg131
F407.3669714729985
sg107
g98
(g99
g100
Ntp690
Rp691
(dp692
g104
I0
sg112
g98
(g108
g100
Ntp693
Rp694
(dp695
g112
Nsg113
I00
sg114
g472
sg107
Nsbsg105
g106
sg131
F174.3763861855604
sg107
g98
(g108
g100
Ntp696
Rp697
(dp698
g112
Nsg113
I00
sg114
g551
sg107
Nsbsg113
I01
sbsg113
I01
sbsg113
I01
sbsg136
(lp699
g679
ag685
ag691
ag697
ag694
ag688
ag682
asg138
I7
sbag676
ag676
ag676
ag676
ag676
ag676
ag676
ag676
ag676
ag676
ag676
ag676
ag676
ag676
ag676
ag676
ag676
ag676
ag676
ag676
ag676
ag676
ag676
ag676
ag676
ag676
ag676
ag676
ag676
ag676
ag676
ag676
ag676
ag676
ag676
ag676
ag676
ag676
ag676
ag676
ag676
ag676
ag676
ag676
ag676
ag676
ag676
ag676
ag676
ag676
ag676
ag676
ag676
ag676
asS'time'
p700
(lp701
I76
aI114
aI152
aI189
aI226
aI264
aI301
aI338
aI375
aI412
aI449
aI486
aI522
aI559
aI596
aI633
aI668
aI704
aI741
aI777
aI813
aI849
aI884
aI920
aI956
aI992
aI1027
aI1063
aI1098
aI1135
aI1172
aI1210
aI1245
aI1281
aI1317
aI1353
aI1389
aI1425
aI1461
aI1497
aI1532
aI1568
aI1604
aI1640
aI1676
aI1712
aI1750
aI1791
aI1831
aI1871
aI1911
aI1952
aI1992
aI2032
aI2073
aI2111
aI2147
aI2183
aI2220
aI2258
aI2296
aI2333
aI2374
aI2413
aI2454
aI2495
aI2536
aI2577
aI2612
aI2649
aI2685
aI2721
aI2757
aI2794
aI2829
aI2866
aI2903
aI2939
aI2975
aI3012
aI3048
aI3085
aI3121
aI3157
aI3192
aI3228
aI3264
aI3300
aI3336
aI3372
aI3408
aI3443
aI3478
aI3514
aI3549
aI3584
aI3620
aI3655
aI3690
aI3725
aI3760
aI3796
aI3831
aI3867
aI3902
aI3941
aI3981
aI4020
aI4058
aI4097
aI4137
aI4176
aI4215
aI4252
aI4290
aI4329
aI4365
aI4402
aI4442
aI4481
aI4521
aI4559
aI4595
aI4631
aI4666
aI4703
aI4739
aI4774
aI4810
aI4846
aI4883
aI4922
aI4958
aI4995
aI5032
aI5069
aI5111
aI5152
aI5193
aI5228
aI5264
aI5300
aI5335
aI5371
aI5406
aI5441
aI5477
aI5512
aI5547
aI5582
aI5619
aI5658
aI5698
aI5738
aI5779
aI5820
aI5862
aI5903
aI5942
aI5986
aI6028
aI6069
aI6108
aI6148
aI6187
aI6226
aI6265
aI6304
aI6343
aI6381
aI6418
aI6457
aI6494
aI6532
aI6570
aI6608
aI6646
aI6684
aI6722
aI6758
aI6796
aI6833
aI6871
aI6909
aI6946
aI6984
aI7021
aI7059
aI7097
aI7134
aI7172
aI7209
aI7246
aI7284
aI7322
aI7359
aI7397
aI7434
aI7472
aI7510
aI7549
aI7585
aI7622
aI7658
aI7694
aI7730
aI7767
aI7803
aI7839
aI7876
aI7913
aI7949
aI7985
aI8022
aI8059
aI8096
aI8134
aI8171
aI8209
aI8248
aI8287
aI8325
aI8363
aI8402
aI8440
aI8479
aI8517
aI8554
aI8590
aI8627
aI8666
aI8704
aI8742
aI8782
aI8822
aI8860
aI8899
aI8938
aI8977
aI9016
aI9056
aI9097
aI9139
aI9181
aI9222
aI9264
aI9305
aI9344
aI9384
aI9423
aI9463
aI9502
aI9541
aI9579
aI9619
aI9656
aI9694
aI9733
aI9773
aI9812
aI9849
aI9888
aI9928
aI9970
aI10008
aI10044
aI10080
aI10116
aI10153
aI10189
aI10225
aI10261
aI10297
aI10333
aI10369
aI10405
aI10442
aI10478
aI10514
aI10551
aI10587
aI10628
aI10668
aI10707
aI10745
aI10784
aI10824
aI10863
aI10904
aI10941
aI10978
aI11014
aI11050
aI11085
aI11121
aI11157
aI11193
aI11228
aI11265
aI11306
aI11344
aI11382
aI11422
aI11462
aI11499
aI11535
aI11570
aI11606
aI11642
aI11678
aI11714
aI11749
aI11789
aI11826
aI11866
aI11907
aI11944
aI11984
aI12024
aI12064
aI12103
aI12142
aI12181
aI12218
aI12256
aI12294
aI12330
aI12365
aI12401
aI12438
aI12478
aI12519
aI12561
aI12602
aI12643
aI12684
aI12722
aI12761
aI12801
aI12842
aI12883
aI12923
aI12964
aI13005
aI13045
aI13086
aI13126
aI13167
aI13207
aI13248
aI13288
aI13328
aI13368
aI13408
aI13446
aI13485
aI13525
aI13563
aI13603
aI13642
aI13680
aI13718
aI13754
aI13789
aI13824
aI13859
aI13895
aI13931
aI13967
aI14003
aI14039
aI14075
aI14111
aI14145
aI14177
aI14211
aI14245
aI14279
aI14309
aI14341
aI14375
aI14409
aI14443
aI14474
aI14504
aI14538
aI14573
aI14607
aI14640
aI14672
aI14706
aI14738
aI14771
aI14804
aI14838
aI14873
aI14908
aI14943
aI14977
aI15011
aI15044
aI15080
aI15116
aI15151
aI15186
aI15221
aI15256
aI15291
aI15326
aI15362
aI15398
aI15434
aI15470
aI15502
aI15535
aI15569
aI15603
aI15638
aI15672
aI15706
aI15740
aI15773
aI15808
aI15836
aI15870
aI15904
aI15937
aI15972
aI16009
aI16046
aI16082
aI16116
aI16148
aI16182
aI16210
aI16240
aI16274
aI16307
aI16342
aI16372
aI16406
aI16441
aI16476
aI16507
aI16540
aI16574
aI16609
aI16643
aI16676
aI16711
aI16739
aI16770
aI16799
aI16831
aI16862
aI16892
aI16923
aI16956
aI16988
aI17021
aI17053
aI17087
aI17121
aI17153
aI17187
aI17222
aI17255
aI17285
aI17320
aI17353
aI17384
aI17418
aI17452
aI17485
aI17515
aI17549
aI17583
aI17618
aI17652
aI17685
aI17719
aI17751
aI17783
aI17815
aI17849
aI17883
aI17917
aI17953
aI17989
aI18025
aI18061
aI18097
aI18132
aI18166
aI18200
aI18234
aI18269
aI18299
aI18333
aI18366
as.