(dp0
S'nfe'
p1
(lp2
I50
aI100
aI150
aI200
aI250
aI300
aI350
aI400
aI450
aI500
aI550
aI600
aI650
aI700
aI750
aI800
aI850
aI900
aI950
aI1000
aI1050
aI1100
aI1150
aI1200
aI1250
aI1300
aI1350
aI1400
aI1450
aI1500
aI1550
aI1600
aI1650
aI1700
aI1750
aI1800
aI1850
aI1900
aI1950
aI2000
aI2050
aI2100
aI2150
aI2200
aI2250
aI2300
aI2350
aI2400
aI2450
aI2500
aI2550
aI2600
aI2650
aI2700
aI2750
aI2800
aI2850
aI2900
aI2950
aI3000
aI3050
aI3100
aI3150
aI3200
aI3250
aI3300
aI3350
aI3400
aI3450
aI3500
aI3550
aI3600
aI3650
aI3700
aI3750
aI3800
aI3850
aI3900
aI3950
aI4000
aI4050
aI4100
aI4150
aI4200
aI4250
aI4300
aI4350
aI4400
aI4450
aI4500
aI4550
aI4600
aI4650
aI4700
aI4750
aI4800
aI4850
aI4900
aI4950
aI5000
aI5050
aI5100
aI5150
aI5200
aI5250
aI5300
aI5350
aI5400
aI5450
aI5500
aI5550
aI5600
aI5650
aI5700
aI5750
aI5800
aI5850
aI5900
aI5950
aI6000
aI6050
aI6100
aI6150
aI6200
aI6250
aI6300
aI6350
aI6400
aI6450
aI6500
aI6550
aI6600
aI6650
aI6700
aI6750
aI6800
aI6850
aI6900
aI6950
aI7000
aI7050
aI7100
aI7150
aI7200
aI7250
aI7300
aI7350
aI7400
aI7450
aI7500
aI7550
aI7600
aI7650
aI7700
aI7750
aI7800
aI7850
aI7900
aI7950
aI8000
aI8050
aI8100
aI8150
aI8200
aI8250
aI8300
aI8350
aI8400
aI8450
aI8500
aI8550
aI8600
aI8650
aI8700
aI8750
aI8800
aI8850
aI8900
aI8950
aI9000
aI9050
aI9100
aI9150
aI9200
aI9250
aI9300
aI9350
aI9400
aI9450
aI9500
aI9550
aI9600
aI9650
aI9700
aI9750
aI9800
aI9850
aI9900
aI9950
aI10000
aI10050
aI10100
aI10150
aI10200
aI10250
aI10300
aI10350
aI10400
aI10450
aI10500
aI10550
aI10600
aI10650
aI10700
aI10750
aI10800
aI10850
aI10900
aI10950
aI11000
aI11050
aI11100
aI11150
aI11200
aI11250
aI11300
aI11350
aI11400
aI11450
aI11500
aI11550
aI11600
aI11650
aI11700
aI11750
aI11800
aI11850
aI11900
aI11950
aI12000
aI12050
aI12100
aI12150
aI12200
aI12250
aI12300
aI12350
aI12400
aI12450
aI12500
aI12550
aI12600
aI12650
aI12700
aI12750
aI12800
aI12850
aI12900
aI12950
aI13000
aI13050
aI13100
aI13150
aI13200
aI13250
aI13300
aI13350
aI13400
aI13450
aI13500
aI13550
aI13600
aI13650
aI13700
aI13750
aI13800
aI13850
aI13900
aI13950
aI14000
aI14050
aI14100
aI14150
aI14200
aI14250
aI14300
aI14350
aI14400
aI14450
aI14500
aI14550
aI14600
aI14650
aI14700
aI14750
aI14800
aI14850
aI14900
aI14950
aI15000
aI15050
aI15100
aI15150
aI15200
aI15250
aI15300
aI15350
aI15400
aI15450
aI15500
aI15550
aI15600
aI15650
aI15700
aI15750
aI15800
aI15850
aI15900
aI15950
aI16000
aI16050
aI16100
aI16150
aI16200
aI16250
aI16300
aI16350
aI16400
aI16450
aI16500
aI16550
aI16600
aI16650
aI16700
aI16750
aI16800
aI16850
aI16900
aI16950
aI17000
aI17050
aI17100
aI17150
aI17200
aI17250
aI17300
aI17350
aI17400
aI17450
aI17500
aI17550
aI17600
aI17650
aI17700
aI17750
aI17800
aI17850
aI17900
aI17950
aI18000
aI18050
aI18100
aI18150
aI18200
aI18250
aI18300
aI18350
aI18400
aI18450
aI18500
aI18550
aI18600
aI18650
aI18700
aI18750
aI18800
aI18850
aI18900
aI18950
aI19000
aI19050
aI19100
aI19150
aI19200
aI19250
aI19300
aI19350
aI19400
aI19450
aI19500
aI19550
aI19600
aI19650
aI19700
aI19750
aI19800
aI19850
aI19900
aI19950
aI20000
aI20050
aI20100
aI20150
aI20200
aI20250
aI20300
aI20350
aI20400
aI20450
aI20500
aI20550
aI20600
aI20650
aI20700
aI20750
aI20800
aI20850
aI20900
aI20950
aI21000
aI21050
aI21100
aI21150
aI21200
aI21250
aI21300
aI21350
aI21400
aI21450
aI21500
aI21550
aI21600
aI21650
aI21700
aI21750
aI21800
aI21850
aI21900
aI21950
aI22000
aI22050
aI22100
aI22150
aI22200
aI22250
aI22300
aI22350
aI22400
aI22450
aI22500
aI22550
aI22600
aI22650
aI22700
aI22750
aI22800
aI22850
aI22900
aI22950
aI23000
aI23050
aI23100
aI23150
aI23200
aI23250
aI23300
aI23350
aI23400
aI23450
aI23500
aI23550
aI23600
aI23650
aI23700
aI23750
aI23800
aI23850
aI23900
aI23950
aI24000
aI24050
aI24100
aI24150
aI24200
aI24250
aI24300
aI24350
aI24400
aI24450
aI24500
aI24550
aI24600
aI24650
aI24700
aI24750
aI24800
aI24850
aI24900
aI24950
aI25000
asS'best_f'
p3
(lp4
cnumpy.core.multiarray
scalar
p5
(cnumpy
dtype
p6
(S'f8'
p7
I0
I1
tp8
Rp9
(I3
S'<'
p10
NNNI-1
I-1
I0
tp11
bS'\x99`\xf5*\xba\xce\xd5?'
p12
tp13
Rp14
ag5
(g9
S't\xdeS\x9f0E\xd3?'
p15
tp16
Rp17
ag5
(g9
S'\xd7\x99\xc1\xddKS\xd1?'
p18
tp19
Rp20
ag5
(g9
S'\xd1\x86\x87K.\x19\xd0?'
p21
tp22
Rp23
ag23
ag23
ag5
(g9
S'\xa5\x84\x0f\xdbg\x97\xcf?'
p24
tp25
Rp26
ag26
ag26
ag26
ag5
(g9
S'\x12+w\xe8\xfaI\xce?'
p27
tp28
Rp29
ag29
ag29
ag29
ag29
ag29
ag29
ag29
ag29
ag29
ag29
ag29
ag29
ag29
ag29
ag29
ag29
ag29
ag29
ag29
ag5
(g9
S'\xee\xf0C\xbf\xf8B\xce?'
p30
tp31
Rp32
ag32
ag32
ag32
ag32
ag32
ag32
ag32
ag32
ag32
ag32
ag32
ag32
ag32
ag32
ag32
ag32
ag32
ag32
ag32
ag32
ag32
ag32
ag32
ag32
ag32
ag32
ag32
ag32
ag32
ag5
(g9
S']0o\x17\xf1\xd1\xcd?'
p33
tp34
Rp35
ag35
ag35
ag35
ag35
ag35
ag35
ag35
ag35
ag35
ag35
ag35
ag35
ag35
ag35
ag35
ag35
ag35
ag35
ag35
ag35
ag35
ag35
ag35
ag35
ag35
ag35
ag5
(g9
S'F\xd9\x1b\xe5\xa7\x97\xcd?'
p36
tp37
Rp38
ag38
ag38
ag38
ag38
ag38
ag38
ag38
ag38
ag38
ag38
ag38
ag38
ag38
ag38
ag38
ag38
ag38
ag5
(g9
S'\xc5q\xac\xc6S|\xcd?'
p39
tp40
Rp41
ag41
ag41
ag41
ag41
ag41
ag41
ag41
ag41
ag41
ag41
ag41
ag41
ag41
ag41
ag41
ag41
ag41
ag41
ag41
ag41
ag41
ag41
ag41
ag41
ag5
(g9
S'\x196*\xb7\x9cq\xcd?'
p42
tp43
Rp44
ag44
ag44
ag44
ag44
ag44
ag44
ag44
ag44
ag44
ag44
ag44
ag44
ag44
ag44
ag44
ag44
ag44
ag44
ag44
ag44
ag44
ag44
ag44
ag44
ag44
ag44
ag5
(g9
S'\xac\x8bs+]j\xcd?'
p45
tp46
Rp47
ag47
ag47
ag47
ag47
ag47
ag47
ag47
ag47
ag47
ag5
(g9
S'\x10_Z#\xce[\xcd?'
p48
tp49
Rp50
ag50
ag50
ag50
ag50
ag50
ag50
ag50
ag50
ag50
ag50
ag50
ag50
ag50
ag50
ag50
ag50
ag50
ag50
ag50
ag50
ag50
ag50
ag50
ag50
ag50
ag50
ag50
ag50
ag50
ag50
ag50
ag50
ag50
ag50
ag50
ag50
ag50
ag50
ag50
ag50
ag50
ag50
ag50
ag50
ag50
ag50
ag50
ag50
ag50
ag50
ag50
ag50
ag50
ag50
ag50
ag50
ag50
ag50
ag50
ag50
ag50
ag50
ag50
ag50
ag50
ag50
ag50
ag50
ag50
ag50
ag50
ag50
ag50
ag50
ag50
ag50
ag50
ag50
ag50
ag50
ag50
ag50
ag50
ag50
ag50
ag50
ag50
ag50
ag50
ag50
ag50
ag50
ag50
ag50
ag50
ag50
ag50
ag50
ag50
ag50
ag50
ag50
ag50
ag50
ag50
ag50
ag50
ag50
ag50
ag50
ag50
ag50
ag50
ag50
ag50
ag50
ag50
ag50
ag50
ag50
ag50
ag50
ag50
ag50
ag50
ag50
ag50
ag50
ag50
ag50
ag50
ag50
ag50
ag50
ag50
ag50
ag50
ag50
ag50
ag50
ag50
ag50
ag50
ag50
ag50
ag50
ag50
ag50
ag50
ag50
ag50
ag50
ag50
ag50
ag50
ag50
ag50
ag50
ag50
ag50
ag50
ag50
ag50
ag50
ag50
ag50
ag50
ag50
ag50
ag50
ag50
ag50
ag50
ag50
ag50
ag50
ag50
ag50
ag50
ag50
ag50
ag50
ag50
ag50
ag50
ag50
ag50
ag50
ag50
ag50
ag50
ag50
ag50
ag50
ag50
ag50
ag50
ag50
ag50
ag50
ag50
ag50
ag50
ag50
ag50
ag50
ag50
ag50
ag50
ag50
ag50
ag50
ag50
ag50
ag50
ag50
ag50
ag50
ag50
ag50
ag50
ag50
ag50
ag50
ag50
ag50
ag50
ag50
ag50
ag50
ag50
ag50
ag50
ag50
ag50
ag50
ag50
ag50
ag50
ag50
ag50
ag50
ag50
ag50
ag50
ag50
ag50
ag50
ag50
ag50
ag50
ag50
ag50
ag50
ag50
ag50
ag50
ag50
ag50
ag50
ag50
ag50
ag50
ag50
ag50
ag50
ag50
ag50
ag5
(g9
S'\x10o\t\x94\x83D\xcd?'
p51
tp52
Rp53
ag53
ag53
ag53
ag53
ag53
ag53
ag53
ag53
ag53
ag53
ag53
ag53
ag53
ag53
ag5
(g9
S'\x9ey\x85\x04\x06\xce\xcc?'
p54
tp55
Rp56
ag56
ag56
ag56
ag56
ag56
ag56
ag56
ag56
ag56
ag56
ag56
ag56
ag56
ag56
ag56
ag56
ag56
ag56
ag56
ag56
ag56
ag56
ag56
ag5
(g9
S'\xe9\xfd\x8b\x07(x\xcc?'
p57
tp58
Rp59
ag59
ag59
ag59
ag59
ag59
ag59
ag59
ag59
ag59
ag59
ag59
ag59
ag59
ag59
ag59
ag59
ag59
ag59
ag59
ag59
ag59
ag59
ag59
ag59
asS'best_P'
p60
(lp61
(itree
PTree
p62
(dp63
S'root'
p64
ccopy_reg
_reconstructor
p65
(ctree
Feature
p66
c__builtin__
object
p67
Ntp68
Rp69
(dp70
S'index'
p71
I0
sS'name'
p72
S'Storage'
p73
sS'l'
p74
g65
(g66
g67
Ntp75
Rp76
(dp77
g71
I0
sg72
g73
sg74
g65
(ctree
Action
p78
g67
Ntp79
Rp80
(dp81
S'r'
p82
NsS'is_feature'
p83
I00
sS'value'
p84
S'Hedge_80'
p85
sg74
Nsbsg82
g65
(g78
g67
Ntp86
Rp87
(dp88
g82
Nsg83
I00
sg84
S'Hedge_90'
p89
sg74
NsbsS'threshold'
p90
F323.24462045198356
sg83
I01
sbsg82
g65
(g78
g67
Ntp91
Rp92
(dp93
g82
Nsg83
I00
sg84
S'Hedge_90'
p94
sg74
Nsbsg90
F804.8669276686354
sg83
I01
sbsS'L'
p95
(lp96
g69
ag76
ag80
ag87
ag92
asS'N'
p97
I5
sba(itree
PTree
p98
(dp99
g64
g65
(g66
g67
Ntp100
Rp101
(dp102
g71
I0
sg82
g65
(g78
g67
Ntp103
Rp104
(dp105
g82
Nsg83
I00
sg84
S'Release_Demand'
p106
sg74
Nsbsg72
g73
sg90
F495.8002903619953
sg74
g65
(g66
g67
Ntp107
Rp108
(dp109
g71
I0
sg82
g65
(g66
g67
Ntp110
Rp111
(dp112
g71
I1
sg82
g65
(g78
g67
Ntp113
Rp114
(dp115
g82
Nsg83
I00
sg84
S'Hedge_70'
p116
sg74
Nsbsg72
S'Day'
p117
sg90
F239.9137002234985
sg74
g65
(g78
g67
Ntp118
Rp119
(dp120
g82
Nsg83
I00
sg84
S'Hedge_80'
p121
sg74
Nsbsg83
I01
sbsg72
g73
sg90
F107.485842522637
sg74
g65
(g78
g67
Ntp122
Rp123
(dp124
g82
Nsg83
I00
sg84
S'Hedge_60'
p125
sg74
Nsbsg83
I01
sbsg83
I01
sbsg95
(lp126
g101
ag108
ag123
ag111
ag119
ag114
ag104
asg97
I7
sba(itree
PTree
p127
(dp128
g64
g65
(g66
g67
Ntp129
Rp130
(dp131
g71
I0
sg82
g65
(g78
g67
Ntp132
Rp133
(dp134
g82
Nsg83
I00
sg84
g106
sg74
Nsbsg72
g73
sg90
F495.8002903619953
sg74
g65
(g66
g67
Ntp135
Rp136
(dp137
g71
I0
sg82
g65
(g66
g67
Ntp138
Rp139
(dp140
g71
I0
sg82
g65
(g78
g67
Ntp141
Rp142
(dp143
g82
Nsg83
I00
sg84
S'Hedge_90'
p144
sg74
Nsbsg72
g73
sg90
F247.67476793445945
sg74
g65
(g78
g67
Ntp145
Rp146
(dp147
g82
Nsg83
I00
sg84
S'Hedge_70'
p148
sg74
Nsbsg83
I01
sbsg72
g73
sg90
F97.28154504408558
sg74
g65
(g78
g67
Ntp149
Rp150
(dp151
g82
Nsg83
I00
sg84
S'Hedge_60'
p152
sg74
Nsbsg83
I01
sbsg83
I01
sbsg95
(lp153
g130
ag136
ag150
ag139
ag146
ag142
ag133
asg97
I7
sba(itree
PTree
p154
(dp155
g64
g65
(g66
g67
Ntp156
Rp157
(dp158
g71
I0
sg82
g65
(g78
g67
Ntp159
Rp160
(dp161
g82
Nsg83
I00
sg84
S'Release_Demand'
p162
sg74
Nsbsg72
g73
sg90
F590.1115740903656
sg74
g65
(g66
g67
Ntp163
Rp164
(dp165
g71
I0
sg82
g65
(g78
g67
Ntp166
Rp167
(dp168
g82
Nsg83
I00
sg84
S'Hedge_80'
p169
sg74
Nsbsg72
g73
sg90
F184.47282509427828
sg74
g65
(g78
g67
Ntp170
Rp171
(dp172
g82
Nsg83
I00
sg84
S'Hedge_50'
p173
sg74
Nsbsg83
I01
sbsg83
I01
sbsg95
(lp174
g157
ag164
ag171
ag167
ag160
asg97
I5
sbag154
ag154
a(itree
PTree
p175
(dp176
g64
g65
(g66
g67
Ntp177
Rp178
(dp179
g71
I0
sg82
g65
(g78
g67
Ntp180
Rp181
(dp182
g82
Nsg83
I00
sg84
g162
sg74
Nsbsg72
g73
sg90
F562.721443831184
sg74
g65
(g66
g67
Ntp183
Rp184
(dp185
g71
I0
sg82
g65
(g78
g67
Ntp186
Rp187
(dp188
g82
Nsg83
I00
sg84
g169
sg74
Nsbsg72
g73
sg90
F166.01691921767593
sg74
g65
(g78
g67
Ntp189
Rp190
(dp191
g82
Nsg83
I00
sg84
g173
sg74
Nsbsg83
I01
sbsg83
I01
sbsg95
(lp192
g178
ag184
ag190
ag187
ag181
asg97
I5
sbag175
ag175
ag175
a(itree
PTree
p193
(dp194
g64
g65
(g66
g67
Ntp195
Rp196
(dp197
g71
I0
sg82
g65
(g78
g67
Ntp198
Rp199
(dp200
g82
Nsg83
I00
sg84
g162
sg74
Nsbsg72
g73
sg90
F475.7861663702527
sg74
g65
(g66
g67
Ntp201
Rp202
(dp203
g71
I0
sg82
g65
(g78
g67
Ntp204
Rp205
(dp206
g82
Nsg83
I00
sg84
g169
sg74
Nsbsg72
g73
sg90
F186.3951678826421
sg74
g65
(g78
g67
Ntp207
Rp208
(dp209
g82
Nsg83
I00
sg84
g173
sg74
Nsbsg83
I01
sbsg83
I01
sbsg95
(lp210
g196
ag202
ag208
ag205
ag199
asg97
I5
sbag193
ag193
ag193
ag193
ag193
ag193
ag193
ag193
ag193
ag193
ag193
ag193
ag193
ag193
ag193
ag193
ag193
ag193
ag193
a(itree
PTree
p211
(dp212
g64
g65
(g66
g67
Ntp213
Rp214
(dp215
g71
I0
sg82
g65
(g78
g67
Ntp216
Rp217
(dp218
g82
Nsg83
I00
sg84
g162
sg74
Nsbsg72
g73
sg90
F406.59300545192474
sg74
g65
(g66
g67
Ntp219
Rp220
(dp221
g71
I0
sg82
g65
(g78
g67
Ntp222
Rp223
(dp224
g82
Nsg83
I00
sg84
g169
sg74
Nsbsg72
g73
sg90
F177.80518117995635
sg74
g65
(g78
g67
Ntp225
Rp226
(dp227
g82
Nsg83
I00
sg84
g173
sg74
Nsbsg83
I01
sbsg83
I01
sbsg95
(lp228
g214
ag220
ag226
ag223
ag217
asg97
I5
sbag211
ag211
ag211
ag211
ag211
ag211
ag211
ag211
ag211
ag211
ag211
ag211
ag211
ag211
ag211
ag211
ag211
ag211
ag211
ag211
ag211
ag211
ag211
ag211
ag211
ag211
ag211
ag211
ag211
a(itree
PTree
p229
(dp230
g64
g65
(g66
g67
Ntp231
Rp232
(dp233
g71
I0
sg82
g65
(g78
g67
Ntp234
Rp235
(dp236
g82
Nsg83
I00
sg84
g106
sg74
Nsbsg72
g73
sg90
F381.38652014624876
sg74
g65
(g66
g67
Ntp237
Rp238
(dp239
g71
I0
sg82
g65
(g66
g67
Ntp240
Rp241
(dp242
g71
I1
sg82
g65
(g78
g67
Ntp243
Rp244
(dp245
g82
Nsg83
I00
sg84
g116
sg74
Nsbsg72
g117
sg90
F148.26679364072172
sg74
g65
(g78
g67
Ntp246
Rp247
(dp248
g82
Nsg83
I00
sg84
S'Hedge_80'
p249
sg74
Nsbsg83
I01
sbsg72
g73
sg90
F156.56742420045978
sg74
g65
(g78
g67
Ntp250
Rp251
(dp252
g82
Nsg83
I00
sg84
S'Hedge_50'
p253
sg74
Nsbsg83
I01
sbsg83
I01
sbsg95
(lp254
g232
ag238
ag251
ag241
ag247
ag244
ag235
asg97
I7
sbag229
ag229
ag229
ag229
ag229
ag229
ag229
ag229
ag229
ag229
ag229
ag229
ag229
ag229
ag229
ag229
ag229
ag229
ag229
ag229
ag229
ag229
ag229
ag229
ag229
ag229
a(itree
PTree
p255
(dp256
g64
g65
(g66
g67
Ntp257
Rp258
(dp259
g71
I0
sg82
g65
(g78
g67
Ntp260
Rp261
(dp262
g82
Nsg83
I00
sg84
g106
sg74
Nsbsg72
g73
sg90
F401.55046661472517
sg74
g65
(g66
g67
Ntp263
Rp264
(dp265
g71
I0
sg82
g65
(g66
g67
Ntp266
Rp267
(dp268
g71
I1
sg82
g65
(g78
g67
Ntp269
Rp270
(dp271
g82
Nsg83
I00
sg84
g116
sg74
Nsbsg72
g117
sg90
F169.1837858330278
sg74
g65
(g78
g67
Ntp272
Rp273
(dp274
g82
Nsg83
I00
sg84
g249
sg74
Nsbsg83
I01
sbsg72
g73
sg90
F167.11152618457217
sg74
g65
(g78
g67
Ntp275
Rp276
(dp277
g82
Nsg83
I00
sg84
g253
sg74
Nsbsg83
I01
sbsg83
I01
sbsg95
(lp278
g258
ag264
ag276
ag267
ag273
ag270
ag261
asg97
I7
sbag255
ag255
ag255
ag255
ag255
ag255
ag255
ag255
ag255
ag255
ag255
ag255
ag255
ag255
ag255
ag255
ag255
a(itree
PTree
p279
(dp280
g64
g65
(g66
g67
Ntp281
Rp282
(dp283
g71
I0
sg82
g65
(g78
g67
Ntp284
Rp285
(dp286
g82
Nsg83
I00
sg84
g106
sg74
Nsbsg72
g73
sg90
F401.55046661472517
sg74
g65
(g66
g67
Ntp287
Rp288
(dp289
g71
I0
sg82
g65
(g66
g67
Ntp290
Rp291
(dp292
g71
I1
sg82
g65
(g78
g67
Ntp293
Rp294
(dp295
g82
Nsg83
I00
sg84
g116
sg74
Nsbsg72
g117
sg90
F124.14710380656426
sg74
g65
(g78
g67
Ntp296
Rp297
(dp298
g82
Nsg83
I00
sg84
g249
sg74
Nsbsg83
I01
sbsg72
g73
sg90
F156.08745183566037
sg74
g65
(g78
g67
Ntp299
Rp300
(dp301
g82
Nsg83
I00
sg84
g253
sg74
Nsbsg83
I01
sbsg83
I01
sbsg95
(lp302
g282
ag288
ag300
ag291
ag297
ag294
ag285
asg97
I7
sbag279
ag279
ag279
ag279
ag279
ag279
ag279
ag279
ag279
ag279
ag279
ag279
ag279
ag279
ag279
ag279
ag279
ag279
ag279
ag279
ag279
ag279
ag279
ag279
a(itree
PTree
p303
(dp304
g64
g65
(g66
g67
Ntp305
Rp306
(dp307
g71
I0
sg82
g65
(g78
g67
Ntp308
Rp309
(dp310
g82
Nsg83
I00
sg84
g106
sg74
Nsbsg72
g73
sg90
F401.55046661472517
sg74
g65
(g66
g67
Ntp311
Rp312
(dp313
g71
I0
sg82
g65
(g66
g67
Ntp314
Rp315
(dp316
g71
I1
sg82
g65
(g78
g67
Ntp317
Rp318
(dp319
g82
Nsg83
I00
sg84
g116
sg74
Nsbsg72
g117
sg90
F139.543410944521
sg74
g65
(g78
g67
Ntp320
Rp321
(dp322
g82
Nsg83
I00
sg84
g249
sg74
Nsbsg83
I01
sbsg72
g73
sg90
F143.04959695699125
sg74
g65
(g78
g67
Ntp323
Rp324
(dp325
g82
Nsg83
I00
sg84
g253
sg74
Nsbsg83
I01
sbsg83
I01
sbsg95
(lp326
g306
ag312
ag324
ag315
ag321
ag318
ag309
asg97
I7
sbag303
ag303
ag303
ag303
ag303
ag303
ag303
ag303
ag303
ag303
ag303
ag303
ag303
ag303
ag303
ag303
ag303
ag303
ag303
ag303
ag303
ag303
ag303
ag303
ag303
ag303
a(itree
PTree
p327
(dp328
g64
g65
(g66
g67
Ntp329
Rp330
(dp331
g71
I0
sg82
g65
(g78
g67
Ntp332
Rp333
(dp334
g82
Nsg83
I00
sg84
g106
sg74
Nsbsg72
g73
sg90
F401.55046661472517
sg74
g65
(g66
g67
Ntp335
Rp336
(dp337
g71
I0
sg82
g65
(g66
g67
Ntp338
Rp339
(dp340
g71
I1
sg82
g65
(g78
g67
Ntp341
Rp342
(dp343
g82
Nsg83
I00
sg84
g116
sg74
Nsbsg72
g117
sg90
F127.2871406519491
sg74
g65
(g78
g67
Ntp344
Rp345
(dp346
g82
Nsg83
I00
sg84
g249
sg74
Nsbsg83
I01
sbsg72
g73
sg90
F143.04959695699125
sg74
g65
(g78
g67
Ntp347
Rp348
(dp349
g82
Nsg83
I00
sg84
g253
sg74
Nsbsg83
I01
sbsg83
I01
sbsg95
(lp350
g330
ag336
ag348
ag339
ag345
ag342
ag333
asg97
I7
sbag327
ag327
ag327
ag327
ag327
ag327
ag327
ag327
ag327
a(itree
PTree
p351
(dp352
g64
g65
(g66
g67
Ntp353
Rp354
(dp355
g71
I0
sg82
g65
(g78
g67
Ntp356
Rp357
(dp358
g82
Nsg83
I00
sg84
g106
sg74
Nsbsg72
g73
sg90
F401.55046661472517
sg74
g65
(g66
g67
Ntp359
Rp360
(dp361
g71
I0
sg82
g65
(g66
g67
Ntp362
Rp363
(dp364
g71
I1
sg82
g65
(g78
g67
Ntp365
Rp366
(dp367
g82
Nsg83
I00
sg84
g116
sg74
Nsbsg72
g117
sg90
F130.08026505286176
sg74
g65
(g78
g67
Ntp368
Rp369
(dp370
g82
Nsg83
I00
sg84
g249
sg74
Nsbsg83
I01
sbsg72
g73
sg90
F143.04959695699125
sg74
g65
(g78
g67
Ntp371
Rp372
(dp373
g82
Nsg83
I00
sg84
g253
sg74
Nsbsg83
I01
sbsg83
I01
sbsg95
(lp374
g354
ag360
ag372
ag363
ag369
ag366
ag357
asg97
I7
sbag351
ag351
ag351
ag351
ag351
ag351
ag351
ag351
ag351
ag351
ag351
ag351
ag351
ag351
ag351
ag351
ag351
ag351
ag351
ag351
ag351
ag351
ag351
ag351
ag351
ag351
ag351
ag351
ag351
ag351
ag351
ag351
ag351
ag351
ag351
ag351
ag351
ag351
ag351
ag351
ag351
ag351
ag351
ag351
ag351
ag351
ag351
ag351
ag351
ag351
ag351
ag351
ag351
ag351
ag351
ag351
ag351
ag351
ag351
ag351
ag351
ag351
ag351
ag351
ag351
ag351
ag351
ag351
ag351
ag351
ag351
ag351
ag351
ag351
ag351
ag351
ag351
ag351
ag351
ag351
ag351
ag351
ag351
ag351
ag351
ag351
ag351
ag351
ag351
ag351
ag351
ag351
ag351
ag351
ag351
ag351
ag351
ag351
ag351
ag351
ag351
ag351
ag351
ag351
ag351
ag351
ag351
ag351
ag351
ag351
ag351
ag351
ag351
ag351
ag351
ag351
ag351
ag351
ag351
ag351
ag351
ag351
ag351
ag351
ag351
ag351
ag351
ag351
ag351
ag351
ag351
ag351
ag351
ag351
ag351
ag351
ag351
ag351
ag351
ag351
ag351
ag351
ag351
ag351
ag351
ag351
ag351
ag351
ag351
ag351
ag351
ag351
ag351
ag351
ag351
ag351
ag351
ag351
ag351
ag351
ag351
ag351
ag351
ag351
ag351
ag351
ag351
ag351
ag351
ag351
ag351
ag351
ag351
ag351
ag351
ag351
ag351
ag351
ag351
ag351
ag351
ag351
ag351
ag351
ag351
ag351
ag351
ag351
ag351
ag351
ag351
ag351
ag351
ag351
ag351
ag351
ag351
ag351
ag351
ag351
ag351
ag351
ag351
ag351
ag351
ag351
ag351
ag351
ag351
ag351
ag351
ag351
ag351
ag351
ag351
ag351
ag351
ag351
ag351
ag351
ag351
ag351
ag351
ag351
ag351
ag351
ag351
ag351
ag351
ag351
ag351
ag351
ag351
ag351
ag351
ag351
ag351
ag351
ag351
ag351
ag351
ag351
ag351
ag351
ag351
ag351
ag351
ag351
ag351
ag351
ag351
ag351
ag351
ag351
ag351
ag351
ag351
ag351
ag351
ag351
ag351
ag351
ag351
ag351
ag351
ag351
ag351
ag351
a(itree
PTree
p375
(dp376
g64
g65
(g66
g67
Ntp377
Rp378
(dp379
g71
I0
sg82
g65
(g78
g67
Ntp380
Rp381
(dp382
g82
Nsg83
I00
sg84
S'Release_Demand'
p383
sg74
Nsbsg72
g73
sg90
F622.0517608148847
sg74
g65
(g66
g67
Ntp384
Rp385
(dp386
g71
I0
sg82
g65
(g78
g67
Ntp387
Rp388
(dp389
g82
Nsg83
I00
sg84
S'Hedge_90'
p390
sg74
Nsbsg72
g73
sg90
F390.71378569072374
sg74
g65
(g66
g67
Ntp391
Rp392
(dp393
g71
I0
sg82
g65
(g78
g67
Ntp394
Rp395
(dp396
g82
Nsg83
I00
sg84
S'Hedge_80'
p397
sg74
Nsbsg72
g73
sg90
F207.4428399233236
sg74
g65
(g78
g67
Ntp398
Rp399
(dp400
g82
Nsg83
I00
sg84
S'Hedge_50'
p401
sg74
Nsbsg83
I01
sbsg83
I01
sbsg83
I01
sbsg95
(lp402
g378
ag385
ag392
ag399
ag395
ag388
ag381
asg97
I7
sbag375
ag375
ag375
ag375
ag375
ag375
ag375
ag375
ag375
ag375
ag375
ag375
ag375
ag375
a(itree
PTree
p403
(dp404
g64
g65
(g66
g67
Ntp405
Rp406
(dp407
g71
I0
sg82
g65
(g78
g67
Ntp408
Rp409
(dp410
g82
Nsg83
I00
sg84
g383
sg74
Nsbsg72
g73
sg90
F622.0517608148847
sg74
g65
(g66
g67
Ntp411
Rp412
(dp413
g71
I0
sg82
g65
(g78
g67
Ntp414
Rp415
(dp416
g82
Nsg83
I00
sg84
g390
sg74
Nsbsg72
g73
sg90
F388.03446011162066
sg74
g65
(g66
g67
Ntp417
Rp418
(dp419
g71
I0
sg82
g65
(g78
g67
Ntp420
Rp421
(dp422
g82
Nsg83
I00
sg84
g397
sg74
Nsbsg72
g73
sg90
F175.37193274965895
sg74
g65
(g78
g67
Ntp423
Rp424
(dp425
g82
Nsg83
I00
sg84
g401
sg74
Nsbsg83
I01
sbsg83
I01
sbsg83
I01
sbsg95
(lp426
g406
ag412
ag418
ag424
ag421
ag415
ag409
asg97
I7
sbag403
ag403
ag403
ag403
ag403
ag403
ag403
ag403
ag403
ag403
ag403
ag403
ag403
ag403
ag403
ag403
ag403
ag403
ag403
ag403
ag403
ag403
ag403
a(itree
PTree
p427
(dp428
g64
g65
(g66
g67
Ntp429
Rp430
(dp431
g71
I0
sg82
g65
(g78
g67
Ntp432
Rp433
(dp434
g82
Nsg83
I00
sg84
g383
sg74
Nsbsg72
g73
sg90
F622.0517608148847
sg74
g65
(g66
g67
Ntp435
Rp436
(dp437
g71
I0
sg82
g65
(g78
g67
Ntp438
Rp439
(dp440
g82
Nsg83
I00
sg84
g390
sg74
Nsbsg72
g73
sg90
F411.3073329451791
sg74
g65
(g66
g67
Ntp441
Rp442
(dp443
g71
I0
sg82
g65
(g78
g67
Ntp444
Rp445
(dp446
g82
Nsg83
I00
sg84
g397
sg74
Nsbsg72
g73
sg90
F175.37193274965895
sg74
g65
(g78
g67
Ntp447
Rp448
(dp449
g82
Nsg83
I00
sg84
g401
sg74
Nsbsg83
I01
sbsg83
I01
sbsg83
I01
sbsg95
(lp450
g430
ag436
ag442
ag448
ag445
ag439
ag433
asg97
I7
sbag427
ag427
ag427
ag427
ag427
ag427
ag427
ag427
ag427
ag427
ag427
ag427
ag427
ag427
ag427
ag427
ag427
ag427
ag427
ag427
ag427
ag427
ag427
ag427
asS'time'
p451
(lp452
I76
aI115
aI152
aI189
aI225
aI262
aI299
aI336
aI372
aI408
aI445
aI481
aI517
aI553
aI589
aI625
aI662
aI698
aI734
aI770
aI807
aI843
aI879
aI916
aI952
aI989
aI1025
aI1062
aI1098
aI1134
aI1171
aI1207
aI1243
aI1280
aI1316
aI1353
aI1389
aI1425
aI1461
aI1498
aI1534
aI1571
aI1607
aI1644
aI1680
aI1717
aI1754
aI1790
aI1827
aI1863
aI1900
aI1936
aI1973
aI2009
aI2046
aI2082
aI2119
aI2156
aI2192
aI2229
aI2265
aI2302
aI2338
aI2375
aI2411
aI2448
aI2485
aI2521
aI2558
aI2594
aI2631
aI2667
aI2704
aI2740
aI2777
aI2813
aI2849
aI2887
aI2923
aI2959
aI2996
aI3033
aI3069
aI3106
aI3142
aI3178
aI3215
aI3252
aI3288
aI3325
aI3361
aI3398
aI3435
aI3471
aI3507
aI3544
aI3581
aI3617
aI3654
aI3691
aI3727
aI3764
aI3801
aI3838
aI3874
aI3910
aI3948
aI3984
aI4020
aI4057
aI4094
aI4131
aI4168
aI4204
aI4240
aI4277
aI4314
aI4350
aI4386
aI4423
aI4459
aI4496
aI4532
aI4569
aI4606
aI4643
aI4679
aI4716
aI4753
aI4789
aI4825
aI4862
aI4899
aI4935
aI4972
aI5009
aI5045
aI5081
aI5118
aI5155
aI5192
aI5229
aI5266
aI5302
aI5339
aI5376
aI5412
aI5448
aI5485
aI5521
aI5558
aI5594
aI5631
aI5667
aI5703
aI5740
aI5777
aI5813
aI5850
aI5887
aI5923
aI5960
aI5996
aI6033
aI6070
aI6106
aI6143
aI6180
aI6216
aI6253
aI6289
aI6326
aI6362
aI6399
aI6435
aI6472
aI6509
aI6546
aI6583
aI6620
aI6657
aI6693
aI6730
aI6767
aI6803
aI6839
aI6875
aI6910
aI6946
aI6981
aI7016
aI7052
aI7088
aI7124
aI7160
aI7195
aI7231
aI7266
aI7302
aI7337
aI7373
aI7409
aI7444
aI7480
aI7515
aI7551
aI7586
aI7622
aI7658
aI7693
aI7729
aI7764
aI7800
aI7836
aI7872
aI7907
aI7943
aI7979
aI8015
aI8051
aI8086
aI8122
aI8158
aI8193
aI8229
aI8265
aI8300
aI8336
aI8372
aI8408
aI8444
aI8479
aI8516
aI8552
aI8587
aI8623
aI8658
aI8694
aI8730
aI8765
aI8801
aI8837
aI8873
aI8908
aI8943
aI8979
aI9015
aI9051
aI9087
aI9122
aI9158
aI9194
aI9229
aI9265
aI9301
aI9336
aI9372
aI9407
aI9443
aI9479
aI9515
aI9550
aI9586
aI9622
aI9658
aI9693
aI9728
aI9764
aI9799
aI9835
aI9871
aI9906
aI9942
aI9977
aI10013
aI10048
aI10084
aI10119
aI10155
aI10191
aI10226
aI10262
aI10298
aI10333
aI10369
aI10405
aI10440
aI10476
aI10512
aI10547
aI10583
aI10619
aI10655
aI10690
aI10726
aI10762
aI10798
aI10833
aI10869
aI10904
aI10940
aI10975
aI11011
aI11047
aI11082
aI11117
aI11152
aI11188
aI11223
aI11259
aI11294
aI11330
aI11365
aI11401
aI11436
aI11472
aI11507
aI11544
aI11580
aI11615
aI11651
aI11686
aI11721
aI11757
aI11793
aI11828
aI11864
aI11899
aI11935
aI11971
aI12007
aI12043
aI12078
aI12114
aI12150
aI12185
aI12221
aI12256
aI12293
aI12330
aI12369
aI12409
aI12452
aI12494
aI12534
aI12572
aI12610
aI12646
aI12686
aI12727
aI12770
aI12813
aI12856
aI12893
aI12930
aI12966
aI13008
aI13051
aI13092
aI13132
aI13174
aI13212
aI13248
aI13286
aI13329
aI13371
aI13411
aI13451
aI13492
aI13530
aI13567
aI13606
aI13643
aI13680
aI13718
aI13756
aI13792
aI13826
aI13856
aI13890
aI13925
aI13958
aI13991
aI14026
aI14061
aI14094
aI14128
aI14162
aI14195
aI14230
aI14264
aI14301
aI14338
aI14376
aI14416
aI14451
aI14486
aI14519
aI14552
aI14585
aI14619
aI14652
aI14686
aI14722
aI14758
aI14794
aI14830
aI14863
aI14897
aI14930
aI14963
aI14997
aI15030
aI15064
aI15097
aI15131
aI15164
aI15199
aI15237
aI15275
aI15314
aI15352
aI15390
aI15427
aI15464
aI15500
aI15537
aI15574
aI15611
aI15647
aI15684
aI15721
aI15758
aI15794
aI15831
aI15868
aI15905
aI15942
aI15978
aI16015
aI16051
aI16088
aI16125
aI16162
aI16199
aI16236
aI16273
aI16309
aI16346
aI16383
aI16420
aI16456
aI16493
aI16530
aI16567
aI16604
aI16641
aI16678
aI16715
aI16751
aI16788
aI16825
aI16862
aI16899
aI16936
aI16972
aI17009
aI17046
aI17083
aI17120
aI17156
aI17194
aI17230
aI17267
aI17304
aI17341
aI17377
aI17414
aI17451
aI17488
aI17525
aI17562
aI17598
aI17635
aI17672
aI17708
aI17745
aI17784
aI17820
aI17856
aI17892
aI17927
aI17963
aI17999
aI18035
aI18071
aI18107
aI18143
aI18179
aI18215
as.