(dp0
S'nfe'
p1
(lp2
I50
aI100
aI150
aI200
aI250
aI300
aI350
aI400
aI450
aI500
aI550
aI600
aI650
aI700
aI750
aI800
aI850
aI900
aI950
aI1000
aI1050
aI1100
aI1150
aI1200
aI1250
aI1300
aI1350
aI1400
aI1450
aI1500
aI1550
aI1600
aI1650
aI1700
aI1750
aI1800
aI1850
aI1900
aI1950
aI2000
aI2050
aI2100
aI2150
aI2200
aI2250
aI2300
aI2350
aI2400
aI2450
aI2500
aI2550
aI2600
aI2650
aI2700
aI2750
aI2800
aI2850
aI2900
aI2950
aI3000
aI3050
aI3100
aI3150
aI3200
aI3250
aI3300
aI3350
aI3400
aI3450
aI3500
aI3550
aI3600
aI3650
aI3700
aI3750
aI3800
aI3850
aI3900
aI3950
aI4000
aI4050
aI4100
aI4150
aI4200
aI4250
aI4300
aI4350
aI4400
aI4450
aI4500
aI4550
aI4600
aI4650
aI4700
aI4750
aI4800
aI4850
aI4900
aI4950
aI5000
aI5050
aI5100
aI5150
aI5200
aI5250
aI5300
aI5350
aI5400
aI5450
aI5500
aI5550
aI5600
aI5650
aI5700
aI5750
aI5800
aI5850
aI5900
aI5950
aI6000
aI6050
aI6100
aI6150
aI6200
aI6250
aI6300
aI6350
aI6400
aI6450
aI6500
aI6550
aI6600
aI6650
aI6700
aI6750
aI6800
aI6850
aI6900
aI6950
aI7000
aI7050
aI7100
aI7150
aI7200
aI7250
aI7300
aI7350
aI7400
aI7450
aI7500
aI7550
aI7600
aI7650
aI7700
aI7750
aI7800
aI7850
aI7900
aI7950
aI8000
aI8050
aI8100
aI8150
aI8200
aI8250
aI8300
aI8350
aI8400
aI8450
aI8500
aI8550
aI8600
aI8650
aI8700
aI8750
aI8800
aI8850
aI8900
aI8950
aI9000
aI9050
aI9100
aI9150
aI9200
aI9250
aI9300
aI9350
aI9400
aI9450
aI9500
aI9550
aI9600
aI9650
aI9700
aI9750
aI9800
aI9850
aI9900
aI9950
aI10000
aI10050
aI10100
aI10150
aI10200
aI10250
aI10300
aI10350
aI10400
aI10450
aI10500
aI10550
aI10600
aI10650
aI10700
aI10750
aI10800
aI10850
aI10900
aI10950
aI11000
aI11050
aI11100
aI11150
aI11200
aI11250
aI11300
aI11350
aI11400
aI11450
aI11500
aI11550
aI11600
aI11650
aI11700
aI11750
aI11800
aI11850
aI11900
aI11950
aI12000
aI12050
aI12100
aI12150
aI12200
aI12250
aI12300
aI12350
aI12400
aI12450
aI12500
aI12550
aI12600
aI12650
aI12700
aI12750
aI12800
aI12850
aI12900
aI12950
aI13000
aI13050
aI13100
aI13150
aI13200
aI13250
aI13300
aI13350
aI13400
aI13450
aI13500
aI13550
aI13600
aI13650
aI13700
aI13750
aI13800
aI13850
aI13900
aI13950
aI14000
aI14050
aI14100
aI14150
aI14200
aI14250
aI14300
aI14350
aI14400
aI14450
aI14500
aI14550
aI14600
aI14650
aI14700
aI14750
aI14800
aI14850
aI14900
aI14950
aI15000
aI15050
aI15100
aI15150
aI15200
aI15250
aI15300
aI15350
aI15400
aI15450
aI15500
aI15550
aI15600
aI15650
aI15700
aI15750
aI15800
aI15850
aI15900
aI15950
aI16000
aI16050
aI16100
aI16150
aI16200
aI16250
aI16300
aI16350
aI16400
aI16450
aI16500
aI16550
aI16600
aI16650
aI16700
aI16750
aI16800
aI16850
aI16900
aI16950
aI17000
aI17050
aI17100
aI17150
aI17200
aI17250
aI17300
aI17350
aI17400
aI17450
aI17500
aI17550
aI17600
aI17650
aI17700
aI17750
aI17800
aI17850
aI17900
aI17950
aI18000
aI18050
aI18100
aI18150
aI18200
aI18250
aI18300
aI18350
aI18400
aI18450
aI18500
aI18550
aI18600
aI18650
aI18700
aI18750
aI18800
aI18850
aI18900
aI18950
aI19000
aI19050
aI19100
aI19150
aI19200
aI19250
aI19300
aI19350
aI19400
aI19450
aI19500
aI19550
aI19600
aI19650
aI19700
aI19750
aI19800
aI19850
aI19900
aI19950
aI20000
aI20050
aI20100
aI20150
aI20200
aI20250
aI20300
aI20350
aI20400
aI20450
aI20500
aI20550
aI20600
aI20650
aI20700
aI20750
aI20800
aI20850
aI20900
aI20950
aI21000
aI21050
aI21100
aI21150
aI21200
aI21250
aI21300
aI21350
aI21400
aI21450
aI21500
aI21550
aI21600
aI21650
aI21700
aI21750
aI21800
aI21850
aI21900
aI21950
aI22000
aI22050
aI22100
aI22150
aI22200
aI22250
aI22300
aI22350
aI22400
aI22450
aI22500
aI22550
aI22600
aI22650
aI22700
aI22750
aI22800
aI22850
aI22900
aI22950
aI23000
aI23050
aI23100
aI23150
aI23200
aI23250
aI23300
aI23350
aI23400
aI23450
aI23500
aI23550
aI23600
aI23650
aI23700
aI23750
aI23800
aI23850
aI23900
aI23950
aI24000
aI24050
aI24100
aI24150
aI24200
aI24250
aI24300
aI24350
aI24400
aI24450
aI24500
aI24550
aI24600
aI24650
aI24700
aI24750
aI24800
aI24850
aI24900
aI24950
aI25000
asS'best_f'
p3
(lp4
cnumpy.core.multiarray
scalar
p5
(cnumpy
dtype
p6
(S'f8'
p7
I0
I1
tp8
Rp9
(I3
S'<'
p10
NNNI-1
I-1
I0
tp11
bS'\x0b\xd20\xa84D\xd4?'
p12
tp13
Rp14
ag5
(g9
S'xz\xb4:\x8e\xb2\xd2?'
p15
tp16
Rp17
ag5
(g9
S'\xa3\x90\x12\x08\xe4]\xd1?'
p18
tp19
Rp20
ag20
ag20
ag20
ag20
ag20
ag20
ag20
ag20
ag20
ag20
ag5
(g9
S'\xd9\xa2\x1c\xa0\xef\xf9\xcf?'
p21
tp22
Rp23
ag23
ag23
ag5
(g9
S'>\x90c\r\x12\xa2\xcf?'
p24
tp25
Rp26
ag5
(g9
S'\xbe\x97\xcf\xe62\xe1\xce?'
p27
tp28
Rp29
ag29
ag5
(g9
S'\xb1n4\x94\x1a\x9e\xce?'
p30
tp31
Rp32
ag32
ag32
ag32
ag32
ag32
ag32
ag32
ag32
ag32
ag32
ag32
ag32
ag32
ag32
ag32
ag32
ag32
ag32
ag32
ag32
ag32
ag32
ag32
ag5
(g9
S'\x1dc@_6~\xce?'
p33
tp34
Rp35
ag35
ag5
(g9
S' \xd1\xa6\x9dXV\xce?'
p36
tp37
Rp38
ag38
ag38
ag38
ag38
ag38
ag38
ag38
ag38
ag38
ag38
ag38
ag38
ag38
ag38
ag38
ag5
(g9
S'\xf3\x86_\xb5\x85G\xce?'
p39
tp40
Rp41
ag41
ag41
ag41
ag5
(g9
S'P\x11K\x87\xd9D\xce?'
p42
tp43
Rp44
ag44
ag44
ag44
ag44
ag44
ag44
ag44
ag44
ag44
ag44
ag44
ag44
ag5
(g9
S'\xb1\xa0\xa7\xca^"\xce?'
p45
tp46
Rp47
ag47
ag47
ag47
ag47
ag47
ag47
ag47
ag47
ag47
ag47
ag47
ag47
ag47
ag47
ag47
ag47
ag47
ag47
ag47
ag47
ag47
ag47
ag47
ag47
ag47
ag47
ag47
ag47
ag47
ag5
(g9
S'\xf5\xc9\xf3\xfd\x85\r\xce?'
p48
tp49
Rp50
ag50
ag50
ag50
ag50
ag50
ag50
ag50
ag50
ag50
ag50
ag50
ag50
ag50
ag50
ag50
ag50
ag50
ag50
ag50
ag50
ag50
ag50
ag50
ag50
ag50
ag50
ag50
ag50
ag50
ag50
ag50
ag5
(g9
S'\xd8M\x17\xf1\xf2\xef\xcd?'
p51
tp52
Rp53
ag53
ag53
ag53
ag53
ag53
ag53
ag5
(g9
S'{\xb0\xb5\xb2 \xe3\xcd?'
p54
tp55
Rp56
ag56
ag56
ag56
ag56
ag56
ag56
ag56
ag56
ag56
ag56
ag56
ag56
ag56
ag56
ag56
ag5
(g9
S'\xfb\xe7\x14\xd4\xf3_\xcd?'
p57
tp58
Rp59
ag59
ag59
ag59
ag59
ag59
ag59
ag59
ag59
ag59
ag59
ag59
ag59
ag59
ag59
ag59
ag59
ag59
ag59
ag59
ag59
ag59
ag59
ag59
ag59
ag59
ag59
ag59
ag59
ag59
ag59
ag59
ag59
ag59
ag59
ag59
ag59
ag59
ag59
ag59
ag59
ag59
ag59
ag5
(g9
S'\x12\xb4\x94\x00\xe9Y\xcd?'
p60
tp61
Rp62
ag62
ag62
ag62
ag62
ag62
ag62
ag62
ag62
ag62
ag62
ag62
ag62
ag62
ag62
ag62
ag62
ag62
ag62
ag62
ag62
ag62
ag62
ag62
ag62
ag62
ag62
ag62
ag62
ag62
ag62
ag62
ag62
ag62
ag62
ag62
ag62
ag62
ag62
ag62
ag62
ag62
ag62
ag62
ag62
ag62
ag62
ag62
ag62
ag62
ag62
ag62
ag62
ag5
(g9
S'$\x04w\xf7\x07\xe2\xcc?'
p63
tp64
Rp65
ag65
ag65
ag65
ag65
ag65
ag65
ag65
ag65
ag65
ag65
ag65
ag65
ag65
ag65
ag65
ag65
ag65
ag65
ag65
ag65
ag65
ag65
ag65
ag65
ag65
ag65
ag65
ag65
ag65
ag65
ag65
ag65
ag65
ag65
ag65
ag65
ag65
ag65
ag65
ag65
ag65
ag65
ag65
ag65
ag65
ag65
ag65
ag65
ag65
ag65
ag65
ag65
ag65
ag65
ag65
ag65
ag65
ag65
ag65
ag65
ag65
ag65
ag65
ag65
ag65
ag65
ag65
ag65
ag65
ag65
ag65
ag65
ag65
ag65
ag65
ag65
ag65
ag65
ag65
ag65
ag65
ag65
ag65
ag65
ag65
ag65
ag65
ag65
ag65
ag65
ag65
ag65
ag65
ag65
ag65
ag65
ag65
ag65
ag65
ag65
ag65
ag65
ag65
ag65
ag65
ag65
ag65
ag65
ag65
ag65
ag65
ag65
ag65
ag65
ag65
ag65
ag65
ag65
ag65
ag65
ag5
(g9
S'XK\xa0\x00v\xd4\xcc?'
p66
tp67
Rp68
ag68
ag68
ag68
ag68
ag68
ag68
ag68
ag68
ag68
ag68
ag68
ag68
ag68
ag68
ag68
ag68
ag68
ag68
ag68
ag68
ag68
ag68
ag68
ag68
ag68
ag68
ag68
ag68
ag68
ag68
ag68
ag68
ag68
ag68
ag68
ag68
ag68
ag68
ag68
ag68
ag68
ag68
ag68
ag68
ag68
ag68
ag68
ag68
ag68
ag68
ag68
ag68
ag68
ag68
ag68
ag68
ag68
ag68
ag68
ag68
ag68
ag5
(g9
S'\x84\xd2\x0f\x1f?\xbd\xcc?'
p69
tp70
Rp71
ag71
ag71
ag71
ag71
ag71
ag71
ag71
ag71
ag71
ag71
ag71
ag71
ag71
ag71
ag5
(g9
S'6n\x9d\x1a:\xbb\xcc?'
p72
tp73
Rp74
ag74
ag74
ag74
ag74
ag74
ag74
ag74
ag74
ag74
ag74
ag74
ag74
ag74
ag74
ag74
ag74
ag74
ag74
ag74
ag74
ag74
ag74
ag74
ag74
ag74
ag74
ag74
ag74
ag74
ag74
ag74
ag74
ag74
ag74
ag74
ag74
ag74
ag74
ag74
ag74
ag74
ag74
asS'best_P'
p75
(lp76
(itree
PTree
p77
(dp78
S'root'
p79
ccopy_reg
_reconstructor
p80
(ctree
Feature
p81
c__builtin__
object
p82
Ntp83
Rp84
(dp85
S'index'
p86
I0
sS'name'
p87
S'Storage'
p88
sS'l'
p89
g80
(ctree
Action
p90
g82
Ntp91
Rp92
(dp93
S'r'
p94
NsS'is_feature'
p95
I00
sS'value'
p96
S'Hedge_80'
p97
sg89
Nsbsg94
g80
(g90
g82
Ntp98
Rp99
(dp100
g94
Nsg95
I00
sg96
S'Release_Demand'
p101
sg89
NsbsS'threshold'
p102
F712.6261028387771
sg95
I01
sbsS'L'
p103
(lp104
g84
ag92
ag99
asS'N'
p105
I3
sba(itree
PTree
p106
(dp107
g79
g80
(g81
g82
Ntp108
Rp109
(dp110
g86
I0
sg94
g80
(g90
g82
Ntp111
Rp112
(dp113
g94
Nsg95
I00
sg96
g101
sg89
Nsbsg87
g88
sg102
F647.1520343259342
sg89
g80
(g90
g82
Ntp114
Rp115
(dp116
g94
Nsg95
I00
sg96
g97
sg89
Nsbsg95
I01
sbsg103
(lp117
g109
ag115
ag112
asg105
I3
sba(itree
PTree
p118
(dp119
g79
g80
(g81
g82
Ntp120
Rp121
(dp122
g86
I0
sg94
g80
(g90
g82
Ntp123
Rp124
(dp125
g94
Nsg95
I00
sg96
S'Release_Demand'
p126
sg89
Nsbsg87
g88
sg102
F578.7910035533565
sg89
g80
(g90
g82
Ntp127
Rp128
(dp129
g94
Nsg95
I00
sg96
S'Hedge_80'
p130
sg89
Nsbsg95
I01
sbsg103
(lp131
g121
ag128
ag124
asg105
I3
sbag118
ag118
ag118
ag118
ag118
ag118
ag118
ag118
ag118
ag118
a(itree
PTree
p132
(dp133
g79
g80
(g81
g82
Ntp134
Rp135
(dp136
g86
I0
sg94
g80
(g90
g82
Ntp137
Rp138
(dp139
g94
Nsg95
I00
sg96
S'Release_Demand'
p140
sg89
Nsbsg87
g88
sg102
F483.27251646368717
sg89
g80
(g81
g82
Ntp141
Rp142
(dp143
g86
I0
sg94
g80
(g90
g82
Ntp144
Rp145
(dp146
g94
Nsg95
I00
sg96
S'Hedge_80'
p147
sg89
Nsbsg87
g88
sg102
F128.9694958279368
sg89
g80
(g90
g82
Ntp148
Rp149
(dp150
g94
Nsg95
I00
sg96
S'Hedge_50'
p151
sg89
Nsbsg95
I01
sbsg95
I01
sbsg103
(lp152
g135
ag142
ag149
ag145
ag138
asg105
I5
sbag132
ag132
a(itree
PTree
p153
(dp154
g79
g80
(g81
g82
Ntp155
Rp156
(dp157
g86
I0
sg94
g80
(g90
g82
Ntp158
Rp159
(dp160
g94
Nsg95
I00
sg96
g140
sg89
Nsbsg87
g88
sg102
F550.0675305099229
sg89
g80
(g81
g82
Ntp161
Rp162
(dp163
g86
I0
sg94
g80
(g90
g82
Ntp164
Rp165
(dp166
g94
Nsg95
I00
sg96
g147
sg89
Nsbsg87
g88
sg102
F190.44352243611885
sg89
g80
(g90
g82
Ntp167
Rp168
(dp169
g94
Nsg95
I00
sg96
g151
sg89
Nsbsg95
I01
sbsg95
I01
sbsg103
(lp170
g156
ag162
ag168
ag165
ag159
asg105
I5
sba(itree
PTree
p171
(dp172
g79
g80
(g81
g82
Ntp173
Rp174
(dp175
g86
I0
sg94
g80
(g90
g82
Ntp176
Rp177
(dp178
g94
Nsg95
I00
sg96
g140
sg89
Nsbsg87
g88
sg102
F482.92038198005235
sg89
g80
(g81
g82
Ntp179
Rp180
(dp181
g86
I0
sg94
g80
(g90
g82
Ntp182
Rp183
(dp184
g94
Nsg95
I00
sg96
g147
sg89
Nsbsg87
g88
sg102
F152.10396868001328
sg89
g80
(g90
g82
Ntp185
Rp186
(dp187
g94
Nsg95
I00
sg96
g151
sg89
Nsbsg95
I01
sbsg95
I01
sbsg103
(lp188
g174
ag180
ag186
ag183
ag177
asg105
I5
sbag171
a(itree
PTree
p189
(dp190
g79
g80
(g81
g82
Ntp191
Rp192
(dp193
g86
I0
sg94
g80
(g90
g82
Ntp194
Rp195
(dp196
g94
Nsg95
I00
sg96
g140
sg89
Nsbsg87
g88
sg102
F466.0020942939124
sg89
g80
(g81
g82
Ntp197
Rp198
(dp199
g86
I0
sg94
g80
(g90
g82
Ntp200
Rp201
(dp202
g94
Nsg95
I00
sg96
g147
sg89
Nsbsg87
g88
sg102
F161.62040111262394
sg89
g80
(g90
g82
Ntp203
Rp204
(dp205
g94
Nsg95
I00
sg96
g151
sg89
Nsbsg95
I01
sbsg95
I01
sbsg103
(lp206
g192
ag198
ag204
ag201
ag195
asg105
I5
sbag189
ag189
ag189
ag189
ag189
ag189
ag189
ag189
ag189
ag189
ag189
ag189
ag189
ag189
ag189
ag189
ag189
ag189
ag189
ag189
ag189
ag189
ag189
a(itree
PTree
p207
(dp208
g79
g80
(g81
g82
Ntp209
Rp210
(dp211
g86
I0
sg94
g80
(g90
g82
Ntp212
Rp213
(dp214
g94
Nsg95
I00
sg96
S'Release_Demand'
p215
sg89
Nsbsg87
g88
sg102
F390.1765215984546
sg89
g80
(g81
g82
Ntp216
Rp217
(dp218
g86
I0
sg94
g80
(g90
g82
Ntp219
Rp220
(dp221
g94
Nsg95
I00
sg96
S'Hedge_80'
p222
sg89
Nsbsg87
g88
sg102
F161.62040111262394
sg89
g80
(g90
g82
Ntp223
Rp224
(dp225
g94
Nsg95
I00
sg96
g151
sg89
Nsbsg95
I01
sbsg95
I01
sbsg103
(lp226
g210
ag217
ag224
ag220
ag213
asg105
I5
sbag207
a(itree
PTree
p227
(dp228
g79
g80
(g81
g82
Ntp229
Rp230
(dp231
g86
I0
sg94
g80
(g90
g82
Ntp232
Rp233
(dp234
g94
Nsg95
I00
sg96
g140
sg89
Nsbsg87
g88
sg102
F466.0020942939124
sg89
g80
(g81
g82
Ntp235
Rp236
(dp237
g86
I0
sg94
g80
(g90
g82
Ntp238
Rp239
(dp240
g94
Nsg95
I00
sg96
g147
sg89
Nsbsg87
g88
sg102
F194.47975606872166
sg89
g80
(g90
g82
Ntp241
Rp242
(dp243
g94
Nsg95
I00
sg96
g151
sg89
Nsbsg95
I01
sbsg95
I01
sbsg103
(lp244
g230
ag236
ag242
ag239
ag233
asg105
I5
sbag227
ag227
ag227
ag227
ag227
ag227
ag227
ag227
ag227
ag227
ag227
ag227
ag227
ag227
ag227
a(itree
PTree
p245
(dp246
g79
g80
(g81
g82
Ntp247
Rp248
(dp249
g86
I0
sg94
g80
(g90
g82
Ntp250
Rp251
(dp252
g94
Nsg95
I00
sg96
g215
sg89
Nsbsg87
g88
sg102
F487.78339791743684
sg89
g80
(g81
g82
Ntp253
Rp254
(dp255
g86
I0
sg94
g80
(g90
g82
Ntp256
Rp257
(dp258
g94
Nsg95
I00
sg96
g222
sg89
Nsbsg87
g88
sg102
F184.27570371326675
sg89
g80
(g90
g82
Ntp259
Rp260
(dp261
g94
Nsg95
I00
sg96
S'Hedge_50'
p262
sg89
Nsbsg95
I01
sbsg95
I01
sbsg103
(lp263
g248
ag254
ag260
ag257
ag251
asg105
I5
sbag245
ag245
ag245
a(itree
PTree
p264
(dp265
g79
g80
(g81
g82
Ntp266
Rp267
(dp268
g86
I0
sg94
g80
(g90
g82
Ntp269
Rp270
(dp271
g94
Nsg95
I00
sg96
S'Release_Demand'
p272
sg89
Nsbsg87
g88
sg102
F460.11384273505894
sg89
g80
(g81
g82
Ntp273
Rp274
(dp275
g86
I0
sg94
g80
(g90
g82
Ntp276
Rp277
(dp278
g94
Nsg95
I00
sg96
S'Hedge_80'
p279
sg89
Nsbsg87
g88
sg102
F175.00457828090413
sg89
g80
(g90
g82
Ntp280
Rp281
(dp282
g94
Nsg95
I00
sg96
S'Hedge_50'
p283
sg89
Nsbsg95
I01
sbsg95
I01
sbsg103
(lp284
g267
ag274
ag281
ag277
ag270
asg105
I5
sbag264
ag264
ag264
ag264
ag264
ag264
ag264
ag264
ag264
ag264
ag264
ag264
a(itree
PTree
p285
(dp286
g79
g80
(g81
g82
Ntp287
Rp288
(dp289
g86
I0
sg94
g80
(g90
g82
Ntp290
Rp291
(dp292
g94
Nsg95
I00
sg96
S'Release_Demand'
p293
sg89
Nsbsg87
g88
sg102
F452.6525343896194
sg89
g80
(g81
g82
Ntp294
Rp295
(dp296
g86
I0
sg94
g80
(g90
g82
Ntp297
Rp298
(dp299
g94
Nsg95
I00
sg96
S'Hedge_80'
p300
sg89
Nsbsg87
g88
sg102
F190.80064157895606
sg89
g80
(g90
g82
Ntp301
Rp302
(dp303
g94
Nsg95
I00
sg96
S'Hedge_50'
p304
sg89
Nsbsg95
I01
sbsg95
I01
sbsg103
(lp305
g288
ag295
ag302
ag298
ag291
asg105
I5
sbag285
ag285
ag285
ag285
ag285
ag285
ag285
ag285
ag285
ag285
ag285
ag285
ag285
ag285
ag285
ag285
ag285
ag285
ag285
ag285
ag285
ag285
ag285
ag285
ag285
ag285
ag285
ag285
ag285
a(itree
PTree
p306
(dp307
g79
g80
(g81
g82
Ntp308
Rp309
(dp310
g86
I0
sg94
g80
(g90
g82
Ntp311
Rp312
(dp313
g94
Nsg95
I00
sg96
g272
sg89
Nsbsg87
g88
sg102
F569.8150659442849
sg89
g80
(g81
g82
Ntp314
Rp315
(dp316
g86
I0
sg94
g80
(g90
g82
Ntp317
Rp318
(dp319
g94
Nsg95
I00
sg96
S'Hedge_90'
p320
sg89
Nsbsg87
g88
sg102
F288.67210041946123
sg89
g80
(g81
g82
Ntp321
Rp322
(dp323
g86
I0
sg94
g80
(g90
g82
Ntp324
Rp325
(dp326
g94
Nsg95
I00
sg96
S'Hedge_70'
p327
sg89
Nsbsg87
g88
sg102
F202.1897830091879
sg89
g80
(g90
g82
Ntp328
Rp329
(dp330
g94
Nsg95
I00
sg96
S'Hedge_50'
p331
sg89
Nsbsg95
I01
sbsg95
I01
sbsg95
I01
sbsg103
(lp332
g309
ag315
ag322
ag329
ag325
ag318
ag312
asg105
I7
sbag306
ag306
ag306
ag306
ag306
ag306
ag306
ag306
ag306
ag306
ag306
ag306
ag306
ag306
ag306
ag306
ag306
ag306
ag306
ag306
ag306
ag306
ag306
ag306
ag306
ag306
ag306
ag306
ag306
ag306
ag306
a(itree
PTree
p333
(dp334
g79
g80
(g81
g82
Ntp335
Rp336
(dp337
g86
I0
sg94
g80
(g90
g82
Ntp338
Rp339
(dp340
g94
Nsg95
I00
sg96
g272
sg89
Nsbsg87
g88
sg102
F509.31151624188544
sg89
g80
(g81
g82
Ntp341
Rp342
(dp343
g86
I0
sg94
g80
(g90
g82
Ntp344
Rp345
(dp346
g94
Nsg95
I00
sg96
g320
sg89
Nsbsg87
g88
sg102
F315.2307661074791
sg89
g80
(g81
g82
Ntp347
Rp348
(dp349
g86
I0
sg94
g80
(g90
g82
Ntp350
Rp351
(dp352
g94
Nsg95
I00
sg96
g327
sg89
Nsbsg87
g88
sg102
F153.6541895518871
sg89
g80
(g90
g82
Ntp353
Rp354
(dp355
g94
Nsg95
I00
sg96
g331
sg89
Nsbsg95
I01
sbsg95
I01
sbsg95
I01
sbsg103
(lp356
g336
ag342
ag348
ag354
ag351
ag345
ag339
asg105
I7
sbag333
ag333
ag333
ag333
ag333
ag333
a(itree
PTree
p357
(dp358
g79
g80
(g81
g82
Ntp359
Rp360
(dp361
g86
I0
sg94
g80
(g90
g82
Ntp362
Rp363
(dp364
g94
Nsg95
I00
sg96
g272
sg89
Nsbsg87
g88
sg102
F557.4473492362566
sg89
g80
(g81
g82
Ntp365
Rp366
(dp367
g86
I0
sg94
g80
(g90
g82
Ntp368
Rp369
(dp370
g94
Nsg95
I00
sg96
g320
sg89
Nsbsg87
g88
sg102
F315.2307661074791
sg89
g80
(g81
g82
Ntp371
Rp372
(dp373
g86
I0
sg94
g80
(g90
g82
Ntp374
Rp375
(dp376
g94
Nsg95
I00
sg96
g327
sg89
Nsbsg87
g88
sg102
F169.54707471526675
sg89
g80
(g90
g82
Ntp377
Rp378
(dp379
g94
Nsg95
I00
sg96
g331
sg89
Nsbsg95
I01
sbsg95
I01
sbsg95
I01
sbsg103
(lp380
g360
ag366
ag372
ag378
ag375
ag369
ag363
asg105
I7
sbag357
ag357
ag357
ag357
ag357
ag357
ag357
ag357
ag357
ag357
ag357
ag357
ag357
ag357
ag357
a(itree
PTree
p381
(dp382
g79
g80
(g81
g82
Ntp383
Rp384
(dp385
g86
I0
sg94
g80
(g90
g82
Ntp386
Rp387
(dp388
g94
Nsg95
I00
sg96
g272
sg89
Nsbsg87
g88
sg102
F592.9463403852119
sg89
g80
(g81
g82
Ntp389
Rp390
(dp391
g86
I0
sg94
g80
(g90
g82
Ntp392
Rp393
(dp394
g94
Nsg95
I00
sg96
g320
sg89
Nsbsg87
g88
sg102
F306.6717903719266
sg89
g80
(g81
g82
Ntp395
Rp396
(dp397
g86
I0
sg94
g80
(g90
g82
Ntp398
Rp399
(dp400
g94
Nsg95
I00
sg96
g327
sg89
Nsbsg87
g88
sg102
F169.54707471526675
sg89
g80
(g90
g82
Ntp401
Rp402
(dp403
g94
Nsg95
I00
sg96
g331
sg89
Nsbsg95
I01
sbsg95
I01
sbsg95
I01
sbsg103
(lp404
g384
ag390
ag396
ag402
ag399
ag393
ag387
asg105
I7
sbag381
ag381
ag381
ag381
ag381
ag381
ag381
ag381
ag381
ag381
ag381
ag381
ag381
ag381
ag381
ag381
ag381
ag381
ag381
ag381
ag381
ag381
ag381
ag381
ag381
ag381
ag381
ag381
ag381
ag381
ag381
ag381
ag381
ag381
ag381
ag381
ag381
ag381
ag381
ag381
ag381
ag381
a(itree
PTree
p405
(dp406
g79
g80
(g81
g82
Ntp407
Rp408
(dp409
g86
I0
sg94
g80
(g90
g82
Ntp410
Rp411
(dp412
g94
Nsg95
I00
sg96
g272
sg89
Nsbsg87
g88
sg102
F592.9463403852119
sg89
g80
(g81
g82
Ntp413
Rp414
(dp415
g86
I0
sg94
g80
(g90
g82
Ntp416
Rp417
(dp418
g94
Nsg95
I00
sg96
g320
sg89
Nsbsg87
g88
sg102
F295.6099643516245
sg89
g80
(g81
g82
Ntp419
Rp420
(dp421
g86
I0
sg94
g80
(g90
g82
Ntp422
Rp423
(dp424
g94
Nsg95
I00
sg96
g327
sg89
Nsbsg87
g88
sg102
F152.9491434779249
sg89
g80
(g90
g82
Ntp425
Rp426
(dp427
g94
Nsg95
I00
sg96
g331
sg89
Nsbsg95
I01
sbsg95
I01
sbsg95
I01
sbsg103
(lp428
g408
ag414
ag420
ag426
ag423
ag417
ag411
asg105
I7
sbag405
ag405
ag405
ag405
ag405
ag405
ag405
ag405
ag405
ag405
ag405
ag405
ag405
ag405
ag405
ag405
ag405
ag405
ag405
ag405
ag405
ag405
ag405
ag405
ag405
ag405
ag405
ag405
ag405
ag405
ag405
ag405
ag405
ag405
ag405
ag405
ag405
ag405
ag405
ag405
ag405
ag405
ag405
ag405
ag405
ag405
ag405
ag405
ag405
ag405
ag405
ag405
a(itree
PTree
p429
(dp430
g79
g80
(g81
g82
Ntp431
Rp432
(dp433
g86
I0
sg94
g80
(g90
g82
Ntp434
Rp435
(dp436
g94
Nsg95
I00
sg96
g272
sg89
Nsbsg87
g88
sg102
F628.0676716265145
sg89
g80
(g81
g82
Ntp437
Rp438
(dp439
g86
I0
sg94
g80
(g90
g82
Ntp440
Rp441
(dp442
g94
Nsg95
I00
sg96
g320
sg89
Nsbsg87
g88
sg102
F311.82302836083414
sg89
g80
(g81
g82
Ntp443
Rp444
(dp445
g86
I0
sg94
g80
(g90
g82
Ntp446
Rp447
(dp448
g94
Nsg95
I00
sg96
g327
sg89
Nsbsg87
g88
sg102
F152.9491434779249
sg89
g80
(g90
g82
Ntp449
Rp450
(dp451
g94
Nsg95
I00
sg96
g331
sg89
Nsbsg95
I01
sbsg95
I01
sbsg95
I01
sbsg103
(lp452
g432
ag438
ag444
ag450
ag447
ag441
ag435
asg105
I7
sbag429
ag429
ag429
ag429
ag429
ag429
ag429
ag429
ag429
ag429
ag429
ag429
ag429
ag429
ag429
ag429
ag429
ag429
ag429
ag429
ag429
ag429
ag429
ag429
ag429
ag429
ag429
ag429
ag429
ag429
ag429
ag429
ag429
ag429
ag429
ag429
ag429
ag429
ag429
ag429
ag429
ag429
ag429
ag429
ag429
ag429
ag429
ag429
ag429
ag429
ag429
ag429
ag429
ag429
ag429
ag429
ag429
ag429
ag429
ag429
ag429
ag429
ag429
ag429
ag429
ag429
ag429
ag429
ag429
ag429
ag429
ag429
ag429
ag429
ag429
ag429
ag429
ag429
ag429
ag429
ag429
ag429
ag429
ag429
ag429
ag429
ag429
ag429
ag429
ag429
ag429
ag429
ag429
ag429
ag429
ag429
ag429
ag429
ag429
ag429
ag429
ag429
ag429
ag429
ag429
ag429
ag429
ag429
ag429
ag429
ag429
ag429
ag429
ag429
ag429
ag429
ag429
ag429
ag429
ag429
a(itree
PTree
p453
(dp454
g79
g80
(g81
g82
Ntp455
Rp456
(dp457
g86
I0
sg94
g80
(g90
g82
Ntp458
Rp459
(dp460
g94
Nsg95
I00
sg96
S'Release_Demand'
p461
sg89
Nsbsg87
g88
sg102
F506.41810888116134
sg89
g80
(g81
g82
Ntp462
Rp463
(dp464
g86
I0
sg94
g80
(g90
g82
Ntp465
Rp466
(dp467
g94
Nsg95
I00
sg96
S'Hedge_90'
p468
sg89
Nsbsg87
g88
sg102
F406.3196318211738
sg89
g80
(g81
g82
Ntp469
Rp470
(dp471
g86
I0
sg94
g80
(g90
g82
Ntp472
Rp473
(dp474
g94
Nsg95
I00
sg96
S'Hedge_80'
p475
sg89
Nsbsg87
g88
sg102
F176.18685562197018
sg89
g80
(g90
g82
Ntp476
Rp477
(dp478
g94
Nsg95
I00
sg96
S'Hedge_50'
p479
sg89
Nsbsg95
I01
sbsg95
I01
sbsg95
I01
sbsg103
(lp480
g456
ag463
ag470
ag477
ag473
ag466
ag459
asg105
I7
sbag453
ag453
ag453
ag453
ag453
ag453
ag453
ag453
ag453
ag453
ag453
ag453
ag453
ag453
ag453
ag453
ag453
ag453
ag453
ag453
ag453
ag453
ag453
ag453
ag453
ag453
ag453
ag453
ag453
ag453
ag453
ag453
ag453
ag453
ag453
ag453
ag453
ag453
ag453
ag453
ag453
ag453
ag453
ag453
ag453
ag453
ag453
ag453
ag453
ag453
ag453
ag453
ag453
ag453
ag453
ag453
ag453
ag453
ag453
ag453
ag453
a(itree
PTree
p481
(dp482
g79
g80
(g81
g82
Ntp483
Rp484
(dp485
g86
I0
sg94
g80
(g90
g82
Ntp486
Rp487
(dp488
g94
Nsg95
I00
sg96
g461
sg89
Nsbsg87
g88
sg102
F621.2896057923464
sg89
g80
(g81
g82
Ntp489
Rp490
(dp491
g86
I0
sg94
g80
(g90
g82
Ntp492
Rp493
(dp494
g94
Nsg95
I00
sg96
g468
sg89
Nsbsg87
g88
sg102
F396.7630448775673
sg89
g80
(g81
g82
Ntp495
Rp496
(dp497
g86
I0
sg94
g80
(g90
g82
Ntp498
Rp499
(dp500
g94
Nsg95
I00
sg96
g475
sg89
Nsbsg87
g88
sg102
F188.28228701543972
sg89
g80
(g90
g82
Ntp501
Rp502
(dp503
g94
Nsg95
I00
sg96
g479
sg89
Nsbsg95
I01
sbsg95
I01
sbsg95
I01
sbsg103
(lp504
g484
ag490
ag496
ag502
ag499
ag493
ag487
asg105
I7
sbag481
ag481
ag481
ag481
ag481
ag481
ag481
ag481
ag481
ag481
ag481
ag481
ag481
ag481
a(itree
PTree
p505
(dp506
g79
g80
(g81
g82
Ntp507
Rp508
(dp509
g86
I0
sg94
g80
(g90
g82
Ntp510
Rp511
(dp512
g94
Nsg95
I00
sg96
g461
sg89
Nsbsg87
g88
sg102
F687.0105454516099
sg89
g80
(g81
g82
Ntp513
Rp514
(dp515
g86
I0
sg94
g80
(g90
g82
Ntp516
Rp517
(dp518
g94
Nsg95
I00
sg96
g468
sg89
Nsbsg87
g88
sg102
F432.099568589511
sg89
g80
(g81
g82
Ntp519
Rp520
(dp521
g86
I0
sg94
g80
(g90
g82
Ntp522
Rp523
(dp524
g94
Nsg95
I00
sg96
g475
sg89
Nsbsg87
g88
sg102
F180.36012417676977
sg89
g80
(g90
g82
Ntp525
Rp526
(dp527
g94
Nsg95
I00
sg96
g479
sg89
Nsbsg95
I01
sbsg95
I01
sbsg95
I01
sbsg103
(lp528
g508
ag514
ag520
ag526
ag523
ag517
ag511
asg105
I7
sbag505
ag505
ag505
ag505
ag505
ag505
ag505
ag505
ag505
ag505
ag505
ag505
ag505
ag505
ag505
ag505
ag505
ag505
ag505
ag505
ag505
ag505
ag505
ag505
ag505
ag505
ag505
ag505
ag505
ag505
ag505
ag505
ag505
ag505
ag505
ag505
ag505
ag505
ag505
ag505
ag505
ag505
asS'time'
p529
(lp530
I81
aI121
aI160
aI198
aI236
aI273
aI306
aI340
aI374
aI408
aI442
aI477
aI511
aI545
aI579
aI614
aI648
aI682
aI717
aI750
aI784
aI817
aI851
aI884
aI918
aI952
aI985
aI1019
aI1052
aI1086
aI1119
aI1152
aI1186
aI1219
aI1253
aI1286
aI1320
aI1354
aI1387
aI1421
aI1455
aI1489
aI1524
aI1558
aI1592
aI1627
aI1661
aI1696
aI1731
aI1765
aI1799
aI1834
aI1868
aI1902
aI1937
aI1971
aI2005
aI2040
aI2074
aI2109
aI2144
aI2178
aI2213
aI2247
aI2284
aI2319
aI2354
aI2391
aI2429
aI2464
aI2497
aI2531
aI2565
aI2599
aI2633
aI2666
aI2700
aI2733
aI2767
aI2800
aI2834
aI2868
aI2901
aI2935
aI2968
aI3001
aI3035
aI3066
aI3090
aI3116
aI3145
aI3171
aI3205
aI3239
aI3274
aI3310
aI3344
aI3380
aI3415
aI3449
aI3485
aI3518
aI3553
aI3587
aI3621
aI3656
aI3691
aI3728
aI3761
aI3795
aI3834
aI3868
aI3903
aI3938
aI3971
aI4004
aI4037
aI4070
aI4102
aI4134
aI4167
aI4200
aI4232
aI4265
aI4298
aI4330
aI4363
aI4395
aI4427
aI4459
aI4491
aI4524
aI4557
aI4589
aI4623
aI4655
aI4687
aI4720
aI4752
aI4785
aI4817
aI4849
aI4882
aI4914
aI4946
aI4979
aI5012
aI5044
aI5077
aI5109
aI5142
aI5174
aI5209
aI5246
aI5283
aI5320
aI5355
aI5387
aI5422
aI5459
aI5492
aI5524
aI5557
aI5589
aI5622
aI5654
aI5687
aI5719
aI5752
aI5784
aI5817
aI5850
aI5882
aI5916
aI5948
aI5981
aI6013
aI6045
aI6078
aI6111
aI6143
aI6175
aI6208
aI6241
aI6273
aI6306
aI6337
aI6370
aI6402
aI6435
aI6467
aI6499
aI6532
aI6565
aI6597
aI6630
aI6662
aI6694
aI6727
aI6759
aI6791
aI6824
aI6857
aI6890
aI6922
aI6955
aI6987
aI7020
aI7052
aI7085
aI7117
aI7149
aI7182
aI7214
aI7247
aI7279
aI7312
aI7345
aI7377
aI7410
aI7442
aI7474
aI7506
aI7539
aI7572
aI7604
aI7636
aI7669
aI7701
aI7734
aI7766
aI7799
aI7831
aI7864
aI7896
aI7929
aI7961
aI7994
aI8027
aI8059
aI8092
aI8124
aI8157
aI8190
aI8222
aI8255
aI8287
aI8320
aI8352
aI8390
aI8427
aI8463
aI8498
aI8535
aI8572
aI8609
aI8646
aI8682
aI8719
aI8756
aI8792
aI8829
aI8866
aI8902
aI8939
aI8975
aI9012
aI9048
aI9085
aI9121
aI9157
aI9194
aI9230
aI9266
aI9303
aI9339
aI9376
aI9413
aI9450
aI9486
aI9523
aI9560
aI9596
aI9633
aI9668
aI9705
aI9741
aI9777
aI9814
aI9851
aI9887
aI9923
aI9959
aI9996
aI10032
aI10069
aI10106
aI10142
aI10179
aI10216
aI10253
aI10290
aI10326
aI10363
aI10400
aI10436
aI10473
aI10510
aI10546
aI10584
aI10620
aI10656
aI10693
aI10729
aI10766
aI10802
aI10839
aI10876
aI10913
aI10949
aI10986
aI11023
aI11060
aI11096
aI11133
aI11169
aI11206
aI11243
aI11279
aI11316
aI11352
aI11389
aI11425
aI11455
aI11491
aI11528
aI11565
aI11602
aI11638
aI11675
aI11711
aI11748
aI11785
aI11821
aI11858
aI11894
aI11930
aI11967
aI12003
aI12040
aI12077
aI12113
aI12150
aI12187
aI12223
aI12260
aI12296
aI12333
aI12369
aI12406
aI12443
aI12480
aI12516
aI12552
aI12589
aI12626
aI12663
aI12700
aI12736
aI12773
aI12810
aI12846
aI12882
aI12919
aI12956
aI12993
aI13029
aI13065
aI13102
aI13139
aI13172
aI13205
aI13239
aI13273
aI13305
aI13338
aI13370
aI13403
aI13436
aI13466
aI13498
aI13531
aI13566
aI13602
aI13638
aI13671
aI13706
aI13739
aI13776
aI13812
aI13845
aI13878
aI13910
aI13943
aI13976
aI14008
aI14041
aI14073
aI14106
aI14138
aI14171
aI14203
aI14236
aI14268
aI14301
aI14334
aI14367
aI14399
aI14432
aI14464
aI14497
aI14529
aI14561
aI14594
aI14626
aI14659
aI14692
aI14724
aI14757
aI14790
aI14822
aI14855
aI14887
aI14920
aI14952
aI14985
aI15017
aI15050
aI15083
aI15116
aI15148
aI15181
aI15213
aI15246
aI15278
aI15311
aI15343
aI15375
aI15408
aI15440
aI15473
aI15505
aI15538
aI15570
aI15603
aI15636
aI15669
aI15701
aI15733
aI15766
aI15799
aI15831
aI15864
aI15897
aI15930
aI15963
aI15996
aI16029
aI16062
aI16094
aI16126
aI16159
aI16191
aI16224
aI16256
aI16289
aI16322
aI16354
aI16386
aI16419
aI16451
aI16484
aI16516
aI16548
aI16580
aI16613
aI16645
aI16677
aI16709
aI16741
aI16774
aI16806
aI16839
aI16872
aI16905
aI16937
aI16969
aI17002
aI17035
aI17067
as.