(dp0
S'nfe'
p1
(lp2
I50
aI100
aI150
aI200
aI250
aI300
aI350
aI400
aI450
aI500
aI550
aI600
aI650
aI700
aI750
aI800
aI850
aI900
aI950
aI1000
aI1050
aI1100
aI1150
aI1200
aI1250
aI1300
aI1350
aI1400
aI1450
aI1500
aI1550
aI1600
aI1650
aI1700
aI1750
aI1800
aI1850
aI1900
aI1950
aI2000
aI2050
aI2100
aI2150
aI2200
aI2250
aI2300
aI2350
aI2400
aI2450
aI2500
aI2550
aI2600
aI2650
aI2700
aI2750
aI2800
aI2850
aI2900
aI2950
aI3000
aI3050
aI3100
aI3150
aI3200
aI3250
aI3300
aI3350
aI3400
aI3450
aI3500
aI3550
aI3600
aI3650
aI3700
aI3750
aI3800
aI3850
aI3900
aI3950
aI4000
aI4050
aI4100
aI4150
aI4200
aI4250
aI4300
aI4350
aI4400
aI4450
aI4500
aI4550
aI4600
aI4650
aI4700
aI4750
aI4800
aI4850
aI4900
aI4950
aI5000
aI5050
aI5100
aI5150
aI5200
aI5250
aI5300
aI5350
aI5400
aI5450
aI5500
aI5550
aI5600
aI5650
aI5700
aI5750
aI5800
aI5850
aI5900
aI5950
aI6000
aI6050
aI6100
aI6150
aI6200
aI6250
aI6300
aI6350
aI6400
aI6450
aI6500
aI6550
aI6600
aI6650
aI6700
aI6750
aI6800
aI6850
aI6900
aI6950
aI7000
aI7050
aI7100
aI7150
aI7200
aI7250
aI7300
aI7350
aI7400
aI7450
aI7500
aI7550
aI7600
aI7650
aI7700
aI7750
aI7800
aI7850
aI7900
aI7950
aI8000
aI8050
aI8100
aI8150
aI8200
aI8250
aI8300
aI8350
aI8400
aI8450
aI8500
aI8550
aI8600
aI8650
aI8700
aI8750
aI8800
aI8850
aI8900
aI8950
aI9000
aI9050
aI9100
aI9150
aI9200
aI9250
aI9300
aI9350
aI9400
aI9450
aI9500
aI9550
aI9600
aI9650
aI9700
aI9750
aI9800
aI9850
aI9900
aI9950
aI10000
aI10050
aI10100
aI10150
aI10200
aI10250
aI10300
aI10350
aI10400
aI10450
aI10500
aI10550
aI10600
aI10650
aI10700
aI10750
aI10800
aI10850
aI10900
aI10950
aI11000
aI11050
aI11100
aI11150
aI11200
aI11250
aI11300
aI11350
aI11400
aI11450
aI11500
aI11550
aI11600
aI11650
aI11700
aI11750
aI11800
aI11850
aI11900
aI11950
aI12000
aI12050
aI12100
aI12150
aI12200
aI12250
aI12300
aI12350
aI12400
aI12450
aI12500
aI12550
aI12600
aI12650
aI12700
aI12750
aI12800
aI12850
aI12900
aI12950
aI13000
aI13050
aI13100
aI13150
aI13200
aI13250
aI13300
aI13350
aI13400
aI13450
aI13500
aI13550
aI13600
aI13650
aI13700
aI13750
aI13800
aI13850
aI13900
aI13950
aI14000
aI14050
aI14100
aI14150
aI14200
aI14250
aI14300
aI14350
aI14400
aI14450
aI14500
aI14550
aI14600
aI14650
aI14700
aI14750
aI14800
aI14850
aI14900
aI14950
aI15000
aI15050
aI15100
aI15150
aI15200
aI15250
aI15300
aI15350
aI15400
aI15450
aI15500
aI15550
aI15600
aI15650
aI15700
aI15750
aI15800
aI15850
aI15900
aI15950
aI16000
aI16050
aI16100
aI16150
aI16200
aI16250
aI16300
aI16350
aI16400
aI16450
aI16500
aI16550
aI16600
aI16650
aI16700
aI16750
aI16800
aI16850
aI16900
aI16950
aI17000
aI17050
aI17100
aI17150
aI17200
aI17250
aI17300
aI17350
aI17400
aI17450
aI17500
aI17550
aI17600
aI17650
aI17700
aI17750
aI17800
aI17850
aI17900
aI17950
aI18000
aI18050
aI18100
aI18150
aI18200
aI18250
aI18300
aI18350
aI18400
aI18450
aI18500
aI18550
aI18600
aI18650
aI18700
aI18750
aI18800
aI18850
aI18900
aI18950
aI19000
aI19050
aI19100
aI19150
aI19200
aI19250
aI19300
aI19350
aI19400
aI19450
aI19500
aI19550
aI19600
aI19650
aI19700
aI19750
aI19800
aI19850
aI19900
aI19950
aI20000
aI20050
aI20100
aI20150
aI20200
aI20250
aI20300
aI20350
aI20400
aI20450
aI20500
aI20550
aI20600
aI20650
aI20700
aI20750
aI20800
aI20850
aI20900
aI20950
aI21000
aI21050
aI21100
aI21150
aI21200
aI21250
aI21300
aI21350
aI21400
aI21450
aI21500
aI21550
aI21600
aI21650
aI21700
aI21750
aI21800
aI21850
aI21900
aI21950
aI22000
aI22050
aI22100
aI22150
aI22200
aI22250
aI22300
aI22350
aI22400
aI22450
aI22500
aI22550
aI22600
aI22650
aI22700
aI22750
aI22800
aI22850
aI22900
aI22950
aI23000
aI23050
aI23100
aI23150
aI23200
aI23250
aI23300
aI23350
aI23400
aI23450
aI23500
aI23550
aI23600
aI23650
aI23700
aI23750
aI23800
aI23850
aI23900
aI23950
aI24000
aI24050
aI24100
aI24150
aI24200
aI24250
aI24300
aI24350
aI24400
aI24450
aI24500
aI24550
aI24600
aI24650
aI24700
aI24750
aI24800
aI24850
aI24900
aI24950
aI25000
asS'best_f'
p3
(lp4
cnumpy.core.multiarray
scalar
p5
(cnumpy
dtype
p6
(S'f8'
p7
I0
I1
tp8
Rp9
(I3
S'<'
p10
NNNI-1
I-1
I0
tp11
bS'\x08\x9e\xeb\xc0\x1c\x92\xdb?'
p12
tp13
Rp14
ag5
(g9
S'1E\xff\x9f\xca\xcf\xd2?'
p15
tp16
Rp17
ag5
(g9
S'*Vf\xeb#\xbb\xd2?'
p18
tp19
Rp20
ag5
(g9
S'\x88\xc9\xc9%\xf5j\xd2?'
p21
tp22
Rp23
ag5
(g9
S'\xa72_o\xa1\x07\xd2?'
p24
tp25
Rp26
ag5
(g9
S'\x9f\xb5\xef\xf2N\xa1\xd1?'
p27
tp28
Rp29
ag5
(g9
S's\xc8\xb8\xd6%\x8e\xd1?'
p30
tp31
Rp32
ag5
(g9
S'[\x7f\xcf\xadhy\xd1?'
p33
tp34
Rp35
ag35
ag35
ag35
ag5
(g9
S'\x99\x10;\x91\xd2G\xd1?'
p36
tp37
Rp38
ag38
ag38
ag38
ag38
ag38
ag38
ag38
ag38
ag38
ag38
ag38
ag38
ag38
ag38
ag38
ag38
ag38
ag38
ag38
ag38
ag38
ag38
ag38
ag38
ag38
ag38
ag38
ag38
ag38
ag38
ag38
ag38
ag38
ag38
ag38
ag38
ag38
ag38
ag38
ag38
ag38
ag38
ag38
ag38
ag38
ag38
ag38
ag38
ag38
ag38
ag38
ag38
ag38
ag38
ag38
ag38
ag38
ag38
ag38
ag38
ag38
ag38
ag38
ag38
ag38
ag38
ag38
ag38
ag38
ag38
ag38
ag38
ag38
ag38
ag38
ag38
ag38
ag38
ag38
ag38
ag38
ag38
ag38
ag38
ag38
ag38
ag38
ag38
ag38
ag38
ag38
ag38
ag38
ag38
ag38
ag38
ag38
ag38
ag38
ag38
ag38
ag38
ag38
ag38
ag38
ag38
ag38
ag38
ag38
ag38
ag38
ag38
ag38
ag38
ag38
ag38
ag38
ag38
ag38
ag38
ag38
ag38
ag38
ag38
ag38
ag38
ag38
ag38
ag38
ag38
ag38
ag38
ag38
ag38
ag38
ag38
ag38
ag38
ag38
ag38
ag38
ag38
ag38
ag38
ag38
ag38
ag38
ag38
ag38
ag38
ag38
ag38
ag38
ag38
ag38
ag38
ag38
ag38
ag38
ag38
ag38
ag38
ag38
ag38
ag38
ag38
ag38
ag38
ag38
ag38
ag38
ag38
ag38
ag38
ag38
ag38
ag38
ag38
ag38
ag38
ag38
ag38
ag38
ag38
ag38
ag38
ag38
ag38
ag38
ag38
ag38
ag38
ag38
ag38
ag38
ag38
ag38
ag38
ag38
ag38
ag38
ag38
ag38
ag38
ag38
ag38
ag38
ag38
ag38
ag38
ag38
ag38
ag38
ag38
ag38
ag38
ag38
ag38
ag38
ag38
ag38
ag38
ag38
ag38
ag38
ag38
ag38
ag38
ag38
ag38
ag38
ag38
ag38
ag38
ag38
ag38
ag38
ag38
ag38
ag38
ag38
ag38
ag38
ag38
ag38
ag38
ag38
ag38
ag38
ag38
ag38
ag38
ag38
ag38
ag38
ag38
ag38
ag38
ag38
ag38
ag38
ag38
ag38
ag38
ag38
ag38
ag38
ag38
ag38
ag38
ag38
ag38
ag38
ag38
ag38
ag38
ag38
ag38
ag38
ag38
ag38
ag38
ag38
ag38
ag38
ag38
ag38
ag38
ag38
ag38
ag38
ag38
ag38
ag38
ag38
ag38
ag38
ag38
ag38
ag38
ag38
ag38
ag38
ag38
ag38
ag38
ag38
ag38
ag38
ag38
ag38
ag38
ag38
ag38
ag38
ag38
ag38
ag38
ag38
ag38
ag38
ag38
ag38
ag38
ag38
ag38
ag38
ag38
ag38
ag38
ag38
ag38
ag38
ag38
ag38
ag38
ag38
ag38
ag38
ag38
ag38
ag38
ag38
ag38
ag38
ag38
ag38
ag38
ag38
ag38
ag38
ag38
ag38
ag38
ag38
ag38
ag38
ag38
ag38
ag38
ag38
ag38
ag38
ag38
ag38
ag38
ag38
ag38
ag38
ag38
ag38
ag38
ag38
ag38
ag38
ag38
ag38
ag38
ag38
ag38
ag38
ag38
ag38
ag38
ag38
ag38
ag38
ag38
ag38
ag38
ag38
ag38
ag38
ag38
ag38
ag38
ag38
ag38
ag38
ag38
ag38
ag38
ag38
ag38
ag38
ag38
ag38
ag38
ag38
ag38
ag38
ag38
ag38
ag38
ag38
ag38
ag38
ag38
ag38
ag38
ag38
ag38
ag38
ag38
ag38
ag38
ag38
ag38
ag38
ag38
ag38
ag38
ag38
ag38
ag38
ag38
ag38
ag38
ag38
ag38
ag38
ag38
ag38
ag38
ag38
ag38
ag38
ag38
ag38
ag38
ag38
ag38
ag38
ag38
ag38
ag38
ag38
ag38
ag38
ag38
ag38
ag38
ag38
ag38
ag38
ag38
ag38
ag38
ag38
ag38
ag38
ag38
ag38
ag38
ag38
ag38
ag38
ag38
ag38
ag38
ag38
ag38
ag38
ag38
ag38
ag38
ag38
ag38
asS'best_P'
p39
(lp40
(itree
PTree
p41
(dp42
S'root'
p43
ccopy_reg
_reconstructor
p44
(ctree
Feature
p45
c__builtin__
object
p46
Ntp47
Rp48
(dp49
S'index'
p50
I0
sS'name'
p51
S'Storage'
p52
sS'l'
p53
g44
(ctree
Action
p54
g46
Ntp55
Rp56
(dp57
S'r'
p58
NsS'is_feature'
p59
I00
sS'value'
p60
S'Hedge_90'
p61
sg53
Nsbsg58
g44
(g54
g46
Ntp62
Rp63
(dp64
g58
Nsg59
I00
sg60
S'Hedge_90'
p65
sg53
NsbsS'threshold'
p66
F771.985783402288
sg59
I01
sbsS'L'
p67
(lp68
g48
ag56
ag63
asS'N'
p69
I3
sba(itree
PTree
p70
(dp71
g43
g44
(g45
g46
Ntp72
Rp73
(dp74
g50
I0
sg58
g44
(g54
g46
Ntp75
Rp76
(dp77
g58
Nsg59
I00
sg60
S'Release_Demand'
p78
sg53
Nsbsg51
g52
sg66
F294.7259805856501
sg53
g44
(g54
g46
Ntp79
Rp80
(dp81
g58
Nsg59
I00
sg60
S'Hedge_70'
p82
sg53
Nsbsg59
I01
sbsg67
(lp83
g73
ag80
ag76
asg69
I3
sba(itree
PTree
p84
(dp85
g43
g44
(g45
g46
Ntp86
Rp87
(dp88
g50
I0
sg58
g44
(g54
g46
Ntp89
Rp90
(dp91
g58
Nsg59
I00
sg60
S'Release_Demand'
p92
sg53
Nsbsg51
g52
sg66
F303.15327094554345
sg53
g44
(g54
g46
Ntp93
Rp94
(dp95
g58
Nsg59
I00
sg60
S'Hedge_70'
p96
sg53
Nsbsg59
I01
sbsg67
(lp97
g87
ag94
ag90
asg69
I3
sba(itree
PTree
p98
(dp99
g43
g44
(g45
g46
Ntp100
Rp101
(dp102
g50
I0
sg58
g44
(g54
g46
Ntp103
Rp104
(dp105
g58
Nsg59
I00
sg60
g78
sg53
Nsbsg51
g52
sg66
F311.4429154389235
sg53
g44
(g54
g46
Ntp106
Rp107
(dp108
g58
Nsg59
I00
sg60
S'Hedge_70'
p109
sg53
Nsbsg59
I01
sbsg67
(lp110
g101
ag107
ag104
asg69
I3
sba(itree
PTree
p111
(dp112
g43
g44
(g45
g46
Ntp113
Rp114
(dp115
g50
I0
sg58
g44
(g54
g46
Ntp116
Rp117
(dp118
g58
Nsg59
I00
sg60
g92
sg53
Nsbsg51
g52
sg66
F333.7202890265382
sg53
g44
(g54
g46
Ntp119
Rp120
(dp121
g58
Nsg59
I00
sg60
S'Hedge_70'
p122
sg53
Nsbsg59
I01
sbsg67
(lp123
g114
ag120
ag117
asg69
I3
sba(itree
PTree
p124
(dp125
g43
g44
(g45
g46
Ntp126
Rp127
(dp128
g50
I0
sg58
g44
(g54
g46
Ntp129
Rp130
(dp131
g58
Nsg59
I00
sg60
S'Release_Demand'
p132
sg53
Nsbsg51
g52
sg66
F484.59482990314046
sg53
g44
(g54
g46
Ntp133
Rp134
(dp135
g58
Nsg59
I00
sg60
S'Hedge_80'
p136
sg53
Nsbsg59
I01
sbsg67
(lp137
g127
ag134
ag130
asg69
I3
sba(itree
PTree
p138
(dp139
g43
g44
(g45
g46
Ntp140
Rp141
(dp142
g50
I0
sg58
g44
(g54
g46
Ntp143
Rp144
(dp145
g58
Nsg59
I00
sg60
g92
sg53
Nsbsg51
g52
sg66
F369.66610881072836
sg53
g44
(g54
g46
Ntp146
Rp147
(dp148
g58
Nsg59
I00
sg60
g122
sg53
Nsbsg59
I01
sbsg67
(lp149
g141
ag147
ag144
asg69
I3
sba(itree
PTree
p150
(dp151
g43
g44
(g45
g46
Ntp152
Rp153
(dp154
g50
I0
sg58
g44
(g54
g46
Ntp155
Rp156
(dp157
g58
Nsg59
I00
sg60
g78
sg53
Nsbsg51
g52
sg66
F482.10678198029404
sg53
g44
(g54
g46
Ntp158
Rp159
(dp160
g58
Nsg59
I00
sg60
S'Hedge_80'
p161
sg53
Nsbsg59
I01
sbsg67
(lp162
g153
ag159
ag156
asg69
I3
sbag150
ag150
ag150
a(itree
PTree
p163
(dp164
g43
g44
(g45
g46
Ntp165
Rp166
(dp167
g50
I0
sg58
g44
(g54
g46
Ntp168
Rp169
(dp170
g58
Nsg59
I00
sg60
g132
sg53
Nsbsg51
g52
sg66
F515.9599159238193
sg53
g44
(g54
g46
Ntp171
Rp172
(dp173
g58
Nsg59
I00
sg60
g136
sg53
Nsbsg59
I01
sbsg67
(lp174
g166
ag172
ag169
asg69
I3
sbag163
ag163
ag163
ag163
ag163
ag163
ag163
ag163
ag163
ag163
ag163
ag163
ag163
ag163
ag163
ag163
ag163
ag163
ag163
ag163
ag163
ag163
ag163
ag163
ag163
ag163
ag163
ag163
ag163
ag163
ag163
ag163
ag163
ag163
ag163
ag163
ag163
ag163
ag163
ag163
ag163
ag163
ag163
ag163
ag163
ag163
ag163
ag163
ag163
ag163
ag163
ag163
ag163
ag163
ag163
ag163
ag163
ag163
ag163
ag163
ag163
ag163
ag163
ag163
ag163
ag163
ag163
ag163
ag163
ag163
ag163
ag163
ag163
ag163
ag163
ag163
ag163
ag163
ag163
ag163
ag163
ag163
ag163
ag163
ag163
ag163
ag163
ag163
ag163
ag163
ag163
ag163
ag163
ag163
ag163
ag163
ag163
ag163
ag163
ag163
ag163
ag163
ag163
ag163
ag163
ag163
ag163
ag163
ag163
ag163
ag163
ag163
ag163
ag163
ag163
ag163
ag163
ag163
ag163
ag163
ag163
ag163
ag163
ag163
ag163
ag163
ag163
ag163
ag163
ag163
ag163
ag163
ag163
ag163
ag163
ag163
ag163
ag163
ag163
ag163
ag163
ag163
ag163
ag163
ag163
ag163
ag163
ag163
ag163
ag163
ag163
ag163
ag163
ag163
ag163
ag163
ag163
ag163
ag163
ag163
ag163
ag163
ag163
ag163
ag163
ag163
ag163
ag163
ag163
ag163
ag163
ag163
ag163
ag163
ag163
ag163
ag163
ag163
ag163
ag163
ag163
ag163
ag163
ag163
ag163
ag163
ag163
ag163
ag163
ag163
ag163
ag163
ag163
ag163
ag163
ag163
ag163
ag163
ag163
ag163
ag163
ag163
ag163
ag163
ag163
ag163
ag163
ag163
ag163
ag163
ag163
ag163
ag163
ag163
ag163
ag163
ag163
ag163
ag163
ag163
ag163
ag163
ag163
ag163
ag163
ag163
ag163
ag163
ag163
ag163
ag163
ag163
ag163
ag163
ag163
ag163
ag163
ag163
ag163
ag163
ag163
ag163
ag163
ag163
ag163
ag163
ag163
ag163
ag163
ag163
ag163
ag163
ag163
ag163
ag163
ag163
ag163
ag163
ag163
ag163
ag163
ag163
ag163
ag163
ag163
ag163
ag163
ag163
ag163
ag163
ag163
ag163
ag163
ag163
ag163
ag163
ag163
ag163
ag163
ag163
ag163
ag163
ag163
ag163
ag163
ag163
ag163
ag163
ag163
ag163
ag163
ag163
ag163
ag163
ag163
ag163
ag163
ag163
ag163
ag163
ag163
ag163
ag163
ag163
ag163
ag163
ag163
ag163
ag163
ag163
ag163
ag163
ag163
ag163
ag163
ag163
ag163
ag163
ag163
ag163
ag163
ag163
ag163
ag163
ag163
ag163
ag163
ag163
ag163
ag163
ag163
ag163
ag163
ag163
ag163
ag163
ag163
ag163
ag163
ag163
ag163
ag163
ag163
ag163
ag163
ag163
ag163
ag163
ag163
ag163
ag163
ag163
ag163
ag163
ag163
ag163
ag163
ag163
ag163
ag163
ag163
ag163
ag163
ag163
ag163
ag163
ag163
ag163
ag163
ag163
ag163
ag163
ag163
ag163
ag163
ag163
ag163
ag163
ag163
ag163
ag163
ag163
ag163
ag163
ag163
ag163
ag163
ag163
ag163
ag163
ag163
ag163
ag163
ag163
ag163
ag163
ag163
ag163
ag163
ag163
ag163
ag163
ag163
ag163
ag163
ag163
ag163
ag163
ag163
ag163
ag163
ag163
ag163
ag163
ag163
ag163
ag163
ag163
ag163
ag163
ag163
ag163
ag163
ag163
ag163
ag163
ag163
ag163
ag163
ag163
ag163
ag163
ag163
ag163
ag163
ag163
ag163
ag163
ag163
ag163
ag163
ag163
ag163
ag163
ag163
ag163
ag163
ag163
ag163
ag163
ag163
ag163
ag163
ag163
ag163
ag163
ag163
ag163
ag163
ag163
ag163
ag163
ag163
ag163
ag163
ag163
ag163
ag163
ag163
ag163
ag163
ag163
ag163
ag163
ag163
ag163
ag163
ag163
ag163
ag163
ag163
ag163
ag163
ag163
ag163
ag163
ag163
ag163
asS'time'
p175
(lp176
I67
aI101
aI134
aI165
aI197
aI228
aI261
aI294
aI326
aI358
aI381
aI408
aI441
aI475
aI506
aI536
aI566
aI597
aI630
aI658
aI682
aI713
aI746
aI779
aI811
aI844
aI875
aI908
aI941
aI974
aI1006
aI1039
aI1069
aI1102
aI1133
aI1161
aI1194
aI1227
aI1261
aI1295
aI1328
aI1362
aI1395
aI1429
aI1463
aI1497
aI1531
aI1564
aI1596
aI1626
aI1657
aI1690
aI1724
aI1758
aI1792
aI1827
aI1861
aI1895
aI1929
aI1963
aI1997
aI2031
aI2066
aI2100
aI2134
aI2168
aI2202
aI2237
aI2271
aI2303
aI2333
aI2366
aI2401
aI2435
aI2469
aI2504
aI2538
aI2572
aI2607
aI2641
aI2675
aI2709
aI2743
aI2778
aI2812
aI2846
aI2880
aI2914
aI2949
aI2984
aI3019
aI3054
aI3089
aI3124
aI3159
aI3194
aI3229
aI3264
aI3299
aI3329
aI3363
aI3395
aI3422
aI3450
aI3478
aI3508
aI3539
aI3566
aI3595
aI3628
aI3660
aI3692
aI3725
aI3759
aI3792
aI3821
aI3853
aI3885
aI3910
aI3941
aI3974
aI4008
aI4038
aI4067
aI4094
aI4126
aI4160
aI4194
aI4222
aI4255
aI4287
aI4320
aI4350
aI4381
aI4413
aI4445
aI4477
aI4508
aI4537
aI4570
aI4602
aI4633
aI4665
aI4699
aI4731
aI4763
aI4796
aI4831
aI4866
aI4899
aI4933
aI4968
aI5003
aI5038
aI5073
aI5108
aI5143
aI5178
aI5212
aI5247
aI5281
aI5316
aI5351
aI5386
aI5421
aI5456
aI5491
aI5526
aI5561
aI5596
aI5630
aI5665
aI5697
aI5728
aI5760
aI5789
aI5822
aI5855
aI5888
aI5922
aI5956
aI5990
aI6024
aI6058
aI6092
aI6126
aI6160
aI6194
aI6228
aI6261
aI6295
aI6329
aI6363
aI6397
aI6431
aI6466
aI6500
aI6534
aI6568
aI6602
aI6636
aI6669
aI6703
aI6737
aI6771
aI6803
aI6837
aI6870
aI6904
aI6946
aI6986
aI7026
aI7061
aI7095
aI7129
aI7164
aI7198
aI7232
aI7265
aI7292
aI7323
aI7355
aI7388
aI7420
aI7453
aI7482
aI7513
aI7546
aI7578
aI7609
aI7639
aI7672
aI7703
aI7728
aI7758
aI7785
aI7818
aI7851
aI7883
aI7916
aI7949
aI7980
aI8012
aI8040
aI8071
aI8103
aI8133
aI8166
aI8198
aI8230
aI8262
aI8294
aI8326
aI8356
aI8389
aI8421
aI8454
aI8486
aI8518
aI8550
aI8582
aI8616
aI8650
aI8683
aI8717
aI8751
aI8784
aI8816
aI8848
aI8883
aI8917
aI8952
aI8987
aI9021
aI9056
aI9091
aI9125
aI9160
aI9195
aI9229
aI9264
aI9298
aI9333
aI9368
aI9402
aI9437
aI9472
aI9506
aI9541
aI9576
aI9610
aI9645
aI9679
aI9714
aI9748
aI9783
aI9817
aI9852
aI9886
aI9921
aI9956
aI9991
aI10025
aI10059
aI10093
aI10128
aI10159
aI10192
aI10220
aI10252
aI10283
aI10315
aI10340
aI10373
aI10403
aI10431
aI10462
aI10494
aI10524
aI10549
aI10582
aI10613
aI10646
aI10677
aI10710
aI10742
aI10774
aI10808
aI10836
aI10866
aI10898
aI10931
aI10963
aI10994
aI11025
aI11051
aI11082
aI11114
aI11145
aI11172
aI11196
aI11228
aI11261
aI11295
aI11324
aI11351
aI11380
aI11408
aI11434
aI11466
aI11495
aI11524
aI11556
aI11588
aI11620
aI11652
aI11684
aI11716
aI11749
aI11782
aI11814
aI11848
aI11879
aI11911
aI11941
aI11974
aI12005
aI12036
aI12066
aI12097
aI12129
aI12160
aI12193
aI12224
aI12257
aI12289
aI12320
aI12352
aI12381
aI12415
aI12449
aI12483
aI12517
aI12552
aI12586
aI12621
aI12655
aI12690
aI12725
aI12758
aI12790
aI12822
aI12855
aI12887
aI12920
aI12953
aI12985
aI13018
aI13052
aI13085
aI13119
aI13153
aI13186
aI13217
aI13249
aI13274
aI13305
aI13340
aI13375
aI13410
aI13445
aI13480
aI13515
aI13549
aI13584
aI13619
aI13655
aI13690
aI13724
aI13759
aI13793
aI13828
aI13863
aI13899
aI13933
aI13968
aI14003
aI14038
aI14073
aI14108
aI14143
aI14178
aI14213
aI14248
aI14282
aI14317
aI14352
aI14387
aI14422
aI14456
aI14491
aI14527
aI14561
aI14597
aI14632
aI14667
aI14702
aI14737
aI14772
aI14807
aI14842
aI14876
aI14911
aI14946
aI14981
aI15016
aI15051
aI15085
aI15120
aI15155
aI15190
aI15225
aI15260
aI15295
aI15323
aI15355
aI15388
aI15420
aI15452
aI15486
aI15521
aI15555
aI15590
aI15625
aI15659
aI15694
aI15728
aI15763
aI15797
aI15832
aI15866
aI15901
aI15935
aI15970
aI16004
aI16039
aI16074
aI16108
aI16143
aI16177
aI16212
aI16246
aI16281
aI16315
aI16350
aI16384
aI16419
aI16454
aI16488
aI16522
as.