(dp0
S'nfe'
p1
(lp2
I50
aI100
aI150
aI200
aI250
aI300
aI350
aI400
aI450
aI500
aI550
aI600
aI650
aI700
aI750
aI800
aI850
aI900
aI950
aI1000
aI1050
aI1100
aI1150
aI1200
aI1250
aI1300
aI1350
aI1400
aI1450
aI1500
aI1550
aI1600
aI1650
aI1700
aI1750
aI1800
aI1850
aI1900
aI1950
aI2000
aI2050
aI2100
aI2150
aI2200
aI2250
aI2300
aI2350
aI2400
aI2450
aI2500
aI2550
aI2600
aI2650
aI2700
aI2750
aI2800
aI2850
aI2900
aI2950
aI3000
aI3050
aI3100
aI3150
aI3200
aI3250
aI3300
aI3350
aI3400
aI3450
aI3500
aI3550
aI3600
aI3650
aI3700
aI3750
aI3800
aI3850
aI3900
aI3950
aI4000
aI4050
aI4100
aI4150
aI4200
aI4250
aI4300
aI4350
aI4400
aI4450
aI4500
aI4550
aI4600
aI4650
aI4700
aI4750
aI4800
aI4850
aI4900
aI4950
aI5000
aI5050
aI5100
aI5150
aI5200
aI5250
aI5300
aI5350
aI5400
aI5450
aI5500
aI5550
aI5600
aI5650
aI5700
aI5750
aI5800
aI5850
aI5900
aI5950
aI6000
aI6050
aI6100
aI6150
aI6200
aI6250
aI6300
aI6350
aI6400
aI6450
aI6500
aI6550
aI6600
aI6650
aI6700
aI6750
aI6800
aI6850
aI6900
aI6950
aI7000
aI7050
aI7100
aI7150
aI7200
aI7250
aI7300
aI7350
aI7400
aI7450
aI7500
aI7550
aI7600
aI7650
aI7700
aI7750
aI7800
aI7850
aI7900
aI7950
aI8000
aI8050
aI8100
aI8150
aI8200
aI8250
aI8300
aI8350
aI8400
aI8450
aI8500
aI8550
aI8600
aI8650
aI8700
aI8750
aI8800
aI8850
aI8900
aI8950
aI9000
aI9050
aI9100
aI9150
aI9200
aI9250
aI9300
aI9350
aI9400
aI9450
aI9500
aI9550
aI9600
aI9650
aI9700
aI9750
aI9800
aI9850
aI9900
aI9950
aI10000
aI10050
aI10100
aI10150
aI10200
aI10250
aI10300
aI10350
aI10400
aI10450
aI10500
aI10550
aI10600
aI10650
aI10700
aI10750
aI10800
aI10850
aI10900
aI10950
aI11000
aI11050
aI11100
aI11150
aI11200
aI11250
aI11300
aI11350
aI11400
aI11450
aI11500
aI11550
aI11600
aI11650
aI11700
aI11750
aI11800
aI11850
aI11900
aI11950
aI12000
aI12050
aI12100
aI12150
aI12200
aI12250
aI12300
aI12350
aI12400
aI12450
aI12500
aI12550
aI12600
aI12650
aI12700
aI12750
aI12800
aI12850
aI12900
aI12950
aI13000
aI13050
aI13100
aI13150
aI13200
aI13250
aI13300
aI13350
aI13400
aI13450
aI13500
aI13550
aI13600
aI13650
aI13700
aI13750
aI13800
aI13850
aI13900
aI13950
aI14000
aI14050
aI14100
aI14150
aI14200
aI14250
aI14300
aI14350
aI14400
aI14450
aI14500
aI14550
aI14600
aI14650
aI14700
aI14750
aI14800
aI14850
aI14900
aI14950
aI15000
aI15050
aI15100
aI15150
aI15200
aI15250
aI15300
aI15350
aI15400
aI15450
aI15500
aI15550
aI15600
aI15650
aI15700
aI15750
aI15800
aI15850
aI15900
aI15950
aI16000
aI16050
aI16100
aI16150
aI16200
aI16250
aI16300
aI16350
aI16400
aI16450
aI16500
aI16550
aI16600
aI16650
aI16700
aI16750
aI16800
aI16850
aI16900
aI16950
aI17000
aI17050
aI17100
aI17150
aI17200
aI17250
aI17300
aI17350
aI17400
aI17450
aI17500
aI17550
aI17600
aI17650
aI17700
aI17750
aI17800
aI17850
aI17900
aI17950
aI18000
aI18050
aI18100
aI18150
aI18200
aI18250
aI18300
aI18350
aI18400
aI18450
aI18500
aI18550
aI18600
aI18650
aI18700
aI18750
aI18800
aI18850
aI18900
aI18950
aI19000
aI19050
aI19100
aI19150
aI19200
aI19250
aI19300
aI19350
aI19400
aI19450
aI19500
aI19550
aI19600
aI19650
aI19700
aI19750
aI19800
aI19850
aI19900
aI19950
aI20000
aI20050
aI20100
aI20150
aI20200
aI20250
aI20300
aI20350
aI20400
aI20450
aI20500
aI20550
aI20600
aI20650
aI20700
aI20750
aI20800
aI20850
aI20900
aI20950
aI21000
aI21050
aI21100
aI21150
aI21200
aI21250
aI21300
aI21350
aI21400
aI21450
aI21500
aI21550
aI21600
aI21650
aI21700
aI21750
aI21800
aI21850
aI21900
aI21950
aI22000
aI22050
aI22100
aI22150
aI22200
aI22250
aI22300
aI22350
aI22400
aI22450
aI22500
aI22550
aI22600
aI22650
aI22700
aI22750
aI22800
aI22850
aI22900
aI22950
aI23000
aI23050
aI23100
aI23150
aI23200
aI23250
aI23300
aI23350
aI23400
aI23450
aI23500
aI23550
aI23600
aI23650
aI23700
aI23750
aI23800
aI23850
aI23900
aI23950
aI24000
aI24050
aI24100
aI24150
aI24200
aI24250
aI24300
aI24350
aI24400
aI24450
aI24500
aI24550
aI24600
aI24650
aI24700
aI24750
aI24800
aI24850
aI24900
aI24950
aI25000
asS'best_f'
p3
(lp4
cnumpy.core.multiarray
scalar
p5
(cnumpy
dtype
p6
(S'f8'
p7
I0
I1
tp8
Rp9
(I3
S'<'
p10
NNNI-1
I-1
I0
tp11
bS'ug//\x077\xd4?'
p12
tp13
Rp14
ag5
(g9
S"'\xbb\x9b\x19\xa7\xa6\xd2?"
p15
tp16
Rp17
ag17
ag17
ag5
(g9
S'aqg\x08\x87\x8c\xd2?'
p18
tp19
Rp20
ag5
(g9
S'\x9be\xd9\xcc\xcf\x81\xd2?'
p21
tp22
Rp23
ag5
(g9
S'\xd2*\xfd(\xb4\x8c\xd1?'
p24
tp25
Rp26
ag26
ag26
ag5
(g9
S'nk9F3i\xd1?'
p27
tp28
Rp29
ag29
ag29
ag5
(g9
S'\xa3\x90\x12\x08\xe4]\xd1?'
p30
tp31
Rp32
ag32
ag32
ag32
ag32
ag32
ag32
ag32
ag32
ag32
ag32
ag32
ag32
ag32
ag32
ag5
(g9
S'\xde<\xcfQ\xadI\xd1?'
p33
tp34
Rp35
ag35
ag35
ag35
ag35
ag35
ag35
ag35
ag35
ag35
ag35
ag35
ag5
(g9
S'\x99\x10;\x91\xd2G\xd1?'
p36
tp37
Rp38
ag38
ag38
ag38
ag38
ag38
ag38
ag38
ag38
ag38
ag38
ag38
ag38
ag38
ag38
ag38
ag38
ag38
ag38
ag38
ag38
ag38
ag38
ag38
ag38
ag38
ag38
ag38
ag38
ag38
ag38
ag38
ag38
ag38
ag38
ag38
ag38
ag38
ag38
ag38
ag38
ag38
ag38
ag38
ag38
ag38
ag38
ag38
ag38
ag38
ag38
ag38
ag38
ag38
ag38
ag38
ag38
ag38
ag38
ag38
ag38
ag38
ag38
ag38
ag38
ag38
ag38
ag38
ag38
ag38
ag38
ag38
ag38
ag38
ag38
ag38
ag38
ag38
ag38
ag38
ag38
ag38
ag38
ag38
ag38
ag38
ag38
ag38
ag38
ag38
ag38
ag38
ag38
ag38
ag38
ag38
ag38
ag38
ag38
ag38
ag38
ag38
ag38
ag38
ag38
ag38
ag38
ag38
ag38
ag38
ag38
ag38
ag38
ag38
ag38
ag38
ag38
ag38
ag38
ag38
ag38
ag38
ag38
ag38
ag38
ag38
ag38
ag38
ag38
ag38
ag38
ag38
ag38
ag38
ag38
ag38
ag38
ag38
ag38
ag38
ag38
ag38
ag38
ag38
ag38
ag38
ag38
ag38
ag38
ag38
ag38
ag38
ag38
ag38
ag38
ag38
ag38
ag38
ag38
ag38
ag38
ag38
ag38
ag38
ag38
ag38
ag38
ag38
ag38
ag38
ag38
ag5
(g9
S'\x83T\xb91E\x1b\xd0?'
p39
tp40
Rp41
ag41
ag41
ag41
ag41
ag41
ag41
ag41
ag41
ag41
ag41
ag41
ag41
ag41
ag41
ag41
ag5
(g9
S'\xc4\t\x0f\xd7\x15\xdb\xcf?'
p42
tp43
Rp44
ag44
ag44
ag44
ag44
ag44
ag44
ag44
ag44
ag44
ag44
ag5
(g9
S'\xeb\xf6\x04\xf1<\xcb\xcf?'
p45
tp46
Rp47
ag47
ag47
ag47
ag47
ag47
ag47
ag47
ag47
ag47
ag47
ag47
ag47
ag47
ag47
ag47
ag47
ag47
ag47
ag47
ag47
ag47
ag47
ag47
ag47
ag47
ag47
ag47
ag47
ag47
ag47
ag47
ag47
ag5
(g9
S'\xe1\xed5#\xf1\xe3\xce?'
p48
tp49
Rp50
ag50
ag50
ag50
ag50
ag50
ag50
ag50
ag50
ag50
ag50
ag50
ag50
ag50
ag50
ag50
ag50
ag50
ag50
ag5
(g9
S'\x90,\xc2k\xcf\x86\xce?'
p51
tp52
Rp53
ag53
ag53
ag53
ag53
ag53
ag53
ag53
ag53
ag53
ag53
ag53
ag53
ag53
ag53
ag53
ag53
ag53
ag5
(g9
S'\x03T\xf9\xfcK\x0c\xce?'
p54
tp55
Rp56
ag56
ag56
ag56
ag56
ag56
ag56
ag56
ag56
ag56
ag56
ag56
ag56
ag56
ag56
ag56
ag56
ag56
ag56
ag56
ag56
ag56
ag56
ag56
ag56
ag56
ag56
ag56
ag56
ag56
ag56
ag56
ag56
ag56
ag56
ag56
ag56
ag56
ag56
ag56
ag56
ag56
ag56
ag56
ag56
ag56
ag56
ag56
ag56
ag56
ag56
ag56
ag56
ag56
ag56
ag56
ag56
ag56
ag56
ag56
ag56
ag56
ag56
ag56
ag56
ag56
ag56
ag56
ag56
ag56
ag56
ag56
ag56
ag56
ag56
ag56
ag56
ag56
ag56
ag56
ag56
ag56
ag56
ag56
ag56
ag56
ag56
ag56
ag56
ag56
ag56
ag56
ag56
ag56
ag56
ag56
ag56
ag56
ag56
ag56
ag56
ag56
ag56
ag56
ag56
ag56
ag56
ag56
ag56
ag56
ag56
ag56
ag56
ag56
ag56
ag56
ag56
ag56
ag56
ag56
ag56
ag56
ag56
ag56
ag56
ag56
ag56
ag56
ag56
ag56
ag56
ag56
ag56
ag56
ag56
ag56
ag56
ag56
ag56
ag56
ag56
ag56
ag56
ag56
ag56
ag56
ag56
ag56
ag56
ag56
ag56
ag56
ag56
ag56
ag56
ag56
ag56
ag56
ag56
ag56
ag56
ag56
ag56
ag56
ag56
ag56
ag56
ag56
ag56
ag56
ag56
ag56
ag56
ag56
ag56
ag56
ag56
ag56
ag56
ag56
ag56
ag56
ag56
ag56
ag56
ag56
ag56
ag56
ag56
ag56
ag56
ag56
ag56
asS'best_P'
p57
(lp58
(itree
PTree
p59
(dp60
S'root'
p61
ccopy_reg
_reconstructor
p62
(ctree
Feature
p63
c__builtin__
object
p64
Ntp65
Rp66
(dp67
S'index'
p68
I0
sS'name'
p69
S'Storage'
p70
sS'l'
p71
g62
(g63
g64
Ntp72
Rp73
(dp74
g68
I0
sg69
g70
sg71
g62
(ctree
Action
p75
g64
Ntp76
Rp77
(dp78
S'r'
p79
NsS'is_feature'
p80
I00
sS'value'
p81
S'Hedge_50'
p82
sg71
Nsbsg79
g62
(g75
g64
Ntp83
Rp84
(dp85
g79
Nsg80
I00
sg81
S'Hedge_80'
p86
sg71
NsbsS'threshold'
p87
F0.6466269152561877
sg80
I01
sbsg79
g62
(g75
g64
Ntp88
Rp89
(dp90
g79
Nsg80
I00
sg81
S'Hedge_90'
p91
sg71
Nsbsg87
F478.78535059228955
sg80
I01
sbsS'L'
p92
(lp93
g66
ag73
ag77
ag84
ag89
asS'N'
p94
I5
sba(itree
PTree
p95
(dp96
g61
g62
(g63
g64
Ntp97
Rp98
(dp99
g68
I0
sg79
g62
(g75
g64
Ntp100
Rp101
(dp102
g79
Nsg80
I00
sg81
g91
sg71
Nsbsg69
g70
sg87
F545.7098994402145
sg71
g62
(g63
g64
Ntp103
Rp104
(dp105
g68
I0
sg79
g62
(g75
g64
Ntp106
Rp107
(dp108
g79
Nsg80
I00
sg81
g86
sg71
Nsbsg69
g70
sg87
F150.4388072798936
sg71
g62
(g75
g64
Ntp109
Rp110
(dp111
g79
Nsg80
I00
sg81
g82
sg71
Nsbsg80
I01
sbsg80
I01
sbsg92
(lp112
g98
ag104
ag110
ag107
ag101
asg94
I5
sbag95
ag95
a(itree
PTree
p113
(dp114
g61
g62
(g63
g64
Ntp115
Rp116
(dp117
g68
I0
sg79
g62
(g75
g64
Ntp118
Rp119
(dp120
g79
Nsg80
I00
sg81
g91
sg71
Nsbsg69
g70
sg87
F506.8417599547176
sg71
g62
(g63
g64
Ntp121
Rp122
(dp123
g68
I0
sg79
g62
(g75
g64
Ntp124
Rp125
(dp126
g79
Nsg80
I00
sg81
g86
sg71
Nsbsg69
g70
sg87
F148.6051025420744
sg71
g62
(g75
g64
Ntp127
Rp128
(dp129
g79
Nsg80
I00
sg81
g82
sg71
Nsbsg80
I01
sbsg80
I01
sbsg92
(lp130
g116
ag122
ag128
ag125
ag119
asg94
I5
sba(itree
PTree
p131
(dp132
g61
g62
(g63
g64
Ntp133
Rp134
(dp135
g68
I0
sg79
g62
(g75
g64
Ntp136
Rp137
(dp138
g79
Nsg80
I00
sg81
S'Release_Demand'
p139
sg71
Nsbsg69
g70
sg87
F389.0884536965501
sg71
g62
(g75
g64
Ntp140
Rp141
(dp142
g79
Nsg80
I00
sg81
S'Hedge_80'
p143
sg71
Nsbsg80
I01
sbsg92
(lp144
g134
ag141
ag137
asg94
I3
sba(itree
PTree
p145
(dp146
g61
g62
(g63
g64
Ntp147
Rp148
(dp149
g68
I0
sg79
g62
(g75
g64
Ntp150
Rp151
(dp152
g79
Nsg80
I00
sg81
S'Release_Demand'
p153
sg71
Nsbsg69
g70
sg87
F501.375503615094
sg71
g62
(g75
g64
Ntp154
Rp155
(dp156
g79
Nsg80
I00
sg81
S'Hedge_80'
p157
sg71
Nsbsg80
I01
sbsg92
(lp158
g148
ag155
ag151
asg94
I3
sbag145
ag145
a(itree
PTree
p159
(dp160
g61
g62
(g63
g64
Ntp161
Rp162
(dp163
g68
I0
sg79
g62
(g75
g64
Ntp164
Rp165
(dp166
g79
Nsg80
I00
sg81
S'Release_Demand'
p167
sg71
Nsbsg69
g70
sg87
F527.6142424613589
sg71
g62
(g75
g64
Ntp168
Rp169
(dp170
g79
Nsg80
I00
sg81
S'Hedge_80'
p171
sg71
Nsbsg80
I01
sbsg92
(lp172
g162
ag169
ag165
asg94
I3
sbag159
ag159
a(itree
PTree
p173
(dp174
g61
g62
(g63
g64
Ntp175
Rp176
(dp177
g68
I0
sg79
g62
(g75
g64
Ntp178
Rp179
(dp180
g79
Nsg80
I00
sg81
S'Release_Demand'
p181
sg71
Nsbsg69
g70
sg87
F578.9218673259988
sg71
g62
(g75
g64
Ntp182
Rp183
(dp184
g79
Nsg80
I00
sg81
S'Hedge_80'
p185
sg71
Nsbsg80
I01
sbsg92
(lp186
g176
ag183
ag179
asg94
I3
sbag173
ag173
ag173
ag173
ag173
ag173
ag173
ag173
ag173
ag173
ag173
ag173
ag173
ag173
a(itree
PTree
p187
(dp188
g61
g62
(g63
g64
Ntp189
Rp190
(dp191
g68
I0
sg79
g62
(g75
g64
Ntp192
Rp193
(dp194
g79
Nsg80
I00
sg81
g139
sg71
Nsbsg69
g70
sg87
F517.3311352057797
sg71
g62
(g75
g64
Ntp195
Rp196
(dp197
g79
Nsg80
I00
sg81
S'Hedge_80'
p198
sg71
Nsbsg80
I01
sbsg92
(lp199
g190
ag196
ag193
asg94
I3
sbag187
ag187
ag187
ag187
ag187
ag187
ag187
ag187
ag187
ag187
ag187
a(itree
PTree
p200
(dp201
g61
g62
(g63
g64
Ntp202
Rp203
(dp204
g68
I0
sg79
g62
(g75
g64
Ntp205
Rp206
(dp207
g79
Nsg80
I00
sg81
g139
sg71
Nsbsg69
g70
sg87
F516.2503380011918
sg71
g62
(g75
g64
Ntp208
Rp209
(dp210
g79
Nsg80
I00
sg81
g198
sg71
Nsbsg80
I01
sbsg92
(lp211
g203
ag209
ag206
asg94
I3
sbag200
ag200
ag200
ag200
ag200
ag200
ag200
ag200
ag200
ag200
ag200
ag200
ag200
ag200
ag200
ag200
ag200
ag200
ag200
ag200
ag200
ag200
ag200
ag200
ag200
ag200
ag200
ag200
ag200
ag200
ag200
ag200
ag200
ag200
ag200
ag200
ag200
ag200
ag200
ag200
ag200
ag200
ag200
ag200
ag200
ag200
ag200
ag200
ag200
ag200
ag200
ag200
ag200
ag200
ag200
ag200
ag200
ag200
ag200
ag200
ag200
ag200
ag200
ag200
ag200
ag200
ag200
ag200
ag200
ag200
ag200
ag200
ag200
ag200
ag200
ag200
ag200
ag200
ag200
ag200
ag200
ag200
ag200
ag200
ag200
ag200
ag200
ag200
ag200
ag200
ag200
ag200
ag200
ag200
ag200
ag200
ag200
ag200
ag200
ag200
ag200
ag200
ag200
ag200
ag200
ag200
ag200
ag200
ag200
ag200
ag200
ag200
ag200
ag200
ag200
ag200
ag200
ag200
ag200
ag200
ag200
ag200
ag200
ag200
ag200
ag200
ag200
ag200
ag200
ag200
ag200
ag200
ag200
ag200
ag200
ag200
ag200
ag200
ag200
ag200
ag200
ag200
ag200
ag200
ag200
ag200
ag200
ag200
ag200
ag200
ag200
ag200
ag200
ag200
ag200
ag200
ag200
ag200
ag200
ag200
ag200
ag200
ag200
ag200
ag200
ag200
ag200
ag200
ag200
ag200
a(itree
PTree
p212
(dp213
g61
g62
(g63
g64
Ntp214
Rp215
(dp216
g68
I0
sg79
g62
(g75
g64
Ntp217
Rp218
(dp219
g79
Nsg80
I00
sg81
S'Release_Demand'
p220
sg71
Nsbsg69
g70
sg87
F402.65835035521275
sg71
g62
(g63
g64
Ntp221
Rp222
(dp223
g68
I0
sg79
g62
(g75
g64
Ntp224
Rp225
(dp226
g79
Nsg80
I00
sg81
S'Hedge_80'
p227
sg71
Nsbsg69
g70
sg87
F249.49697329977977
sg71
g62
(g75
g64
Ntp228
Rp229
(dp230
g79
Nsg80
I00
sg81
S'Hedge_70'
p231
sg71
Nsbsg80
I01
sbsg80
I01
sbsg92
(lp232
g215
ag222
ag229
ag225
ag218
asg94
I5
sbag212
ag212
ag212
ag212
ag212
ag212
ag212
ag212
ag212
ag212
ag212
ag212
ag212
ag212
ag212
a(itree
PTree
p233
(dp234
g61
g62
(g63
g64
Ntp235
Rp236
(dp237
g68
I0
sg79
g62
(g75
g64
Ntp238
Rp239
(dp240
g79
Nsg80
I00
sg81
g220
sg71
Nsbsg69
g70
sg87
F480.12267067032855
sg71
g62
(g63
g64
Ntp241
Rp242
(dp243
g68
I0
sg79
g62
(g75
g64
Ntp244
Rp245
(dp246
g79
Nsg80
I00
sg81
g227
sg71
Nsbsg69
g70
sg87
F262.51633803924926
sg71
g62
(g75
g64
Ntp247
Rp248
(dp249
g79
Nsg80
I00
sg81
g231
sg71
Nsbsg80
I01
sbsg80
I01
sbsg92
(lp250
g236
ag242
ag248
ag245
ag239
asg94
I5
sbag233
ag233
ag233
ag233
ag233
ag233
ag233
ag233
ag233
ag233
a(itree
PTree
p251
(dp252
g61
g62
(g63
g64
Ntp253
Rp254
(dp255
g68
I0
sg79
g62
(g75
g64
Ntp256
Rp257
(dp258
g79
Nsg80
I00
sg81
g220
sg71
Nsbsg69
g70
sg87
F483.18800197332615
sg71
g62
(g63
g64
Ntp259
Rp260
(dp261
g68
I0
sg79
g62
(g75
g64
Ntp262
Rp263
(dp264
g79
Nsg80
I00
sg81
g227
sg71
Nsbsg69
g70
sg87
F273.5702364701525
sg71
g62
(g75
g64
Ntp265
Rp266
(dp267
g79
Nsg80
I00
sg81
g231
sg71
Nsbsg80
I01
sbsg80
I01
sbsg92
(lp268
g254
ag260
ag266
ag263
ag257
asg94
I5
sbag251
ag251
ag251
ag251
ag251
ag251
ag251
ag251
ag251
ag251
ag251
ag251
ag251
ag251
ag251
ag251
ag251
ag251
ag251
ag251
ag251
ag251
ag251
ag251
ag251
ag251
ag251
ag251
ag251
ag251
ag251
ag251
a(itree
PTree
p269
(dp270
g61
g62
(g63
g64
Ntp271
Rp272
(dp273
g68
I0
sg79
g62
(g75
g64
Ntp274
Rp275
(dp276
g79
Nsg80
I00
sg81
S'Release_Demand'
p277
sg71
Nsbsg69
g70
sg87
F679.5421515597296
sg71
g62
(g63
g64
Ntp278
Rp279
(dp280
g68
I0
sg79
g62
(g75
g64
Ntp281
Rp282
(dp283
g79
Nsg80
I00
sg81
S'Hedge_90'
p284
sg71
Nsbsg69
g70
sg87
F297.2066859130961
sg71
g62
(g75
g64
Ntp285
Rp286
(dp287
g79
Nsg80
I00
sg81
S'Hedge_70'
p288
sg71
Nsbsg80
I01
sbsg80
I01
sbsg92
(lp289
g272
ag279
ag286
ag282
ag275
asg94
I5
sbag269
ag269
ag269
ag269
ag269
ag269
ag269
ag269
ag269
ag269
ag269
ag269
ag269
ag269
ag269
ag269
ag269
ag269
a(itree
PTree
p290
(dp291
g61
g62
(g63
g64
Ntp292
Rp293
(dp294
g68
I0
sg79
g62
(g75
g64
Ntp295
Rp296
(dp297
g79
Nsg80
I00
sg81
S'Release_Demand'
p298
sg71
Nsbsg69
g70
sg87
F497.6948641255471
sg71
g62
(g63
g64
Ntp299
Rp300
(dp301
g68
I0
sg79
g62
(g75
g64
Ntp302
Rp303
(dp304
g79
Nsg80
I00
sg81
g227
sg71
Nsbsg69
g70
sg87
F161.0468709911675
sg71
g62
(g75
g64
Ntp305
Rp306
(dp307
g79
Nsg80
I00
sg81
S'Hedge_50'
p308
sg71
Nsbsg80
I01
sbsg80
I01
sbsg92
(lp309
g293
ag300
ag306
ag303
ag296
asg94
I5
sbag290
ag290
ag290
ag290
ag290
ag290
ag290
ag290
ag290
ag290
ag290
ag290
ag290
ag290
ag290
ag290
ag290
a(itree
PTree
p310
(dp311
g61
g62
(g63
g64
Ntp312
Rp313
(dp314
g68
I0
sg79
g62
(g75
g64
Ntp315
Rp316
(dp317
g79
Nsg80
I00
sg81
g298
sg71
Nsbsg69
g70
sg87
F440.40822257234674
sg71
g62
(g63
g64
Ntp318
Rp319
(dp320
g68
I0
sg79
g62
(g75
g64
Ntp321
Rp322
(dp323
g79
Nsg80
I00
sg81
g227
sg71
Nsbsg69
g70
sg87
F192.1193106799797
sg71
g62
(g75
g64
Ntp324
Rp325
(dp326
g79
Nsg80
I00
sg81
g308
sg71
Nsbsg80
I01
sbsg80
I01
sbsg92
(lp327
g313
ag319
ag325
ag322
ag316
asg94
I5
sbag310
ag310
ag310
ag310
ag310
ag310
ag310
ag310
ag310
ag310
ag310
ag310
ag310
ag310
ag310
ag310
ag310
ag310
ag310
ag310
ag310
ag310
ag310
ag310
ag310
ag310
ag310
ag310
ag310
ag310
ag310
ag310
ag310
ag310
ag310
ag310
ag310
ag310
ag310
ag310
ag310
ag310
ag310
ag310
ag310
ag310
ag310
ag310
ag310
ag310
ag310
ag310
ag310
ag310
ag310
ag310
ag310
ag310
ag310
ag310
ag310
ag310
ag310
ag310
ag310
ag310
ag310
ag310
ag310
ag310
ag310
ag310
ag310
ag310
ag310
ag310
ag310
ag310
ag310
ag310
ag310
ag310
ag310
ag310
ag310
ag310
ag310
ag310
ag310
ag310
ag310
ag310
ag310
ag310
ag310
ag310
ag310
ag310
ag310
ag310
ag310
ag310
ag310
ag310
ag310
ag310
ag310
ag310
ag310
ag310
ag310
ag310
ag310
ag310
ag310
ag310
ag310
ag310
ag310
ag310
ag310
ag310
ag310
ag310
ag310
ag310
ag310
ag310
ag310
ag310
ag310
ag310
ag310
ag310
ag310
ag310
ag310
ag310
ag310
ag310
ag310
ag310
ag310
ag310
ag310
ag310
ag310
ag310
ag310
ag310
ag310
ag310
ag310
ag310
ag310
ag310
ag310
ag310
ag310
ag310
ag310
ag310
ag310
ag310
ag310
ag310
ag310
ag310
ag310
ag310
ag310
ag310
ag310
ag310
ag310
ag310
ag310
ag310
ag310
ag310
ag310
ag310
ag310
ag310
ag310
ag310
ag310
ag310
ag310
ag310
ag310
ag310
asS'time'
p328
(lp329
I78
aI118
aI157
aI195
aI232
aI269
aI306
aI342
aI379
aI415
aI452
aI488
aI525
aI562
aI598
aI637
aI673
aI709
aI745
aI780
aI816
aI852
aI888
aI924
aI961
aI997
aI1034
aI1071
aI1106
aI1142
aI1178
aI1215
aI1251
aI1286
aI1322
aI1358
aI1394
aI1430
aI1466
aI1503
aI1539
aI1575
aI1611
aI1648
aI1684
aI1720
aI1757
aI1793
aI1829
aI1865
aI1900
aI1935
aI1972
aI2008
aI2043
aI2079
aI2114
aI2150
aI2185
aI2220
aI2255
aI2290
aI2326
aI2361
aI2396
aI2432
aI2467
aI2502
aI2537
aI2572
aI2607
aI2643
aI2678
aI2713
aI2748
aI2783
aI2819
aI2854
aI2890
aI2926
aI2963
aI2999
aI3036
aI3074
aI3110
aI3146
aI3183
aI3219
aI3255
aI3291
aI3327
aI3361
aI3397
aI3436
aI3472
aI3507
aI3541
aI3576
aI3611
aI3649
aI3685
aI3723
aI3760
aI3797
aI3834
aI3871
aI3907
aI3941
aI3976
aI4012
aI4047
aI4083
aI4119
aI4154
aI4189
aI4225
aI4261
aI4297
aI4333
aI4369
aI4405
aI4442
aI4482
aI4524
aI4565
aI4606
aI4648
aI4690
aI4731
aI4771
aI4813
aI4855
aI4895
aI4937
aI4978
aI5020
aI5060
aI5099
aI5136
aI5176
aI5215
aI5254
aI5293
aI5333
aI5372
aI5409
aI5446
aI5484
aI5521
aI5559
aI5597
aI5635
aI5674
aI5711
aI5748
aI5785
aI5822
aI5859
aI5896
aI5933
aI5971
aI6008
aI6045
aI6082
aI6118
aI6155
aI6191
aI6229
aI6265
aI6302
aI6338
aI6375
aI6416
aI6455
aI6497
aI6540
aI6581
aI6625
aI6668
aI6713
aI6753
aI6794
aI6835
aI6876
aI6914
aI6955
aI6995
aI7036
aI7076
aI7113
aI7150
aI7187
aI7223
aI7258
aI7294
aI7330
aI7365
aI7401
aI7436
aI7471
aI7506
aI7542
aI7577
aI7612
aI7646
aI7682
aI7716
aI7751
aI7786
aI7821
aI7856
aI7890
aI7925
aI7960
aI7994
aI8030
aI8065
aI8100
aI8134
aI8169
aI8204
aI8239
aI8275
aI8311
aI8346
aI8381
aI8416
aI8451
aI8487
aI8523
aI8558
aI8593
aI8629
aI8664
aI8700
aI8735
aI8770
aI8806
aI8841
aI8877
aI8912
aI8947
aI8983
aI9022
aI9059
aI9096
aI9135
aI9172
aI9210
aI9246
aI9284
aI9318
aI9353
aI9388
aI9425
aI9462
aI9501
aI9540
aI9579
aI9615
aI9655
aI9693
aI9732
aI9772
aI9812
aI9853
aI9893
aI9932
aI9972
aI10010
aI10051
aI10090
aI10132
aI10171
aI10211
aI10249
aI10289
aI10328
aI10367
aI10405
aI10444
aI10482
aI10521
aI10560
aI10597
aI10635
aI10674
aI10709
aI10748
aI10786
aI10821
aI10857
aI10892
aI10928
aI10963
aI10999
aI11035
aI11070
aI11106
aI11142
aI11177
aI11213
aI11248
aI11284
aI11319
aI11356
aI11394
aI11432
aI11472
aI11509
aI11548
aI11585
aI11622
aI11660
aI11698
aI11733
aI11768
aI11803
aI11838
aI11873
aI11909
aI11945
aI11981
aI12017
aI12055
aI12093
aI12130
aI12168
aI12206
aI12242
aI12277
aI12314
aI12350
aI12386
aI12422
aI12458
aI12493
aI12531
aI12570
aI12609
aI12647
aI12686
aI12723
aI12760
aI12799
aI12836
aI12874
aI12912
aI12951
aI12989
aI13026
aI13063
aI13099
aI13135
aI13170
aI13208
aI13246
aI13283
aI13318
aI13354
aI13390
aI13427
aI13463
aI13500
aI13536
aI13573
aI13609
aI13644
aI13680
aI13716
aI13752
aI13787
aI13823
aI13859
aI13895
aI13931
aI13967
aI14003
aI14039
aI14074
aI14111
aI14146
aI14185
aI14224
aI14263
aI14302
aI14338
aI14374
aI14409
aI14445
aI14480
aI14515
aI14550
aI14586
aI14621
aI14656
aI14691
aI14726
aI14761
aI14797
aI14832
aI14868
aI14904
aI14943
aI14983
aI15022
aI15061
aI15099
aI15137
aI15175
aI15211
aI15250
aI15288
aI15326
aI15366
aI15405
aI15442
aI15481
aI15518
aI15558
aI15596
aI15634
aI15674
aI15712
aI15750
aI15788
aI15824
aI15861
aI15897
aI15933
aI15970
aI16009
aI16050
aI16086
aI16122
aI16157
aI16192
aI16228
aI16267
aI16305
aI16342
aI16380
aI16418
aI16454
aI16491
aI16530
aI16569
aI16605
aI16645
aI16683
aI16721
aI16762
aI16803
aI16843
aI16880
aI16918
aI16958
aI16995
aI17034
aI17073
aI17112
aI17151
aI17189
aI17226
aI17263
aI17302
aI17339
aI17378
aI17416
aI17454
aI17494
aI17533
aI17571
aI17612
aI17653
aI17695
aI17734
aI17773
aI17811
aI17850
aI17887
aI17928
aI17966
aI18004
aI18042
aI18082
aI18121
aI18157
aI18196
aI18233
aI18271
aI18310
aI18348
aI18384
aI18423
aI18461
aI18499
aI18538
aI18576
aI18616
as.