(dp0
S'nfe'
p1
(lp2
I50
aI100
aI150
aI200
aI250
aI300
aI350
aI400
aI450
aI500
aI550
aI600
aI650
aI700
aI750
aI800
aI850
aI900
aI950
aI1000
aI1050
aI1100
aI1150
aI1200
aI1250
aI1300
aI1350
aI1400
aI1450
aI1500
aI1550
aI1600
aI1650
aI1700
aI1750
aI1800
aI1850
aI1900
aI1950
aI2000
aI2050
aI2100
aI2150
aI2200
aI2250
aI2300
aI2350
aI2400
aI2450
aI2500
aI2550
aI2600
aI2650
aI2700
aI2750
aI2800
aI2850
aI2900
aI2950
aI3000
aI3050
aI3100
aI3150
aI3200
aI3250
aI3300
aI3350
aI3400
aI3450
aI3500
aI3550
aI3600
aI3650
aI3700
aI3750
aI3800
aI3850
aI3900
aI3950
aI4000
aI4050
aI4100
aI4150
aI4200
aI4250
aI4300
aI4350
aI4400
aI4450
aI4500
aI4550
aI4600
aI4650
aI4700
aI4750
aI4800
aI4850
aI4900
aI4950
aI5000
aI5050
aI5100
aI5150
aI5200
aI5250
aI5300
aI5350
aI5400
aI5450
aI5500
aI5550
aI5600
aI5650
aI5700
aI5750
aI5800
aI5850
aI5900
aI5950
aI6000
aI6050
aI6100
aI6150
aI6200
aI6250
aI6300
aI6350
aI6400
aI6450
aI6500
aI6550
aI6600
aI6650
aI6700
aI6750
aI6800
aI6850
aI6900
aI6950
aI7000
aI7050
aI7100
aI7150
aI7200
aI7250
aI7300
aI7350
aI7400
aI7450
aI7500
aI7550
aI7600
aI7650
aI7700
aI7750
aI7800
aI7850
aI7900
aI7950
aI8000
aI8050
aI8100
aI8150
aI8200
aI8250
aI8300
aI8350
aI8400
aI8450
aI8500
aI8550
aI8600
aI8650
aI8700
aI8750
aI8800
aI8850
aI8900
aI8950
aI9000
aI9050
aI9100
aI9150
aI9200
aI9250
aI9300
aI9350
aI9400
aI9450
aI9500
aI9550
aI9600
aI9650
aI9700
aI9750
aI9800
aI9850
aI9900
aI9950
aI10000
aI10050
aI10100
aI10150
aI10200
aI10250
aI10300
aI10350
aI10400
aI10450
aI10500
aI10550
aI10600
aI10650
aI10700
aI10750
aI10800
aI10850
aI10900
aI10950
aI11000
aI11050
aI11100
aI11150
aI11200
aI11250
aI11300
aI11350
aI11400
aI11450
aI11500
aI11550
aI11600
aI11650
aI11700
aI11750
aI11800
aI11850
aI11900
aI11950
aI12000
aI12050
aI12100
aI12150
aI12200
aI12250
aI12300
aI12350
aI12400
aI12450
aI12500
aI12550
aI12600
aI12650
aI12700
aI12750
aI12800
aI12850
aI12900
aI12950
aI13000
aI13050
aI13100
aI13150
aI13200
aI13250
aI13300
aI13350
aI13400
aI13450
aI13500
aI13550
aI13600
aI13650
aI13700
aI13750
aI13800
aI13850
aI13900
aI13950
aI14000
aI14050
aI14100
aI14150
aI14200
aI14250
aI14300
aI14350
aI14400
aI14450
aI14500
aI14550
aI14600
aI14650
aI14700
aI14750
aI14800
aI14850
aI14900
aI14950
aI15000
aI15050
aI15100
aI15150
aI15200
aI15250
aI15300
aI15350
aI15400
aI15450
aI15500
aI15550
aI15600
aI15650
aI15700
aI15750
aI15800
aI15850
aI15900
aI15950
aI16000
aI16050
aI16100
aI16150
aI16200
aI16250
aI16300
aI16350
aI16400
aI16450
aI16500
aI16550
aI16600
aI16650
aI16700
aI16750
aI16800
aI16850
aI16900
aI16950
aI17000
aI17050
aI17100
aI17150
aI17200
aI17250
aI17300
aI17350
aI17400
aI17450
aI17500
aI17550
aI17600
aI17650
aI17700
aI17750
aI17800
aI17850
aI17900
aI17950
aI18000
aI18050
aI18100
aI18150
aI18200
aI18250
aI18300
aI18350
aI18400
aI18450
aI18500
aI18550
aI18600
aI18650
aI18700
aI18750
aI18800
aI18850
aI18900
aI18950
aI19000
aI19050
aI19100
aI19150
aI19200
aI19250
aI19300
aI19350
aI19400
aI19450
aI19500
aI19550
aI19600
aI19650
aI19700
aI19750
aI19800
aI19850
aI19900
aI19950
aI20000
aI20050
aI20100
aI20150
aI20200
aI20250
aI20300
aI20350
aI20400
aI20450
aI20500
aI20550
aI20600
aI20650
aI20700
aI20750
aI20800
aI20850
aI20900
aI20950
aI21000
aI21050
aI21100
aI21150
aI21200
aI21250
aI21300
aI21350
aI21400
aI21450
aI21500
aI21550
aI21600
aI21650
aI21700
aI21750
aI21800
aI21850
aI21900
aI21950
aI22000
aI22050
aI22100
aI22150
aI22200
aI22250
aI22300
aI22350
aI22400
aI22450
aI22500
aI22550
aI22600
aI22650
aI22700
aI22750
aI22800
aI22850
aI22900
aI22950
aI23000
aI23050
aI23100
aI23150
aI23200
aI23250
aI23300
aI23350
aI23400
aI23450
aI23500
aI23550
aI23600
aI23650
aI23700
aI23750
aI23800
aI23850
aI23900
aI23950
aI24000
aI24050
aI24100
aI24150
aI24200
aI24250
aI24300
aI24350
aI24400
aI24450
aI24500
aI24550
aI24600
aI24650
aI24700
aI24750
aI24800
aI24850
aI24900
aI24950
aI25000
asS'best_f'
p3
(lp4
cnumpy.core.multiarray
scalar
p5
(cnumpy
dtype
p6
(S'f8'
p7
I0
I1
tp8
Rp9
(I3
S'<'
p10
NNNI-1
I-1
I0
tp11
bS'\xb5\xa7k\x1e\x18\x84\xd1?'
p12
tp13
Rp14
ag14
ag5
(g9
S'%\x08\xd5u%p\xd1?'
p15
tp16
Rp17
ag5
(g9
S'\x86\xbb\xc4\xf3\x7f2\xd1?'
p18
tp19
Rp20
ag5
(g9
S"\xdfMh\x00\x0f'\xd0?"
p21
tp22
Rp23
ag23
ag23
ag23
ag23
ag23
ag23
ag5
(g9
S'\xecc\xb62,\xc8\xcf?'
p24
tp25
Rp26
ag26
ag26
ag26
ag26
ag26
ag26
ag26
ag26
ag26
ag26
ag26
ag26
ag5
(g9
S'\x13o\xc23\xb4\xa6\xcf?'
p27
tp28
Rp29
ag29
ag29
ag29
ag29
ag29
ag29
ag29
ag29
ag5
(g9
S'\xcf\xba\x1e\x9eMl\xcf?'
p30
tp31
Rp32
ag32
ag32
ag5
(g9
S'd\xce\x18\x83\xb1P\xcf?'
p33
tp34
Rp35
ag35
ag35
ag35
ag35
ag35
ag35
ag35
ag35
ag35
ag35
ag35
ag35
ag35
ag35
ag35
ag35
ag35
ag35
ag35
ag35
ag35
ag35
ag5
(g9
S'\xc6\x16\xefS\xb3?\xcf?'
p36
tp37
Rp38
ag38
ag38
ag38
ag38
ag38
ag38
ag38
ag38
ag38
ag38
ag38
ag38
ag38
ag38
ag38
ag5
(g9
S'>uLav#\xcf?'
p39
tp40
Rp41
ag41
ag41
ag41
ag41
ag41
ag41
ag41
ag41
ag41
ag41
ag41
ag41
ag41
ag41
ag41
ag41
ag41
ag41
ag41
ag41
ag41
ag41
ag41
ag41
ag41
ag41
ag41
ag41
ag41
ag41
ag41
ag41
ag41
ag41
ag41
ag41
ag41
ag41
ag41
ag41
ag41
ag41
ag41
ag41
ag41
ag41
ag41
ag41
ag41
ag41
ag41
ag41
ag41
ag41
ag41
ag41
ag41
ag41
ag5
(g9
S'\xea%\xa2\x03\xfe\x16\xcf?'
p42
tp43
Rp44
ag44
ag44
ag44
ag44
ag44
ag44
ag44
ag44
ag44
ag44
ag44
ag44
ag44
ag44
ag44
ag44
ag44
ag44
ag44
ag44
ag44
ag44
ag44
ag44
ag44
ag44
ag44
ag44
ag44
ag44
ag44
ag44
ag44
ag44
ag44
ag44
ag5
(g9
S'\x10\xf8\xa7)S\x10\xcf?'
p45
tp46
Rp47
ag47
ag47
ag47
ag47
ag47
ag47
ag47
ag47
ag47
ag47
ag47
ag47
ag47
ag47
ag47
ag47
ag47
ag47
ag47
ag47
ag47
ag47
ag47
ag47
ag47
ag47
ag47
ag47
ag47
ag47
ag47
ag47
ag47
ag47
ag47
ag47
ag47
ag47
ag47
ag47
ag47
ag47
ag47
ag47
ag47
ag47
ag47
ag47
ag47
ag47
ag47
ag47
ag47
ag47
ag47
ag47
ag47
ag47
ag47
ag47
ag47
ag5
(g9
S'\xc7a\xd8\xbd\xaa!\xce?'
p48
tp49
Rp50
ag50
ag50
ag5
(g9
S'a\x00\xb8\xc9\x85\xfa\xcd?'
p51
tp52
Rp53
ag53
ag53
ag53
ag53
ag53
ag53
ag53
ag53
ag53
ag53
ag5
(g9
S'\x83(_\xa0\xf6\xf7\xcd?'
p54
tp55
Rp56
ag56
ag56
ag56
ag56
ag56
ag56
ag56
ag56
ag56
ag56
ag56
ag56
ag56
ag5
(g9
S'\xeeB\x03\xd1\x83\xa5\xcd?'
p57
tp58
Rp59
ag59
ag59
ag59
ag59
ag59
ag5
(g9
S'\xf3\xb0\x80\xd8,\x9b\xcd?'
p60
tp61
Rp62
ag62
ag62
ag62
ag62
ag62
ag62
ag62
ag62
ag62
ag62
ag62
ag62
ag62
ag62
ag62
ag62
ag62
ag62
ag62
ag62
ag62
ag62
ag62
ag62
ag62
ag62
ag62
ag62
ag5
(g9
S'&(\xf4m\x96Y\xcd?'
p63
tp64
Rp65
ag65
ag65
ag65
ag65
ag65
ag65
ag65
ag65
ag65
ag65
ag65
ag65
ag65
ag65
ag65
ag65
ag65
ag65
ag65
ag65
ag65
ag65
ag65
ag65
ag65
ag65
ag65
ag65
ag65
ag65
ag65
ag65
ag65
ag65
ag65
ag65
ag65
ag65
ag65
ag65
ag5
(g9
S'g\xdf\xea\r\x0bT\xcd?'
p66
tp67
Rp68
ag68
ag68
ag68
ag68
ag68
ag68
ag68
ag68
ag68
ag68
ag68
ag68
ag68
ag68
ag68
ag68
ag68
ag68
ag68
ag68
ag68
ag68
ag68
ag68
ag68
ag68
ag68
ag68
ag68
ag68
ag68
ag68
ag68
ag68
ag68
ag68
ag68
ag68
ag68
ag68
ag68
ag68
ag68
ag68
ag68
ag68
ag68
ag68
ag68
ag68
ag68
ag68
ag68
ag68
ag68
ag68
ag68
ag68
ag68
ag68
ag68
ag68
ag68
ag68
ag68
ag68
ag68
ag68
ag68
ag68
ag68
ag68
ag68
ag68
ag68
ag68
ag68
ag68
ag68
ag68
ag68
ag68
ag68
ag68
ag68
ag68
ag68
ag68
ag68
ag68
ag68
ag68
ag68
ag68
ag68
ag68
ag68
ag68
ag68
ag68
ag68
ag68
ag68
ag68
ag68
ag68
ag68
ag68
ag68
ag68
ag68
ag68
ag68
ag68
ag68
ag68
ag68
ag68
ag68
ag68
ag68
ag68
ag68
ag68
ag68
ag68
ag5
(g9
S'lm\xf9\xeb\xd4D\xcd?'
p69
tp70
Rp71
ag71
ag71
ag71
ag71
ag71
ag71
ag71
ag71
ag71
ag71
ag71
ag71
ag71
ag71
ag71
ag71
ag71
ag71
ag71
ag71
ag71
ag71
ag71
ag71
ag71
ag71
ag71
ag71
ag71
ag71
ag71
ag71
ag71
ag71
ag71
asS'best_P'
p72
(lp73
(itree
PTree
p74
(dp75
S'root'
p76
ccopy_reg
_reconstructor
p77
(ctree
Feature
p78
c__builtin__
object
p79
Ntp80
Rp81
(dp82
S'index'
p83
I0
sS'name'
p84
S'Storage'
p85
sS'l'
p86
g77
(ctree
Action
p87
g79
Ntp88
Rp89
(dp90
S'r'
p91
NsS'is_feature'
p92
I00
sS'value'
p93
S'Hedge_80'
p94
sg86
Nsbsg91
g77
(g87
g79
Ntp95
Rp96
(dp97
g91
Nsg92
I00
sg93
S'Release_Demand'
p98
sg86
NsbsS'threshold'
p99
F576.3495218244426
sg92
I01
sbsS'L'
p100
(lp101
g81
ag89
ag96
asS'N'
p102
I3
sbag74
a(itree
PTree
p103
(dp104
g76
g77
(g78
g79
Ntp105
Rp106
(dp107
g83
I0
sg91
g77
(g87
g79
Ntp108
Rp109
(dp110
g91
Nsg92
I00
sg93
S'Release_Demand'
p111
sg86
Nsbsg84
g85
sg99
F574.4137199583323
sg86
g77
(g87
g79
Ntp112
Rp113
(dp114
g91
Nsg92
I00
sg93
S'Hedge_80'
p115
sg86
Nsbsg92
I01
sbsg100
(lp116
g106
ag113
ag109
asg102
I3
sba(itree
PTree
p117
(dp118
g76
g77
(g78
g79
Ntp119
Rp120
(dp121
g83
I0
sg91
g77
(g87
g79
Ntp122
Rp123
(dp124
g91
Nsg92
I00
sg93
S'Release_Demand'
p125
sg86
Nsbsg84
g85
sg99
F325.29511862382896
sg86
g77
(g78
g79
Ntp126
Rp127
(dp128
g83
I1
sg91
g77
(g87
g79
Ntp129
Rp130
(dp131
g91
Nsg92
I00
sg93
S'Hedge_70'
p132
sg86
Nsbsg84
S'Day'
p133
sg99
F85.61876354595539
sg86
g77
(g87
g79
Ntp134
Rp135
(dp136
g91
Nsg92
I00
sg93
S'Hedge_80'
p137
sg86
Nsbsg92
I01
sbsg92
I01
sbsg100
(lp138
g120
ag127
ag135
ag130
ag123
asg102
I5
sba(itree
PTree
p139
(dp140
g76
g77
(g78
g79
Ntp141
Rp142
(dp143
g83
I0
sg91
g77
(g87
g79
Ntp144
Rp145
(dp146
g91
Nsg92
I00
sg93
g125
sg86
Nsbsg84
g85
sg99
F397.6338741434719
sg86
g77
(g78
g79
Ntp147
Rp148
(dp149
g83
I1
sg91
g77
(g87
g79
Ntp150
Rp151
(dp152
g91
Nsg92
I00
sg93
g132
sg86
Nsbsg84
g133
sg99
F85.61876354595539
sg86
g77
(g87
g79
Ntp153
Rp154
(dp155
g91
Nsg92
I00
sg93
g137
sg86
Nsbsg92
I01
sbsg92
I01
sbsg100
(lp156
g142
ag148
ag154
ag151
ag145
asg102
I5
sbag139
ag139
ag139
ag139
ag139
ag139
a(itree
PTree
p157
(dp158
g76
g77
(g78
g79
Ntp159
Rp160
(dp161
g83
I0
sg91
g77
(g87
g79
Ntp162
Rp163
(dp164
g91
Nsg92
I00
sg93
g125
sg86
Nsbsg84
g85
sg99
F349.84084134966736
sg86
g77
(g78
g79
Ntp165
Rp166
(dp167
g83
I1
sg91
g77
(g87
g79
Ntp168
Rp169
(dp170
g91
Nsg92
I00
sg93
g132
sg86
Nsbsg84
g133
sg99
F131.89943445059504
sg86
g77
(g87
g79
Ntp171
Rp172
(dp173
g91
Nsg92
I00
sg93
g137
sg86
Nsbsg92
I01
sbsg92
I01
sbsg100
(lp174
g160
ag166
ag172
ag169
ag163
asg102
I5
sbag157
ag157
ag157
ag157
ag157
ag157
ag157
ag157
ag157
ag157
ag157
ag157
a(itree
PTree
p175
(dp176
g76
g77
(g78
g79
Ntp177
Rp178
(dp179
g83
I0
sg91
g77
(g87
g79
Ntp180
Rp181
(dp182
g91
Nsg92
I00
sg93
g125
sg86
Nsbsg84
g85
sg99
F425.2696752011058
sg86
g77
(g78
g79
Ntp183
Rp184
(dp185
g83
I1
sg91
g77
(g87
g79
Ntp186
Rp187
(dp188
g91
Nsg92
I00
sg93
g132
sg86
Nsbsg84
g133
sg99
F115.90625709689438
sg86
g77
(g87
g79
Ntp189
Rp190
(dp191
g91
Nsg92
I00
sg93
g137
sg86
Nsbsg92
I01
sbsg92
I01
sbsg100
(lp192
g178
ag184
ag190
ag187
ag181
asg102
I5
sbag175
ag175
ag175
ag175
ag175
ag175
ag175
ag175
a(itree
PTree
p193
(dp194
g76
g77
(g78
g79
Ntp195
Rp196
(dp197
g83
I0
sg91
g77
(g87
g79
Ntp198
Rp199
(dp200
g91
Nsg92
I00
sg93
g125
sg86
Nsbsg84
g85
sg99
F381.4066366410217
sg86
g77
(g78
g79
Ntp201
Rp202
(dp203
g83
I1
sg91
g77
(g87
g79
Ntp204
Rp205
(dp206
g91
Nsg92
I00
sg93
g132
sg86
Nsbsg84
g133
sg99
F115.8648140475987
sg86
g77
(g87
g79
Ntp207
Rp208
(dp209
g91
Nsg92
I00
sg93
g137
sg86
Nsbsg92
I01
sbsg92
I01
sbsg100
(lp210
g196
ag202
ag208
ag205
ag199
asg102
I5
sbag193
ag193
a(itree
PTree
p211
(dp212
g76
g77
(g78
g79
Ntp213
Rp214
(dp215
g83
I0
sg91
g77
(g87
g79
Ntp216
Rp217
(dp218
g91
Nsg92
I00
sg93
g125
sg86
Nsbsg84
g85
sg99
F381.4066366410217
sg86
g77
(g78
g79
Ntp219
Rp220
(dp221
g83
I1
sg91
g77
(g87
g79
Ntp222
Rp223
(dp224
g91
Nsg92
I00
sg93
g132
sg86
Nsbsg84
g133
sg99
F125.12382033630624
sg86
g77
(g87
g79
Ntp225
Rp226
(dp227
g91
Nsg92
I00
sg93
g137
sg86
Nsbsg92
I01
sbsg92
I01
sbsg100
(lp228
g214
ag220
ag226
ag223
ag217
asg102
I5
sbag211
ag211
ag211
ag211
ag211
ag211
ag211
ag211
ag211
ag211
ag211
ag211
ag211
ag211
ag211
ag211
ag211
ag211
ag211
ag211
ag211
ag211
a(itree
PTree
p229
(dp230
g76
g77
(g78
g79
Ntp231
Rp232
(dp233
g83
I0
sg91
g77
(g87
g79
Ntp234
Rp235
(dp236
g91
Nsg92
I00
sg93
g125
sg86
Nsbsg84
g85
sg99
F397.83415772486313
sg86
g77
(g78
g79
Ntp237
Rp238
(dp239
g83
I1
sg91
g77
(g87
g79
Ntp240
Rp241
(dp242
g91
Nsg92
I00
sg93
g132
sg86
Nsbsg84
g133
sg99
F125.12382033630624
sg86
g77
(g87
g79
Ntp243
Rp244
(dp245
g91
Nsg92
I00
sg93
g137
sg86
Nsbsg92
I01
sbsg92
I01
sbsg100
(lp246
g232
ag238
ag244
ag241
ag235
asg102
I5
sbag229
ag229
ag229
ag229
ag229
ag229
ag229
ag229
ag229
ag229
ag229
ag229
ag229
ag229
ag229
a(itree
PTree
p247
(dp248
g76
g77
(g78
g79
Ntp249
Rp250
(dp251
g83
I0
sg91
g77
(g87
g79
Ntp252
Rp253
(dp254
g91
Nsg92
I00
sg93
S'Release_Demand'
p255
sg86
Nsbsg84
g85
sg99
F397.3750516326993
sg86
g77
(g78
g79
Ntp256
Rp257
(dp258
g83
I1
sg91
g77
(g87
g79
Ntp259
Rp260
(dp261
g91
Nsg92
I00
sg93
S'Hedge_70'
p262
sg86
Nsbsg84
g133
sg99
F121.39152533618984
sg86
g77
(g87
g79
Ntp263
Rp264
(dp265
g91
Nsg92
I00
sg93
S'Hedge_80'
p266
sg86
Nsbsg92
I01
sbsg92
I01
sbsg100
(lp267
g250
ag257
ag264
ag260
ag253
asg102
I5
sbag247
ag247
ag247
ag247
ag247
ag247
ag247
ag247
ag247
ag247
ag247
ag247
ag247
ag247
ag247
ag247
ag247
ag247
ag247
ag247
ag247
ag247
ag247
ag247
ag247
ag247
ag247
ag247
ag247
ag247
ag247
ag247
ag247
ag247
ag247
ag247
ag247
ag247
ag247
ag247
ag247
ag247
ag247
ag247
ag247
ag247
ag247
ag247
ag247
ag247
ag247
ag247
ag247
ag247
ag247
ag247
ag247
ag247
a(itree
PTree
p268
(dp269
g76
g77
(g78
g79
Ntp270
Rp271
(dp272
g83
I0
sg91
g77
(g87
g79
Ntp273
Rp274
(dp275
g91
Nsg92
I00
sg93
g255
sg86
Nsbsg84
g85
sg99
F388.50532600946264
sg86
g77
(g78
g79
Ntp276
Rp277
(dp278
g83
I1
sg91
g77
(g87
g79
Ntp279
Rp280
(dp281
g91
Nsg92
I00
sg93
S'Hedge_70'
p282
sg86
Nsbsg84
g133
sg99
F115.26809602747295
sg86
g77
(g87
g79
Ntp283
Rp284
(dp285
g91
Nsg92
I00
sg93
S'Hedge_80'
p286
sg86
Nsbsg92
I01
sbsg92
I01
sbsg100
(lp287
g271
ag277
ag284
ag280
ag274
asg102
I5
sbag268
ag268
ag268
ag268
ag268
ag268
ag268
ag268
ag268
ag268
ag268
ag268
ag268
ag268
ag268
ag268
ag268
ag268
ag268
ag268
ag268
ag268
ag268
ag268
ag268
ag268
ag268
ag268
ag268
ag268
ag268
ag268
ag268
ag268
ag268
ag268
a(itree
PTree
p288
(dp289
g76
g77
(g78
g79
Ntp290
Rp291
(dp292
g83
I0
sg91
g77
(g87
g79
Ntp293
Rp294
(dp295
g91
Nsg92
I00
sg93
S'Release_Demand'
p296
sg86
Nsbsg84
g85
sg99
F384.0137458530423
sg86
g77
(g78
g79
Ntp297
Rp298
(dp299
g83
I1
sg91
g77
(g87
g79
Ntp300
Rp301
(dp302
g91
Nsg92
I00
sg93
S'Hedge_70'
p303
sg86
Nsbsg84
g133
sg99
F125.55130349807187
sg86
g77
(g87
g79
Ntp304
Rp305
(dp306
g91
Nsg92
I00
sg93
S'Hedge_80'
p307
sg86
Nsbsg92
I01
sbsg92
I01
sbsg100
(lp308
g291
ag298
ag305
ag301
ag294
asg102
I5
sbag288
ag288
ag288
ag288
ag288
ag288
ag288
ag288
ag288
ag288
ag288
ag288
ag288
ag288
ag288
ag288
ag288
ag288
ag288
ag288
ag288
ag288
ag288
ag288
ag288
ag288
ag288
ag288
ag288
ag288
ag288
ag288
ag288
ag288
ag288
ag288
ag288
ag288
ag288
ag288
ag288
ag288
ag288
ag288
ag288
ag288
ag288
ag288
ag288
ag288
ag288
ag288
ag288
ag288
ag288
ag288
ag288
ag288
ag288
ag288
ag288
a(itree
PTree
p309
(dp310
g76
g77
(g78
g79
Ntp311
Rp312
(dp313
g83
I0
sg91
g77
(g87
g79
Ntp314
Rp315
(dp316
g91
Nsg92
I00
sg93
g296
sg86
Nsbsg84
g85
sg99
F569.557525687522
sg86
g77
(g78
g79
Ntp317
Rp318
(dp319
g83
I0
sg91
g77
(g87
g79
Ntp320
Rp321
(dp322
g91
Nsg92
I00
sg93
S'Hedge_90'
p323
sg86
Nsbsg84
g85
sg99
F373.14483196815627
sg86
g77
(g78
g79
Ntp324
Rp325
(dp326
g83
I1
sg91
g77
(g87
g79
Ntp327
Rp328
(dp329
g91
Nsg92
I00
sg93
S'Hedge_70'
p330
sg86
Nsbsg84
g133
sg99
F152.53060219265225
sg86
g77
(g87
g79
Ntp331
Rp332
(dp333
g91
Nsg92
I00
sg93
g137
sg86
Nsbsg92
I01
sbsg92
I01
sbsg92
I01
sbsg100
(lp334
g312
ag318
ag325
ag332
ag328
ag321
ag315
asg102
I7
sbag309
ag309
a(itree
PTree
p335
(dp336
g76
g77
(g78
g79
Ntp337
Rp338
(dp339
g83
I0
sg91
g77
(g87
g79
Ntp340
Rp341
(dp342
g91
Nsg92
I00
sg93
g296
sg86
Nsbsg84
g85
sg99
F657.4439050239275
sg86
g77
(g78
g79
Ntp343
Rp344
(dp345
g83
I0
sg91
g77
(g87
g79
Ntp346
Rp347
(dp348
g91
Nsg92
I00
sg93
g323
sg86
Nsbsg84
g85
sg99
F373.14483196815627
sg86
g77
(g78
g79
Ntp349
Rp350
(dp351
g83
I1
sg91
g77
(g87
g79
Ntp352
Rp353
(dp354
g91
Nsg92
I00
sg93
g330
sg86
Nsbsg84
g133
sg99
F124.3040820128266
sg86
g77
(g87
g79
Ntp355
Rp356
(dp357
g91
Nsg92
I00
sg93
g137
sg86
Nsbsg92
I01
sbsg92
I01
sbsg92
I01
sbsg100
(lp358
g338
ag344
ag350
ag356
ag353
ag347
ag341
asg102
I7
sbag335
ag335
ag335
ag335
ag335
ag335
ag335
ag335
ag335
ag335
a(itree
PTree
p359
(dp360
g76
g77
(g78
g79
Ntp361
Rp362
(dp363
g83
I0
sg91
g77
(g87
g79
Ntp364
Rp365
(dp366
g91
Nsg92
I00
sg93
g296
sg86
Nsbsg84
g85
sg99
F620.7778402369568
sg86
g77
(g78
g79
Ntp367
Rp368
(dp369
g83
I0
sg91
g77
(g87
g79
Ntp370
Rp371
(dp372
g91
Nsg92
I00
sg93
g323
sg86
Nsbsg84
g85
sg99
F373.14483196815627
sg86
g77
(g78
g79
Ntp373
Rp374
(dp375
g83
I1
sg91
g77
(g87
g79
Ntp376
Rp377
(dp378
g91
Nsg92
I00
sg93
g330
sg86
Nsbsg84
g133
sg99
F183.61716255904562
sg86
g77
(g87
g79
Ntp379
Rp380
(dp381
g91
Nsg92
I00
sg93
g137
sg86
Nsbsg92
I01
sbsg92
I01
sbsg92
I01
sbsg100
(lp382
g362
ag368
ag374
ag380
ag377
ag371
ag365
asg102
I7
sbag359
ag359
ag359
ag359
ag359
ag359
ag359
ag359
ag359
ag359
ag359
ag359
ag359
a(itree
PTree
p383
(dp384
g76
g77
(g78
g79
Ntp385
Rp386
(dp387
g83
I0
sg91
g77
(g87
g79
Ntp388
Rp389
(dp390
g91
Nsg92
I00
sg93
S'Release_Demand'
p391
sg86
Nsbsg84
g85
sg99
F611.6275883260561
sg86
g77
(g78
g79
Ntp392
Rp393
(dp394
g83
I0
sg91
g77
(g87
g79
Ntp395
Rp396
(dp397
g91
Nsg92
I00
sg93
S'Hedge_90'
p398
sg86
Nsbsg84
g85
sg99
F400.23980983529884
sg86
g77
(g78
g79
Ntp399
Rp400
(dp401
g83
I1
sg91
g77
(g87
g79
Ntp402
Rp403
(dp404
g91
Nsg92
I00
sg93
S'Hedge_70'
p405
sg86
Nsbsg84
g133
sg99
F143.68653190438135
sg86
g77
(g87
g79
Ntp406
Rp407
(dp408
g91
Nsg92
I00
sg93
g137
sg86
Nsbsg92
I01
sbsg92
I01
sbsg92
I01
sbsg100
(lp409
g386
ag393
ag400
ag407
ag403
ag396
ag389
asg102
I7
sbag383
ag383
ag383
ag383
ag383
a(itree
PTree
p410
(dp411
g76
g77
(g78
g79
Ntp412
Rp413
(dp414
g83
I0
sg91
g77
(g87
g79
Ntp415
Rp416
(dp417
g91
Nsg92
I00
sg93
g296
sg86
Nsbsg84
g85
sg99
F602.9382871093558
sg86
g77
(g78
g79
Ntp418
Rp419
(dp420
g83
I0
sg91
g77
(g87
g79
Ntp421
Rp422
(dp423
g91
Nsg92
I00
sg93
g323
sg86
Nsbsg84
g85
sg99
F388.4876686630184
sg86
g77
(g78
g79
Ntp424
Rp425
(dp426
g83
I1
sg91
g77
(g87
g79
Ntp427
Rp428
(dp429
g91
Nsg92
I00
sg93
g330
sg86
Nsbsg84
g133
sg99
F146.81998338021256
sg86
g77
(g87
g79
Ntp430
Rp431
(dp432
g91
Nsg92
I00
sg93
g137
sg86
Nsbsg92
I01
sbsg92
I01
sbsg92
I01
sbsg100
(lp433
g413
ag419
ag425
ag431
ag428
ag422
ag416
asg102
I7
sbag410
ag410
ag410
ag410
ag410
ag410
ag410
ag410
ag410
ag410
ag410
ag410
ag410
ag410
ag410
ag410
ag410
ag410
ag410
ag410
ag410
ag410
ag410
ag410
ag410
ag410
ag410
ag410
a(itree
PTree
p434
(dp435
g76
g77
(g78
g79
Ntp436
Rp437
(dp438
g83
I0
sg91
g77
(g87
g79
Ntp439
Rp440
(dp441
g91
Nsg92
I00
sg93
g391
sg86
Nsbsg84
g85
sg99
F613.3537401989371
sg86
g77
(g78
g79
Ntp442
Rp443
(dp444
g83
I0
sg91
g77
(g87
g79
Ntp445
Rp446
(dp447
g91
Nsg92
I00
sg93
g398
sg86
Nsbsg84
g85
sg99
F404.6065744791351
sg86
g77
(g78
g79
Ntp448
Rp449
(dp450
g83
I1
sg91
g77
(g87
g79
Ntp451
Rp452
(dp453
g91
Nsg92
I00
sg93
g405
sg86
Nsbsg84
g133
sg99
F126.27967006052967
sg86
g77
(g87
g79
Ntp454
Rp455
(dp456
g91
Nsg92
I00
sg93
g137
sg86
Nsbsg92
I01
sbsg92
I01
sbsg92
I01
sbsg100
(lp457
g437
ag443
ag449
ag455
ag452
ag446
ag440
asg102
I7
sbag434
ag434
ag434
ag434
ag434
ag434
ag434
ag434
ag434
ag434
ag434
ag434
ag434
ag434
ag434
ag434
ag434
ag434
ag434
ag434
ag434
ag434
ag434
ag434
ag434
ag434
ag434
ag434
ag434
ag434
ag434
ag434
ag434
ag434
ag434
ag434
ag434
ag434
ag434
ag434
a(itree
PTree
p458
(dp459
g76
g77
(g78
g79
Ntp460
Rp461
(dp462
g83
I0
sg91
g77
(g87
g79
Ntp463
Rp464
(dp465
g91
Nsg92
I00
sg93
g391
sg86
Nsbsg84
g85
sg99
F613.3537401989371
sg86
g77
(g78
g79
Ntp466
Rp467
(dp468
g83
I0
sg91
g77
(g87
g79
Ntp469
Rp470
(dp471
g91
Nsg92
I00
sg93
g398
sg86
Nsbsg84
g85
sg99
F407.06115205319793
sg86
g77
(g78
g79
Ntp472
Rp473
(dp474
g83
I1
sg91
g77
(g87
g79
Ntp475
Rp476
(dp477
g91
Nsg92
I00
sg93
g405
sg86
Nsbsg84
g133
sg99
F167.60603192066392
sg86
g77
(g87
g79
Ntp478
Rp479
(dp480
g91
Nsg92
I00
sg93
g137
sg86
Nsbsg92
I01
sbsg92
I01
sbsg92
I01
sbsg100
(lp481
g461
ag467
ag473
ag479
ag476
ag470
ag464
asg102
I7
sbag458
ag458
ag458
ag458
ag458
ag458
ag458
ag458
ag458
ag458
ag458
ag458
ag458
ag458
ag458
ag458
ag458
ag458
ag458
ag458
ag458
ag458
ag458
ag458
ag458
ag458
ag458
ag458
ag458
ag458
ag458
ag458
ag458
ag458
ag458
ag458
ag458
ag458
ag458
ag458
ag458
ag458
ag458
ag458
ag458
ag458
ag458
ag458
ag458
ag458
ag458
ag458
ag458
ag458
ag458
ag458
ag458
ag458
ag458
ag458
ag458
ag458
ag458
ag458
ag458
ag458
ag458
ag458
ag458
ag458
ag458
ag458
ag458
ag458
ag458
ag458
ag458
ag458
ag458
ag458
ag458
ag458
ag458
ag458
ag458
ag458
ag458
ag458
ag458
ag458
ag458
ag458
ag458
ag458
ag458
ag458
ag458
ag458
ag458
ag458
ag458
ag458
ag458
ag458
ag458
ag458
ag458
ag458
ag458
ag458
ag458
ag458
ag458
ag458
ag458
ag458
ag458
ag458
ag458
ag458
ag458
ag458
ag458
ag458
ag458
ag458
a(itree
PTree
p482
(dp483
g76
g77
(g78
g79
Ntp484
Rp485
(dp486
g83
I0
sg91
g77
(g87
g79
Ntp487
Rp488
(dp489
g91
Nsg92
I00
sg93
g296
sg86
Nsbsg84
g85
sg99
F619.4255865105753
sg86
g77
(g78
g79
Ntp490
Rp491
(dp492
g83
I0
sg91
g77
(g87
g79
Ntp493
Rp494
(dp495
g91
Nsg92
I00
sg93
S'Hedge_90'
p496
sg86
Nsbsg84
g85
sg99
F402.1085006993918
sg86
g77
(g78
g79
Ntp497
Rp498
(dp499
g83
I1
sg91
g77
(g87
g79
Ntp500
Rp501
(dp502
g91
Nsg92
I00
sg93
S'Hedge_70'
p503
sg86
Nsbsg84
g133
sg99
F119.36586988506677
sg86
g77
(g87
g79
Ntp504
Rp505
(dp506
g91
Nsg92
I00
sg93
g137
sg86
Nsbsg92
I01
sbsg92
I01
sbsg92
I01
sbsg100
(lp507
g485
ag491
ag498
ag505
ag501
ag494
ag488
asg102
I7
sbag482
ag482
ag482
ag482
ag482
ag482
ag482
ag482
ag482
ag482
ag482
ag482
ag482
ag482
ag482
ag482
ag482
ag482
ag482
ag482
ag482
ag482
ag482
ag482
ag482
ag482
ag482
ag482
ag482
ag482
ag482
ag482
ag482
ag482
ag482
asS'time'
p508
(lp509
I77
aI119
aI160
aI201
aI242
aI286
aI328
aI369
aI409
aI449
aI487
aI527
aI566
aI604
aI644
aI684
aI723
aI762
aI803
aI843
aI880
aI916
aI955
aI994
aI1032
aI1073
aI1112
aI1149
aI1188
aI1228
aI1267
aI1306
aI1346
aI1386
aI1423
aI1463
aI1502
aI1542
aI1580
aI1619
aI1657
aI1695
aI1732
aI1769
aI1806
aI1842
aI1878
aI1915
aI1952
aI1989
aI2025
aI2062
aI2099
aI2135
aI2172
aI2210
aI2246
aI2283
aI2320
aI2357
aI2394
aI2432
aI2472
aI2514
aI2555
aI2594
aI2633
aI2672
aI2710
aI2748
aI2786
aI2825
aI2864
aI2903
aI2941
aI2979
aI3018
aI3056
aI3092
aI3129
aI3165
aI3202
aI3242
aI3284
aI3325
aI3366
aI3407
aI3449
aI3490
aI3532
aI3573
aI3614
aI3655
aI3694
aI3733
aI3771
aI3808
aI3845
aI3882
aI3920
aI3957
aI3994
aI4033
aI4074
aI4115
aI4156
aI4196
aI4235
aI4276
aI4316
aI4359
aI4400
aI4439
aI4478
aI4520
aI4561
aI4601
aI4642
aI4681
aI4719
aI4758
aI4798
aI4837
aI4878
aI4918
aI4958
aI4999
aI5039
aI5079
aI5120
aI5161
aI5199
aI5236
aI5277
aI5316
aI5354
aI5390
aI5427
aI5463
aI5500
aI5536
aI5576
aI5612
aI5649
aI5686
aI5723
aI5760
aI5796
aI5833
aI5869
aI5906
aI5942
aI5979
aI6016
aI6054
aI6091
aI6129
aI6166
aI6204
aI6241
aI6279
aI6317
aI6354
aI6391
aI6428
aI6466
aI6503
aI6541
aI6579
aI6616
aI6653
aI6690
aI6727
aI6764
aI6802
aI6839
aI6877
aI6917
aI6956
aI6996
aI7035
aI7076
aI7115
aI7154
aI7194
aI7233
aI7274
aI7314
aI7353
aI7394
aI7434
aI7473
aI7513
aI7551
aI7591
aI7631
aI7670
aI7710
aI7748
aI7787
aI7826
aI7865
aI7904
aI7945
aI7985
aI8025
aI8066
aI8104
aI8145
aI8187
aI8228
aI8269
aI8309
aI8349
aI8390
aI8431
aI8473
aI8511
aI8550
aI8591
aI8630
aI8670
aI8709
aI8749
aI8789
aI8830
aI8871
aI8909
aI8949
aI8988
aI9029
aI9068
aI9108
aI9148
aI9190
aI9231
aI9272
aI9309
aI9347
aI9384
aI9422
aI9459
aI9496
aI9527
aI9562
aI9594
aI9624
aI9660
aI9694
aI9725
aI9759
aI9795
aI9832
aI9869
aI9906
aI9949
aI9993
aI10036
aI10076
aI10114
aI10152
aI10189
aI10226
aI10263
aI10300
aI10338
aI10376
aI10413
aI10451
aI10488
aI10525
aI10563
aI10600
aI10637
aI10675
aI10712
aI10750
aI10788
aI10825
aI10863
aI10900
aI10938
aI10975
aI11013
aI11050
aI11087
aI11124
aI11162
aI11199
aI11237
aI11275
aI11312
aI11350
aI11387
aI11425
aI11463
aI11501
aI11537
aI11574
aI11612
aI11649
aI11686
aI11724
aI11761
aI11799
aI11836
aI11873
aI11911
aI11948
aI11986
aI12023
aI12057
aI12089
aI12125
aI12160
aI12193
aI12230
aI12266
aI12303
aI12339
aI12376
aI12412
aI12448
aI12485
aI12521
aI12557
aI12593
aI12630
aI12666
aI12702
aI12738
aI12774
aI12810
aI12847
aI12883
aI12920
aI12956
aI12993
aI13029
aI13065
aI13101
aI13137
aI13174
aI13211
aI13248
aI13285
aI13322
aI13357
aI13392
aI13426
aI13463
aI13498
aI13534
aI13568
aI13601
aI13635
aI13665
aI13700
aI13737
aI13773
aI13810
aI13846
aI13884
aI13922
aI13959
aI13996
aI14033
aI14071
aI14108
aI14145
aI14180
aI14215
aI14249
aI14283
aI14317
aI14353
aI14384
aI14412
aI14448
aI14485
aI14521
aI14557
aI14595
aI14638
aI14682
aI14723
aI14765
aI14806
aI14844
aI14887
aI14929
aI14972
aI15014
aI15056
aI15095
aI15133
aI15171
aI15209
aI15247
aI15285
aI15322
aI15359
aI15396
aI15433
aI15470
aI15508
aI15545
aI15581
aI15619
aI15656
aI15693
aI15731
aI15770
aI15809
aI15848
aI15888
aI15929
aI15968
aI16009
aI16047
aI16087
aI16127
aI16168
aI16208
aI16249
aI16288
aI16330
aI16372
aI16411
aI16452
aI16492
aI16531
aI16571
aI16609
aI16647
aI16685
aI16727
aI16767
aI16807
aI16848
aI16890
aI16928
aI16969
aI17011
aI17053
aI17093
aI17132
aI17169
aI17206
aI17243
aI17280
aI17317
aI17355
aI17392
aI17429
aI17467
aI17503
aI17540
aI17577
aI17614
aI17651
aI17688
aI17725
aI17762
aI17799
aI17840
aI17879
aI17916
aI17953
aI17990
aI18027
aI18064
aI18102
aI18139
aI18176
aI18213
aI18251
aI18288
aI18325
aI18362
aI18400
aI18437
aI18475
aI18512
aI18549
aI18587
aI18625
aI18662
aI18699
aI18737
aI18775
aI18812
aI18849
aI18887
aI18924
aI18961
aI18999
aI19036
aI19076
aI19116
as.