(dp0
S'nfe'
p1
(lp2
I50
aI100
aI150
aI200
aI250
aI300
aI350
aI400
aI450
aI500
aI550
aI600
aI650
aI700
aI750
aI800
aI850
aI900
aI950
aI1000
aI1050
aI1100
aI1150
aI1200
aI1250
aI1300
aI1350
aI1400
aI1450
aI1500
aI1550
aI1600
aI1650
aI1700
aI1750
aI1800
aI1850
aI1900
aI1950
aI2000
aI2050
aI2100
aI2150
aI2200
aI2250
aI2300
aI2350
aI2400
aI2450
aI2500
aI2550
aI2600
aI2650
aI2700
aI2750
aI2800
aI2850
aI2900
aI2950
aI3000
aI3050
aI3100
aI3150
aI3200
aI3250
aI3300
aI3350
aI3400
aI3450
aI3500
aI3550
aI3600
aI3650
aI3700
aI3750
aI3800
aI3850
aI3900
aI3950
aI4000
aI4050
aI4100
aI4150
aI4200
aI4250
aI4300
aI4350
aI4400
aI4450
aI4500
aI4550
aI4600
aI4650
aI4700
aI4750
aI4800
aI4850
aI4900
aI4950
aI5000
aI5050
aI5100
aI5150
aI5200
aI5250
aI5300
aI5350
aI5400
aI5450
aI5500
aI5550
aI5600
aI5650
aI5700
aI5750
aI5800
aI5850
aI5900
aI5950
aI6000
aI6050
aI6100
aI6150
aI6200
aI6250
aI6300
aI6350
aI6400
aI6450
aI6500
aI6550
aI6600
aI6650
aI6700
aI6750
aI6800
aI6850
aI6900
aI6950
aI7000
aI7050
aI7100
aI7150
aI7200
aI7250
aI7300
aI7350
aI7400
aI7450
aI7500
aI7550
aI7600
aI7650
aI7700
aI7750
aI7800
aI7850
aI7900
aI7950
aI8000
aI8050
aI8100
aI8150
aI8200
aI8250
aI8300
aI8350
aI8400
aI8450
aI8500
aI8550
aI8600
aI8650
aI8700
aI8750
aI8800
aI8850
aI8900
aI8950
aI9000
aI9050
aI9100
aI9150
aI9200
aI9250
aI9300
aI9350
aI9400
aI9450
aI9500
aI9550
aI9600
aI9650
aI9700
aI9750
aI9800
aI9850
aI9900
aI9950
aI10000
aI10050
aI10100
aI10150
aI10200
aI10250
aI10300
aI10350
aI10400
aI10450
aI10500
aI10550
aI10600
aI10650
aI10700
aI10750
aI10800
aI10850
aI10900
aI10950
aI11000
aI11050
aI11100
aI11150
aI11200
aI11250
aI11300
aI11350
aI11400
aI11450
aI11500
aI11550
aI11600
aI11650
aI11700
aI11750
aI11800
aI11850
aI11900
aI11950
aI12000
aI12050
aI12100
aI12150
aI12200
aI12250
aI12300
aI12350
aI12400
aI12450
aI12500
aI12550
aI12600
aI12650
aI12700
aI12750
aI12800
aI12850
aI12900
aI12950
aI13000
aI13050
aI13100
aI13150
aI13200
aI13250
aI13300
aI13350
aI13400
aI13450
aI13500
aI13550
aI13600
aI13650
aI13700
aI13750
aI13800
aI13850
aI13900
aI13950
aI14000
aI14050
aI14100
aI14150
aI14200
aI14250
aI14300
aI14350
aI14400
aI14450
aI14500
aI14550
aI14600
aI14650
aI14700
aI14750
aI14800
aI14850
aI14900
aI14950
aI15000
aI15050
aI15100
aI15150
aI15200
aI15250
aI15300
aI15350
aI15400
aI15450
aI15500
aI15550
aI15600
aI15650
aI15700
aI15750
aI15800
aI15850
aI15900
aI15950
aI16000
aI16050
aI16100
aI16150
aI16200
aI16250
aI16300
aI16350
aI16400
aI16450
aI16500
aI16550
aI16600
aI16650
aI16700
aI16750
aI16800
aI16850
aI16900
aI16950
aI17000
aI17050
aI17100
aI17150
aI17200
aI17250
aI17300
aI17350
aI17400
aI17450
aI17500
aI17550
aI17600
aI17650
aI17700
aI17750
aI17800
aI17850
aI17900
aI17950
aI18000
aI18050
aI18100
aI18150
aI18200
aI18250
aI18300
aI18350
aI18400
aI18450
aI18500
aI18550
aI18600
aI18650
aI18700
aI18750
aI18800
aI18850
aI18900
aI18950
aI19000
aI19050
aI19100
aI19150
aI19200
aI19250
aI19300
aI19350
aI19400
aI19450
aI19500
aI19550
aI19600
aI19650
aI19700
aI19750
aI19800
aI19850
aI19900
aI19950
aI20000
asS'best_f'
p3
(lp4
cnumpy.core.multiarray
scalar
p5
(cnumpy
dtype
p6
(S'f8'
p7
I0
I1
tp8
Rp9
(I3
S'<'
p10
NNNI-1
I-1
I0
tp11
bS'7\xe6\x04i\xf2\xa1\x03@'
p12
tp13
Rp14
ag5
(g9
S'\x14\xa2\xa7zb\xb9\xe5?'
p15
tp16
Rp17
ag5
(g9
S')\x1b\xfafO\xda\xe4?'
p18
tp19
Rp20
ag5
(g9
S'\x1b\x00$\x9bZ\xa4\xe4?'
p21
tp22
Rp23
ag5
(g9
S'\x95j\x000\xa0^\xd9?'
p24
tp25
Rp26
ag26
ag5
(g9
S'\x1f_\x1cs7.\xd7?'
p27
tp28
Rp29
ag5
(g9
S'\xe47\xf7K\x1f\x9c\xd6?'
p30
tp31
Rp32
ag32
ag32
ag32
ag5
(g9
S'\xb3\x7f\x19\x11\xf9\xb0\xd3?'
p33
tp34
Rp35
ag35
ag35
ag35
ag5
(g9
S'\xb6\xf3\x83\xcf\xc0\xb1\xcd?'
p36
tp37
Rp38
ag38
ag38
ag38
ag38
ag38
ag38
ag38
ag38
ag38
ag5
(g9
S'4\xfe\xbe\xa8\xbc\x10\xcc?'
p39
tp40
Rp41
ag41
ag41
ag41
ag41
ag41
ag41
ag41
ag41
ag41
ag41
ag41
ag41
ag41
ag41
ag41
ag41
ag41
ag41
ag41
ag41
ag41
ag41
ag41
ag41
ag41
ag41
ag41
ag41
ag41
ag41
ag41
ag41
ag41
ag41
ag41
ag41
ag41
ag41
ag41
ag41
ag41
ag41
ag41
ag41
ag41
ag41
ag41
ag41
ag41
ag41
ag41
ag41
ag41
ag41
ag41
ag41
ag41
ag41
ag41
ag41
ag41
ag41
ag41
ag41
ag41
ag41
ag41
ag41
ag41
ag41
ag41
ag41
ag41
ag41
ag41
ag41
ag41
ag41
ag41
ag41
ag41
ag41
ag41
ag41
ag41
ag41
ag41
ag41
ag41
ag41
ag41
ag41
ag5
(g9
S'.\xff\x8f\xf4\xba\x10\xcc?'
p42
tp43
Rp44
ag44
ag44
ag44
ag44
ag44
ag44
ag44
ag44
ag44
ag44
ag44
ag44
ag44
ag44
ag44
ag44
ag44
ag44
ag44
ag44
ag44
ag44
ag44
ag44
ag44
ag44
ag44
ag44
ag44
ag44
ag44
ag44
ag44
ag44
ag44
ag44
ag44
ag44
ag44
ag44
ag44
ag44
ag44
ag44
ag44
ag44
ag44
ag44
ag44
ag44
ag44
ag44
ag44
ag44
ag44
ag44
ag44
ag44
ag44
ag44
ag44
ag44
ag44
ag44
ag44
ag44
ag44
ag44
ag44
ag44
ag5
(g9
S"\xa9^'\x8e\xb6\x10\xcc?"
p45
tp46
Rp47
ag47
ag47
ag47
ag47
ag47
ag47
ag47
ag47
ag47
ag47
ag47
ag47
ag47
ag47
ag47
ag47
ag47
ag5
(g9
S' \x8b\xc9\x92)\x04\xcc?'
p48
tp49
Rp50
ag50
ag50
ag50
ag50
ag50
ag50
ag50
ag50
ag50
ag50
ag50
ag50
ag50
ag50
ag50
ag50
ag50
ag50
ag50
ag50
ag50
ag50
ag50
ag50
ag50
ag50
ag50
ag50
ag50
ag50
ag50
ag50
ag50
ag50
ag50
ag50
ag50
ag50
ag50
ag50
ag50
ag50
ag50
ag50
ag50
ag50
ag50
ag50
ag50
ag50
ag50
ag50
ag50
ag50
ag50
ag50
ag50
ag50
ag50
ag50
ag50
ag50
ag50
ag50
ag50
ag50
ag50
ag50
ag50
ag50
ag50
ag50
ag50
ag50
ag50
ag50
ag50
ag50
ag50
ag50
ag50
ag50
ag50
ag50
ag50
ag50
ag50
ag50
ag50
ag50
ag50
ag50
ag50
ag50
ag50
ag50
ag50
ag50
ag50
ag50
ag50
ag50
ag50
ag50
ag50
ag50
ag50
ag50
ag50
ag50
ag50
ag50
ag50
ag50
ag50
ag50
ag50
ag50
ag50
ag50
ag50
ag50
ag50
ag50
ag50
ag50
ag50
ag50
ag50
ag50
ag50
ag50
ag50
ag50
ag50
ag50
ag50
ag50
ag50
ag50
ag50
ag50
ag50
ag50
ag50
ag50
ag50
ag50
ag50
ag50
ag50
ag50
ag50
ag50
ag50
ag50
ag50
ag50
ag50
ag50
ag50
ag50
ag50
ag50
ag50
ag50
ag50
ag50
ag50
ag50
ag50
ag50
ag50
ag50
ag50
ag50
ag50
ag50
ag50
ag50
ag50
ag50
ag50
ag50
ag50
ag50
ag50
ag50
ag50
ag50
ag50
ag50
asS'best_P'
p51
(lp52
(itree
PTree
p53
(dp54
S'root'
p55
ccopy_reg
_reconstructor
p56
(ctree
Feature
p57
c__builtin__
object
p58
Ntp59
Rp60
(dp61
S'index'
p62
I1
sS'name'
p63
S'Day'
p64
sS'l'
p65
g56
(g57
g58
Ntp66
Rp67
(dp68
g62
I0
sg63
S'Storage'
p69
sg65
g56
(ctree
Action
p70
g58
Ntp71
Rp72
(dp73
S'r'
p74
NsS'is_feature'
p75
I00
sS'value'
p76
S'Hedge_80'
p77
sg65
Nsbsg74
g56
(g70
g58
Ntp78
Rp79
(dp80
g74
Nsg75
I00
sg76
S'Hedge_70'
p81
sg65
NsbsS'threshold'
p82
F951.035449823975
sg75
I01
sbsg74
g56
(g70
g58
Ntp83
Rp84
(dp85
g74
Nsg75
I00
sg76
S'Flood_Control'
p86
sg65
Nsbsg82
F17.250453008785026
sg75
I01
sbsS'L'
p87
(lp88
g60
ag67
ag72
ag79
ag84
asS'N'
p89
I5
sba(itree
PTree
p90
(dp91
g55
g56
(g57
g58
Ntp92
Rp93
(dp94
g62
I0
sg74
g56
(g70
g58
Ntp95
Rp96
(dp97
g74
Nsg75
I00
sg76
S'Flood_Control'
p98
sg65
Nsbsg63
g69
sg82
F499.87609454558014
sg65
g56
(g70
g58
Ntp99
Rp100
(dp101
g74
Nsg75
I00
sg76
S'Hedge_80'
p102
sg65
Nsbsg75
I01
sbsg87
(lp103
g93
ag100
ag96
asg89
I3
sba(itree
PTree
p104
(dp105
g55
g56
(g57
g58
Ntp106
Rp107
(dp108
g62
I0
sg74
g56
(g70
g58
Ntp109
Rp110
(dp111
g74
Nsg75
I00
sg76
S'Flood_Control'
p112
sg65
Nsbsg63
g69
sg82
F552.2105123124314
sg65
g56
(g70
g58
Ntp113
Rp114
(dp115
g74
Nsg75
I00
sg76
S'Hedge_80'
p116
sg65
Nsbsg75
I01
sbsg87
(lp117
g107
ag114
ag110
asg89
I3
sba(itree
PTree
p118
(dp119
g55
g56
(g57
g58
Ntp120
Rp121
(dp122
g62
I0
sg74
g56
(g70
g58
Ntp123
Rp124
(dp125
g74
Nsg75
I00
sg76
S'Hedge_90'
p126
sg65
Nsbsg63
g69
sg82
F447.06617362307344
sg65
g56
(g70
g58
Ntp127
Rp128
(dp129
g74
Nsg75
I00
sg76
S'Flood_Control'
p130
sg65
Nsbsg75
I01
sbsg87
(lp131
g121
ag128
ag124
asg89
I3
sba(itree
PTree
p132
(dp133
g55
g56
(g57
g58
Ntp134
Rp135
(dp136
g62
I0
sg74
g56
(g70
g58
Ntp137
Rp138
(dp139
g74
Nsg75
I00
sg76
S'Flood_Control'
p140
sg65
Nsbsg63
g69
sg82
F544.769416190908
sg65
g56
(g70
g58
Ntp141
Rp142
(dp143
g74
Nsg75
I00
sg76
S'Hedge_90'
p144
sg65
Nsbsg75
I01
sbsg87
(lp145
g135
ag142
ag138
asg89
I3
sbag132
a(itree
PTree
p146
(dp147
g55
g56
(g57
g58
Ntp148
Rp149
(dp150
g62
I0
sg74
g56
(g70
g58
Ntp151
Rp152
(dp153
g74
Nsg75
I00
sg76
S'Flood_Control'
p154
sg65
Nsbsg63
g69
sg82
F547.8014967757681
sg65
g56
(g70
g58
Ntp155
Rp156
(dp157
g74
Nsg75
I00
sg76
S'Hedge_90'
p158
sg65
Nsbsg75
I01
sbsg87
(lp159
g149
ag156
ag152
asg89
I3
sba(itree
PTree
p160
(dp161
g55
g56
(g57
g58
Ntp162
Rp163
(dp164
g62
I0
sg74
g56
(g70
g58
Ntp165
Rp166
(dp167
g74
Nsg75
I00
sg76
g154
sg65
Nsbsg63
g69
sg82
F555.7614722442107
sg65
g56
(g70
g58
Ntp168
Rp169
(dp170
g74
Nsg75
I00
sg76
g158
sg65
Nsbsg75
I01
sbsg87
(lp171
g163
ag169
ag166
asg89
I3
sbag160
ag160
ag160
a(itree
PTree
p172
(dp173
g55
g56
(g57
g58
Ntp174
Rp175
(dp176
g62
I0
sg74
g56
(g70
g58
Ntp177
Rp178
(dp179
g74
Nsg75
I00
sg76
S'Flood_Control'
p180
sg65
Nsbsg63
g69
sg82
F660.7538387276217
sg65
g56
(g70
g58
Ntp181
Rp182
(dp183
g74
Nsg75
I00
sg76
S'Release_Demand'
p184
sg65
Nsbsg75
I01
sbsg87
(lp185
g175
ag182
ag178
asg89
I3
sbag172
ag172
ag172
a(itree
PTree
p186
(dp187
g55
g56
(g57
g58
Ntp188
Rp189
(dp190
g62
I0
sg74
g56
(g70
g58
Ntp191
Rp192
(dp193
g74
Nsg75
I00
sg76
g140
sg65
Nsbsg63
g69
sg82
F772.0374053859849
sg65
g56
(g70
g58
Ntp194
Rp195
(dp196
g74
Nsg75
I00
sg76
g144
sg65
Nsbsg75
I01
sbsg87
(lp197
g189
ag195
ag192
asg89
I3
sbag186
ag186
ag186
ag186
ag186
ag186
ag186
ag186
ag186
a(itree
PTree
p198
(dp199
g55
g56
(g57
g58
Ntp200
Rp201
(dp202
g62
I0
sg74
g56
(g70
g58
Ntp203
Rp204
(dp205
g74
Nsg75
I00
sg76
S'Flood_Control'
p206
sg65
Nsbsg63
g69
sg82
F770.2056825179667
sg65
g56
(g70
g58
Ntp207
Rp208
(dp209
g74
Nsg75
I00
sg76
S'Hedge_90'
p210
sg65
Nsbsg75
I01
sbsg87
(lp211
g201
ag208
ag204
asg89
I3
sbag198
ag198
ag198
ag198
ag198
ag198
ag198
ag198
ag198
ag198
ag198
ag198
ag198
ag198
ag198
ag198
ag198
ag198
ag198
ag198
ag198
ag198
ag198
ag198
ag198
ag198
ag198
ag198
ag198
ag198
ag198
ag198
ag198
ag198
ag198
ag198
ag198
ag198
ag198
ag198
ag198
ag198
ag198
ag198
ag198
ag198
ag198
ag198
ag198
ag198
ag198
ag198
ag198
ag198
ag198
ag198
ag198
ag198
ag198
ag198
ag198
ag198
ag198
ag198
ag198
ag198
ag198
ag198
ag198
ag198
ag198
ag198
ag198
ag198
ag198
ag198
ag198
ag198
ag198
ag198
ag198
ag198
ag198
ag198
ag198
ag198
ag198
ag198
ag198
ag198
ag198
ag198
a(itree
PTree
p212
(dp213
g55
g56
(g57
g58
Ntp214
Rp215
(dp216
g62
I0
sg74
g56
(g70
g58
Ntp217
Rp218
(dp219
g74
Nsg75
I00
sg76
S'Flood_Control'
p220
sg65
Nsbsg63
g69
sg82
F769.914397911014
sg65
g56
(g70
g58
Ntp221
Rp222
(dp223
g74
Nsg75
I00
sg76
S'Hedge_90'
p224
sg65
Nsbsg75
I01
sbsg87
(lp225
g215
ag222
ag218
asg89
I3
sbag212
ag212
ag212
ag212
ag212
ag212
ag212
ag212
ag212
ag212
ag212
ag212
ag212
ag212
ag212
ag212
ag212
ag212
ag212
ag212
ag212
ag212
ag212
ag212
ag212
ag212
ag212
ag212
ag212
ag212
ag212
ag212
ag212
ag212
ag212
ag212
ag212
ag212
ag212
ag212
ag212
ag212
ag212
ag212
ag212
ag212
ag212
ag212
ag212
ag212
ag212
ag212
ag212
ag212
ag212
ag212
ag212
ag212
ag212
ag212
ag212
ag212
ag212
ag212
ag212
ag212
ag212
ag212
ag212
ag212
a(itree
PTree
p226
(dp227
g55
g56
(g57
g58
Ntp228
Rp229
(dp230
g62
I0
sg74
g56
(g70
g58
Ntp231
Rp232
(dp233
g74
Nsg75
I00
sg76
g140
sg65
Nsbsg63
g69
sg82
F770.026190114783
sg65
g56
(g70
g58
Ntp234
Rp235
(dp236
g74
Nsg75
I00
sg76
g144
sg65
Nsbsg75
I01
sbsg87
(lp237
g229
ag235
ag232
asg89
I3
sbag226
ag226
ag226
ag226
ag226
ag226
ag226
ag226
ag226
ag226
ag226
ag226
ag226
ag226
ag226
ag226
ag226
a(itree
PTree
p238
(dp239
g55
g56
(g57
g58
Ntp240
Rp241
(dp242
g62
I0
sg74
g56
(g70
g58
Ntp243
Rp244
(dp245
g74
Nsg75
I00
sg76
S'Flood_Control'
p246
sg65
Nsbsg63
g69
sg82
F769.7000033700372
sg65
g56
(g70
g58
Ntp247
Rp248
(dp249
g74
Nsg75
I00
sg76
g144
sg65
Nsbsg75
I01
sbsg87
(lp250
g241
ag248
ag244
asg89
I3
sbag238
ag238
ag238
ag238
ag238
ag238
ag238
ag238
ag238
ag238
ag238
ag238
ag238
ag238
ag238
ag238
ag238
ag238
ag238
ag238
ag238
ag238
ag238
ag238
ag238
ag238
ag238
ag238
ag238
ag238
ag238
ag238
ag238
ag238
ag238
ag238
ag238
ag238
ag238
ag238
ag238
ag238
ag238
ag238
ag238
ag238
ag238
ag238
ag238
ag238
ag238
ag238
ag238
ag238
ag238
ag238
ag238
ag238
ag238
ag238
ag238
ag238
ag238
ag238
ag238
ag238
ag238
ag238
ag238
ag238
ag238
ag238
ag238
ag238
ag238
ag238
ag238
ag238
ag238
ag238
ag238
ag238
ag238
ag238
ag238
ag238
ag238
ag238
ag238
ag238
ag238
ag238
ag238
ag238
ag238
ag238
ag238
ag238
ag238
ag238
ag238
ag238
ag238
ag238
ag238
ag238
ag238
ag238
ag238
ag238
ag238
ag238
ag238
ag238
ag238
ag238
ag238
ag238
ag238
ag238
ag238
ag238
ag238
ag238
ag238
ag238
ag238
ag238
ag238
ag238
ag238
ag238
ag238
ag238
ag238
ag238
ag238
ag238
ag238
ag238
ag238
ag238
ag238
ag238
ag238
ag238
ag238
ag238
ag238
ag238
ag238
ag238
ag238
ag238
ag238
ag238
ag238
ag238
ag238
ag238
ag238
ag238
ag238
ag238
ag238
ag238
ag238
ag238
ag238
ag238
ag238
ag238
ag238
ag238
ag238
ag238
ag238
ag238
ag238
ag238
ag238
ag238
ag238
ag238
ag238
ag238
ag238
ag238
ag238
ag238
ag238
ag238
asS'time'
p251
(lp252
I49
aI76
aI101
aI124
aI148
aI173
aI198
aI223
aI248
aI272
aI297
aI321
aI345
aI369
aI393
aI417
aI441
aI467
aI488
aI510
aI534
aI560
aI585
aI608
aI634
aI657
aI679
aI703
aI727
aI751
aI775
aI798
aI820
aI845
aI867
aI890
aI915
aI938
aI964
aI991
aI1017
aI1044
aI1070
aI1093
aI1118
aI1143
aI1167
aI1191
aI1216
aI1241
aI1266
aI1290
aI1314
aI1335
aI1357
aI1380
aI1404
aI1428
aI1451
aI1477
aI1499
aI1524
aI1547
aI1574
aI1599
aI1625
aI1650
aI1673
aI1698
aI1724
aI1749
aI1774
aI1799
aI1825
aI1851
aI1877
aI1902
aI1925
aI1947
aI1970
aI1992
aI2016
aI2040
aI2063
aI2087
aI2110
aI2134
aI2158
aI2182
aI2207
aI2230
aI2253
aI2276
aI2301
aI2324
aI2348
aI2371
aI2396
aI2421
aI2446
aI2469
aI2493
aI2516
aI2540
aI2564
aI2586
aI2611
aI2637
aI2663
aI2689
aI2713
aI2736
aI2760
aI2787
aI2812
aI2836
aI2860
aI2882
aI2906
aI2928
aI2952
aI2980
aI3009
aI3035
aI3060
aI3086
aI3111
aI3134
aI3158
aI3182
aI3206
aI3231
aI3255
aI3279
aI3302
aI3324
aI3349
aI3373
aI3396
aI3420
aI3442
aI3465
aI3488
aI3510
aI3534
aI3558
aI3583
aI3623
aI3662
aI3685
aI3708
aI3731
aI3756
aI3781
aI3805
aI3828
aI3853
aI3878
aI3903
aI3926
aI3949
aI3973
aI3995
aI4017
aI4041
aI4065
aI4089
aI4112
aI4134
aI4158
aI4181
aI4203
aI4226
aI4249
aI4272
aI4295
aI4319
aI4342
aI4368
aI4392
aI4416
aI4440
aI4465
aI4489
aI4522
aI4549
aI4576
aI4603
aI4627
aI4649
aI4675
aI4698
aI4726
aI4759
aI4782
aI4805
aI4831
aI4856
aI4882
aI4907
aI4930
aI4955
aI4981
aI5006
aI5030
aI5053
aI5077
aI5101
aI5125
aI5149
aI5182
aI5208
aI5234
aI5262
aI5290
aI5318
aI5347
aI5376
aI5404
aI5432
aI5460
aI5488
aI5515
aI5543
aI5570
aI5595
aI5620
aI5644
aI5669
aI5691
aI5714
aI5736
aI5758
aI5780
aI5802
aI5828
aI5853
aI5877
aI5903
aI5927
aI5950
aI5973
aI5997
aI6021
aI6045
aI6065
aI6087
aI6110
aI6139
aI6165
aI6190
aI6218
aI6258
aI6284
aI6307
aI6330
aI6354
aI6377
aI6401
aI6426
aI6463
aI6498
aI6535
aI6571
aI6606
aI6641
aI6676
aI6713
aI6749
aI6781
aI6811
aI6841
aI6866
aI6891
aI6917
aI6942
aI6966
aI6991
aI7015
aI7038
aI7065
aI7102
aI7130
aI7157
aI7191
aI7227
aI7263
aI7299
aI7334
aI7376
aI7426
aI7476
aI7524
aI7577
aI7626
aI7657
aI7692
aI7729
aI7765
aI7801
aI7854
aI7914
aI7967
aI8007
aI8046
aI8093
aI8139
aI8187
aI8233
aI8271
aI8305
aI8340
aI8375
aI8418
aI8467
aI8516
aI8565
aI8615
aI8660
aI8698
aI8734
aI8771
aI8806
aI8843
aI8880
aI8916
aI8951
aI8986
aI9022
aI9058
aI9094
aI9130
aI9165
aI9203
aI9239
aI9275
aI9311
aI9347
aI9382
aI9420
aI9455
aI9491
aI9527
aI9565
aI9600
aI9638
aI9674
aI9710
aI9740
aI9771
aI9811
aI9850
aI9885
aI9922
aI9958
aI9995
aI10029
aI10061
aI10084
aI10110
aI10147
aI10182
aI10219
aI10254
aI10291
aI10326
aI10362
aI10398
aI10435
aI10471
aI10507
aI10543
aI10580
aI10616
aI10652
aI10687
aI10726
aI10763
aI10799
aI10837
aI10873
aI10910
aI10945
aI10983
aI11020
aI11056
aI11092
aI11127
aI11152
aI11175
aI11198
aI11222
aI11245
aI11268
aI11290
aI11314
aI11337
aI11364
aI11393
aI11422
as.