(dp0
S'nfe'
p1
(lp2
I50
aI100
aI150
aI200
aI250
aI300
aI350
aI400
aI450
aI500
aI550
aI600
aI650
aI700
aI750
aI800
aI850
aI900
aI950
aI1000
aI1050
aI1100
aI1150
aI1200
aI1250
aI1300
aI1350
aI1400
aI1450
aI1500
aI1550
aI1600
aI1650
aI1700
aI1750
aI1800
aI1850
aI1900
aI1950
aI2000
aI2050
aI2100
aI2150
aI2200
aI2250
aI2300
aI2350
aI2400
aI2450
aI2500
aI2550
aI2600
aI2650
aI2700
aI2750
aI2800
aI2850
aI2900
aI2950
aI3000
aI3050
aI3100
aI3150
aI3200
aI3250
aI3300
aI3350
aI3400
aI3450
aI3500
aI3550
aI3600
aI3650
aI3700
aI3750
aI3800
aI3850
aI3900
aI3950
aI4000
aI4050
aI4100
aI4150
aI4200
aI4250
aI4300
aI4350
aI4400
aI4450
aI4500
aI4550
aI4600
aI4650
aI4700
aI4750
aI4800
aI4850
aI4900
aI4950
aI5000
aI5050
aI5100
aI5150
aI5200
aI5250
aI5300
aI5350
aI5400
aI5450
aI5500
aI5550
aI5600
aI5650
aI5700
aI5750
aI5800
aI5850
aI5900
aI5950
aI6000
aI6050
aI6100
aI6150
aI6200
aI6250
aI6300
aI6350
aI6400
aI6450
aI6500
aI6550
aI6600
aI6650
aI6700
aI6750
aI6800
aI6850
aI6900
aI6950
aI7000
aI7050
aI7100
aI7150
aI7200
aI7250
aI7300
aI7350
aI7400
aI7450
aI7500
aI7550
aI7600
aI7650
aI7700
aI7750
aI7800
aI7850
aI7900
aI7950
aI8000
aI8050
aI8100
aI8150
aI8200
aI8250
aI8300
aI8350
aI8400
aI8450
aI8500
aI8550
aI8600
aI8650
aI8700
aI8750
aI8800
aI8850
aI8900
aI8950
aI9000
aI9050
aI9100
aI9150
aI9200
aI9250
aI9300
aI9350
aI9400
aI9450
aI9500
aI9550
aI9600
aI9650
aI9700
aI9750
aI9800
aI9850
aI9900
aI9950
aI10000
aI10050
aI10100
aI10150
aI10200
aI10250
aI10300
aI10350
aI10400
aI10450
aI10500
aI10550
aI10600
aI10650
aI10700
aI10750
aI10800
aI10850
aI10900
aI10950
aI11000
aI11050
aI11100
aI11150
aI11200
aI11250
aI11300
aI11350
aI11400
aI11450
aI11500
aI11550
aI11600
aI11650
aI11700
aI11750
aI11800
aI11850
aI11900
aI11950
aI12000
aI12050
aI12100
aI12150
aI12200
aI12250
aI12300
aI12350
aI12400
aI12450
aI12500
aI12550
aI12600
aI12650
aI12700
aI12750
aI12800
aI12850
aI12900
aI12950
aI13000
aI13050
aI13100
aI13150
aI13200
aI13250
aI13300
aI13350
aI13400
aI13450
aI13500
aI13550
aI13600
aI13650
aI13700
aI13750
aI13800
aI13850
aI13900
aI13950
aI14000
aI14050
aI14100
aI14150
aI14200
aI14250
aI14300
aI14350
aI14400
aI14450
aI14500
aI14550
aI14600
aI14650
aI14700
aI14750
aI14800
aI14850
aI14900
aI14950
aI15000
aI15050
aI15100
aI15150
aI15200
aI15250
aI15300
aI15350
aI15400
aI15450
aI15500
aI15550
aI15600
aI15650
aI15700
aI15750
aI15800
aI15850
aI15900
aI15950
aI16000
aI16050
aI16100
aI16150
aI16200
aI16250
aI16300
aI16350
aI16400
aI16450
aI16500
aI16550
aI16600
aI16650
aI16700
aI16750
aI16800
aI16850
aI16900
aI16950
aI17000
aI17050
aI17100
aI17150
aI17200
aI17250
aI17300
aI17350
aI17400
aI17450
aI17500
aI17550
aI17600
aI17650
aI17700
aI17750
aI17800
aI17850
aI17900
aI17950
aI18000
aI18050
aI18100
aI18150
aI18200
aI18250
aI18300
aI18350
aI18400
aI18450
aI18500
aI18550
aI18600
aI18650
aI18700
aI18750
aI18800
aI18850
aI18900
aI18950
aI19000
aI19050
aI19100
aI19150
aI19200
aI19250
aI19300
aI19350
aI19400
aI19450
aI19500
aI19550
aI19600
aI19650
aI19700
aI19750
aI19800
aI19850
aI19900
aI19950
aI20000
aI20050
aI20100
aI20150
aI20200
aI20250
aI20300
aI20350
aI20400
aI20450
aI20500
aI20550
aI20600
aI20650
aI20700
aI20750
aI20800
aI20850
aI20900
aI20950
aI21000
aI21050
aI21100
aI21150
aI21200
aI21250
aI21300
aI21350
aI21400
aI21450
aI21500
aI21550
aI21600
aI21650
aI21700
aI21750
aI21800
aI21850
aI21900
aI21950
aI22000
aI22050
aI22100
aI22150
aI22200
aI22250
aI22300
aI22350
aI22400
aI22450
aI22500
aI22550
aI22600
aI22650
aI22700
aI22750
aI22800
aI22850
aI22900
aI22950
aI23000
aI23050
aI23100
aI23150
aI23200
aI23250
aI23300
aI23350
aI23400
aI23450
aI23500
aI23550
aI23600
aI23650
aI23700
aI23750
aI23800
aI23850
aI23900
aI23950
aI24000
aI24050
aI24100
aI24150
aI24200
aI24250
aI24300
aI24350
aI24400
aI24450
aI24500
aI24550
aI24600
aI24650
aI24700
aI24750
aI24800
aI24850
aI24900
aI24950
aI25000
asS'best_f'
p3
(lp4
cnumpy.core.multiarray
scalar
p5
(cnumpy
dtype
p6
(S'f8'
p7
I0
I1
tp8
Rp9
(I3
S'<'
p10
NNNI-1
I-1
I0
tp11
bS'{M\x0f\x0b\x87\xbd\xfe?'
p12
tp13
Rp14
ag5
(g9
S'\xdc\x86iv=v\xf7?'
p15
tp16
Rp17
ag5
(g9
S'\xc1\xb6C\xbah\xdf\xd1?'
p18
tp19
Rp20
ag5
(g9
S'[\xf2\x99fB\xd6\xcb?'
p21
tp22
Rp23
ag23
ag5
(g9
S'\xa6\x9f\xe4\xa8^\xc9\xcb?'
p24
tp25
Rp26
ag26
ag5
(g9
S'Iy\x8a\xd6\x93\x9e\xcb?'
p27
tp28
Rp29
ag29
ag29
ag29
ag29
ag29
ag29
ag29
ag29
ag29
ag29
ag5
(g9
S'a\xb0\xf1/\rc\xc5?'
p30
tp31
Rp32
ag32
ag5
(g9
S'\xd4\x8c\xaf\xf6`7\xc3?'
p33
tp34
Rp35
ag35
ag35
ag5
(g9
S'\xb7doP\xd0t\xc1?'
p36
tp37
Rp38
ag38
ag38
ag38
ag38
ag5
(g9
S'\x83\xa9vZ\xb1\xc1\xbe?'
p39
tp40
Rp41
ag41
ag41
ag41
ag5
(g9
S'\xb5I\x00\x96\xbd\xb4\xbc?'
p42
tp43
Rp44
ag5
(g9
S'\xc6\x18k\x84\xb3|\xbc?'
p45
tp46
Rp47
ag47
ag5
(g9
S'\xfc\x1d\x18|\xa9d\xbc?'
p48
tp49
Rp50
ag50
ag5
(g9
S'\xd3\xd8\xa9p\xaf\xb0\xbb?'
p51
tp52
Rp53
ag53
ag53
ag53
ag5
(g9
S'\xedz\x92\x81\xa0\xac\xbb?'
p54
tp55
Rp56
ag56
ag56
ag56
ag56
ag56
ag56
ag5
(g9
S'\x8a\xcd\xbb\xf9E\x8b\xbb?'
p57
tp58
Rp59
ag59
ag59
ag59
ag59
ag59
ag59
ag59
ag59
ag59
ag59
ag59
ag59
ag59
ag59
ag59
ag59
ag59
ag59
ag59
ag59
ag59
ag59
ag59
ag59
ag59
ag59
ag59
ag59
ag59
ag59
ag59
ag59
ag59
ag59
ag59
ag59
ag59
ag59
ag59
ag59
ag59
ag5
(g9
S',\r\xf3N\\\xfb\xba?'
p60
tp61
Rp62
ag5
(g9
S'\xe6f\xa5y2s\xba?'
p63
tp64
Rp65
ag65
ag65
ag5
(g9
S'\x0f\xc6M6\x81L\xba?'
p66
tp67
Rp68
ag68
ag68
ag68
ag68
ag68
ag68
ag68
ag68
ag5
(g9
S'\xf1\xc5\xf4.\xb3\x1d\xb9?'
p69
tp70
Rp71
ag71
ag71
ag71
ag71
ag71
ag71
ag71
ag71
ag71
ag71
ag71
ag71
ag71
ag71
ag71
ag71
ag71
ag71
ag71
ag71
ag71
ag71
ag71
ag71
ag71
ag71
ag71
ag71
ag71
ag71
ag71
ag71
ag71
ag71
ag71
ag71
ag71
ag71
ag71
ag71
ag71
ag71
ag71
ag71
ag71
ag71
ag5
(g9
S'\x82\xb1a\xc7\xed\x1c\xb9?'
p72
tp73
Rp74
ag74
ag74
ag74
ag74
ag74
ag74
ag74
ag74
ag74
ag74
ag74
ag74
ag74
ag74
ag74
ag74
ag74
ag74
ag74
ag74
ag74
ag74
ag74
ag74
ag74
ag74
ag74
ag5
(g9
S'\xd1\xf2\xad?\x9f\x10\xb9?'
p75
tp76
Rp77
ag77
ag77
ag77
ag77
ag77
ag77
ag77
ag77
ag77
ag77
ag77
ag77
ag77
ag77
ag77
ag77
ag77
ag77
ag77
ag77
ag77
ag77
ag77
ag77
ag77
ag77
ag77
ag77
ag77
ag77
ag77
ag77
ag77
ag77
ag77
ag77
ag77
ag77
ag77
ag77
ag77
ag77
ag5
(g9
S'T\xa4\xa5\xe8h\xe9\xb8?'
p78
tp79
Rp80
ag80
ag80
ag80
ag80
ag80
ag80
ag80
ag80
ag80
ag80
ag80
ag80
ag80
ag80
ag80
ag80
ag80
ag80
ag80
ag80
ag80
ag80
ag80
ag80
ag80
ag80
ag80
ag80
ag80
ag80
ag80
ag80
ag80
ag80
ag80
ag80
ag80
ag80
ag80
ag80
ag80
ag80
ag80
ag80
ag80
ag80
ag80
ag80
ag80
ag80
ag80
ag80
ag80
ag80
ag80
ag80
ag80
ag80
ag80
ag80
ag80
ag80
ag80
ag80
ag80
ag80
ag80
ag80
ag80
ag80
ag80
ag80
ag80
ag80
ag80
ag80
ag80
ag80
ag80
ag80
ag80
ag80
ag80
ag80
ag80
ag80
ag80
ag80
ag80
ag80
ag80
ag80
ag80
ag80
ag80
ag80
ag80
ag80
ag80
ag80
ag80
ag80
ag80
ag80
ag80
ag80
ag80
ag80
ag80
ag80
ag80
ag80
ag80
ag80
ag5
(g9
S'\xe3\x19T\xdf\x92\xdf\xb8?'
p81
tp82
Rp83
ag83
ag83
ag83
ag83
ag83
ag83
ag83
ag83
ag83
ag83
ag83
ag83
ag83
ag83
ag83
ag83
ag83
ag83
ag83
ag83
ag83
ag83
ag83
ag83
ag83
ag83
ag83
ag83
ag83
ag83
ag83
ag83
ag83
ag83
ag83
ag83
ag83
ag83
ag83
ag83
ag83
ag83
ag83
ag83
ag83
ag83
ag83
ag83
ag83
ag83
ag83
ag83
ag83
ag83
ag83
ag83
ag83
ag83
ag83
ag83
ag83
ag83
ag83
ag83
ag83
ag83
ag83
ag83
ag83
ag83
ag83
ag83
ag83
ag83
ag83
ag83
ag83
ag83
ag83
ag83
ag83
ag83
ag83
ag83
ag83
ag83
ag83
ag83
ag83
ag83
ag83
ag83
ag83
ag83
ag83
ag83
ag83
ag83
ag83
ag83
ag83
ag83
ag83
ag83
ag83
ag83
ag83
ag83
ag83
ag83
ag83
ag83
ag83
ag83
ag83
ag83
ag83
ag83
ag83
ag83
ag83
ag83
ag83
ag83
ag83
ag83
ag83
ag83
ag83
ag83
ag83
ag5
(g9
S'\xf4\x0b@\xf0\x12\xc3\xb8?'
p84
tp85
Rp86
ag86
ag86
ag86
ag86
ag86
ag86
ag86
ag86
ag86
ag86
ag86
ag86
ag86
ag86
ag86
ag86
ag86
ag86
ag86
ag86
ag86
ag86
ag86
ag86
ag86
ag86
ag86
ag86
ag86
ag86
ag86
asS'best_P'
p87
(lp88
(itree
PTree
p89
(dp90
S'root'
p91
ccopy_reg
_reconstructor
p92
(ctree
Feature
p93
c__builtin__
object
p94
Ntp95
Rp96
(dp97
S'index'
p98
I0
sS'name'
p99
S'Storage'
p100
sS'l'
p101
g92
(ctree
Action
p102
g94
Ntp103
Rp104
(dp105
S'r'
p106
NsS'is_feature'
p107
I00
sS'value'
p108
S'Release_Demand'
p109
sg101
Nsbsg106
g92
(g93
g94
Ntp110
Rp111
(dp112
g98
I0
sg99
g100
sg101
g92
(g102
g94
Ntp113
Rp114
(dp115
g106
Nsg107
I00
sg108
S'Flood_Control'
p116
sg101
Nsbsg106
g92
(g102
g94
Ntp117
Rp118
(dp119
g106
Nsg107
I00
sg108
S'Hedge_70'
p120
sg101
NsbsS'threshold'
p121
F718.8098092908441
sg107
I01
sbsg121
F279.28937818640367
sg107
I01
sbsS'L'
p122
(lp123
g96
ag104
ag111
ag114
ag118
asS'N'
p124
I5
sba(itree
PTree
p125
(dp126
g91
g92
(g93
g94
Ntp127
Rp128
(dp129
g98
I0
sg106
g92
(g93
g94
Ntp130
Rp131
(dp132
g98
I2
sg106
g92
(g102
g94
Ntp133
Rp134
(dp135
g106
Nsg107
I00
sg108
S'Hedge_90'
p136
sg101
Nsbsg99
S'Inflow'
p137
sg121
F96.91485612445018
sg101
g92
(g102
g94
Ntp138
Rp139
(dp140
g106
Nsg107
I00
sg108
S'Flood_Control'
p141
sg101
Nsbsg107
I01
sbsg99
g100
sg121
F455.88763433433746
sg101
g92
(g102
g94
Ntp142
Rp143
(dp144
g106
Nsg107
I00
sg108
S'Hedge_70'
p145
sg101
Nsbsg107
I01
sbsg122
(lp146
g128
ag143
ag131
ag139
ag134
asg124
I5
sba(itree
PTree
p147
(dp148
g91
g92
(g93
g94
Ntp149
Rp150
(dp151
g98
I2
sg106
g92
(g102
g94
Ntp152
Rp153
(dp154
g106
Nsg107
I00
sg108
S'Flood_Control'
p155
sg101
Nsbsg99
g137
sg121
F43.429883509832
sg101
g92
(g102
g94
Ntp156
Rp157
(dp158
g106
Nsg107
I00
sg108
S'Hedge_90'
p159
sg101
Nsbsg107
I01
sbsg122
(lp160
g150
ag157
ag153
asg124
I3
sba(itree
PTree
p161
(dp162
g91
g92
(g93
g94
Ntp163
Rp164
(dp165
g98
I2
sg106
g92
(g102
g94
Ntp166
Rp167
(dp168
g106
Nsg107
I00
sg108
g155
sg101
Nsbsg99
g137
sg121
F52.64949654101438
sg101
g92
(g102
g94
Ntp169
Rp170
(dp171
g106
Nsg107
I00
sg108
g159
sg101
Nsbsg107
I01
sbsg122
(lp172
g164
ag170
ag167
asg124
I3
sbag161
a(itree
PTree
p173
(dp174
g91
g92
(g93
g94
Ntp175
Rp176
(dp177
g98
I2
sg106
g92
(g102
g94
Ntp178
Rp179
(dp180
g106
Nsg107
I00
sg108
g155
sg101
Nsbsg99
g137
sg121
F56.737773458610604
sg101
g92
(g102
g94
Ntp181
Rp182
(dp183
g106
Nsg107
I00
sg108
g159
sg101
Nsbsg107
I01
sbsg122
(lp184
g176
ag182
ag179
asg124
I3
sbag173
a(itree
PTree
p185
(dp186
g91
g92
(g93
g94
Ntp187
Rp188
(dp189
g98
I0
sg106
g92
(g93
g94
Ntp190
Rp191
(dp192
g98
I0
sg106
g92
(g93
g94
Ntp193
Rp194
(dp195
g98
I2
sg106
g92
(g102
g94
Ntp196
Rp197
(dp198
g106
Nsg107
I00
sg108
g155
sg101
Nsbsg99
g137
sg121
F76.1464937125388
sg101
g92
(g102
g94
Ntp199
Rp200
(dp201
g106
Nsg107
I00
sg108
g159
sg101
Nsbsg107
I01
sbsg99
g100
sg121
F588.4838803293877
sg101
g92
(g102
g94
Ntp202
Rp203
(dp204
g106
Nsg107
I00
sg108
S'Hedge_90'
p205
sg101
Nsbsg107
I01
sbsg99
g100
sg121
F189.6216219256549
sg101
g92
(g93
g94
Ntp206
Rp207
(dp208
g98
I2
sg106
g92
(g102
g94
Ntp209
Rp210
(dp211
g106
Nsg107
I00
sg108
S'Flood_Control'
p212
sg101
Nsbsg99
g137
sg121
F234.12776914631195
sg101
g92
(g102
g94
Ntp213
Rp214
(dp215
g106
Nsg107
I00
sg108
S'Hedge_90'
p216
sg101
Nsbsg107
I01
sbsg107
I01
sbsg122
(lp217
g188
ag207
ag214
ag210
ag191
ag203
ag194
ag200
ag197
asg124
I9
sbag185
ag185
ag185
ag185
ag185
ag185
ag185
ag185
ag185
ag185
a(itree
PTree
p218
(dp219
g91
g92
(g93
g94
Ntp220
Rp221
(dp222
g98
I0
sg106
g92
(g93
g94
Ntp223
Rp224
(dp225
g98
I2
sg106
g92
(g102
g94
Ntp226
Rp227
(dp228
g106
Nsg107
I00
sg108
S'Flood_Control'
p229
sg101
Nsbsg99
g137
sg121
F66.87989766441855
sg101
g92
(g102
g94
Ntp230
Rp231
(dp232
g106
Nsg107
I00
sg108
S'Release_Demand'
p233
sg101
Nsbsg107
I01
sbsg99
g100
sg121
F374.35197396365845
sg101
g92
(g102
g94
Ntp234
Rp235
(dp236
g106
Nsg107
I00
sg108
S'Hedge_80'
p237
sg101
Nsbsg107
I01
sbsg122
(lp238
g221
ag235
ag224
ag231
ag227
asg124
I5
sbag218
a(itree
PTree
p239
(dp240
g91
g92
(g93
g94
Ntp241
Rp242
(dp243
g98
I0
sg106
g92
(g93
g94
Ntp244
Rp245
(dp246
g98
I2
sg106
g92
(g102
g94
Ntp247
Rp248
(dp249
g106
Nsg107
I00
sg108
g229
sg101
Nsbsg99
g137
sg121
F66.87989766441855
sg101
g92
(g102
g94
Ntp250
Rp251
(dp252
g106
Nsg107
I00
sg108
g233
sg101
Nsbsg107
I01
sbsg99
g100
sg121
F422.3123205951283
sg101
g92
(g102
g94
Ntp253
Rp254
(dp255
g106
Nsg107
I00
sg108
g237
sg101
Nsbsg107
I01
sbsg122
(lp256
g242
ag254
ag245
ag251
ag248
asg124
I5
sbag239
ag239
a(itree
PTree
p257
(dp258
g91
g92
(g93
g94
Ntp259
Rp260
(dp261
g98
I0
sg106
g92
(g93
g94
Ntp262
Rp263
(dp264
g98
I0
sg106
g92
(g93
g94
Ntp265
Rp266
(dp267
g98
I2
sg106
g92
(g102
g94
Ntp268
Rp269
(dp270
g106
Nsg107
I00
sg108
g155
sg101
Nsbsg99
g137
sg121
F61.65445638874162
sg101
g92
(g102
g94
Ntp271
Rp272
(dp273
g106
Nsg107
I00
sg108
S'Release_Demand'
p274
sg101
Nsbsg107
I01
sbsg99
g100
sg121
F666.8042288251736
sg101
g92
(g102
g94
Ntp275
Rp276
(dp277
g106
Nsg107
I00
sg108
S'Hedge_90'
p278
sg101
Nsbsg107
I01
sbsg99
g100
sg121
F204.905122726666
sg101
g92
(g102
g94
Ntp279
Rp280
(dp281
g106
Nsg107
I00
sg108
S'Hedge_50'
p282
sg101
Nsbsg107
I01
sbsg122
(lp283
g260
ag280
ag263
ag276
ag266
ag272
ag269
asg124
I7
sbag257
ag257
ag257
ag257
a(itree
PTree
p284
(dp285
g91
g92
(g93
g94
Ntp286
Rp287
(dp288
g98
I0
sg106
g92
(g93
g94
Ntp289
Rp290
(dp291
g98
I2
sg106
g92
(g102
g94
Ntp292
Rp293
(dp294
g106
Nsg107
I00
sg108
g229
sg101
Nsbsg99
g137
sg121
F42.309762205443185
sg101
g92
(g102
g94
Ntp295
Rp296
(dp297
g106
Nsg107
I00
sg108
g233
sg101
Nsbsg107
I01
sbsg99
g100
sg121
F525.0872038719057
sg101
g92
(g102
g94
Ntp298
Rp299
(dp300
g106
Nsg107
I00
sg108
g237
sg101
Nsbsg107
I01
sbsg122
(lp301
g287
ag299
ag290
ag296
ag293
asg124
I5
sbag284
ag284
ag284
a(itree
PTree
p302
(dp303
g91
g92
(g93
g94
Ntp304
Rp305
(dp306
g98
I0
sg106
g92
(g93
g94
Ntp307
Rp308
(dp309
g98
I2
sg106
g92
(g102
g94
Ntp310
Rp311
(dp312
g106
Nsg107
I00
sg108
g229
sg101
Nsbsg99
g137
sg121
F51.381274311512946
sg101
g92
(g102
g94
Ntp313
Rp314
(dp315
g106
Nsg107
I00
sg108
g233
sg101
Nsbsg107
I01
sbsg99
g100
sg121
F573.7140881830073
sg101
g92
(g102
g94
Ntp316
Rp317
(dp318
g106
Nsg107
I00
sg108
g237
sg101
Nsbsg107
I01
sbsg122
(lp319
g305
ag317
ag308
ag314
ag311
asg124
I5
sba(itree
PTree
p320
(dp321
g91
g92
(g93
g94
Ntp322
Rp323
(dp324
g98
I0
sg106
g92
(g93
g94
Ntp325
Rp326
(dp327
g98
I2
sg106
g92
(g102
g94
Ntp328
Rp329
(dp330
g106
Nsg107
I00
sg108
g229
sg101
Nsbsg99
g137
sg121
F51.381274311512946
sg101
g92
(g102
g94
Ntp331
Rp332
(dp333
g106
Nsg107
I00
sg108
g233
sg101
Nsbsg107
I01
sbsg99
g100
sg121
F582.8929946436305
sg101
g92
(g102
g94
Ntp334
Rp335
(dp336
g106
Nsg107
I00
sg108
g237
sg101
Nsbsg107
I01
sbsg122
(lp337
g323
ag335
ag326
ag332
ag329
asg124
I5
sbag320
a(itree
PTree
p338
(dp339
g91
g92
(g93
g94
Ntp340
Rp341
(dp342
g98
I0
sg106
g92
(g93
g94
Ntp343
Rp344
(dp345
g98
I2
sg106
g92
(g102
g94
Ntp346
Rp347
(dp348
g106
Nsg107
I00
sg108
g229
sg101
Nsbsg99
g137
sg121
F35.82654639127658
sg101
g92
(g102
g94
Ntp349
Rp350
(dp351
g106
Nsg107
I00
sg108
g233
sg101
Nsbsg107
I01
sbsg99
g100
sg121
F620.0695110281699
sg101
g92
(g102
g94
Ntp352
Rp353
(dp354
g106
Nsg107
I00
sg108
g237
sg101
Nsbsg107
I01
sbsg122
(lp355
g341
ag353
ag344
ag350
ag347
asg124
I5
sbag338
a(itree
PTree
p356
(dp357
g91
g92
(g93
g94
Ntp358
Rp359
(dp360
g98
I0
sg106
g92
(g93
g94
Ntp361
Rp362
(dp363
g98
I2
sg106
g92
(g102
g94
Ntp364
Rp365
(dp366
g106
Nsg107
I00
sg108
g229
sg101
Nsbsg99
g137
sg121
F58.58174677526561
sg101
g92
(g102
g94
Ntp367
Rp368
(dp369
g106
Nsg107
I00
sg108
g233
sg101
Nsbsg107
I01
sbsg99
g100
sg121
F620.0695110281699
sg101
g92
(g102
g94
Ntp370
Rp371
(dp372
g106
Nsg107
I00
sg108
g237
sg101
Nsbsg107
I01
sbsg122
(lp373
g359
ag371
ag362
ag368
ag365
asg124
I5
sbag356
ag356
ag356
a(itree
PTree
p374
(dp375
g91
g92
(g93
g94
Ntp376
Rp377
(dp378
g98
I0
sg106
g92
(g93
g94
Ntp379
Rp380
(dp381
g98
I2
sg106
g92
(g102
g94
Ntp382
Rp383
(dp384
g106
Nsg107
I00
sg108
g229
sg101
Nsbsg99
g137
sg121
F62.50124402745602
sg101
g92
(g102
g94
Ntp385
Rp386
(dp387
g106
Nsg107
I00
sg108
g233
sg101
Nsbsg107
I01
sbsg99
g100
sg121
F620.0695110281699
sg101
g92
(g102
g94
Ntp388
Rp389
(dp390
g106
Nsg107
I00
sg108
g237
sg101
Nsbsg107
I01
sbsg122
(lp391
g377
ag389
ag380
ag386
ag383
asg124
I5
sbag374
ag374
ag374
ag374
ag374
ag374
a(itree
PTree
p392
(dp393
g91
g92
(g93
g94
Ntp394
Rp395
(dp396
g98
I0
sg106
g92
(g93
g94
Ntp397
Rp398
(dp399
g98
I2
sg106
g92
(g102
g94
Ntp400
Rp401
(dp402
g106
Nsg107
I00
sg108
g229
sg101
Nsbsg99
g137
sg121
F59.95501991347204
sg101
g92
(g102
g94
Ntp403
Rp404
(dp405
g106
Nsg107
I00
sg108
g233
sg101
Nsbsg107
I01
sbsg99
g100
sg121
F622.045590385014
sg101
g92
(g102
g94
Ntp406
Rp407
(dp408
g106
Nsg107
I00
sg108
g237
sg101
Nsbsg107
I01
sbsg122
(lp409
g395
ag407
ag398
ag404
ag401
asg124
I5
sbag392
ag392
ag392
ag392
ag392
ag392
ag392
ag392
ag392
ag392
ag392
ag392
ag392
ag392
ag392
ag392
ag392
ag392
ag392
ag392
ag392
ag392
ag392
ag392
ag392
ag392
ag392
ag392
ag392
ag392
ag392
ag392
ag392
ag392
ag392
ag392
ag392
ag392
ag392
ag392
ag392
a(itree
PTree
p410
(dp411
g91
g92
(g93
g94
Ntp412
Rp413
(dp414
g98
I0
sg106
g92
(g93
g94
Ntp415
Rp416
(dp417
g98
I0
sg106
g92
(g93
g94
Ntp418
Rp419
(dp420
g98
I2
sg106
g92
(g102
g94
Ntp421
Rp422
(dp423
g106
Nsg107
I00
sg108
S'Flood_Control'
p424
sg101
Nsbsg99
g137
sg121
F50.2355315749855
sg101
g92
(g102
g94
Ntp425
Rp426
(dp427
g106
Nsg107
I00
sg108
S'Release_Demand'
p428
sg101
Nsbsg107
I01
sbsg99
g100
sg121
F690.5424853040797
sg101
g92
(g102
g94
Ntp429
Rp430
(dp431
g106
Nsg107
I00
sg108
S'Hedge_90'
p432
sg101
Nsbsg107
I01
sbsg99
g100
sg121
F406.6443618510618
sg101
g92
(g102
g94
Ntp433
Rp434
(dp435
g106
Nsg107
I00
sg108
S'Hedge_70'
p436
sg101
Nsbsg107
I01
sbsg122
(lp437
g413
ag434
ag416
ag430
ag419
ag426
ag422
asg124
I7
sba(itree
PTree
p438
(dp439
g91
g92
(g93
g94
Ntp440
Rp441
(dp442
g98
I0
sg106
g92
(g93
g94
Ntp443
Rp444
(dp445
g98
I0
sg106
g92
(g93
g94
Ntp446
Rp447
(dp448
g98
I2
sg106
g92
(g102
g94
Ntp449
Rp450
(dp451
g106
Nsg107
I00
sg108
g424
sg101
Nsbsg99
g137
sg121
F78.76246609021335
sg101
g92
(g102
g94
Ntp452
Rp453
(dp454
g106
Nsg107
I00
sg108
g428
sg101
Nsbsg107
I01
sbsg99
g100
sg121
F755.4761494621154
sg101
g92
(g102
g94
Ntp455
Rp456
(dp457
g106
Nsg107
I00
sg108
g432
sg101
Nsbsg107
I01
sbsg99
g100
sg121
F419.36233941231154
sg101
g92
(g102
g94
Ntp458
Rp459
(dp460
g106
Nsg107
I00
sg108
g436
sg101
Nsbsg107
I01
sbsg122
(lp461
g441
ag459
ag444
ag456
ag447
ag453
ag450
asg124
I7
sbag438
ag438
a(itree
PTree
p462
(dp463
g91
g92
(g93
g94
Ntp464
Rp465
(dp466
g98
I0
sg106
g92
(g93
g94
Ntp467
Rp468
(dp469
g98
I0
sg106
g92
(g93
g94
Ntp470
Rp471
(dp472
g98
I2
sg106
g92
(g102
g94
Ntp473
Rp474
(dp475
g106
Nsg107
I00
sg108
g424
sg101
Nsbsg99
g137
sg121
F78.76246609021335
sg101
g92
(g102
g94
Ntp476
Rp477
(dp478
g106
Nsg107
I00
sg108
g428
sg101
Nsbsg107
I01
sbsg99
g100
sg121
F753.3949116314866
sg101
g92
(g102
g94
Ntp479
Rp480
(dp481
g106
Nsg107
I00
sg108
g432
sg101
Nsbsg107
I01
sbsg99
g100
sg121
F419.36233941231154
sg101
g92
(g102
g94
Ntp482
Rp483
(dp484
g106
Nsg107
I00
sg108
g436
sg101
Nsbsg107
I01
sbsg122
(lp485
g465
ag483
ag468
ag480
ag471
ag477
ag474
asg124
I7
sbag462
ag462
ag462
ag462
ag462
ag462
ag462
ag462
a(itree
PTree
p486
(dp487
g91
g92
(g93
g94
Ntp488
Rp489
(dp490
g98
I0
sg106
g92
(g93
g94
Ntp491
Rp492
(dp493
g98
I0
sg106
g92
(g93
g94
Ntp494
Rp495
(dp496
g98
I2
sg106
g92
(g102
g94
Ntp497
Rp498
(dp499
g106
Nsg107
I00
sg108
S'Flood_Control'
p500
sg101
Nsbsg99
g137
sg121
F70.75309756056194
sg101
g92
(g102
g94
Ntp501
Rp502
(dp503
g106
Nsg107
I00
sg108
S'Release_Demand'
p504
sg101
Nsbsg107
I01
sbsg99
g100
sg121
F685.8562930554695
sg101
g92
(g102
g94
Ntp505
Rp506
(dp507
g106
Nsg107
I00
sg108
S'Hedge_90'
p508
sg101
Nsbsg107
I01
sbsg99
g100
sg121
F441.51439365419776
sg101
g92
(g102
g94
Ntp509
Rp510
(dp511
g106
Nsg107
I00
sg108
S'Hedge_70'
p512
sg101
Nsbsg107
I01
sbsg122
(lp513
g489
ag510
ag492
ag506
ag495
ag502
ag498
asg124
I7
sbag486
ag486
ag486
ag486
ag486
ag486
ag486
ag486
ag486
ag486
ag486
ag486
ag486
ag486
ag486
ag486
ag486
ag486
ag486
ag486
ag486
ag486
ag486
ag486
ag486
ag486
ag486
ag486
ag486
ag486
ag486
ag486
ag486
ag486
ag486
ag486
ag486
ag486
ag486
ag486
ag486
ag486
ag486
ag486
ag486
ag486
a(itree
PTree
p514
(dp515
g91
g92
(g93
g94
Ntp516
Rp517
(dp518
g98
I0
sg106
g92
(g93
g94
Ntp519
Rp520
(dp521
g98
I0
sg106
g92
(g93
g94
Ntp522
Rp523
(dp524
g98
I2
sg106
g92
(g102
g94
Ntp525
Rp526
(dp527
g106
Nsg107
I00
sg108
g500
sg101
Nsbsg99
g137
sg121
F57.48457011512565
sg101
g92
(g102
g94
Ntp528
Rp529
(dp530
g106
Nsg107
I00
sg108
g504
sg101
Nsbsg107
I01
sbsg99
g100
sg121
F645.4663088296658
sg101
g92
(g102
g94
Ntp531
Rp532
(dp533
g106
Nsg107
I00
sg108
g508
sg101
Nsbsg107
I01
sbsg99
g100
sg121
F434.4277106212433
sg101
g92
(g102
g94
Ntp534
Rp535
(dp536
g106
Nsg107
I00
sg108
g512
sg101
Nsbsg107
I01
sbsg122
(lp537
g517
ag535
ag520
ag532
ag523
ag529
ag526
asg124
I7
sbag514
ag514
ag514
ag514
ag514
ag514
ag514
ag514
ag514
ag514
ag514
ag514
ag514
ag514
ag514
ag514
ag514
ag514
ag514
ag514
ag514
ag514
ag514
ag514
ag514
ag514
ag514
a(itree
PTree
p538
(dp539
g91
g92
(g93
g94
Ntp540
Rp541
(dp542
g98
I0
sg106
g92
(g93
g94
Ntp543
Rp544
(dp545
g98
I0
sg106
g92
(g93
g94
Ntp546
Rp547
(dp548
g98
I2
sg106
g92
(g102
g94
Ntp549
Rp550
(dp551
g106
Nsg107
I00
sg108
g500
sg101
Nsbsg99
g137
sg121
F70.2867442090856
sg101
g92
(g102
g94
Ntp552
Rp553
(dp554
g106
Nsg107
I00
sg108
g504
sg101
Nsbsg107
I01
sbsg99
g100
sg121
F617.5054741790378
sg101
g92
(g102
g94
Ntp555
Rp556
(dp557
g106
Nsg107
I00
sg108
g508
sg101
Nsbsg107
I01
sbsg99
g100
sg121
F431.4049901997959
sg101
g92
(g102
g94
Ntp558
Rp559
(dp560
g106
Nsg107
I00
sg108
g512
sg101
Nsbsg107
I01
sbsg122
(lp561
g541
ag559
ag544
ag556
ag547
ag553
ag550
asg124
I7
sbag538
ag538
ag538
ag538
ag538
ag538
ag538
ag538
ag538
ag538
ag538
ag538
ag538
ag538
ag538
ag538
ag538
ag538
ag538
ag538
ag538
ag538
ag538
ag538
ag538
ag538
ag538
ag538
ag538
ag538
ag538
ag538
ag538
ag538
ag538
ag538
ag538
ag538
ag538
ag538
ag538
ag538
a(itree
PTree
p562
(dp563
g91
g92
(g93
g94
Ntp564
Rp565
(dp566
g98
I0
sg106
g92
(g93
g94
Ntp567
Rp568
(dp569
g98
I0
sg106
g92
(g93
g94
Ntp570
Rp571
(dp572
g98
I2
sg106
g92
(g102
g94
Ntp573
Rp574
(dp575
g106
Nsg107
I00
sg108
g500
sg101
Nsbsg99
g137
sg121
F68.92144521193582
sg101
g92
(g102
g94
Ntp576
Rp577
(dp578
g106
Nsg107
I00
sg108
g504
sg101
Nsbsg107
I01
sbsg99
g100
sg121
F631.2750360114309
sg101
g92
(g102
g94
Ntp579
Rp580
(dp581
g106
Nsg107
I00
sg108
g508
sg101
Nsbsg107
I01
sbsg99
g100
sg121
F437.10494657439057
sg101
g92
(g102
g94
Ntp582
Rp583
(dp584
g106
Nsg107
I00
sg108
g512
sg101
Nsbsg107
I01
sbsg122
(lp585
g565
ag583
ag568
ag580
ag571
ag577
ag574
asg124
I7
sbag562
ag562
ag562
ag562
ag562
ag562
ag562
ag562
ag562
ag562
ag562
ag562
ag562
ag562
ag562
ag562
ag562
ag562
ag562
ag562
ag562
ag562
ag562
ag562
ag562
ag562
ag562
ag562
ag562
ag562
ag562
ag562
ag562
ag562
ag562
ag562
ag562
ag562
ag562
ag562
ag562
ag562
ag562
ag562
ag562
ag562
ag562
ag562
ag562
ag562
ag562
ag562
ag562
ag562
ag562
ag562
ag562
ag562
ag562
ag562
ag562
ag562
ag562
ag562
ag562
ag562
ag562
ag562
ag562
ag562
ag562
ag562
ag562
ag562
ag562
ag562
ag562
ag562
ag562
ag562
ag562
ag562
ag562
ag562
ag562
ag562
ag562
ag562
ag562
ag562
ag562
ag562
ag562
ag562
ag562
ag562
ag562
ag562
ag562
ag562
ag562
ag562
ag562
ag562
ag562
ag562
ag562
ag562
ag562
ag562
ag562
ag562
ag562
ag562
a(itree
PTree
p586
(dp587
g91
g92
(g93
g94
Ntp588
Rp589
(dp590
g98
I0
sg106
g92
(g93
g94
Ntp591
Rp592
(dp593
g98
I0
sg106
g92
(g93
g94
Ntp594
Rp595
(dp596
g98
I2
sg106
g92
(g102
g94
Ntp597
Rp598
(dp599
g106
Nsg107
I00
sg108
g500
sg101
Nsbsg99
g137
sg121
F50.22561113976925
sg101
g92
(g102
g94
Ntp600
Rp601
(dp602
g106
Nsg107
I00
sg108
g504
sg101
Nsbsg107
I01
sbsg99
g100
sg121
F698.6094049290839
sg101
g92
(g102
g94
Ntp603
Rp604
(dp605
g106
Nsg107
I00
sg108
g508
sg101
Nsbsg107
I01
sbsg99
g100
sg121
F437.10494657439057
sg101
g92
(g102
g94
Ntp606
Rp607
(dp608
g106
Nsg107
I00
sg108
g512
sg101
Nsbsg107
I01
sbsg122
(lp609
g589
ag607
ag592
ag604
ag595
ag601
ag598
asg124
I7
sbag586
ag586
ag586
ag586
ag586
ag586
ag586
ag586
ag586
ag586
ag586
ag586
ag586
ag586
ag586
ag586
ag586
ag586
ag586
ag586
ag586
ag586
ag586
ag586
ag586
ag586
ag586
ag586
ag586
ag586
ag586
ag586
ag586
ag586
ag586
ag586
ag586
ag586
ag586
ag586
ag586
ag586
ag586
ag586
ag586
ag586
ag586
ag586
ag586
ag586
ag586
ag586
ag586
ag586
ag586
ag586
ag586
ag586
ag586
ag586
ag586
ag586
ag586
ag586
ag586
ag586
ag586
ag586
ag586
ag586
ag586
ag586
ag586
ag586
ag586
ag586
ag586
ag586
ag586
ag586
ag586
ag586
ag586
ag586
ag586
ag586
ag586
ag586
ag586
ag586
ag586
ag586
ag586
ag586
ag586
ag586
ag586
ag586
ag586
ag586
ag586
ag586
ag586
ag586
ag586
ag586
ag586
ag586
ag586
ag586
ag586
ag586
ag586
ag586
ag586
ag586
ag586
ag586
ag586
ag586
ag586
ag586
ag586
ag586
ag586
ag586
ag586
ag586
ag586
ag586
ag586
a(itree
PTree
p610
(dp611
g91
g92
(g93
g94
Ntp612
Rp613
(dp614
g98
I0
sg106
g92
(g93
g94
Ntp615
Rp616
(dp617
g98
I0
sg106
g92
(g93
g94
Ntp618
Rp619
(dp620
g98
I2
sg106
g92
(g102
g94
Ntp621
Rp622
(dp623
g106
Nsg107
I00
sg108
g424
sg101
Nsbsg99
g137
sg121
F68.63822390437846
sg101
g92
(g102
g94
Ntp624
Rp625
(dp626
g106
Nsg107
I00
sg108
g428
sg101
Nsbsg107
I01
sbsg99
g100
sg121
F691.2662061566979
sg101
g92
(g102
g94
Ntp627
Rp628
(dp629
g106
Nsg107
I00
sg108
g432
sg101
Nsbsg107
I01
sbsg99
g100
sg121
F438.0574991319763
sg101
g92
(g102
g94
Ntp630
Rp631
(dp632
g106
Nsg107
I00
sg108
g436
sg101
Nsbsg107
I01
sbsg122
(lp633
g613
ag631
ag616
ag628
ag619
ag625
ag622
asg124
I7
sbag610
ag610
ag610
ag610
ag610
ag610
ag610
ag610
ag610
ag610
ag610
ag610
ag610
ag610
ag610
ag610
ag610
ag610
ag610
ag610
ag610
ag610
ag610
ag610
ag610
ag610
ag610
ag610
ag610
ag610
ag610
asS'time'
p634
(lp635
I56
aI85
aI113
aI142
aI170
aI197
aI225
aI253
aI281
aI309
aI337
aI365
aI392
aI420
aI448
aI476
aI503
aI530
aI558
aI585
aI613
aI640
aI668
aI696
aI723
aI751
aI778
aI806
aI834
aI862
aI889
aI916
aI944
aI972
aI999
aI1027
aI1055
aI1082
aI1110
aI1137
aI1165
aI1193
aI1221
aI1248
aI1277
aI1305
aI1333
aI1361
aI1388
aI1417
aI1445
aI1473
aI1501
aI1529
aI1558
aI1586
aI1615
aI1643
aI1672
aI1700
aI1729
aI1757
aI1786
aI1814
aI1842
aI1871
aI1899
aI1928
aI1956
aI1985
aI2013
aI2042
aI2070
aI2099
aI2128
aI2156
aI2185
aI2213
aI2241
aI2270
aI2298
aI2327
aI2355
aI2383
aI2412
aI2440
aI2469
aI2498
aI2526
aI2555
aI2583
aI2612
aI2640
aI2669
aI2697
aI2726
aI2754
aI2783
aI2812
aI2840
aI2868
aI2897
aI2925
aI2954
aI2982
aI3011
aI3039
aI3068
aI3096
aI3124
aI3153
aI3181
aI3210
aI3238
aI3267
aI3295
aI3323
aI3352
aI3380
aI3409
aI3437
aI3466
aI3494
aI3523
aI3551
aI3580
aI3609
aI3637
aI3666
aI3694
aI3723
aI3751
aI3780
aI3808
aI3837
aI3865
aI3894
aI3922
aI3950
aI3979
aI4007
aI4036
aI4064
aI4093
aI4121
aI4150
aI4178
aI4206
aI4234
aI4263
aI4291
aI4320
aI4348
aI4377
aI4405
aI4434
aI4462
aI4491
aI4519
aI4548
aI4576
aI4604
aI4632
aI4660
aI4689
aI4717
aI4745
aI4774
aI4802
aI4830
aI4859
aI4888
aI4916
aI4944
aI4973
aI5001
aI5029
aI5058
aI5086
aI5115
aI5144
aI5172
aI5201
aI5229
aI5258
aI5286
aI5314
aI5343
aI5371
aI5400
aI5428
aI5457
aI5485
aI5513
aI5542
aI5571
aI5599
aI5627
aI5656
aI5684
aI5713
aI5741
aI5769
aI5798
aI5826
aI5854
aI5883
aI5911
aI5940
aI5969
aI5997
aI6025
aI6054
aI6082
aI6110
aI6139
aI6168
aI6196
aI6225
aI6253
aI6281
aI6310
aI6338
aI6367
aI6395
aI6424
aI6452
aI6481
aI6509
aI6537
aI6566
aI6595
aI6623
aI6651
aI6679
aI6708
aI6737
aI6765
aI6794
aI6822
aI6851
aI6879
aI6908
aI6936
aI6964
aI6993
aI7021
aI7050
aI7078
aI7106
aI7134
aI7163
aI7191
aI7219
aI7248
aI7276
aI7304
aI7333
aI7361
aI7390
aI7418
aI7446
aI7475
aI7503
aI7531
aI7560
aI7588
aI7617
aI7645
aI7673
aI7702
aI7730
aI7759
aI7787
aI7816
aI7844
aI7872
aI7901
aI7929
aI7957
aI7986
aI8014
aI8043
aI8071
aI8099
aI8127
aI8156
aI8184
aI8212
aI8241
aI8269
aI8297
aI8326
aI8354
aI8383
aI8411
aI8439
aI8468
aI8496
aI8524
aI8552
aI8581
aI8609
aI8638
aI8666
aI8694
aI8723
aI8751
aI8779
aI8808
aI8836
aI8865
aI8893
aI8922
aI8950
aI8979
aI9007
aI9036
aI9064
aI9092
aI9121
aI9149
aI9177
aI9206
aI9234
aI9262
aI9291
aI9319
aI9347
aI9375
aI9404
aI9432
aI9461
aI9489
aI9518
aI9546
aI9574
aI9602
aI9631
aI9659
aI9687
aI9715
aI9743
aI9771
aI9800
aI9828
aI9857
aI9885
aI9913
aI9941
aI9969
aI9998
aI10026
aI10054
aI10082
aI10111
aI10139
aI10167
aI10196
aI10224
aI10252
aI10280
aI10309
aI10337
aI10365
aI10394
aI10422
aI10450
aI10478
aI10507
aI10535
aI10563
aI10592
aI10620
aI10648
aI10676
aI10705
aI10733
aI10761
aI10789
aI10818
aI10846
aI10874
aI10903
aI10931
aI10960
aI10988
aI11016
aI11044
aI11072
aI11101
aI11129
aI11157
aI11185
aI11214
aI11242
aI11270
aI11299
aI11327
aI11356
aI11384
aI11412
aI11441
aI11469
aI11498
aI11526
aI11554
aI11583
aI11611
aI11640
aI11668
aI11696
aI11725
aI11753
aI11781
aI11810
aI11838
aI11866
aI11895
aI11923
aI11951
aI11979
aI12008
aI12036
aI12065
aI12093
aI12121
aI12149
aI12178
aI12207
aI12235
aI12264
aI12292
aI12320
aI12349
aI12377
aI12406
aI12434
aI12463
aI12491
aI12519
aI12547
aI12576
aI12605
aI12633
aI12661
aI12690
aI12718
aI12746
aI12774
aI12802
aI12831
aI12859
aI12887
aI12916
aI12944
aI12972
aI13000
aI13028
aI13056
aI13085
aI13113
aI13141
aI13170
aI13198
aI13226
aI13255
aI13283
aI13311
aI13340
aI13368
aI13397
aI13425
aI13453
aI13482
aI13510
aI13539
aI13567
aI13595
aI13624
aI13652
aI13681
aI13709
aI13737
aI13765
aI13794
aI13823
aI13851
aI13879
aI13907
aI13935
aI13964
aI13992
aI14020
aI14048
aI14077
aI14105
aI14133
aI14161
aI14189
as.