(dp0
S'nfe'
p1
(lp2
I50
aI100
aI150
aI200
aI250
aI300
aI350
aI400
aI450
aI500
aI550
aI600
aI650
aI700
aI750
aI800
aI850
aI900
aI950
aI1000
aI1050
aI1100
aI1150
aI1200
aI1250
aI1300
aI1350
aI1400
aI1450
aI1500
aI1550
aI1600
aI1650
aI1700
aI1750
aI1800
aI1850
aI1900
aI1950
aI2000
aI2050
aI2100
aI2150
aI2200
aI2250
aI2300
aI2350
aI2400
aI2450
aI2500
aI2550
aI2600
aI2650
aI2700
aI2750
aI2800
aI2850
aI2900
aI2950
aI3000
aI3050
aI3100
aI3150
aI3200
aI3250
aI3300
aI3350
aI3400
aI3450
aI3500
aI3550
aI3600
aI3650
aI3700
aI3750
aI3800
aI3850
aI3900
aI3950
aI4000
aI4050
aI4100
aI4150
aI4200
aI4250
aI4300
aI4350
aI4400
aI4450
aI4500
aI4550
aI4600
aI4650
aI4700
aI4750
aI4800
aI4850
aI4900
aI4950
aI5000
aI5050
aI5100
aI5150
aI5200
aI5250
aI5300
aI5350
aI5400
aI5450
aI5500
aI5550
aI5600
aI5650
aI5700
aI5750
aI5800
aI5850
aI5900
aI5950
aI6000
aI6050
aI6100
aI6150
aI6200
aI6250
aI6300
aI6350
aI6400
aI6450
aI6500
aI6550
aI6600
aI6650
aI6700
aI6750
aI6800
aI6850
aI6900
aI6950
aI7000
aI7050
aI7100
aI7150
aI7200
aI7250
aI7300
aI7350
aI7400
aI7450
aI7500
aI7550
aI7600
aI7650
aI7700
aI7750
aI7800
aI7850
aI7900
aI7950
aI8000
aI8050
aI8100
aI8150
aI8200
aI8250
aI8300
aI8350
aI8400
aI8450
aI8500
aI8550
aI8600
aI8650
aI8700
aI8750
aI8800
aI8850
aI8900
aI8950
aI9000
aI9050
aI9100
aI9150
aI9200
aI9250
aI9300
aI9350
aI9400
aI9450
aI9500
aI9550
aI9600
aI9650
aI9700
aI9750
aI9800
aI9850
aI9900
aI9950
aI10000
aI10050
aI10100
aI10150
aI10200
aI10250
aI10300
aI10350
aI10400
aI10450
aI10500
aI10550
aI10600
aI10650
aI10700
aI10750
aI10800
aI10850
aI10900
aI10950
aI11000
aI11050
aI11100
aI11150
aI11200
aI11250
aI11300
aI11350
aI11400
aI11450
aI11500
aI11550
aI11600
aI11650
aI11700
aI11750
aI11800
aI11850
aI11900
aI11950
aI12000
aI12050
aI12100
aI12150
aI12200
aI12250
aI12300
aI12350
aI12400
aI12450
aI12500
aI12550
aI12600
aI12650
aI12700
aI12750
aI12800
aI12850
aI12900
aI12950
aI13000
aI13050
aI13100
aI13150
aI13200
aI13250
aI13300
aI13350
aI13400
aI13450
aI13500
aI13550
aI13600
aI13650
aI13700
aI13750
aI13800
aI13850
aI13900
aI13950
aI14000
aI14050
aI14100
aI14150
aI14200
aI14250
aI14300
aI14350
aI14400
aI14450
aI14500
aI14550
aI14600
aI14650
aI14700
aI14750
aI14800
aI14850
aI14900
aI14950
aI15000
aI15050
aI15100
aI15150
aI15200
aI15250
aI15300
aI15350
aI15400
aI15450
aI15500
aI15550
aI15600
aI15650
aI15700
aI15750
aI15800
aI15850
aI15900
aI15950
aI16000
aI16050
aI16100
aI16150
aI16200
aI16250
aI16300
aI16350
aI16400
aI16450
aI16500
aI16550
aI16600
aI16650
aI16700
aI16750
aI16800
aI16850
aI16900
aI16950
aI17000
aI17050
aI17100
aI17150
aI17200
aI17250
aI17300
aI17350
aI17400
aI17450
aI17500
aI17550
aI17600
aI17650
aI17700
aI17750
aI17800
aI17850
aI17900
aI17950
aI18000
aI18050
aI18100
aI18150
aI18200
aI18250
aI18300
aI18350
aI18400
aI18450
aI18500
aI18550
aI18600
aI18650
aI18700
aI18750
aI18800
aI18850
aI18900
aI18950
aI19000
aI19050
aI19100
aI19150
aI19200
aI19250
aI19300
aI19350
aI19400
aI19450
aI19500
aI19550
aI19600
aI19650
aI19700
aI19750
aI19800
aI19850
aI19900
aI19950
aI20000
asS'best_f'
p3
(lp4
cnumpy.core.multiarray
scalar
p5
(cnumpy
dtype
p6
(S'f8'
p7
I0
I1
tp8
Rp9
(I3
S'<'
p10
NNNI-1
I-1
I0
tp11
bS"\xa0'\xb6\xb2'\xfe\xe0?"
p12
tp13
Rp14
ag14
ag5
(g9
S'\xef\xeb\xf1\xea\xbd<\xe0?'
p15
tp16
Rp17
ag17
ag17
ag17
ag5
(g9
S'\x96\x9c\x8a\xda(\xec\xd3?'
p18
tp19
Rp20
ag20
ag20
ag20
ag5
(g9
S'\x89\xef\xd7\xb2or\xd3?'
p21
tp22
Rp23
ag23
ag23
ag23
ag5
(g9
S'\xa8\xbc\xbe\xabE1\xd3?'
p24
tp25
Rp26
ag26
ag5
(g9
S'\xa2\x81\xf9\xb4\xe8\x0f\xd0?'
p27
tp28
Rp29
ag5
(g9
S'\x1a7y\x9cF;\xcb?'
p30
tp31
Rp32
ag32
ag32
ag32
ag5
(g9
S'\xd2\x06H\x13\xfa\x8f\xc4?'
p33
tp34
Rp35
ag5
(g9
S'\xbf\xdb\xc0\xfd\x0fF\xc3?'
p36
tp37
Rp38
ag38
ag38
ag38
ag38
ag5
(g9
S'\x84W\xa7\x8b\x0c2\xbf?'
p39
tp40
Rp41
ag41
ag5
(g9
S'\x9c\xcd8cz\x03\xbb?'
p42
tp43
Rp44
ag44
ag5
(g9
S'+\xe8\xc4\x8e\xfb3\xb9?'
p45
tp46
Rp47
ag47
ag47
ag47
ag47
ag47
ag47
ag5
(g9
S'v\xc5\t\xa9\xd52\xb8?'
p48
tp49
Rp50
ag50
ag50
ag50
ag50
ag50
ag50
ag50
ag50
ag50
ag5
(g9
S'\x89\xc8o\xee\xa8f\xb7?'
p51
tp52
Rp53
ag53
ag53
ag53
ag53
ag53
ag53
ag53
ag53
ag53
ag5
(g9
S'\x9e\x00Y\xb4\xd9\xcb\xb6?'
p54
tp55
Rp56
ag56
ag56
ag56
ag56
ag56
ag56
ag56
ag56
ag5
(g9
S'\xcf\xfa\xd1 XI\xb6?'
p57
tp58
Rp59
ag59
ag59
ag59
ag59
ag59
ag59
ag59
ag59
ag59
ag59
ag59
ag59
ag59
ag59
ag59
ag59
ag59
ag59
ag59
ag59
ag59
ag59
ag59
ag59
ag59
ag59
ag59
ag59
ag59
ag59
ag59
ag59
ag59
ag59
ag59
ag59
ag59
ag59
ag59
ag59
ag59
ag59
ag59
ag59
ag59
ag59
ag59
ag59
ag59
ag59
ag59
ag59
ag59
ag59
ag59
ag59
ag59
ag59
ag59
ag59
ag59
ag59
ag59
ag59
ag59
ag59
ag59
ag59
ag59
ag59
ag59
ag59
ag59
ag59
ag59
ag59
ag59
ag59
ag59
ag59
ag59
ag59
ag59
ag5
(g9
S'P\x02\xd5|\xeb\xb3\xb3?'
p60
tp61
Rp62
ag62
ag62
ag62
ag62
ag62
ag62
ag62
ag62
ag62
ag62
ag62
ag62
ag62
ag62
ag62
ag62
ag62
ag62
ag62
ag62
ag62
ag62
ag62
ag62
ag62
ag62
ag62
ag62
ag62
ag62
ag62
ag62
ag62
ag62
ag62
ag62
ag62
ag62
ag62
ag5
(g9
S'\xcb\xfd\n\xa5\x82M\xb1?'
p63
tp64
Rp65
ag65
ag65
ag65
ag65
ag65
ag65
ag65
ag65
ag65
ag65
ag65
ag65
ag65
ag65
ag65
ag65
ag65
ag65
ag65
ag65
ag65
ag65
ag65
ag65
ag65
ag65
ag65
ag65
ag65
ag65
ag65
ag65
ag65
ag65
ag65
ag65
ag65
ag65
ag65
ag65
ag65
ag65
ag65
ag65
ag65
ag65
ag65
ag65
ag65
ag65
ag65
ag65
ag65
ag65
ag65
ag65
ag65
ag65
ag65
ag65
ag65
ag65
ag65
ag65
ag65
ag65
ag65
ag65
ag65
ag65
ag65
ag65
ag65
ag65
ag65
ag65
ag65
ag65
ag65
ag65
ag65
ag65
ag65
ag65
ag65
ag65
ag65
ag65
ag65
ag65
ag65
ag65
ag65
ag65
ag65
ag65
ag65
ag65
ag65
ag65
ag65
ag65
ag65
ag65
ag65
ag65
ag65
ag65
ag65
ag65
ag65
ag65
ag65
ag65
ag65
ag65
ag65
ag65
ag65
ag65
ag65
ag65
ag65
ag65
ag65
ag65
ag65
ag65
ag65
ag65
ag65
ag65
ag65
ag65
ag65
ag65
ag65
ag65
ag65
ag65
ag65
ag65
ag65
ag65
ag65
ag65
ag65
ag65
ag65
ag65
ag65
ag65
ag65
ag65
ag65
ag65
ag65
ag65
ag65
ag65
ag65
ag65
ag65
ag65
ag65
ag65
ag65
ag65
ag65
ag65
ag65
ag65
ag65
ag65
ag65
ag65
ag65
ag65
ag65
ag65
ag65
ag65
ag65
ag65
ag65
ag65
ag65
ag65
ag65
ag65
ag65
ag65
ag65
ag65
ag65
ag65
ag65
ag65
ag65
ag65
ag65
ag65
ag65
ag65
ag65
ag65
ag65
ag65
asS'best_P'
p66
(lp67
(itree
PTree
p68
(dp69
S'root'
p70
ccopy_reg
_reconstructor
p71
(ctree
Feature
p72
c__builtin__
object
p73
Ntp74
Rp75
(dp76
S'index'
p77
I1
sS'name'
p78
S'Day'
p79
sS'l'
p80
g71
(ctree
Action
p81
g73
Ntp82
Rp83
(dp84
S'r'
p85
NsS'is_feature'
p86
I00
sS'value'
p87
S'Flood_Control'
p88
sg80
Nsbsg85
g71
(g81
g73
Ntp89
Rp90
(dp91
g85
Nsg86
I00
sg87
S'Hedge_90'
p92
sg80
NsbsS'threshold'
p93
F131.00774914290014
sg86
I01
sbsS'L'
p94
(lp95
g75
ag83
ag90
asS'N'
p96
I3
sbag68
a(itree
PTree
p97
(dp98
g70
g71
(g72
g73
Ntp99
Rp100
(dp101
g77
I1
sg85
g71
(g81
g73
Ntp102
Rp103
(dp104
g85
Nsg86
I00
sg87
g92
sg80
Nsbsg78
g79
sg93
F125.96219771521666
sg80
g71
(g81
g73
Ntp105
Rp106
(dp107
g85
Nsg86
I00
sg87
g88
sg80
Nsbsg86
I01
sbsg94
(lp108
g100
ag106
ag103
asg96
I3
sbag97
ag97
ag97
a(itree
PTree
p109
(dp110
g70
g71
(g72
g73
Ntp111
Rp112
(dp113
g77
I0
sg85
g71
(g72
g73
Ntp114
Rp115
(dp116
g77
I1
sg85
g71
(g81
g73
Ntp117
Rp118
(dp119
g85
Nsg86
I00
sg87
S'Release_Demand'
p120
sg80
Nsbsg78
g79
sg93
F213.3274726330356
sg80
g71
(g81
g73
Ntp121
Rp122
(dp123
g85
Nsg86
I00
sg87
S'Flood_Control'
p124
sg80
Nsbsg86
I01
sbsg78
S'Storage'
p125
sg93
F479.2591072420929
sg80
g71
(g72
g73
Ntp126
Rp127
(dp128
g77
I1
sg85
g71
(g81
g73
Ntp129
Rp130
(dp131
g85
Nsg86
I00
sg87
S'Hedge_80'
p132
sg80
Nsbsg78
g79
sg93
F65.19189256615424
sg80
g71
(g81
g73
Ntp133
Rp134
(dp135
g85
Nsg86
I00
sg87
S'Hedge_90'
p136
sg80
Nsbsg86
I01
sbsg86
I01
sbsg94
(lp137
g112
ag127
ag134
ag130
ag115
ag122
ag118
asg96
I7
sbag109
ag109
ag109
a(itree
PTree
p138
(dp139
g70
g71
(g72
g73
Ntp140
Rp141
(dp142
g77
I0
sg85
g71
(g72
g73
Ntp143
Rp144
(dp145
g77
I1
sg85
g71
(g81
g73
Ntp146
Rp147
(dp148
g85
Nsg86
I00
sg87
g120
sg80
Nsbsg78
g79
sg93
F213.3274726330356
sg80
g71
(g81
g73
Ntp149
Rp150
(dp151
g85
Nsg86
I00
sg87
g124
sg80
Nsbsg86
I01
sbsg78
g125
sg93
F479.2591072420929
sg80
g71
(g72
g73
Ntp152
Rp153
(dp154
g77
I1
sg85
g71
(g81
g73
Ntp155
Rp156
(dp157
g85
Nsg86
I00
sg87
g132
sg80
Nsbsg78
g79
sg93
F89.83881866195539
sg80
g71
(g81
g73
Ntp158
Rp159
(dp160
g85
Nsg86
I00
sg87
g136
sg80
Nsbsg86
I01
sbsg86
I01
sbsg94
(lp161
g141
ag153
ag159
ag156
ag144
ag150
ag147
asg96
I7
sbag138
ag138
ag138
a(itree
PTree
p162
(dp163
g70
g71
(g72
g73
Ntp164
Rp165
(dp166
g77
I0
sg85
g71
(g72
g73
Ntp167
Rp168
(dp169
g77
I1
sg85
g71
(g81
g73
Ntp170
Rp171
(dp172
g85
Nsg86
I00
sg87
g120
sg80
Nsbsg78
g79
sg93
F213.3274726330356
sg80
g71
(g81
g73
Ntp173
Rp174
(dp175
g85
Nsg86
I00
sg87
g124
sg80
Nsbsg86
I01
sbsg78
g125
sg93
F488.8827473037914
sg80
g71
(g72
g73
Ntp176
Rp177
(dp178
g77
I1
sg85
g71
(g81
g73
Ntp179
Rp180
(dp181
g85
Nsg86
I00
sg87
g132
sg80
Nsbsg78
g79
sg93
F109.71277278816339
sg80
g71
(g81
g73
Ntp182
Rp183
(dp184
g85
Nsg86
I00
sg87
g136
sg80
Nsbsg86
I01
sbsg86
I01
sbsg94
(lp185
g165
ag177
ag183
ag180
ag168
ag174
ag171
asg96
I7
sbag162
a(itree
PTree
p186
(dp187
g70
g71
(g72
g73
Ntp188
Rp189
(dp190
g77
I0
sg85
g71
(g72
g73
Ntp191
Rp192
(dp193
g77
I1
sg85
g71
(g81
g73
Ntp194
Rp195
(dp196
g85
Nsg86
I00
sg87
g120
sg80
Nsbsg78
g79
sg93
F207.49515370208965
sg80
g71
(g81
g73
Ntp197
Rp198
(dp199
g85
Nsg86
I00
sg87
g124
sg80
Nsbsg86
I01
sbsg78
g125
sg93
F571.1694261714797
sg80
g71
(g72
g73
Ntp200
Rp201
(dp202
g77
I1
sg85
g71
(g81
g73
Ntp203
Rp204
(dp205
g85
Nsg86
I00
sg87
g132
sg80
Nsbsg78
g79
sg93
F94.82132156821257
sg80
g71
(g81
g73
Ntp206
Rp207
(dp208
g85
Nsg86
I00
sg87
g136
sg80
Nsbsg86
I01
sbsg86
I01
sbsg94
(lp209
g189
ag201
ag207
ag204
ag192
ag198
ag195
asg96
I7
sba(itree
PTree
p210
(dp211
g70
g71
(g72
g73
Ntp212
Rp213
(dp214
g77
I0
sg85
g71
(g72
g73
Ntp215
Rp216
(dp217
g77
I1
sg85
g71
(g81
g73
Ntp218
Rp219
(dp220
g85
Nsg86
I00
sg87
g120
sg80
Nsbsg78
g79
sg93
F189.4340462298087
sg80
g71
(g81
g73
Ntp221
Rp222
(dp223
g85
Nsg86
I00
sg87
g124
sg80
Nsbsg86
I01
sbsg78
g125
sg93
F520.2820120218292
sg80
g71
(g72
g73
Ntp224
Rp225
(dp226
g77
I1
sg85
g71
(g81
g73
Ntp227
Rp228
(dp229
g85
Nsg86
I00
sg87
g132
sg80
Nsbsg78
g79
sg93
F122.90192272105985
sg80
g71
(g81
g73
Ntp230
Rp231
(dp232
g85
Nsg86
I00
sg87
g136
sg80
Nsbsg86
I01
sbsg86
I01
sbsg94
(lp233
g213
ag225
ag231
ag228
ag216
ag222
ag219
asg96
I7
sbag210
ag210
ag210
a(itree
PTree
p234
(dp235
g70
g71
(g72
g73
Ntp236
Rp237
(dp238
g77
I0
sg85
g71
(g72
g73
Ntp239
Rp240
(dp241
g77
I1
sg85
g71
(g81
g73
Ntp242
Rp243
(dp244
g85
Nsg86
I00
sg87
g120
sg80
Nsbsg78
g79
sg93
F164.9092703305749
sg80
g71
(g81
g73
Ntp245
Rp246
(dp247
g85
Nsg86
I00
sg87
g124
sg80
Nsbsg86
I01
sbsg78
g125
sg93
F468.15157125844985
sg80
g71
(g72
g73
Ntp248
Rp249
(dp250
g77
I1
sg85
g71
(g81
g73
Ntp251
Rp252
(dp253
g85
Nsg86
I00
sg87
g132
sg80
Nsbsg78
g79
sg93
F108.97441489998431
sg80
g71
(g81
g73
Ntp254
Rp255
(dp256
g85
Nsg86
I00
sg87
g136
sg80
Nsbsg86
I01
sbsg86
I01
sbsg94
(lp257
g237
ag249
ag255
ag252
ag240
ag246
ag243
asg96
I7
sba(itree
PTree
p258
(dp259
g70
g71
(g72
g73
Ntp260
Rp261
(dp262
g77
I0
sg85
g71
(g72
g73
Ntp263
Rp264
(dp265
g77
I1
sg85
g71
(g81
g73
Ntp266
Rp267
(dp268
g85
Nsg86
I00
sg87
g120
sg80
Nsbsg78
g79
sg93
F164.9092703305749
sg80
g71
(g81
g73
Ntp269
Rp270
(dp271
g85
Nsg86
I00
sg87
g124
sg80
Nsbsg86
I01
sbsg78
g125
sg93
F484.2412636451444
sg80
g71
(g72
g73
Ntp272
Rp273
(dp274
g77
I1
sg85
g71
(g81
g73
Ntp275
Rp276
(dp277
g85
Nsg86
I00
sg87
g132
sg80
Nsbsg78
g79
sg93
F136.95273041770088
sg80
g71
(g81
g73
Ntp278
Rp279
(dp280
g85
Nsg86
I00
sg87
g136
sg80
Nsbsg86
I01
sbsg86
I01
sbsg94
(lp281
g261
ag273
ag279
ag276
ag264
ag270
ag267
asg96
I7
sbag258
ag258
ag258
ag258
a(itree
PTree
p282
(dp283
g70
g71
(g72
g73
Ntp284
Rp285
(dp286
g77
I0
sg85
g71
(g72
g73
Ntp287
Rp288
(dp289
g77
I1
sg85
g71
(g81
g73
Ntp290
Rp291
(dp292
g85
Nsg86
I00
sg87
g120
sg80
Nsbsg78
g79
sg93
F139.2566454656568
sg80
g71
(g81
g73
Ntp293
Rp294
(dp295
g85
Nsg86
I00
sg87
g124
sg80
Nsbsg86
I01
sbsg78
g125
sg93
F490.439123141739
sg80
g71
(g72
g73
Ntp296
Rp297
(dp298
g77
I1
sg85
g71
(g81
g73
Ntp299
Rp300
(dp301
g85
Nsg86
I00
sg87
g132
sg80
Nsbsg78
g79
sg93
F142.25310764075928
sg80
g71
(g81
g73
Ntp302
Rp303
(dp304
g85
Nsg86
I00
sg87
g136
sg80
Nsbsg86
I01
sbsg86
I01
sbsg94
(lp305
g285
ag297
ag303
ag300
ag288
ag294
ag291
asg96
I7
sbag282
a(itree
PTree
p306
(dp307
g70
g71
(g72
g73
Ntp308
Rp309
(dp310
g77
I0
sg85
g71
(g72
g73
Ntp311
Rp312
(dp313
g77
I1
sg85
g71
(g81
g73
Ntp314
Rp315
(dp316
g85
Nsg86
I00
sg87
g120
sg80
Nsbsg78
g79
sg93
F110.9138725897802
sg80
g71
(g81
g73
Ntp317
Rp318
(dp319
g85
Nsg86
I00
sg87
g124
sg80
Nsbsg86
I01
sbsg78
g125
sg93
F491.40842552627987
sg80
g71
(g72
g73
Ntp320
Rp321
(dp322
g77
I1
sg85
g71
(g81
g73
Ntp323
Rp324
(dp325
g85
Nsg86
I00
sg87
g132
sg80
Nsbsg78
g79
sg93
F162.29300936036518
sg80
g71
(g81
g73
Ntp326
Rp327
(dp328
g85
Nsg86
I00
sg87
g136
sg80
Nsbsg86
I01
sbsg86
I01
sbsg94
(lp329
g309
ag321
ag327
ag324
ag312
ag318
ag315
asg96
I7
sbag306
a(itree
PTree
p330
(dp331
g70
g71
(g72
g73
Ntp332
Rp333
(dp334
g77
I0
sg85
g71
(g72
g73
Ntp335
Rp336
(dp337
g77
I1
sg85
g71
(g81
g73
Ntp338
Rp339
(dp340
g85
Nsg86
I00
sg87
g120
sg80
Nsbsg78
g79
sg93
F128.59476799315445
sg80
g71
(g81
g73
Ntp341
Rp342
(dp343
g85
Nsg86
I00
sg87
g124
sg80
Nsbsg86
I01
sbsg78
g125
sg93
F544.2685925049756
sg80
g71
(g72
g73
Ntp344
Rp345
(dp346
g77
I1
sg85
g71
(g81
g73
Ntp347
Rp348
(dp349
g85
Nsg86
I00
sg87
g132
sg80
Nsbsg78
g79
sg93
F162.29300936036518
sg80
g71
(g81
g73
Ntp350
Rp351
(dp352
g85
Nsg86
I00
sg87
g136
sg80
Nsbsg86
I01
sbsg86
I01
sbsg94
(lp353
g333
ag345
ag351
ag348
ag336
ag342
ag339
asg96
I7
sbag330
ag330
ag330
ag330
ag330
ag330
a(itree
PTree
p354
(dp355
g70
g71
(g72
g73
Ntp356
Rp357
(dp358
g77
I0
sg85
g71
(g72
g73
Ntp359
Rp360
(dp361
g77
I1
sg85
g71
(g81
g73
Ntp362
Rp363
(dp364
g85
Nsg86
I00
sg87
g120
sg80
Nsbsg78
g79
sg93
F115.17912194226572
sg80
g71
(g81
g73
Ntp365
Rp366
(dp367
g85
Nsg86
I00
sg87
g124
sg80
Nsbsg86
I01
sbsg78
g125
sg93
F553.184075422935
sg80
g71
(g72
g73
Ntp368
Rp369
(dp370
g77
I1
sg85
g71
(g81
g73
Ntp371
Rp372
(dp373
g85
Nsg86
I00
sg87
g132
sg80
Nsbsg78
g79
sg93
F143.52597111762253
sg80
g71
(g81
g73
Ntp374
Rp375
(dp376
g85
Nsg86
I00
sg87
g136
sg80
Nsbsg86
I01
sbsg86
I01
sbsg94
(lp377
g357
ag369
ag375
ag372
ag360
ag366
ag363
asg96
I7
sbag354
ag354
ag354
ag354
ag354
ag354
ag354
ag354
ag354
a(itree
PTree
p378
(dp379
g70
g71
(g72
g73
Ntp380
Rp381
(dp382
g77
I0
sg85
g71
(g72
g73
Ntp383
Rp384
(dp385
g77
I1
sg85
g71
(g81
g73
Ntp386
Rp387
(dp388
g85
Nsg86
I00
sg87
g120
sg80
Nsbsg78
g79
sg93
F103.5586817418837
sg80
g71
(g81
g73
Ntp389
Rp390
(dp391
g85
Nsg86
I00
sg87
g124
sg80
Nsbsg86
I01
sbsg78
g125
sg93
F547.5662735874166
sg80
g71
(g72
g73
Ntp392
Rp393
(dp394
g77
I1
sg85
g71
(g81
g73
Ntp395
Rp396
(dp397
g85
Nsg86
I00
sg87
g132
sg80
Nsbsg78
g79
sg93
F143.52597111762253
sg80
g71
(g81
g73
Ntp398
Rp399
(dp400
g85
Nsg86
I00
sg87
g136
sg80
Nsbsg86
I01
sbsg86
I01
sbsg94
(lp401
g381
ag393
ag399
ag396
ag384
ag390
ag387
asg96
I7
sbag378
ag378
ag378
ag378
ag378
ag378
ag378
ag378
ag378
a(itree
PTree
p402
(dp403
g70
g71
(g72
g73
Ntp404
Rp405
(dp406
g77
I0
sg85
g71
(g72
g73
Ntp407
Rp408
(dp409
g77
I1
sg85
g71
(g81
g73
Ntp410
Rp411
(dp412
g85
Nsg86
I00
sg87
g120
sg80
Nsbsg78
g79
sg93
F103.030403912133
sg80
g71
(g81
g73
Ntp413
Rp414
(dp415
g85
Nsg86
I00
sg87
g124
sg80
Nsbsg86
I01
sbsg78
g125
sg93
F535.2570896218376
sg80
g71
(g72
g73
Ntp416
Rp417
(dp418
g77
I1
sg85
g71
(g81
g73
Ntp419
Rp420
(dp421
g85
Nsg86
I00
sg87
g132
sg80
Nsbsg78
g79
sg93
F153.38677131421449
sg80
g71
(g81
g73
Ntp422
Rp423
(dp424
g85
Nsg86
I00
sg87
g136
sg80
Nsbsg86
I01
sbsg86
I01
sbsg94
(lp425
g405
ag417
ag423
ag420
ag408
ag414
ag411
asg96
I7
sbag402
ag402
ag402
ag402
ag402
ag402
ag402
ag402
a(itree
PTree
p426
(dp427
g70
g71
(g72
g73
Ntp428
Rp429
(dp430
g77
I0
sg85
g71
(g72
g73
Ntp431
Rp432
(dp433
g77
I1
sg85
g71
(g81
g73
Ntp434
Rp435
(dp436
g85
Nsg86
I00
sg87
g120
sg80
Nsbsg78
g79
sg93
F97.05362713100888
sg80
g71
(g81
g73
Ntp437
Rp438
(dp439
g85
Nsg86
I00
sg87
g124
sg80
Nsbsg86
I01
sbsg78
g125
sg93
F535.2570896218376
sg80
g71
(g72
g73
Ntp440
Rp441
(dp442
g77
I1
sg85
g71
(g81
g73
Ntp443
Rp444
(dp445
g85
Nsg86
I00
sg87
g132
sg80
Nsbsg78
g79
sg93
F179.054133732048
sg80
g71
(g81
g73
Ntp446
Rp447
(dp448
g85
Nsg86
I00
sg87
g136
sg80
Nsbsg86
I01
sbsg86
I01
sbsg94
(lp449
g429
ag441
ag447
ag444
ag432
ag438
ag435
asg96
I7
sbag426
ag426
ag426
ag426
ag426
ag426
ag426
ag426
ag426
ag426
ag426
ag426
ag426
ag426
ag426
ag426
ag426
ag426
ag426
ag426
ag426
ag426
ag426
ag426
ag426
ag426
ag426
ag426
ag426
ag426
ag426
ag426
ag426
ag426
ag426
ag426
ag426
ag426
ag426
ag426
ag426
ag426
ag426
ag426
ag426
ag426
ag426
ag426
ag426
ag426
ag426
ag426
ag426
ag426
ag426
ag426
ag426
ag426
ag426
ag426
ag426
ag426
ag426
ag426
ag426
ag426
ag426
ag426
ag426
ag426
ag426
ag426
ag426
ag426
ag426
ag426
ag426
ag426
ag426
ag426
ag426
ag426
ag426
a(itree
PTree
p450
(dp451
g70
g71
(g72
g73
Ntp452
Rp453
(dp454
g77
I0
sg85
g71
(g72
g73
Ntp455
Rp456
(dp457
g77
I1
sg85
g71
(g81
g73
Ntp458
Rp459
(dp460
g85
Nsg86
I00
sg87
g120
sg80
Nsbsg78
g79
sg93
F99.13800148195193
sg80
g71
(g81
g73
Ntp461
Rp462
(dp463
g85
Nsg86
I00
sg87
g124
sg80
Nsbsg86
I01
sbsg78
g125
sg93
F547.643467771564
sg80
g71
(g72
g73
Ntp464
Rp465
(dp466
g77
I1
sg85
g71
(g81
g73
Ntp467
Rp468
(dp469
g85
Nsg86
I00
sg87
g132
sg80
Nsbsg78
g79
sg93
F119.42535809111259
sg80
g71
(g81
g73
Ntp470
Rp471
(dp472
g85
Nsg86
I00
sg87
S'Release_Demand'
p473
sg80
Nsbsg86
I01
sbsg86
I01
sbsg94
(lp474
g453
ag465
ag471
ag468
ag456
ag462
ag459
asg96
I7
sbag450
ag450
ag450
ag450
ag450
ag450
ag450
ag450
ag450
ag450
ag450
ag450
ag450
ag450
ag450
ag450
ag450
ag450
ag450
ag450
ag450
ag450
ag450
ag450
ag450
ag450
ag450
ag450
ag450
ag450
ag450
ag450
ag450
ag450
ag450
ag450
ag450
ag450
ag450
a(itree
PTree
p475
(dp476
g70
g71
(g72
g73
Ntp477
Rp478
(dp479
g77
I0
sg85
g71
(g72
g73
Ntp480
Rp481
(dp482
g77
I1
sg85
g71
(g81
g73
Ntp483
Rp484
(dp485
g85
Nsg86
I00
sg87
g120
sg80
Nsbsg78
g79
sg93
F99.13800148195193
sg80
g71
(g81
g73
Ntp486
Rp487
(dp488
g85
Nsg86
I00
sg87
g124
sg80
Nsbsg86
I01
sbsg78
g125
sg93
F584.653852852047
sg80
g71
(g72
g73
Ntp489
Rp490
(dp491
g77
I1
sg85
g71
(g81
g73
Ntp492
Rp493
(dp494
g85
Nsg86
I00
sg87
g132
sg80
Nsbsg78
g79
sg93
F119.42535809111259
sg80
g71
(g81
g73
Ntp495
Rp496
(dp497
g85
Nsg86
I00
sg87
g473
sg80
Nsbsg86
I01
sbsg86
I01
sbsg94
(lp498
g478
ag490
ag496
ag493
ag481
ag487
ag484
asg96
I7
sbag475
ag475
ag475
ag475
ag475
ag475
ag475
ag475
ag475
ag475
ag475
ag475
ag475
ag475
ag475
ag475
ag475
ag475
ag475
ag475
ag475
ag475
ag475
ag475
ag475
ag475
ag475
ag475
ag475
ag475
ag475
ag475
ag475
ag475
ag475
ag475
ag475
ag475
ag475
ag475
ag475
ag475
ag475
ag475
ag475
ag475
ag475
ag475
ag475
ag475
ag475
ag475
ag475
ag475
ag475
ag475
ag475
ag475
ag475
ag475
ag475
ag475
ag475
ag475
ag475
ag475
ag475
ag475
ag475
ag475
ag475
ag475
ag475
ag475
ag475
ag475
ag475
ag475
ag475
ag475
ag475
ag475
ag475
ag475
ag475
ag475
ag475
ag475
ag475
ag475
ag475
ag475
ag475
ag475
ag475
ag475
ag475
ag475
ag475
ag475
ag475
ag475
ag475
ag475
ag475
ag475
ag475
ag475
ag475
ag475
ag475
ag475
ag475
ag475
ag475
ag475
ag475
ag475
ag475
ag475
ag475
ag475
ag475
ag475
ag475
ag475
ag475
ag475
ag475
ag475
ag475
ag475
ag475
ag475
ag475
ag475
ag475
ag475
ag475
ag475
ag475
ag475
ag475
ag475
ag475
ag475
ag475
ag475
ag475
ag475
ag475
ag475
ag475
ag475
ag475
ag475
ag475
ag475
ag475
ag475
ag475
ag475
ag475
ag475
ag475
ag475
ag475
ag475
ag475
ag475
ag475
ag475
ag475
ag475
ag475
ag475
ag475
ag475
ag475
ag475
ag475
ag475
ag475
ag475
ag475
ag475
ag475
ag475
ag475
ag475
ag475
ag475
ag475
ag475
ag475
ag475
ag475
ag475
ag475
ag475
ag475
ag475
ag475
ag475
ag475
ag475
ag475
ag475
asS'time'
p499
(lp500
I73
aI110
aI148
aI184
aI219
aI254
aI289
aI324
aI359
aI393
aI427
aI461
aI496
aI529
aI564
aI598
aI632
aI666
aI699
aI734
aI767
aI801
aI835
aI868
aI902
aI936
aI970
aI1004
aI1038
aI1071
aI1104
aI1136
aI1167
aI1199
aI1230
aI1262
aI1290
aI1317
aI1345
aI1373
aI1401
aI1429
aI1457
aI1485
aI1513
aI1540
aI1568
aI1596
aI1624
aI1653
aI1681
aI1709
aI1738
aI1766
aI1794
aI1822
aI1850
aI1877
aI1906
aI1934
aI1963
aI1991
aI2019
aI2047
aI2075
aI2104
aI2132
aI2161
aI2189
aI2218
aI2246
aI2275
aI2303
aI2332
aI2360
aI2389
aI2418
aI2447
aI2476
aI2505
aI2534
aI2563
aI2592
aI2622
aI2652
aI2681
aI2710
aI2739
aI2769
aI2798
aI2827
aI2856
aI2886
aI2915
aI2945
aI2974
aI3003
aI3033
aI3062
aI3092
aI3121
aI3150
aI3180
aI3209
aI3238
aI3268
aI3297
aI3327
aI3356
aI3385
aI3414
aI3444
aI3473
aI3502
aI3532
aI3561
aI3590
aI3620
aI3649
aI3678
aI3708
aI3737
aI3766
aI3796
aI3825
aI3854
aI3884
aI3914
aI3944
aI3973
aI4003
aI4032
aI4061
aI4091
aI4121
aI4150
aI4179
aI4208
aI4238
aI4268
aI4297
aI4327
aI4356
aI4386
aI4415
aI4444
aI4473
aI4503
aI4533
aI4562
aI4592
aI4621
aI4651
aI4680
aI4710
aI4740
aI4769
aI4798
aI4828
aI4857
aI4887
aI4917
aI4946
aI4975
aI5005
aI5034
aI5064
aI5093
aI5123
aI5153
aI5182
aI5212
aI5241
aI5271
aI5300
aI5330
aI5359
aI5389
aI5418
aI5448
aI5477
aI5507
aI5536
aI5566
aI5595
aI5624
aI5654
aI5683
aI5713
aI5742
aI5772
aI5801
aI5830
aI5860
aI5889
aI5919
aI5948
aI5977
aI6006
aI6036
aI6065
aI6095
aI6125
aI6154
aI6183
aI6213
aI6243
aI6273
aI6302
aI6331
aI6361
aI6390
aI6420
aI6449
aI6479
aI6508
aI6538
aI6568
aI6597
aI6627
aI6656
aI6686
aI6715
aI6744
aI6774
aI6803
aI6833
aI6862
aI6891
aI6921
aI6950
aI6980
aI7009
aI7039
aI7068
aI7097
aI7127
aI7156
aI7186
aI7215
aI7244
aI7273
aI7303
aI7332
aI7362
aI7391
aI7421
aI7450
aI7480
aI7509
aI7539
aI7568
aI7598
aI7627
aI7657
aI7687
aI7717
aI7746
aI7776
aI7805
aI7834
aI7864
aI7893
aI7923
aI7953
aI7982
aI8012
aI8041
aI8070
aI8099
aI8128
aI8156
aI8185
aI8213
aI8242
aI8271
aI8300
aI8329
aI8358
aI8387
aI8416
aI8445
aI8474
aI8502
aI8531
aI8560
aI8589
aI8618
aI8646
aI8675
aI8703
aI8732
aI8761
aI8789
aI8818
aI8847
aI8876
aI8904
aI8933
aI8962
aI8990
aI9018
aI9047
aI9076
aI9104
aI9133
aI9162
aI9191
aI9220
aI9249
aI9277
aI9306
aI9334
aI9362
aI9391
aI9419
aI9448
aI9477
aI9506
aI9535
aI9563
aI9592
aI9620
aI9650
aI9678
aI9706
aI9735
aI9764
aI9793
aI9821
aI9849
aI9878
aI9907
aI9935
aI9964
aI9993
aI10021
aI10050
aI10079
aI10107
aI10137
aI10165
aI10194
aI10223
aI10252
aI10281
aI10310
aI10339
aI10367
aI10396
aI10425
aI10454
aI10482
aI10511
aI10540
aI10569
aI10598
aI10626
aI10655
aI10683
aI10712
aI10740
aI10769
aI10799
aI10829
aI10858
aI10887
aI10917
aI10946
aI10976
aI11005
aI11034
aI11063
aI11092
aI11122
aI11151
aI11181
aI11210
aI11239
aI11269
aI11298
aI11327
aI11356
aI11386
aI11416
aI11445
aI11474
aI11503
aI11533
aI11562
aI11591
aI11621
aI11650
aI11679
aI11709
aI11738
aI11767
aI11797
aI11827
aI11856
as.