(dp0
S'nfe'
p1
(lp2
I50
aI100
aI150
aI200
aI250
aI300
aI350
aI400
aI450
aI500
aI550
aI600
aI650
aI700
aI750
aI800
aI850
aI900
aI950
aI1000
aI1050
aI1100
aI1150
aI1200
aI1250
aI1300
aI1350
aI1400
aI1450
aI1500
aI1550
aI1600
aI1650
aI1700
aI1750
aI1800
aI1850
aI1900
aI1950
aI2000
aI2050
aI2100
aI2150
aI2200
aI2250
aI2300
aI2350
aI2400
aI2450
aI2500
aI2550
aI2600
aI2650
aI2700
aI2750
aI2800
aI2850
aI2900
aI2950
aI3000
aI3050
aI3100
aI3150
aI3200
aI3250
aI3300
aI3350
aI3400
aI3450
aI3500
aI3550
aI3600
aI3650
aI3700
aI3750
aI3800
aI3850
aI3900
aI3950
aI4000
aI4050
aI4100
aI4150
aI4200
aI4250
aI4300
aI4350
aI4400
aI4450
aI4500
aI4550
aI4600
aI4650
aI4700
aI4750
aI4800
aI4850
aI4900
aI4950
aI5000
aI5050
aI5100
aI5150
aI5200
aI5250
aI5300
aI5350
aI5400
aI5450
aI5500
aI5550
aI5600
aI5650
aI5700
aI5750
aI5800
aI5850
aI5900
aI5950
aI6000
aI6050
aI6100
aI6150
aI6200
aI6250
aI6300
aI6350
aI6400
aI6450
aI6500
aI6550
aI6600
aI6650
aI6700
aI6750
aI6800
aI6850
aI6900
aI6950
aI7000
aI7050
aI7100
aI7150
aI7200
aI7250
aI7300
aI7350
aI7400
aI7450
aI7500
aI7550
aI7600
aI7650
aI7700
aI7750
aI7800
aI7850
aI7900
aI7950
aI8000
aI8050
aI8100
aI8150
aI8200
aI8250
aI8300
aI8350
aI8400
aI8450
aI8500
aI8550
aI8600
aI8650
aI8700
aI8750
aI8800
aI8850
aI8900
aI8950
aI9000
aI9050
aI9100
aI9150
aI9200
aI9250
aI9300
aI9350
aI9400
aI9450
aI9500
aI9550
aI9600
aI9650
aI9700
aI9750
aI9800
aI9850
aI9900
aI9950
aI10000
aI10050
aI10100
aI10150
aI10200
aI10250
aI10300
aI10350
aI10400
aI10450
aI10500
aI10550
aI10600
aI10650
aI10700
aI10750
aI10800
aI10850
aI10900
aI10950
aI11000
aI11050
aI11100
aI11150
aI11200
aI11250
aI11300
aI11350
aI11400
aI11450
aI11500
aI11550
aI11600
aI11650
aI11700
aI11750
aI11800
aI11850
aI11900
aI11950
aI12000
aI12050
aI12100
aI12150
aI12200
aI12250
aI12300
aI12350
aI12400
aI12450
aI12500
aI12550
aI12600
aI12650
aI12700
aI12750
aI12800
aI12850
aI12900
aI12950
aI13000
aI13050
aI13100
aI13150
aI13200
aI13250
aI13300
aI13350
aI13400
aI13450
aI13500
aI13550
aI13600
aI13650
aI13700
aI13750
aI13800
aI13850
aI13900
aI13950
aI14000
aI14050
aI14100
aI14150
aI14200
aI14250
aI14300
aI14350
aI14400
aI14450
aI14500
aI14550
aI14600
aI14650
aI14700
aI14750
aI14800
aI14850
aI14900
aI14950
aI15000
aI15050
aI15100
aI15150
aI15200
aI15250
aI15300
aI15350
aI15400
aI15450
aI15500
aI15550
aI15600
aI15650
aI15700
aI15750
aI15800
aI15850
aI15900
aI15950
aI16000
aI16050
aI16100
aI16150
aI16200
aI16250
aI16300
aI16350
aI16400
aI16450
aI16500
aI16550
aI16600
aI16650
aI16700
aI16750
aI16800
aI16850
aI16900
aI16950
aI17000
aI17050
aI17100
aI17150
aI17200
aI17250
aI17300
aI17350
aI17400
aI17450
aI17500
aI17550
aI17600
aI17650
aI17700
aI17750
aI17800
aI17850
aI17900
aI17950
aI18000
aI18050
aI18100
aI18150
aI18200
aI18250
aI18300
aI18350
aI18400
aI18450
aI18500
aI18550
aI18600
aI18650
aI18700
aI18750
aI18800
aI18850
aI18900
aI18950
aI19000
aI19050
aI19100
aI19150
aI19200
aI19250
aI19300
aI19350
aI19400
aI19450
aI19500
aI19550
aI19600
aI19650
aI19700
aI19750
aI19800
aI19850
aI19900
aI19950
aI20000
asS'best_f'
p3
(lp4
cnumpy.core.multiarray
scalar
p5
(cnumpy
dtype
p6
(S'f8'
p7
I0
I1
tp8
Rp9
(I3
S'<'
p10
NNNI-1
I-1
I0
tp11
bS'\x81\x88\xb2\xedqa\xf2?'
p12
tp13
Rp14
ag5
(g9
S'NTs\x8f\xba\x89\xec?'
p15
tp16
Rp17
ag5
(g9
S'W\xe76\xa0\xd3\xa3\xeb?'
p18
tp19
Rp20
ag5
(g9
S'])\x90\nOf\xe7?'
p21
tp22
Rp23
ag5
(g9
S'\x99\xd7h\xefb\xd5\xe0?'
p24
tp25
Rp26
ag26
ag5
(g9
S'y$\xda61L\xde?'
p27
tp28
Rp29
ag5
(g9
S'-\x97\xbf\x94K\xc8\xd8?'
p30
tp31
Rp32
ag32
ag32
ag5
(g9
S'W\x96\x8f\x9c\xda\x0f\xd6?'
p33
tp34
Rp35
ag35
ag5
(g9
S'1\x85l\xcf\xa4\x13\xd4?'
p36
tp37
Rp38
ag5
(g9
S'2\xa1\x1bKa!\xd3?'
p39
tp40
Rp41
ag41
ag41
ag41
ag41
ag41
ag41
ag41
ag41
ag41
ag41
ag41
ag41
ag41
ag5
(g9
S'2&\xdf\xb8\x8b\xaa\xd2?'
p42
tp43
Rp44
ag44
ag44
ag44
ag44
ag5
(g9
S'\x80n8\xe5\rt\xd1?'
p45
tp46
Rp47
ag47
ag47
ag47
ag47
ag47
ag47
ag47
ag47
ag47
ag47
ag5
(g9
S'\xbd\x86\xe6\xf3W!\xce?'
p48
tp49
Rp50
ag50
ag50
ag50
ag50
ag50
ag5
(g9
S'\xf5\x8a\xb8A\x97\xb5\xcd?'
p51
tp52
Rp53
ag53
ag53
ag5
(g9
S'd\x02n$\xf0\xb0\xcd?'
p54
tp55
Rp56
ag56
ag56
ag56
ag56
ag56
ag5
(g9
S'^\x0f\xdc\xeck\x86\xcd?'
p57
tp58
Rp59
ag59
ag59
ag59
ag59
ag59
ag59
ag59
ag59
ag59
ag59
ag59
ag59
ag59
ag59
ag59
ag59
ag59
ag59
ag59
ag59
ag59
ag59
ag59
ag59
ag59
ag59
ag59
ag59
ag59
ag59
ag59
ag5
(g9
S"\xa9^'\x8e\xb6\x10\xcc?"
p60
tp61
Rp62
ag62
ag62
ag62
ag62
ag62
ag62
ag62
ag62
ag62
ag62
ag62
ag62
ag62
ag62
ag62
ag62
ag62
ag62
ag62
ag62
ag62
ag62
ag62
ag62
ag62
ag62
ag62
ag62
ag62
ag62
ag62
ag62
ag62
ag62
ag62
ag62
ag62
ag62
ag62
ag62
ag62
ag62
ag62
ag62
ag62
ag62
ag62
ag62
ag62
ag62
ag5
(g9
S'\xf0)?93\x02\xc4?'
p63
tp64
Rp65
ag65
ag65
ag5
(g9
S'r\xf6\x08\x13\xd2\x86\xb7?'
p66
tp67
Rp68
ag68
ag68
ag68
ag68
ag68
ag68
ag68
ag68
ag68
ag68
ag68
ag5
(g9
S'+\xe0\xfc\xc3.k\xb7?'
p69
tp70
Rp71
ag71
ag71
ag71
ag71
ag71
ag71
ag71
ag71
ag71
ag71
ag71
ag71
ag71
ag71
ag71
ag71
ag71
ag71
ag71
ag71
ag71
ag71
ag71
ag71
ag71
ag71
ag71
ag71
ag71
ag71
ag71
ag71
ag71
ag71
ag71
ag71
ag71
ag71
ag71
ag71
ag71
ag71
ag71
ag71
ag71
ag71
ag71
ag71
ag71
ag71
ag71
ag71
ag71
ag71
ag71
ag71
ag71
ag71
ag71
ag71
ag71
ag71
ag71
ag71
ag71
ag71
ag71
ag71
ag71
ag71
ag71
ag71
ag71
ag71
ag71
ag71
ag71
ag71
ag71
ag71
ag71
ag71
ag71
ag71
ag71
ag71
ag71
ag71
ag71
ag71
ag71
ag71
ag71
ag71
ag71
ag71
ag71
ag71
ag71
ag71
ag71
ag71
ag71
ag71
ag71
ag71
ag71
ag71
ag71
ag71
ag71
ag71
ag71
ag71
ag71
ag71
ag71
ag71
ag71
ag71
ag5
(g9
S'\xdf\x88\x82\x9b2h\xb7?'
p72
tp73
Rp74
ag74
ag74
ag74
ag74
ag74
ag74
ag74
ag74
ag74
ag74
ag74
ag74
ag74
ag74
ag74
ag74
ag74
ag74
ag74
ag74
ag74
ag74
ag74
ag74
ag74
ag74
ag74
ag74
ag74
ag74
ag74
ag74
ag74
ag74
ag74
ag74
ag74
ag74
ag74
ag74
ag74
ag74
ag74
ag74
ag74
ag74
ag74
ag74
ag74
ag74
ag74
ag74
ag74
ag74
ag74
ag74
ag74
ag74
ag74
ag74
ag74
ag74
ag74
ag74
ag74
ag74
ag74
ag74
ag74
ag74
ag74
ag74
ag74
ag74
ag74
ag74
ag74
ag74
ag74
ag74
ag74
ag74
ag74
ag74
ag74
ag74
ag74
ag74
ag74
ag74
ag74
ag74
ag74
ag74
ag74
ag74
ag74
ag74
ag74
ag74
ag74
ag74
ag74
ag74
ag74
ag74
ag5
(g9
S'\xf0v\x87\xc9\xddf\xb7?'
p75
tp76
Rp77
ag77
ag77
ag77
ag77
ag77
ag77
ag77
ag77
ag77
ag77
ag77
ag77
ag77
ag77
ag77
asS'best_P'
p78
(lp79
(itree
PTree
p80
(dp81
S'root'
p82
ccopy_reg
_reconstructor
p83
(ctree
Feature
p84
c__builtin__
object
p85
Ntp86
Rp87
(dp88
S'index'
p89
I1
sS'name'
p90
S'Day'
p91
sS'l'
p92
g83
(ctree
Action
p93
g85
Ntp94
Rp95
(dp96
S'r'
p97
NsS'is_feature'
p98
I00
sS'value'
p99
S'Flood_Control'
p100
sg92
Nsbsg97
g83
(g93
g85
Ntp101
Rp102
(dp103
g97
Nsg98
I00
sg99
S'Release_Demand'
p104
sg92
NsbsS'threshold'
p105
F162.69687771625578
sg98
I01
sbsS'L'
p106
(lp107
g87
ag95
ag102
asS'N'
p108
I3
sba(itree
PTree
p109
(dp110
g82
g83
(g84
g85
Ntp111
Rp112
(dp113
g89
I1
sg97
g83
(g93
g85
Ntp114
Rp115
(dp116
g97
Nsg98
I00
sg99
g104
sg92
Nsbsg90
g91
sg105
F113.40695341202866
sg92
g83
(g93
g85
Ntp117
Rp118
(dp119
g97
Nsg98
I00
sg99
g100
sg92
Nsbsg98
I01
sbsg106
(lp120
g112
ag118
ag115
asg108
I3
sba(itree
PTree
p121
(dp122
g82
g83
(g84
g85
Ntp123
Rp124
(dp125
g89
I0
sg97
g83
(g93
g85
Ntp126
Rp127
(dp128
g97
Nsg98
I00
sg99
S'Flood_Control'
p129
sg92
Nsbsg90
S'Storage'
p130
sg105
F251.3547278221472
sg92
g83
(g93
g85
Ntp131
Rp132
(dp133
g97
Nsg98
I00
sg99
S'Hedge_90'
p134
sg92
Nsbsg98
I01
sbsg106
(lp135
g124
ag132
ag127
asg108
I3
sba(itree
PTree
p136
(dp137
g82
g83
(g84
g85
Ntp138
Rp139
(dp140
g89
I0
sg97
g83
(g93
g85
Ntp141
Rp142
(dp143
g97
Nsg98
I00
sg99
g129
sg92
Nsbsg90
g130
sg105
F377.5800798829395
sg92
g83
(g93
g85
Ntp144
Rp145
(dp146
g97
Nsg98
I00
sg99
S'Hedge_80'
p147
sg92
Nsbsg98
I01
sbsg106
(lp148
g139
ag145
ag142
asg108
I3
sba(itree
PTree
p149
(dp150
g82
g83
(g84
g85
Ntp151
Rp152
(dp153
g89
I0
sg97
g83
(g93
g85
Ntp154
Rp155
(dp156
g97
Nsg98
I00
sg99
g129
sg92
Nsbsg90
g130
sg105
F359.442308303265
sg92
g83
(g93
g85
Ntp157
Rp158
(dp159
g97
Nsg98
I00
sg99
g134
sg92
Nsbsg98
I01
sbsg106
(lp160
g152
ag158
ag155
asg108
I3
sbag149
a(itree
PTree
p161
(dp162
g82
g83
(g84
g85
Ntp163
Rp164
(dp165
g89
I0
sg97
g83
(g93
g85
Ntp166
Rp167
(dp168
g97
Nsg98
I00
sg99
S'Flood_Control'
p169
sg92
Nsbsg90
g130
sg105
F486.4683472286112
sg92
g83
(g93
g85
Ntp170
Rp171
(dp172
g97
Nsg98
I00
sg99
S'Hedge_90'
p173
sg92
Nsbsg98
I01
sbsg106
(lp174
g164
ag171
ag167
asg108
I3
sba(itree
PTree
p175
(dp176
g82
g83
(g84
g85
Ntp177
Rp178
(dp179
g89
I0
sg97
g83
(g93
g85
Ntp180
Rp181
(dp182
g97
Nsg98
I00
sg99
S'Flood_Control'
p183
sg92
Nsbsg90
g130
sg105
F536.0344554851232
sg92
g83
(g93
g85
Ntp184
Rp185
(dp186
g97
Nsg98
I00
sg99
S'Hedge_90'
p187
sg92
Nsbsg98
I01
sbsg106
(lp188
g178
ag185
ag181
asg108
I3
sbag175
ag175
a(itree
PTree
p189
(dp190
g82
g83
(g84
g85
Ntp191
Rp192
(dp193
g89
I0
sg97
g83
(g93
g85
Ntp194
Rp195
(dp196
g97
Nsg98
I00
sg99
S'Flood_Control'
p197
sg92
Nsbsg90
g130
sg105
F587.3571823690645
sg92
g83
(g93
g85
Ntp198
Rp199
(dp200
g97
Nsg98
I00
sg99
S'Hedge_90'
p201
sg92
Nsbsg98
I01
sbsg106
(lp202
g192
ag199
ag195
asg108
I3
sbag189
a(itree
PTree
p203
(dp204
g82
g83
(g84
g85
Ntp205
Rp206
(dp207
g89
I0
sg97
g83
(g93
g85
Ntp208
Rp209
(dp210
g97
Nsg98
I00
sg99
S'Flood_Control'
p211
sg92
Nsbsg90
g130
sg105
F663.2916341312044
sg92
g83
(g93
g85
Ntp212
Rp213
(dp214
g97
Nsg98
I00
sg99
S'Release_Demand'
p215
sg92
Nsbsg98
I01
sbsg106
(lp216
g206
ag213
ag209
asg108
I3
sba(itree
PTree
p217
(dp218
g82
g83
(g84
g85
Ntp219
Rp220
(dp221
g89
I0
sg97
g83
(g93
g85
Ntp222
Rp223
(dp224
g97
Nsg98
I00
sg99
g211
sg92
Nsbsg90
g130
sg105
F657.6685073578634
sg92
g83
(g93
g85
Ntp225
Rp226
(dp227
g97
Nsg98
I00
sg99
g215
sg92
Nsbsg98
I01
sbsg106
(lp228
g220
ag226
ag223
asg108
I3
sbag217
ag217
ag217
ag217
ag217
ag217
ag217
ag217
ag217
ag217
ag217
ag217
ag217
a(itree
PTree
p229
(dp230
g82
g83
(g84
g85
Ntp231
Rp232
(dp233
g89
I0
sg97
g83
(g93
g85
Ntp234
Rp235
(dp236
g97
Nsg98
I00
sg99
S'Flood_Control'
p237
sg92
Nsbsg90
g130
sg105
F751.2612557790957
sg92
g83
(g93
g85
Ntp238
Rp239
(dp240
g97
Nsg98
I00
sg99
g173
sg92
Nsbsg98
I01
sbsg106
(lp241
g232
ag239
ag235
asg108
I3
sbag229
ag229
ag229
ag229
a(itree
PTree
p242
(dp243
g82
g83
(g84
g85
Ntp244
Rp245
(dp246
g89
I0
sg97
g83
(g93
g85
Ntp247
Rp248
(dp249
g97
Nsg98
I00
sg99
g129
sg92
Nsbsg90
g130
sg105
F746.8831580898684
sg92
g83
(g93
g85
Ntp250
Rp251
(dp252
g97
Nsg98
I00
sg99
S'Hedge_90'
p253
sg92
Nsbsg98
I01
sbsg106
(lp254
g245
ag251
ag248
asg108
I3
sbag242
ag242
ag242
ag242
ag242
ag242
ag242
ag242
ag242
ag242
a(itree
PTree
p255
(dp256
g82
g83
(g84
g85
Ntp257
Rp258
(dp259
g89
I0
sg97
g83
(g93
g85
Ntp260
Rp261
(dp262
g97
Nsg98
I00
sg99
S'Flood_Control'
p263
sg92
Nsbsg90
g130
sg105
F745.1752568593033
sg92
g83
(g93
g85
Ntp264
Rp265
(dp266
g97
Nsg98
I00
sg99
S'Hedge_90'
p267
sg92
Nsbsg98
I01
sbsg106
(lp268
g258
ag265
ag261
asg108
I3
sbag255
ag255
ag255
ag255
ag255
a(itree
PTree
p269
(dp270
g82
g83
(g84
g85
Ntp271
Rp272
(dp273
g89
I0
sg97
g83
(g93
g85
Ntp274
Rp275
(dp276
g97
Nsg98
I00
sg99
S'Flood_Control'
p277
sg92
Nsbsg90
g130
sg105
F772.3595528893163
sg92
g83
(g93
g85
Ntp278
Rp279
(dp280
g97
Nsg98
I00
sg99
S'Hedge_90'
p281
sg92
Nsbsg98
I01
sbsg106
(lp282
g272
ag279
ag275
asg108
I3
sbag269
ag269
a(itree
PTree
p283
(dp284
g82
g83
(g84
g85
Ntp285
Rp286
(dp287
g89
I0
sg97
g83
(g93
g85
Ntp288
Rp289
(dp290
g97
Nsg98
I00
sg99
g263
sg92
Nsbsg90
g130
sg105
F771.4913706495245
sg92
g83
(g93
g85
Ntp291
Rp292
(dp293
g97
Nsg98
I00
sg99
g267
sg92
Nsbsg98
I01
sbsg106
(lp294
g286
ag292
ag289
asg108
I3
sbag283
ag283
ag283
ag283
ag283
a(itree
PTree
p295
(dp296
g82
g83
(g84
g85
Ntp297
Rp298
(dp299
g89
I0
sg97
g83
(g93
g85
Ntp300
Rp301
(dp302
g97
Nsg98
I00
sg99
g263
sg92
Nsbsg90
g130
sg105
F770.7532156547412
sg92
g83
(g93
g85
Ntp303
Rp304
(dp305
g97
Nsg98
I00
sg99
g267
sg92
Nsbsg98
I01
sbsg106
(lp306
g298
ag304
ag301
asg108
I3
sbag295
ag295
ag295
ag295
ag295
ag295
ag295
ag295
ag295
ag295
ag295
ag295
ag295
ag295
ag295
ag295
ag295
ag295
ag295
ag295
ag295
ag295
ag295
ag295
ag295
ag295
ag295
ag295
ag295
ag295
ag295
a(itree
PTree
p307
(dp308
g82
g83
(g84
g85
Ntp309
Rp310
(dp311
g89
I0
sg97
g83
(g93
g85
Ntp312
Rp313
(dp314
g97
Nsg98
I00
sg99
g263
sg92
Nsbsg90
g130
sg105
F770.1260009967257
sg92
g83
(g93
g85
Ntp315
Rp316
(dp317
g97
Nsg98
I00
sg99
g267
sg92
Nsbsg98
I01
sbsg106
(lp318
g310
ag316
ag313
asg108
I3
sbag307
ag307
ag307
ag307
ag307
ag307
ag307
ag307
ag307
ag307
ag307
ag307
ag307
ag307
ag307
ag307
ag307
ag307
ag307
ag307
ag307
ag307
ag307
ag307
ag307
ag307
ag307
ag307
ag307
ag307
ag307
ag307
ag307
ag307
ag307
ag307
ag307
ag307
ag307
ag307
ag307
ag307
ag307
ag307
ag307
ag307
ag307
ag307
ag307
ag307
a(itree
PTree
p319
(dp320
g82
g83
(g84
g85
Ntp321
Rp322
(dp323
g89
I1
sg97
g83
(g93
g85
Ntp324
Rp325
(dp326
g97
Nsg98
I00
sg99
S'Release_Demand'
p327
sg92
Nsbsg90
g91
sg105
F111.7405340190079
sg92
g83
(g84
g85
Ntp328
Rp329
(dp330
g89
I0
sg97
g83
(g93
g85
Ntp331
Rp332
(dp333
g97
Nsg98
I00
sg99
S'Flood_Control'
p334
sg92
Nsbsg90
g130
sg105
F708.3511927994352
sg92
g83
(g93
g85
Ntp335
Rp336
(dp337
g97
Nsg98
I00
sg99
S'Hedge_90'
p338
sg92
Nsbsg98
I01
sbsg98
I01
sbsg106
(lp339
g322
ag329
ag336
ag332
ag325
asg108
I5
sbag319
ag319
a(itree
PTree
p340
(dp341
g82
g83
(g84
g85
Ntp342
Rp343
(dp344
g89
I1
sg97
g83
(g93
g85
Ntp345
Rp346
(dp347
g97
Nsg98
I00
sg99
S'Hedge_90'
p348
sg92
Nsbsg90
g91
sg105
F102.25259135854186
sg92
g83
(g84
g85
Ntp349
Rp350
(dp351
g89
I0
sg97
g83
(g93
g85
Ntp352
Rp353
(dp354
g97
Nsg98
I00
sg99
S'Flood_Control'
p355
sg92
Nsbsg90
g130
sg105
F706.0479359091086
sg92
g83
(g93
g85
Ntp356
Rp357
(dp358
g97
Nsg98
I00
sg99
S'Release_Demand'
p359
sg92
Nsbsg98
I01
sbsg98
I01
sbsg106
(lp360
g343
ag350
ag357
ag353
ag346
asg108
I5
sbag340
ag340
ag340
ag340
ag340
ag340
ag340
ag340
ag340
ag340
ag340
a(itree
PTree
p361
(dp362
g82
g83
(g84
g85
Ntp363
Rp364
(dp365
g89
I1
sg97
g83
(g93
g85
Ntp366
Rp367
(dp368
g97
Nsg98
I00
sg99
g348
sg92
Nsbsg90
g91
sg105
F102.25259135854186
sg92
g83
(g84
g85
Ntp369
Rp370
(dp371
g89
I0
sg97
g83
(g93
g85
Ntp372
Rp373
(dp374
g97
Nsg98
I00
sg99
g355
sg92
Nsbsg90
g130
sg105
F725.395197672152
sg92
g83
(g93
g85
Ntp375
Rp376
(dp377
g97
Nsg98
I00
sg99
g359
sg92
Nsbsg98
I01
sbsg98
I01
sbsg106
(lp378
g364
ag370
ag376
ag373
ag367
asg108
I5
sbag361
ag361
ag361
ag361
ag361
ag361
ag361
ag361
ag361
ag361
ag361
ag361
ag361
ag361
ag361
ag361
ag361
ag361
ag361
ag361
ag361
ag361
ag361
ag361
ag361
ag361
ag361
ag361
ag361
ag361
ag361
ag361
ag361
ag361
ag361
ag361
ag361
ag361
ag361
ag361
ag361
ag361
ag361
ag361
ag361
ag361
ag361
ag361
ag361
ag361
ag361
ag361
ag361
ag361
ag361
ag361
ag361
ag361
ag361
ag361
ag361
ag361
ag361
ag361
ag361
ag361
ag361
ag361
ag361
ag361
ag361
ag361
ag361
ag361
ag361
ag361
ag361
ag361
ag361
ag361
ag361
ag361
ag361
ag361
ag361
ag361
ag361
ag361
ag361
ag361
ag361
ag361
ag361
ag361
ag361
ag361
ag361
ag361
ag361
ag361
ag361
ag361
ag361
ag361
ag361
ag361
ag361
ag361
ag361
ag361
ag361
ag361
ag361
ag361
ag361
ag361
ag361
ag361
ag361
ag361
a(itree
PTree
p379
(dp380
g82
g83
(g84
g85
Ntp381
Rp382
(dp383
g89
I1
sg97
g83
(g93
g85
Ntp384
Rp385
(dp386
g97
Nsg98
I00
sg99
g348
sg92
Nsbsg90
g91
sg105
F103.49117289777763
sg92
g83
(g84
g85
Ntp387
Rp388
(dp389
g89
I0
sg97
g83
(g93
g85
Ntp390
Rp391
(dp392
g97
Nsg98
I00
sg99
g355
sg92
Nsbsg90
g130
sg105
F725.395197672152
sg92
g83
(g93
g85
Ntp393
Rp394
(dp395
g97
Nsg98
I00
sg99
g359
sg92
Nsbsg98
I01
sbsg98
I01
sbsg106
(lp396
g382
ag388
ag394
ag391
ag385
asg108
I5
sbag379
ag379
ag379
ag379
ag379
ag379
ag379
ag379
ag379
ag379
ag379
ag379
ag379
ag379
ag379
ag379
ag379
ag379
ag379
ag379
ag379
ag379
ag379
ag379
ag379
ag379
ag379
ag379
ag379
ag379
ag379
ag379
ag379
ag379
ag379
ag379
ag379
ag379
ag379
ag379
ag379
ag379
ag379
ag379
ag379
ag379
ag379
ag379
ag379
ag379
ag379
ag379
ag379
ag379
ag379
ag379
ag379
ag379
ag379
ag379
ag379
ag379
ag379
ag379
ag379
ag379
ag379
ag379
ag379
ag379
ag379
ag379
ag379
ag379
ag379
ag379
ag379
ag379
ag379
ag379
ag379
ag379
ag379
ag379
ag379
ag379
ag379
ag379
ag379
ag379
ag379
ag379
ag379
ag379
ag379
ag379
ag379
ag379
ag379
ag379
ag379
ag379
ag379
ag379
ag379
ag379
a(itree
PTree
p397
(dp398
g82
g83
(g84
g85
Ntp399
Rp400
(dp401
g89
I1
sg97
g83
(g93
g85
Ntp402
Rp403
(dp404
g97
Nsg98
I00
sg99
S'Hedge_90'
p405
sg92
Nsbsg90
g91
sg105
F104.65618394763456
sg92
g83
(g84
g85
Ntp406
Rp407
(dp408
g89
I0
sg97
g83
(g93
g85
Ntp409
Rp410
(dp411
g97
Nsg98
I00
sg99
S'Flood_Control'
p412
sg92
Nsbsg90
g130
sg105
F739.8450901488619
sg92
g83
(g93
g85
Ntp413
Rp414
(dp415
g97
Nsg98
I00
sg99
S'Release_Demand'
p416
sg92
Nsbsg98
I01
sbsg98
I01
sbsg106
(lp417
g400
ag407
ag414
ag410
ag403
asg108
I5
sbag397
ag397
ag397
ag397
ag397
ag397
ag397
ag397
ag397
ag397
ag397
ag397
ag397
ag397
ag397
asS'time'
p418
(lp419
I58
aI86
aI114
aI142
aI168
aI194
aI225
aI259
aI283
aI310
aI331
aI356
aI381
aI407
aI433
aI459
aI486
aI512
aI536
aI561
aI592
aI619
aI645
aI676
aI701
aI726
aI753
aI781
aI807
aI833
aI857
aI883
aI909
aI936
aI964
aI990
aI1015
aI1041
aI1071
aI1109
aI1139
aI1168
aI1194
aI1220
aI1249
aI1274
aI1303
aI1328
aI1356
aI1382
aI1407
aI1432
aI1459
aI1485
aI1510
aI1547
aI1572
aI1599
aI1627
aI1653
aI1680
aI1706
aI1736
aI1763
aI1792
aI1828
aI1855
aI1881
aI1905
aI1932
aI1958
aI1985
aI2012
aI2038
aI2063
aI2093
aI2120
aI2147
aI2174
aI2200
aI2225
aI2250
aI2278
aI2304
aI2330
aI2356
aI2383
aI2408
aI2436
aI2462
aI2488
aI2513
aI2540
aI2566
aI2592
aI2619
aI2645
aI2671
aI2698
aI2725
aI2751
aI2778
aI2804
aI2830
aI2856
aI2881
aI2906
aI2932
aI2958
aI2985
aI3012
aI3038
aI3065
aI3091
aI3118
aI3146
aI3173
aI3201
aI3229
aI3256
aI3283
aI3310
aI3336
aI3362
aI3388
aI3415
aI3444
aI3470
aI3496
aI3521
aI3549
aI3575
aI3601
aI3627
aI3654
aI3680
aI3705
aI3732
aI3757
aI3782
aI3809
aI3836
aI3865
aI3892
aI3917
aI3957
aI3985
aI4012
aI4039
aI4067
aI4092
aI4119
aI4147
aI4174
aI4202
aI4230
aI4257
aI4285
aI4313
aI4341
aI4371
aI4398
aI4427
aI4455
aI4482
aI4509
aI4535
aI4570
aI4616
aI4644
aI4669
aI4696
aI4722
aI4750
aI4778
aI4804
aI4830
aI4859
aI4887
aI4914
aI4942
aI4970
aI4998
aI5026
aI5054
aI5081
aI5110
aI5135
aI5162
aI5188
aI5214
aI5241
aI5271
aI5299
aI5329
aI5356
aI5383
aI5415
aI5443
aI5471
aI5497
aI5524
aI5553
aI5583
aI5610
aI5635
aI5661
aI5688
aI5717
aI5744
aI5772
aI5801
aI5827
aI5856
aI5885
aI5911
aI5938
aI5967
aI5996
aI6026
aI6053
aI6079
aI6107
aI6136
aI6164
aI6192
aI6219
aI6249
aI6277
aI6306
aI6334
aI6361
aI6388
aI6416
aI6444
aI6473
aI6500
aI6529
aI6558
aI6586
aI6614
aI6641
aI6667
aI6696
aI6723
aI6748
aI6776
aI6804
aI6830
aI6857
aI6884
aI6911
aI6937
aI6965
aI6995
aI7024
aI7052
aI7082
aI7112
aI7141
aI7170
aI7199
aI7227
aI7257
aI7287
aI7316
aI7344
aI7374
aI7403
aI7432
aI7460
aI7491
aI7520
aI7550
aI7579
aI7607
aI7636
aI7666
aI7697
aI7726
aI7756
aI7785
aI7815
aI7844
aI7873
aI7903
aI7932
aI7962
aI7991
aI8021
aI8052
aI8081
aI8110
aI8139
aI8171
aI8201
aI8231
aI8260
aI8291
aI8321
aI8351
aI8380
aI8409
aI8439
aI8470
aI8499
aI8528
aI8558
aI8588
aI8618
aI8647
aI8676
aI8707
aI8735
aI8764
aI8794
aI8823
aI8853
aI8882
aI8912
aI8941
aI8970
aI8999
aI9029
aI9059
aI9088
aI9118
aI9148
aI9177
aI9206
aI9235
aI9265
aI9294
aI9324
aI9354
aI9384
aI9413
aI9442
aI9472
aI9502
aI9532
aI9562
aI9591
aI9621
aI9649
aI9679
aI9708
aI9737
aI9768
aI9799
aI9828
aI9857
aI9887
aI9917
aI9946
aI9976
aI10005
aI10035
aI10065
aI10095
aI10123
aI10152
aI10180
aI10211
aI10240
aI10269
aI10298
aI10328
aI10357
aI10387
aI10416
aI10446
aI10476
aI10507
aI10537
aI10566
aI10597
aI10627
aI10656
aI10685
aI10715
aI10744
aI10774
aI10803
aI10832
aI10862
aI10890
aI10917
aI10944
aI10974
aI11003
aI11032
aI11061
aI11091
aI11119
aI11149
aI11178
aI11207
aI11234
aI11262
as.