(dp0
S'nfe'
p1
(lp2
I50
aI100
aI150
aI200
aI250
aI300
aI350
aI400
aI450
aI500
aI550
aI600
aI650
aI700
aI750
aI800
aI850
aI900
aI950
aI1000
aI1050
aI1100
aI1150
aI1200
aI1250
aI1300
aI1350
aI1400
aI1450
aI1500
aI1550
aI1600
aI1650
aI1700
aI1750
aI1800
aI1850
aI1900
aI1950
aI2000
aI2050
aI2100
aI2150
aI2200
aI2250
aI2300
aI2350
aI2400
aI2450
aI2500
aI2550
aI2600
aI2650
aI2700
aI2750
aI2800
aI2850
aI2900
aI2950
aI3000
aI3050
aI3100
aI3150
aI3200
aI3250
aI3300
aI3350
aI3400
aI3450
aI3500
aI3550
aI3600
aI3650
aI3700
aI3750
aI3800
aI3850
aI3900
aI3950
aI4000
aI4050
aI4100
aI4150
aI4200
aI4250
aI4300
aI4350
aI4400
aI4450
aI4500
aI4550
aI4600
aI4650
aI4700
aI4750
aI4800
aI4850
aI4900
aI4950
aI5000
aI5050
aI5100
aI5150
aI5200
aI5250
aI5300
aI5350
aI5400
aI5450
aI5500
aI5550
aI5600
aI5650
aI5700
aI5750
aI5800
aI5850
aI5900
aI5950
aI6000
aI6050
aI6100
aI6150
aI6200
aI6250
aI6300
aI6350
aI6400
aI6450
aI6500
aI6550
aI6600
aI6650
aI6700
aI6750
aI6800
aI6850
aI6900
aI6950
aI7000
aI7050
aI7100
aI7150
aI7200
aI7250
aI7300
aI7350
aI7400
aI7450
aI7500
aI7550
aI7600
aI7650
aI7700
aI7750
aI7800
aI7850
aI7900
aI7950
aI8000
aI8050
aI8100
aI8150
aI8200
aI8250
aI8300
aI8350
aI8400
aI8450
aI8500
aI8550
aI8600
aI8650
aI8700
aI8750
aI8800
aI8850
aI8900
aI8950
aI9000
aI9050
aI9100
aI9150
aI9200
aI9250
aI9300
aI9350
aI9400
aI9450
aI9500
aI9550
aI9600
aI9650
aI9700
aI9750
aI9800
aI9850
aI9900
aI9950
aI10000
aI10050
aI10100
aI10150
aI10200
aI10250
aI10300
aI10350
aI10400
aI10450
aI10500
aI10550
aI10600
aI10650
aI10700
aI10750
aI10800
aI10850
aI10900
aI10950
aI11000
aI11050
aI11100
aI11150
aI11200
aI11250
aI11300
aI11350
aI11400
aI11450
aI11500
aI11550
aI11600
aI11650
aI11700
aI11750
aI11800
aI11850
aI11900
aI11950
aI12000
aI12050
aI12100
aI12150
aI12200
aI12250
aI12300
aI12350
aI12400
aI12450
aI12500
aI12550
aI12600
aI12650
aI12700
aI12750
aI12800
aI12850
aI12900
aI12950
aI13000
aI13050
aI13100
aI13150
aI13200
aI13250
aI13300
aI13350
aI13400
aI13450
aI13500
aI13550
aI13600
aI13650
aI13700
aI13750
aI13800
aI13850
aI13900
aI13950
aI14000
aI14050
aI14100
aI14150
aI14200
aI14250
aI14300
aI14350
aI14400
aI14450
aI14500
aI14550
aI14600
aI14650
aI14700
aI14750
aI14800
aI14850
aI14900
aI14950
aI15000
aI15050
aI15100
aI15150
aI15200
aI15250
aI15300
aI15350
aI15400
aI15450
aI15500
aI15550
aI15600
aI15650
aI15700
aI15750
aI15800
aI15850
aI15900
aI15950
aI16000
aI16050
aI16100
aI16150
aI16200
aI16250
aI16300
aI16350
aI16400
aI16450
aI16500
aI16550
aI16600
aI16650
aI16700
aI16750
aI16800
aI16850
aI16900
aI16950
aI17000
aI17050
aI17100
aI17150
aI17200
aI17250
aI17300
aI17350
aI17400
aI17450
aI17500
aI17550
aI17600
aI17650
aI17700
aI17750
aI17800
aI17850
aI17900
aI17950
aI18000
aI18050
aI18100
aI18150
aI18200
aI18250
aI18300
aI18350
aI18400
aI18450
aI18500
aI18550
aI18600
aI18650
aI18700
aI18750
aI18800
aI18850
aI18900
aI18950
aI19000
aI19050
aI19100
aI19150
aI19200
aI19250
aI19300
aI19350
aI19400
aI19450
aI19500
aI19550
aI19600
aI19650
aI19700
aI19750
aI19800
aI19850
aI19900
aI19950
aI20000
aI20050
aI20100
aI20150
aI20200
aI20250
aI20300
aI20350
aI20400
aI20450
aI20500
aI20550
aI20600
aI20650
aI20700
aI20750
aI20800
aI20850
aI20900
aI20950
aI21000
aI21050
aI21100
aI21150
aI21200
aI21250
aI21300
aI21350
aI21400
aI21450
aI21500
aI21550
aI21600
aI21650
aI21700
aI21750
aI21800
aI21850
aI21900
aI21950
aI22000
aI22050
aI22100
aI22150
aI22200
aI22250
aI22300
aI22350
aI22400
aI22450
aI22500
aI22550
aI22600
aI22650
aI22700
aI22750
aI22800
aI22850
aI22900
aI22950
aI23000
aI23050
aI23100
aI23150
aI23200
aI23250
aI23300
aI23350
aI23400
aI23450
aI23500
aI23550
aI23600
aI23650
aI23700
aI23750
aI23800
aI23850
aI23900
aI23950
aI24000
aI24050
aI24100
aI24150
aI24200
aI24250
aI24300
aI24350
aI24400
aI24450
aI24500
aI24550
aI24600
aI24650
aI24700
aI24750
aI24800
aI24850
aI24900
aI24950
aI25000
asS'best_f'
p3
(lp4
cnumpy.core.multiarray
scalar
p5
(cnumpy
dtype
p6
(S'f8'
p7
I0
I1
tp8
Rp9
(I3
S'<'
p10
NNNI-1
I-1
I0
tp11
bS'\xeb9\x11^Q\x9f\xf7?'
p12
tp13
Rp14
ag5
(g9
S'\x92]4\x01\xb9\xb6\xea?'
p15
tp16
Rp17
ag5
(g9
S'\xfdL\xb2\x9f\xc5\xce\xe2?'
p18
tp19
Rp20
ag20
ag20
ag5
(g9
S'\x8d\xe0\x10D\xaf\xc6\xe1?'
p21
tp22
Rp23
ag23
ag23
ag23
ag23
ag5
(g9
S'\x97d\xdd\xe2E\x0f\xe0?'
p24
tp25
Rp26
ag26
ag26
ag26
ag26
ag26
ag5
(g9
S'\xb8Y7\x04{\xb5\xdf?'
p27
tp28
Rp29
ag29
ag5
(g9
S't\xaa\xce\x99\x1bR\xde?'
p30
tp31
Rp32
ag32
ag5
(g9
S'\xba\xe0\xd7w\xc8\x96\xcb?'
p33
tp34
Rp35
ag35
ag35
ag35
ag35
ag35
ag35
ag35
ag35
ag35
ag35
ag35
ag35
ag35
ag35
ag35
ag35
ag35
ag35
ag35
ag35
ag35
ag35
ag35
ag35
ag35
ag35
ag35
ag35
ag35
ag35
ag35
ag35
ag35
ag35
ag35
ag35
ag35
ag35
ag35
ag35
ag35
ag35
ag35
ag35
ag35
ag35
ag35
ag35
ag35
ag35
ag35
ag35
ag35
ag35
ag35
ag35
ag35
ag35
ag35
ag35
ag35
ag35
ag35
ag35
ag35
ag35
ag35
ag35
ag35
ag35
ag35
ag35
ag35
ag35
ag35
ag35
ag35
ag35
ag35
ag35
ag35
ag35
ag35
ag35
ag35
ag35
ag35
ag35
ag35
ag35
ag35
ag35
ag35
ag35
ag35
ag35
ag35
ag35
ag35
ag35
ag35
ag35
ag35
ag35
ag35
ag35
ag35
ag35
ag35
ag35
ag35
ag35
ag35
ag35
ag35
ag35
ag35
ag35
ag35
ag35
ag35
ag35
ag35
ag35
ag35
ag35
ag35
ag35
ag35
ag35
ag35
ag35
ag35
ag35
ag35
ag35
ag35
ag35
ag35
ag35
ag35
ag35
ag35
ag35
ag35
ag35
ag35
ag35
ag35
ag35
ag35
ag35
ag35
ag35
ag35
ag35
ag35
ag35
ag35
ag35
ag35
ag35
ag35
ag35
ag35
ag35
ag35
ag35
ag35
ag35
ag35
ag35
ag35
ag35
ag35
ag35
ag35
ag35
ag35
ag35
ag35
ag35
ag35
ag35
ag35
ag35
ag35
ag35
ag35
ag35
ag35
ag35
ag35
ag35
ag35
ag35
ag35
ag35
ag35
ag35
ag35
ag35
ag35
ag35
ag35
ag35
ag35
ag35
ag35
ag35
ag35
ag35
ag35
ag35
ag35
ag35
ag35
ag35
ag35
ag35
ag35
ag35
ag35
ag35
ag35
ag35
ag35
ag35
ag35
ag35
ag35
ag35
ag35
ag35
ag35
ag35
ag35
ag35
ag35
ag35
ag35
ag35
ag35
ag35
ag35
ag35
ag35
ag35
ag35
ag35
ag35
ag35
ag35
ag35
ag35
ag35
ag35
ag35
ag35
ag35
ag35
ag35
ag35
ag35
ag35
ag35
ag35
ag35
ag35
ag35
ag35
ag35
ag35
ag35
ag35
ag35
ag35
ag35
ag35
ag35
ag35
ag35
ag35
ag35
ag35
ag35
ag35
ag35
ag35
ag35
ag35
ag35
ag35
ag35
ag35
ag35
ag35
ag35
ag35
ag35
ag35
ag35
ag35
ag35
ag35
ag35
ag35
ag35
ag35
ag35
ag35
ag35
ag35
ag35
ag35
ag35
ag35
ag35
ag35
ag35
ag35
ag35
ag35
ag35
ag35
ag35
ag35
ag35
ag35
ag35
ag35
ag35
ag35
ag35
ag35
ag35
ag35
ag35
ag35
ag35
ag35
ag35
ag35
ag35
ag35
ag35
ag35
ag35
ag35
ag35
ag35
ag35
ag35
ag35
ag35
ag35
ag35
ag35
ag35
ag35
ag35
ag35
ag35
ag35
ag35
ag35
ag35
ag35
ag35
ag35
ag35
ag35
ag35
ag35
ag35
ag35
ag35
ag35
ag35
ag35
ag35
ag35
ag35
ag35
ag35
ag35
ag35
ag35
ag35
ag35
ag35
ag35
ag35
ag35
ag35
ag35
ag35
ag35
ag35
ag35
ag35
ag35
ag35
ag35
ag35
ag35
ag35
ag35
ag35
ag35
ag35
ag35
ag35
ag35
ag35
ag35
ag35
ag35
ag35
ag35
ag35
ag35
ag35
ag35
ag35
ag35
ag35
ag35
ag35
ag35
ag35
ag35
ag35
ag35
ag35
ag35
ag35
ag35
ag35
ag35
ag35
ag35
ag35
ag35
ag35
ag35
ag35
ag35
ag35
ag35
ag35
ag35
ag35
ag35
ag35
ag35
ag35
ag35
ag35
ag35
ag35
ag35
ag35
ag35
ag35
ag35
ag35
ag35
ag35
ag35
ag35
ag35
ag35
ag35
ag35
ag35
ag35
ag35
ag35
asS'best_P'
p36
(lp37
(itree
PTree
p38
(dp39
S'root'
p40
ccopy_reg
_reconstructor
p41
(ctree
Feature
p42
c__builtin__
object
p43
Ntp44
Rp45
(dp46
S'index'
p47
I0
sS'name'
p48
S'Storage'
p49
sS'l'
p50
g41
(ctree
Action
p51
g43
Ntp52
Rp53
(dp54
S'r'
p55
NsS'is_feature'
p56
I00
sS'value'
p57
S'Hedge_70'
p58
sg50
Nsbsg55
g41
(g51
g43
Ntp59
Rp60
(dp61
g55
Nsg56
I00
sg57
S'Flood_Control'
p62
sg50
NsbsS'threshold'
p63
F431.3823497106632
sg56
I01
sbsS'L'
p64
(lp65
g45
ag53
ag60
asS'N'
p66
I3
sba(itree
PTree
p67
(dp68
g40
g41
(g42
g43
Ntp69
Rp70
(dp71
g47
I0
sg55
g41
(g51
g43
Ntp72
Rp73
(dp74
g55
Nsg56
I00
sg57
S'Flood_Control'
p75
sg50
Nsbsg48
g49
sg63
F519.5854156780063
sg50
g41
(g51
g43
Ntp76
Rp77
(dp78
g55
Nsg56
I00
sg57
S'Hedge_80'
p79
sg50
Nsbsg56
I01
sbsg64
(lp80
g70
ag77
ag73
asg66
I3
sba(itree
PTree
p81
(dp82
g40
g41
(g42
g43
Ntp83
Rp84
(dp85
g47
I0
sg55
g41
(g51
g43
Ntp86
Rp87
(dp88
g55
Nsg56
I00
sg57
S'Flood_Control'
p89
sg50
Nsbsg48
g49
sg63
F623.6654887952632
sg50
g41
(g51
g43
Ntp90
Rp91
(dp92
g55
Nsg56
I00
sg57
S'Release_Demand'
p93
sg50
Nsbsg56
I01
sbsg64
(lp94
g84
ag91
ag87
asg66
I3
sbag81
ag81
a(itree
PTree
p95
(dp96
g40
g41
(g42
g43
Ntp97
Rp98
(dp99
g47
I0
sg55
g41
(g51
g43
Ntp100
Rp101
(dp102
g55
Nsg56
I00
sg57
g89
sg50
Nsbsg48
g49
sg63
F678.7820875856621
sg50
g41
(g51
g43
Ntp103
Rp104
(dp105
g55
Nsg56
I00
sg57
g93
sg50
Nsbsg56
I01
sbsg64
(lp106
g98
ag104
ag101
asg66
I3
sbag95
ag95
ag95
ag95
a(itree
PTree
p107
(dp108
g40
g41
(g42
g43
Ntp109
Rp110
(dp111
g47
I0
sg55
g41
(g51
g43
Ntp112
Rp113
(dp114
g55
Nsg56
I00
sg57
S'Flood_Control'
p115
sg50
Nsbsg48
g49
sg63
F663.9451848505473
sg50
g41
(g51
g43
Ntp116
Rp117
(dp118
g55
Nsg56
I00
sg57
S'Hedge_90'
p119
sg50
Nsbsg56
I01
sbsg64
(lp120
g110
ag117
ag113
asg66
I3
sbag107
ag107
ag107
ag107
ag107
a(itree
PTree
p121
(dp122
g40
g41
(g42
g43
Ntp123
Rp124
(dp125
g47
I0
sg55
g41
(g51
g43
Ntp126
Rp127
(dp128
g55
Nsg56
I00
sg57
S'Flood_Control'
p129
sg50
Nsbsg48
g49
sg63
F652.1414948503354
sg50
g41
(g51
g43
Ntp130
Rp131
(dp132
g55
Nsg56
I00
sg57
S'Hedge_90'
p133
sg50
Nsbsg56
I01
sbsg64
(lp134
g124
ag131
ag127
asg66
I3
sbag121
a(itree
PTree
p135
(dp136
g40
g41
(g42
g43
Ntp137
Rp138
(dp139
g47
I2
sg55
g41
(g51
g43
Ntp140
Rp141
(dp142
g55
Nsg56
I00
sg57
S'Flood_Control'
p143
sg50
Nsbsg48
S'Inflow'
p144
sg63
F41.58845983841795
sg50
g41
(g51
g43
Ntp145
Rp146
(dp147
g55
Nsg56
I00
sg57
S'Hedge_80'
p148
sg50
Nsbsg56
I01
sbsg64
(lp149
g138
ag146
ag141
asg66
I3
sbag135
a(itree
PTree
p150
(dp151
g40
g41
(g42
g43
Ntp152
Rp153
(dp154
g47
I2
sg55
g41
(g51
g43
Ntp155
Rp156
(dp157
g55
Nsg56
I00
sg57
S'Flood_Control'
p158
sg50
Nsbsg48
g144
sg63
F80.73862470082398
sg50
g41
(g51
g43
Ntp159
Rp160
(dp161
g55
Nsg56
I00
sg57
S'Hedge_90'
p162
sg50
Nsbsg56
I01
sbsg64
(lp163
g153
ag160
ag156
asg66
I3
sbag150
ag150
ag150
ag150
ag150
ag150
ag150
ag150
ag150
ag150
ag150
ag150
ag150
ag150
ag150
ag150
ag150
ag150
ag150
ag150
ag150
ag150
ag150
ag150
ag150
ag150
ag150
ag150
ag150
ag150
ag150
ag150
ag150
ag150
ag150
ag150
ag150
ag150
ag150
ag150
ag150
ag150
ag150
ag150
ag150
ag150
ag150
ag150
ag150
ag150
ag150
ag150
ag150
ag150
ag150
ag150
ag150
ag150
ag150
ag150
ag150
ag150
ag150
ag150
ag150
ag150
ag150
ag150
ag150
ag150
ag150
ag150
ag150
ag150
ag150
ag150
ag150
ag150
ag150
ag150
ag150
ag150
ag150
ag150
ag150
ag150
ag150
ag150
ag150
ag150
ag150
ag150
ag150
ag150
ag150
ag150
ag150
ag150
ag150
ag150
ag150
ag150
ag150
ag150
ag150
ag150
ag150
ag150
ag150
ag150
ag150
ag150
ag150
ag150
ag150
ag150
ag150
ag150
ag150
ag150
ag150
ag150
ag150
ag150
ag150
ag150
ag150
ag150
ag150
ag150
ag150
ag150
ag150
ag150
ag150
ag150
ag150
ag150
ag150
ag150
ag150
ag150
ag150
ag150
ag150
ag150
ag150
ag150
ag150
ag150
ag150
ag150
ag150
ag150
ag150
ag150
ag150
ag150
ag150
ag150
ag150
ag150
ag150
ag150
ag150
ag150
ag150
ag150
ag150
ag150
ag150
ag150
ag150
ag150
ag150
ag150
ag150
ag150
ag150
ag150
ag150
ag150
ag150
ag150
ag150
ag150
ag150
ag150
ag150
ag150
ag150
ag150
ag150
ag150
ag150
ag150
ag150
ag150
ag150
ag150
ag150
ag150
ag150
ag150
ag150
ag150
ag150
ag150
ag150
ag150
ag150
ag150
ag150
ag150
ag150
ag150
ag150
ag150
ag150
ag150
ag150
ag150
ag150
ag150
ag150
ag150
ag150
ag150
ag150
ag150
ag150
ag150
ag150
ag150
ag150
ag150
ag150
ag150
ag150
ag150
ag150
ag150
ag150
ag150
ag150
ag150
ag150
ag150
ag150
ag150
ag150
ag150
ag150
ag150
ag150
ag150
ag150
ag150
ag150
ag150
ag150
ag150
ag150
ag150
ag150
ag150
ag150
ag150
ag150
ag150
ag150
ag150
ag150
ag150
ag150
ag150
ag150
ag150
ag150
ag150
ag150
ag150
ag150
ag150
ag150
ag150
ag150
ag150
ag150
ag150
ag150
ag150
ag150
ag150
ag150
ag150
ag150
ag150
ag150
ag150
ag150
ag150
ag150
ag150
ag150
ag150
ag150
ag150
ag150
ag150
ag150
ag150
ag150
ag150
ag150
ag150
ag150
ag150
ag150
ag150
ag150
ag150
ag150
ag150
ag150
ag150
ag150
ag150
ag150
ag150
ag150
ag150
ag150
ag150
ag150
ag150
ag150
ag150
ag150
ag150
ag150
ag150
ag150
ag150
ag150
ag150
ag150
ag150
ag150
ag150
ag150
ag150
ag150
ag150
ag150
ag150
ag150
ag150
ag150
ag150
ag150
ag150
ag150
ag150
ag150
ag150
ag150
ag150
ag150
ag150
ag150
ag150
ag150
ag150
ag150
ag150
ag150
ag150
ag150
ag150
ag150
ag150
ag150
ag150
ag150
ag150
ag150
ag150
ag150
ag150
ag150
ag150
ag150
ag150
ag150
ag150
ag150
ag150
ag150
ag150
ag150
ag150
ag150
ag150
ag150
ag150
ag150
ag150
ag150
ag150
ag150
ag150
ag150
ag150
ag150
ag150
ag150
ag150
ag150
ag150
ag150
ag150
ag150
ag150
ag150
ag150
ag150
ag150
ag150
ag150
ag150
ag150
ag150
ag150
ag150
ag150
ag150
ag150
ag150
ag150
ag150
ag150
ag150
ag150
ag150
ag150
ag150
ag150
ag150
ag150
ag150
ag150
ag150
ag150
ag150
ag150
ag150
ag150
ag150
ag150
ag150
ag150
ag150
ag150
ag150
ag150
ag150
ag150
ag150
ag150
ag150
ag150
ag150
ag150
ag150
ag150
ag150
ag150
ag150
asS'time'
p164
(lp165
I59
aI89
aI118
aI148
aI176
aI204
aI232
aI260
aI288
aI316
aI344
aI372
aI399
aI427
aI454
aI482
aI510
aI538
aI565
aI593
aI620
aI648
aI676
aI703
aI731
aI759
aI786
aI814
aI843
aI870
aI898
aI925
aI953
aI980
aI1008
aI1035
aI1063
aI1090
aI1118
aI1146
aI1173
aI1201
aI1229
aI1256
aI1284
aI1312
aI1339
aI1367
aI1394
aI1422
aI1450
aI1477
aI1505
aI1532
aI1560
aI1588
aI1615
aI1643
aI1671
aI1698
aI1726
aI1754
aI1781
aI1809
aI1837
aI1864
aI1892
aI1919
aI1947
aI1975
aI2002
aI2030
aI2057
aI2085
aI2112
aI2140
aI2168
aI2196
aI2224
aI2251
aI2278
aI2305
aI2333
aI2360
aI2388
aI2415
aI2443
aI2470
aI2497
aI2525
aI2552
aI2580
aI2607
aI2635
aI2663
aI2690
aI2718
aI2745
aI2773
aI2800
aI2828
aI2855
aI2883
aI2911
aI2938
aI2966
aI2993
aI3021
aI3048
aI3075
aI3103
aI3131
aI3158
aI3185
aI3213
aI3241
aI3268
aI3296
aI3323
aI3351
aI3378
aI3406
aI3434
aI3461
aI3489
aI3517
aI3544
aI3571
aI3599
aI3627
aI3654
aI3682
aI3710
aI3737
aI3765
aI3792
aI3820
aI3848
aI3875
aI3903
aI3931
aI3958
aI3985
aI4013
aI4040
aI4068
aI4095
aI4122
aI4150
aI4177
aI4205
aI4232
aI4260
aI4287
aI4315
aI4342
aI4370
aI4397
aI4424
aI4452
aI4479
aI4507
aI4534
aI4562
aI4589
aI4617
aI4644
aI4671
aI4699
aI4726
aI4754
aI4781
aI4808
aI4835
aI4863
aI4890
aI4917
aI4945
aI4972
aI5000
aI5027
aI5055
aI5082
aI5109
aI5137
aI5164
aI5191
aI5219
aI5247
aI5274
aI5302
aI5329
aI5356
aI5384
aI5411
aI5439
aI5466
aI5493
aI5521
aI5548
aI5576
aI5603
aI5631
aI5658
aI5686
aI5714
aI5741
aI5768
aI5796
aI5823
aI5850
aI5878
aI5905
aI5932
aI5960
aI5987
aI6015
aI6042
aI6070
aI6097
aI6125
aI6152
aI6179
aI6207
aI6234
aI6262
aI6289
aI6317
aI6344
aI6371
aI6399
aI6426
aI6454
aI6481
aI6508
aI6536
aI6563
aI6591
aI6618
aI6645
aI6673
aI6700
aI6727
aI6755
aI6782
aI6809
aI6837
aI6864
aI6891
aI6919
aI6946
aI6974
aI7001
aI7029
aI7057
aI7084
aI7112
aI7139
aI7166
aI7194
aI7221
aI7248
aI7276
aI7303
aI7331
aI7358
aI7386
aI7413
aI7441
aI7468
aI7496
aI7523
aI7551
aI7578
aI7606
aI7633
aI7661
aI7688
aI7715
aI7743
aI7770
aI7798
aI7825
aI7853
aI7880
aI7908
aI7935
aI7962
aI7990
aI8017
aI8045
aI8072
aI8100
aI8127
aI8154
aI8182
aI8210
aI8237
aI8265
aI8292
aI8319
aI8347
aI8374
aI8401
aI8429
aI8457
aI8484
aI8511
aI8539
aI8566
aI8593
aI8621
aI8648
aI8676
aI8703
aI8731
aI8758
aI8785
aI8813
aI8840
aI8868
aI8895
aI8923
aI8950
aI8977
aI9004
aI9031
aI9059
aI9086
aI9114
aI9141
aI9169
aI9196
aI9223
aI9251
aI9278
aI9306
aI9334
aI9361
aI9388
aI9416
aI9443
aI9470
aI9498
aI9525
aI9553
aI9580
aI9607
aI9635
aI9662
aI9690
aI9717
aI9745
aI9772
aI9799
aI9827
aI9854
aI9881
aI9909
aI9936
aI9963
aI9990
aI10018
aI10045
aI10072
aI10100
aI10128
aI10155
aI10182
aI10210
aI10237
aI10264
aI10291
aI10319
aI10346
aI10374
aI10401
aI10428
aI10456
aI10483
aI10511
aI10538
aI10566
aI10593
aI10620
aI10647
aI10675
aI10702
aI10730
aI10757
aI10784
aI10811
aI10839
aI10866
aI10893
aI10920
aI10948
aI10975
aI11002
aI11030
aI11057
aI11085
aI11112
aI11139
aI11166
aI11194
aI11222
aI11249
aI11276
aI11304
aI11331
aI11358
aI11385
aI11412
aI11440
aI11467
aI11494
aI11521
aI11549
aI11576
aI11603
aI11631
aI11658
aI11685
aI11712
aI11740
aI11767
aI11794
aI11822
aI11849
aI11876
aI11904
aI11931
aI11959
aI11986
aI12013
aI12041
aI12068
aI12095
aI12122
aI12150
aI12177
aI12204
aI12231
aI12259
aI12286
aI12313
aI12341
aI12368
aI12395
aI12422
aI12450
aI12477
aI12505
aI12532
aI12560
aI12587
aI12615
aI12642
aI12669
aI12696
aI12723
aI12751
aI12778
aI12805
aI12833
aI12860
aI12888
aI12915
aI12942
aI12970
aI12997
aI13024
aI13052
aI13079
aI13107
aI13134
aI13162
aI13189
aI13216
aI13243
aI13271
aI13298
aI13325
aI13352
aI13380
aI13407
aI13435
aI13462
aI13489
aI13516
aI13543
aI13571
aI13598
aI13625
aI13652
aI13679
aI13707
aI13734
aI13761
as.