(dp0
S'nfe'
p1
(lp2
I50
aI100
aI150
aI200
aI250
aI300
aI350
aI400
aI450
aI500
aI550
aI600
aI650
aI700
aI750
aI800
aI850
aI900
aI950
aI1000
aI1050
aI1100
aI1150
aI1200
aI1250
aI1300
aI1350
aI1400
aI1450
aI1500
aI1550
aI1600
aI1650
aI1700
aI1750
aI1800
aI1850
aI1900
aI1950
aI2000
aI2050
aI2100
aI2150
aI2200
aI2250
aI2300
aI2350
aI2400
aI2450
aI2500
aI2550
aI2600
aI2650
aI2700
aI2750
aI2800
aI2850
aI2900
aI2950
aI3000
aI3050
aI3100
aI3150
aI3200
aI3250
aI3300
aI3350
aI3400
aI3450
aI3500
aI3550
aI3600
aI3650
aI3700
aI3750
aI3800
aI3850
aI3900
aI3950
aI4000
aI4050
aI4100
aI4150
aI4200
aI4250
aI4300
aI4350
aI4400
aI4450
aI4500
aI4550
aI4600
aI4650
aI4700
aI4750
aI4800
aI4850
aI4900
aI4950
aI5000
aI5050
aI5100
aI5150
aI5200
aI5250
aI5300
aI5350
aI5400
aI5450
aI5500
aI5550
aI5600
aI5650
aI5700
aI5750
aI5800
aI5850
aI5900
aI5950
aI6000
aI6050
aI6100
aI6150
aI6200
aI6250
aI6300
aI6350
aI6400
aI6450
aI6500
aI6550
aI6600
aI6650
aI6700
aI6750
aI6800
aI6850
aI6900
aI6950
aI7000
aI7050
aI7100
aI7150
aI7200
aI7250
aI7300
aI7350
aI7400
aI7450
aI7500
aI7550
aI7600
aI7650
aI7700
aI7750
aI7800
aI7850
aI7900
aI7950
aI8000
aI8050
aI8100
aI8150
aI8200
aI8250
aI8300
aI8350
aI8400
aI8450
aI8500
aI8550
aI8600
aI8650
aI8700
aI8750
aI8800
aI8850
aI8900
aI8950
aI9000
aI9050
aI9100
aI9150
aI9200
aI9250
aI9300
aI9350
aI9400
aI9450
aI9500
aI9550
aI9600
aI9650
aI9700
aI9750
aI9800
aI9850
aI9900
aI9950
aI10000
aI10050
aI10100
aI10150
aI10200
aI10250
aI10300
aI10350
aI10400
aI10450
aI10500
aI10550
aI10600
aI10650
aI10700
aI10750
aI10800
aI10850
aI10900
aI10950
aI11000
aI11050
aI11100
aI11150
aI11200
aI11250
aI11300
aI11350
aI11400
aI11450
aI11500
aI11550
aI11600
aI11650
aI11700
aI11750
aI11800
aI11850
aI11900
aI11950
aI12000
aI12050
aI12100
aI12150
aI12200
aI12250
aI12300
aI12350
aI12400
aI12450
aI12500
aI12550
aI12600
aI12650
aI12700
aI12750
aI12800
aI12850
aI12900
aI12950
aI13000
aI13050
aI13100
aI13150
aI13200
aI13250
aI13300
aI13350
aI13400
aI13450
aI13500
aI13550
aI13600
aI13650
aI13700
aI13750
aI13800
aI13850
aI13900
aI13950
aI14000
aI14050
aI14100
aI14150
aI14200
aI14250
aI14300
aI14350
aI14400
aI14450
aI14500
aI14550
aI14600
aI14650
aI14700
aI14750
aI14800
aI14850
aI14900
aI14950
aI15000
aI15050
aI15100
aI15150
aI15200
aI15250
aI15300
aI15350
aI15400
aI15450
aI15500
aI15550
aI15600
aI15650
aI15700
aI15750
aI15800
aI15850
aI15900
aI15950
aI16000
aI16050
aI16100
aI16150
aI16200
aI16250
aI16300
aI16350
aI16400
aI16450
aI16500
aI16550
aI16600
aI16650
aI16700
aI16750
aI16800
aI16850
aI16900
aI16950
aI17000
aI17050
aI17100
aI17150
aI17200
aI17250
aI17300
aI17350
aI17400
aI17450
aI17500
aI17550
aI17600
aI17650
aI17700
aI17750
aI17800
aI17850
aI17900
aI17950
aI18000
aI18050
aI18100
aI18150
aI18200
aI18250
aI18300
aI18350
aI18400
aI18450
aI18500
aI18550
aI18600
aI18650
aI18700
aI18750
aI18800
aI18850
aI18900
aI18950
aI19000
aI19050
aI19100
aI19150
aI19200
aI19250
aI19300
aI19350
aI19400
aI19450
aI19500
aI19550
aI19600
aI19650
aI19700
aI19750
aI19800
aI19850
aI19900
aI19950
aI20000
aI20050
aI20100
aI20150
aI20200
aI20250
aI20300
aI20350
aI20400
aI20450
aI20500
aI20550
aI20600
aI20650
aI20700
aI20750
aI20800
aI20850
aI20900
aI20950
aI21000
aI21050
aI21100
aI21150
aI21200
aI21250
aI21300
aI21350
aI21400
aI21450
aI21500
aI21550
aI21600
aI21650
aI21700
aI21750
aI21800
aI21850
aI21900
aI21950
aI22000
aI22050
aI22100
aI22150
aI22200
aI22250
aI22300
aI22350
aI22400
aI22450
aI22500
aI22550
aI22600
aI22650
aI22700
aI22750
aI22800
aI22850
aI22900
aI22950
aI23000
aI23050
aI23100
aI23150
aI23200
aI23250
aI23300
aI23350
aI23400
aI23450
aI23500
aI23550
aI23600
aI23650
aI23700
aI23750
aI23800
aI23850
aI23900
aI23950
aI24000
aI24050
aI24100
aI24150
aI24200
aI24250
aI24300
aI24350
aI24400
aI24450
aI24500
aI24550
aI24600
aI24650
aI24700
aI24750
aI24800
aI24850
aI24900
aI24950
aI25000
asS'best_f'
p3
(lp4
cnumpy.core.multiarray
scalar
p5
(cnumpy
dtype
p6
(S'f8'
p7
I0
I1
tp8
Rp9
(I3
S'<'
p10
NNNI-1
I-1
I0
tp11
bS'f\x8b\xfa\xbd^D\x03@'
p12
tp13
Rp14
ag5
(g9
S'\xe5\xfb\xa3\xfb\xda\xba\xeb?'
p15
tp16
Rp17
ag17
ag5
(g9
S'F\xefK|\x15\x81\xea?'
p18
tp19
Rp20
ag5
(g9
S'\xc3\xce\xbfk\x9f\xb4\xe8?'
p21
tp22
Rp23
ag23
ag5
(g9
S'+\xa90[\xfd3\xe7?'
p24
tp25
Rp26
ag5
(g9
S'\x88\x0c\xb9U\xb2\t\xe4?'
p27
tp28
Rp29
ag29
ag5
(g9
S'\x1a\x0e\x00.\xceI\xe2?'
p30
tp31
Rp32
ag5
(g9
S'\xb2G\x07\xfe\xe2~\xe1?'
p33
tp34
Rp35
ag5
(g9
S'\x15\xe3\x96\xa0\xd9\xe6\xe0?'
p36
tp37
Rp38
ag38
ag5
(g9
S'n\xa0\xf7\x19O\x95\xdf?'
p39
tp40
Rp41
ag41
ag5
(g9
S'4\xa6ez\x04I\xdf?'
p42
tp43
Rp44
ag44
ag44
ag44
ag5
(g9
S'.\xc9\x94\xab\x19(\xdf?'
p45
tp46
Rp47
ag47
ag47
ag5
(g9
S'\xaf\x9dG\xd0\xea#\xdf?'
p48
tp49
Rp50
ag50
ag50
ag50
ag5
(g9
S'\xc1"3\x14\xee\x98\xde?'
p51
tp52
Rp53
ag53
ag53
ag53
ag53
ag53
ag53
ag53
ag5
(g9
S'\xd0#$\xcf\xff\x81\xd8?'
p54
tp55
Rp56
ag56
ag56
ag56
ag56
ag5
(g9
S'\xf3\x8d\xf0\x88]\x00\xd7?'
p57
tp58
Rp59
ag5
(g9
S'r\xce\xb7\r\x8dT\xd0?'
p60
tp61
Rp62
ag62
ag62
ag62
ag62
ag62
ag62
ag5
(g9
S'\xa4\x9a\xf1\xcdN*\xd0?'
p63
tp64
Rp65
ag65
ag65
ag65
ag65
ag65
ag65
ag65
ag5
(g9
S'\xf6\x0e\xed\x02z\x18\xd0?'
p66
tp67
Rp68
ag68
ag68
ag68
ag68
ag68
ag68
ag68
ag68
ag68
ag5
(g9
S'7\xe6d\xa0\x10\xc6\xcb?'
p69
tp70
Rp71
ag71
ag71
ag5
(g9
S'F1\xe7\xea\xd4\xbc\xcb?'
p72
tp73
Rp74
ag5
(g9
S'O\xbb\xfe}$\xe5\xc8?'
p75
tp76
Rp77
ag77
ag77
ag77
ag77
ag77
ag5
(g9
S'E;)Au&\xc5?'
p78
tp79
Rp80
ag80
ag80
ag80
ag80
ag80
ag80
ag80
ag80
ag80
ag80
ag5
(g9
S'\x88\x1dF\xc6\xe0\x87\xc4?'
p81
tp82
Rp83
ag83
ag83
ag83
ag83
ag83
ag83
ag83
ag83
ag83
ag83
ag83
ag83
ag83
ag83
ag83
ag83
ag83
ag83
ag83
ag83
ag83
ag83
ag83
ag83
ag83
ag83
ag83
ag83
ag83
ag83
ag83
ag83
ag83
ag83
ag83
ag83
ag83
ag83
ag83
ag83
ag83
ag83
ag83
ag83
ag83
ag83
ag83
ag83
ag83
ag83
ag83
ag83
ag83
ag83
ag83
ag83
ag83
ag83
ag83
ag83
ag83
ag83
ag83
ag83
ag83
ag83
ag83
ag83
ag83
ag83
ag83
ag83
ag83
ag83
ag83
ag83
ag83
ag83
ag83
ag83
ag83
ag83
ag83
ag83
ag83
ag83
ag83
ag83
ag83
ag83
ag83
ag83
ag83
ag83
ag83
ag83
ag83
ag5
(g9
S'\xfa\x84\x93g\x15\x80\xc4?'
p84
tp85
Rp86
ag86
ag86
ag86
ag86
ag86
ag86
ag86
ag86
ag86
ag86
ag86
ag86
ag86
ag86
ag86
ag86
ag86
ag86
ag86
ag86
ag86
ag86
ag86
ag86
ag86
ag86
ag86
ag5
(g9
S'\xd7*\x7f\x05\x01\xb0\xbe?'
p87
tp88
Rp89
ag89
ag89
ag89
ag89
ag89
ag89
ag89
ag5
(g9
S'Uo\xacL\xb5\xf4\xbc?'
p90
tp91
Rp92
ag92
ag92
ag5
(g9
S'[\xf8\x99\xa8J3\xbc?'
p93
tp94
Rp95
ag95
ag95
ag95
ag95
ag95
ag95
ag95
ag95
ag95
ag95
ag95
ag95
ag95
ag95
ag95
ag95
ag95
ag5
(g9
S'\xa8\x1c\x10\xe4\x860\xbc?'
p96
tp97
Rp98
ag98
ag98
ag98
ag98
ag98
ag98
ag98
ag98
ag98
ag98
ag98
ag98
ag98
ag98
ag98
ag98
ag98
ag98
ag98
ag98
ag98
ag98
ag98
ag98
ag98
ag98
ag98
ag98
ag98
ag98
ag98
ag98
ag98
ag98
ag5
(g9
S'\x99\xeb\xc9&\xc0\xc8\xbb?'
p99
tp100
Rp101
ag101
ag101
ag101
ag101
ag101
ag101
ag101
ag5
(g9
S'o\x16\x94\xc49\xb3\xbb?'
p102
tp103
Rp104
ag104
ag104
ag104
ag104
ag104
ag104
ag104
ag5
(g9
S'\xc4\xc2\x97\xf9Y\xa9\xbb?'
p105
tp106
Rp107
ag107
ag107
ag107
ag107
ag107
ag107
ag107
ag107
ag107
ag107
ag107
ag107
ag107
ag107
ag107
ag107
ag107
ag107
ag107
ag5
(g9
S'tsu\x99!\x96\xbb?'
p108
tp109
Rp110
ag110
ag110
ag110
ag110
ag110
ag110
ag110
ag110
ag110
ag110
ag110
ag110
ag110
ag110
ag110
ag110
ag110
ag110
ag110
ag110
ag110
ag110
ag110
ag110
ag110
ag110
ag110
ag110
ag110
ag110
ag110
ag110
ag110
ag110
ag110
ag110
ag5
(g9
S'\x85\x8c\x04\xee\x0f\x93\xbb?'
p111
tp112
Rp113
ag113
ag113
ag113
ag113
ag113
ag113
ag113
ag113
ag113
ag113
ag113
ag113
ag113
ag113
ag113
ag113
ag113
ag113
ag113
ag113
ag113
ag113
ag113
ag113
ag113
ag113
ag113
ag113
ag113
ag113
ag113
ag113
ag113
ag113
ag113
ag113
ag113
ag113
ag113
ag113
ag113
ag113
ag113
ag113
ag113
ag113
ag113
ag113
ag113
ag113
ag113
ag113
ag113
ag113
ag113
ag113
ag113
ag113
ag113
ag113
ag113
ag113
ag113
ag113
ag113
ag113
ag113
ag113
ag113
ag113
ag113
ag113
ag113
ag113
ag113
ag113
ag113
ag113
ag113
ag113
ag113
ag113
ag113
ag113
ag113
ag113
ag113
ag113
ag113
ag113
ag113
ag113
ag113
ag113
ag113
ag113
ag113
ag113
ag113
ag113
ag113
ag113
ag113
ag113
ag113
ag113
ag113
ag113
ag113
ag113
ag113
ag113
ag113
ag113
ag113
ag113
ag113
ag113
ag113
ag113
ag113
ag113
ag113
ag113
ag113
ag113
ag113
ag113
ag113
ag113
ag113
ag113
ag113
ag113
ag113
ag113
ag113
ag113
ag5
(g9
S'\x95%@\x1dM\x8f\xbb?'
p114
tp115
Rp116
ag116
ag116
ag116
ag116
ag116
ag116
ag116
ag116
ag116
ag116
ag116
asS'best_P'
p117
(lp118
(itree
PTree
p119
(dp120
S'root'
p121
ccopy_reg
_reconstructor
p122
(ctree
Feature
p123
c__builtin__
object
p124
Ntp125
Rp126
(dp127
S'index'
p128
I0
sS'name'
p129
S'Storage'
p130
sS'l'
p131
g122
(ctree
Action
p132
g124
Ntp133
Rp134
(dp135
S'r'
p136
NsS'is_feature'
p137
I00
sS'value'
p138
S'Flood_Control'
p139
sg131
Nsbsg136
g122
(g132
g124
Ntp140
Rp141
(dp142
g136
Nsg137
I00
sg138
S'Hedge_50'
p143
sg131
NsbsS'threshold'
p144
F538.2768697017856
sg137
I01
sbsS'L'
p145
(lp146
g126
ag134
ag141
asS'N'
p147
I3
sba(itree
PTree
p148
(dp149
g121
g122
(g123
g124
Ntp150
Rp151
(dp152
g128
I0
sg136
g122
(g132
g124
Ntp153
Rp154
(dp155
g136
Nsg137
I00
sg138
S'Flood_Control'
p156
sg131
Nsbsg129
g130
sg144
F485.0703265701702
sg131
g122
(g132
g124
Ntp157
Rp158
(dp159
g136
Nsg137
I00
sg138
S'Hedge_80'
p160
sg131
Nsbsg137
I01
sbsg145
(lp161
g151
ag158
ag154
asg147
I3
sbag148
a(itree
PTree
p162
(dp163
g121
g122
(g123
g124
Ntp164
Rp165
(dp166
g128
I0
sg136
g122
(g132
g124
Ntp167
Rp168
(dp169
g136
Nsg137
I00
sg138
g156
sg131
Nsbsg129
g130
sg144
F533.9773426388058
sg131
g122
(g132
g124
Ntp170
Rp171
(dp172
g136
Nsg137
I00
sg138
g160
sg131
Nsbsg137
I01
sbsg145
(lp173
g165
ag171
ag168
asg147
I3
sba(itree
PTree
p174
(dp175
g121
g122
(g123
g124
Ntp176
Rp177
(dp178
g128
I0
sg136
g122
(g132
g124
Ntp179
Rp180
(dp181
g136
Nsg137
I00
sg138
S'Flood_Control'
p182
sg131
Nsbsg129
g130
sg144
F443.7798047590559
sg131
g122
(g132
g124
Ntp183
Rp184
(dp185
g136
Nsg137
I00
sg138
S'Hedge_90'
p186
sg131
Nsbsg137
I01
sbsg145
(lp187
g177
ag184
ag180
asg147
I3
sbag174
a(itree
PTree
p188
(dp189
g121
g122
(g123
g124
Ntp190
Rp191
(dp192
g128
I0
sg136
g122
(g132
g124
Ntp193
Rp194
(dp195
g136
Nsg137
I00
sg138
S'Flood_Control'
p196
sg131
Nsbsg129
g130
sg144
F721.2861039362547
sg131
g122
(g123
g124
Ntp197
Rp198
(dp199
g128
I2
sg136
g122
(g132
g124
Ntp200
Rp201
(dp202
g136
Nsg137
I00
sg138
S'Release_Demand'
p203
sg131
Nsbsg129
S'Inflow'
p204
sg144
F88.67480764426212
sg131
g122
(g132
g124
Ntp205
Rp206
(dp207
g136
Nsg137
I00
sg138
S'Hedge_80'
p208
sg131
Nsbsg137
I01
sbsg137
I01
sbsg145
(lp209
g191
ag198
ag206
ag201
ag194
asg147
I5
sba(itree
PTree
p210
(dp211
g121
g122
(g123
g124
Ntp212
Rp213
(dp214
g128
I0
sg136
g122
(g132
g124
Ntp215
Rp216
(dp217
g136
Nsg137
I00
sg138
S'Flood_Control'
p218
sg131
Nsbsg129
g130
sg144
F649.8164434751045
sg131
g122
(g132
g124
Ntp219
Rp220
(dp221
g136
Nsg137
I00
sg138
S'Release_Demand'
p222
sg131
Nsbsg137
I01
sbsg145
(lp223
g213
ag220
ag216
asg147
I3
sbag210
a(itree
PTree
p224
(dp225
g121
g122
(g123
g124
Ntp226
Rp227
(dp228
g128
I0
sg136
g122
(g132
g124
Ntp229
Rp230
(dp231
g136
Nsg137
I00
sg138
S'Flood_Control'
p232
sg131
Nsbsg129
g130
sg144
F676.0582178535169
sg131
g122
(g132
g124
Ntp233
Rp234
(dp235
g136
Nsg137
I00
sg138
S'Release_Demand'
p236
sg131
Nsbsg137
I01
sbsg145
(lp237
g227
ag234
ag230
asg147
I3
sba(itree
PTree
p238
(dp239
g121
g122
(g123
g124
Ntp240
Rp241
(dp242
g128
I0
sg136
g122
(g132
g124
Ntp243
Rp244
(dp245
g136
Nsg137
I00
sg138
S'Flood_Control'
p246
sg131
Nsbsg129
g130
sg144
F595.9632880982603
sg131
g122
(g132
g124
Ntp247
Rp248
(dp249
g136
Nsg137
I00
sg138
S'Hedge_90'
p250
sg131
Nsbsg137
I01
sbsg145
(lp251
g241
ag248
ag244
asg147
I3
sba(itree
PTree
p252
(dp253
g121
g122
(g123
g124
Ntp254
Rp255
(dp256
g128
I0
sg136
g122
(g132
g124
Ntp257
Rp258
(dp259
g136
Nsg137
I00
sg138
S'Flood_Control'
p260
sg131
Nsbsg129
g130
sg144
F598.0931057621559
sg131
g122
(g132
g124
Ntp261
Rp262
(dp263
g136
Nsg137
I00
sg138
S'Hedge_90'
p264
sg131
Nsbsg137
I01
sbsg145
(lp265
g255
ag262
ag258
asg147
I3
sbag252
a(itree
PTree
p266
(dp267
g121
g122
(g123
g124
Ntp268
Rp269
(dp270
g128
I0
sg136
g122
(g132
g124
Ntp271
Rp272
(dp273
g136
Nsg137
I00
sg138
g246
sg131
Nsbsg129
g130
sg144
F619.2155031531131
sg131
g122
(g132
g124
Ntp274
Rp275
(dp276
g136
Nsg137
I00
sg138
g250
sg131
Nsbsg137
I01
sbsg145
(lp277
g269
ag275
ag272
asg147
I3
sbag266
a(itree
PTree
p278
(dp279
g121
g122
(g123
g124
Ntp280
Rp281
(dp282
g128
I0
sg136
g122
(g132
g124
Ntp283
Rp284
(dp285
g136
Nsg137
I00
sg138
g196
sg131
Nsbsg129
g130
sg144
F709.036025914435
sg131
g122
(g132
g124
Ntp286
Rp287
(dp288
g136
Nsg137
I00
sg138
S'Hedge_90'
p289
sg131
Nsbsg137
I01
sbsg145
(lp290
g281
ag287
ag284
asg147
I3
sbag278
ag278
ag278
a(itree
PTree
p291
(dp292
g121
g122
(g123
g124
Ntp293
Rp294
(dp295
g128
I0
sg136
g122
(g132
g124
Ntp296
Rp297
(dp298
g136
Nsg137
I00
sg138
S'Flood_Control'
p299
sg131
Nsbsg129
g130
sg144
F708.7551297574195
sg131
g122
(g132
g124
Ntp300
Rp301
(dp302
g136
Nsg137
I00
sg138
S'Hedge_90'
p303
sg131
Nsbsg137
I01
sbsg145
(lp304
g294
ag301
ag297
asg147
I3
sbag291
ag291
a(itree
PTree
p305
(dp306
g121
g122
(g123
g124
Ntp307
Rp308
(dp309
g128
I0
sg136
g122
(g132
g124
Ntp310
Rp311
(dp312
g136
Nsg137
I00
sg138
g246
sg131
Nsbsg129
g130
sg144
F690.1955215434608
sg131
g122
(g132
g124
Ntp313
Rp314
(dp315
g136
Nsg137
I00
sg138
g250
sg131
Nsbsg137
I01
sbsg145
(lp316
g308
ag314
ag311
asg147
I3
sbag305
ag305
ag305
a(itree
PTree
p317
(dp318
g121
g122
(g123
g124
Ntp319
Rp320
(dp321
g128
I0
sg136
g122
(g132
g124
Ntp322
Rp323
(dp324
g136
Nsg137
I00
sg138
g246
sg131
Nsbsg129
g130
sg144
F651.3610177150342
sg131
g122
(g132
g124
Ntp325
Rp326
(dp327
g136
Nsg137
I00
sg138
S'Hedge_90'
p328
sg131
Nsbsg137
I01
sbsg145
(lp329
g320
ag326
ag323
asg147
I3
sbag317
ag317
ag317
ag317
ag317
ag317
ag317
a(itree
PTree
p330
(dp331
g121
g122
(g123
g124
Ntp332
Rp333
(dp334
g128
I0
sg136
g122
(g123
g124
Ntp335
Rp336
(dp337
g128
I1
sg136
g122
(g132
g124
Ntp338
Rp339
(dp340
g136
Nsg137
I00
sg138
S'Release_Demand'
p341
sg131
Nsbsg129
S'Day'
p342
sg144
F172.46238966830163
sg131
g122
(g132
g124
Ntp343
Rp344
(dp345
g136
Nsg137
I00
sg138
S'Flood_Control'
p346
sg131
Nsbsg137
I01
sbsg129
g130
sg144
F577.757552849136
sg131
g122
(g132
g124
Ntp347
Rp348
(dp349
g136
Nsg137
I00
sg138
S'Hedge_90'
p350
sg131
Nsbsg137
I01
sbsg145
(lp351
g333
ag348
ag336
ag344
ag339
asg147
I5
sbag330
ag330
ag330
ag330
a(itree
PTree
p352
(dp353
g121
g122
(g123
g124
Ntp354
Rp355
(dp356
g128
I0
sg136
g122
(g123
g124
Ntp357
Rp358
(dp359
g128
I1
sg136
g122
(g132
g124
Ntp360
Rp361
(dp362
g136
Nsg137
I00
sg138
g341
sg131
Nsbsg129
g342
sg144
F145.96760351564146
sg131
g122
(g132
g124
Ntp363
Rp364
(dp365
g136
Nsg137
I00
sg138
g346
sg131
Nsbsg137
I01
sbsg129
g130
sg144
F554.8469037441351
sg131
g122
(g132
g124
Ntp366
Rp367
(dp368
g136
Nsg137
I00
sg138
g350
sg131
Nsbsg137
I01
sbsg145
(lp369
g355
ag367
ag358
ag364
ag361
asg147
I5
sba(itree
PTree
p370
(dp371
g121
g122
(g123
g124
Ntp372
Rp373
(dp374
g128
I0
sg136
g122
(g123
g124
Ntp375
Rp376
(dp377
g128
I1
sg136
g122
(g132
g124
Ntp378
Rp379
(dp380
g136
Nsg137
I00
sg138
g341
sg131
Nsbsg129
g342
sg144
F122.15031889501806
sg131
g122
(g132
g124
Ntp381
Rp382
(dp383
g136
Nsg137
I00
sg138
g346
sg131
Nsbsg137
I01
sbsg129
g130
sg144
F663.950429363372
sg131
g122
(g132
g124
Ntp384
Rp385
(dp386
g136
Nsg137
I00
sg138
g350
sg131
Nsbsg137
I01
sbsg145
(lp387
g373
ag385
ag376
ag382
ag379
asg147
I5
sbag370
ag370
ag370
ag370
ag370
ag370
a(itree
PTree
p388
(dp389
g121
g122
(g123
g124
Ntp390
Rp391
(dp392
g128
I0
sg136
g122
(g123
g124
Ntp393
Rp394
(dp395
g128
I1
sg136
g122
(g132
g124
Ntp396
Rp397
(dp398
g136
Nsg137
I00
sg138
g341
sg131
Nsbsg129
g342
sg144
F126.77704796862871
sg131
g122
(g132
g124
Ntp399
Rp400
(dp401
g136
Nsg137
I00
sg138
S'Flood_Control'
p402
sg131
Nsbsg137
I01
sbsg129
g130
sg144
F653.437756965332
sg131
g122
(g132
g124
Ntp403
Rp404
(dp405
g136
Nsg137
I00
sg138
g350
sg131
Nsbsg137
I01
sbsg145
(lp406
g391
ag404
ag394
ag400
ag397
asg147
I5
sbag388
ag388
ag388
ag388
ag388
ag388
ag388
a(itree
PTree
p407
(dp408
g121
g122
(g123
g124
Ntp409
Rp410
(dp411
g128
I0
sg136
g122
(g123
g124
Ntp412
Rp413
(dp414
g128
I1
sg136
g122
(g132
g124
Ntp415
Rp416
(dp417
g136
Nsg137
I00
sg138
g341
sg131
Nsbsg129
g342
sg144
F110.08641562735718
sg131
g122
(g132
g124
Ntp418
Rp419
(dp420
g136
Nsg137
I00
sg138
g402
sg131
Nsbsg137
I01
sbsg129
g130
sg144
F653.7072878497643
sg131
g122
(g132
g124
Ntp421
Rp422
(dp423
g136
Nsg137
I00
sg138
g350
sg131
Nsbsg137
I01
sbsg145
(lp424
g410
ag422
ag413
ag419
ag416
asg147
I5
sbag407
ag407
ag407
ag407
ag407
ag407
ag407
ag407
ag407
a(itree
PTree
p425
(dp426
g121
g122
(g123
g124
Ntp427
Rp428
(dp429
g128
I2
sg136
g122
(g132
g124
Ntp430
Rp431
(dp432
g136
Nsg137
I00
sg138
S'Flood_Control'
p433
sg131
Nsbsg129
g204
sg144
F58.80372740277057
sg131
g122
(g132
g124
Ntp434
Rp435
(dp436
g136
Nsg137
I00
sg138
S'Hedge_90'
p437
sg131
Nsbsg137
I01
sbsg145
(lp438
g428
ag435
ag431
asg147
I3
sbag425
ag425
a(itree
PTree
p439
(dp440
g121
g122
(g123
g124
Ntp441
Rp442
(dp443
g128
I2
sg136
g122
(g132
g124
Ntp444
Rp445
(dp446
g136
Nsg137
I00
sg138
g433
sg131
Nsbsg129
g204
sg144
F62.956780478396944
sg131
g122
(g132
g124
Ntp447
Rp448
(dp449
g136
Nsg137
I00
sg138
g437
sg131
Nsbsg137
I01
sbsg145
(lp450
g442
ag448
ag445
asg147
I3
sba(itree
PTree
p451
(dp452
g121
g122
(g123
g124
Ntp453
Rp454
(dp455
g128
I2
sg136
g122
(g123
g124
Ntp456
Rp457
(dp458
g128
I2
sg136
g122
(g132
g124
Ntp459
Rp460
(dp461
g136
Nsg137
I00
sg138
S'Flood_Control'
p462
sg131
Nsbsg129
g204
sg144
F77.61973693055867
sg131
g122
(g132
g124
Ntp463
Rp464
(dp465
g136
Nsg137
I00
sg138
S'Hedge_90'
p466
sg131
Nsbsg137
I01
sbsg129
g204
sg144
F27.2074335709006
sg131
g122
(g123
g124
Ntp467
Rp468
(dp469
g128
I0
sg136
g122
(g132
g124
Ntp470
Rp471
(dp472
g136
Nsg137
I00
sg138
S'Hedge_90'
p473
sg131
Nsbsg129
g130
sg144
F718.460315170176
sg131
g122
(g132
g124
Ntp474
Rp475
(dp476
g136
Nsg137
I00
sg138
S'Hedge_80'
p477
sg131
Nsbsg137
I01
sbsg137
I01
sbsg145
(lp478
g454
ag468
ag475
ag471
ag457
ag464
ag460
asg147
I7
sbag451
ag451
ag451
ag451
ag451
a(itree
PTree
p479
(dp480
g121
g122
(g123
g124
Ntp481
Rp482
(dp483
g128
I2
sg136
g122
(g123
g124
Ntp484
Rp485
(dp486
g128
I2
sg136
g122
(g132
g124
Ntp487
Rp488
(dp489
g136
Nsg137
I00
sg138
g462
sg131
Nsbsg129
g204
sg144
F77.61973693055867
sg131
g122
(g132
g124
Ntp490
Rp491
(dp492
g136
Nsg137
I00
sg138
g466
sg131
Nsbsg137
I01
sbsg129
g204
sg144
F23.340717326674724
sg131
g122
(g123
g124
Ntp493
Rp494
(dp495
g128
I0
sg136
g122
(g132
g124
Ntp496
Rp497
(dp498
g136
Nsg137
I00
sg138
g473
sg131
Nsbsg129
g130
sg144
F600.1589296212151
sg131
g122
(g132
g124
Ntp499
Rp500
(dp501
g136
Nsg137
I00
sg138
g477
sg131
Nsbsg137
I01
sbsg137
I01
sbsg145
(lp502
g482
ag494
ag500
ag497
ag485
ag491
ag488
asg147
I7
sbag479
ag479
ag479
ag479
ag479
ag479
ag479
ag479
ag479
ag479
a(itree
PTree
p503
(dp504
g121
g122
(g123
g124
Ntp505
Rp506
(dp507
g128
I2
sg136
g122
(g132
g124
Ntp508
Rp509
(dp510
g136
Nsg137
I00
sg138
g462
sg131
Nsbsg129
g204
sg144
F75.26700833029014
sg131
g122
(g123
g124
Ntp511
Rp512
(dp513
g128
I0
sg136
g122
(g132
g124
Ntp514
Rp515
(dp516
g136
Nsg137
I00
sg138
g473
sg131
Nsbsg129
g130
sg144
F575.4007964852894
sg131
g122
(g132
g124
Ntp517
Rp518
(dp519
g136
Nsg137
I00
sg138
g477
sg131
Nsbsg137
I01
sbsg137
I01
sbsg145
(lp520
g506
ag512
ag518
ag515
ag509
asg147
I5
sbag503
ag503
ag503
ag503
ag503
ag503
ag503
ag503
ag503
ag503
ag503
ag503
ag503
ag503
ag503
ag503
ag503
ag503
ag503
ag503
ag503
ag503
ag503
ag503
ag503
ag503
ag503
ag503
ag503
ag503
ag503
ag503
ag503
ag503
ag503
ag503
ag503
ag503
ag503
ag503
ag503
ag503
ag503
ag503
ag503
ag503
ag503
ag503
ag503
ag503
ag503
ag503
ag503
ag503
ag503
ag503
ag503
ag503
ag503
ag503
ag503
ag503
ag503
ag503
ag503
ag503
ag503
ag503
ag503
ag503
ag503
ag503
ag503
ag503
ag503
ag503
ag503
ag503
ag503
ag503
ag503
ag503
ag503
ag503
ag503
ag503
ag503
ag503
ag503
ag503
ag503
ag503
ag503
ag503
ag503
ag503
ag503
a(itree
PTree
p521
(dp522
g121
g122
(g123
g124
Ntp523
Rp524
(dp525
g128
I2
sg136
g122
(g132
g124
Ntp526
Rp527
(dp528
g136
Nsg137
I00
sg138
g462
sg131
Nsbsg129
g204
sg144
F81.70287100976788
sg131
g122
(g123
g124
Ntp529
Rp530
(dp531
g128
I0
sg136
g122
(g132
g124
Ntp532
Rp533
(dp534
g136
Nsg137
I00
sg138
g473
sg131
Nsbsg129
g130
sg144
F575.4007964852894
sg131
g122
(g132
g124
Ntp535
Rp536
(dp537
g136
Nsg137
I00
sg138
g477
sg131
Nsbsg137
I01
sbsg137
I01
sbsg145
(lp538
g524
ag530
ag536
ag533
ag527
asg147
I5
sbag521
ag521
ag521
ag521
ag521
ag521
ag521
ag521
ag521
ag521
ag521
ag521
ag521
ag521
ag521
ag521
ag521
ag521
ag521
ag521
ag521
ag521
ag521
ag521
ag521
ag521
ag521
a(itree
PTree
p539
(dp540
g121
g122
(g123
g124
Ntp541
Rp542
(dp543
g128
I2
sg136
g122
(g132
g124
Ntp544
Rp545
(dp546
g136
Nsg137
I00
sg138
S'Flood_Control'
p547
sg131
Nsbsg129
g204
sg144
F80.06923222902043
sg131
g122
(g123
g124
Ntp548
Rp549
(dp550
g128
I0
sg136
g122
(g132
g124
Ntp551
Rp552
(dp553
g136
Nsg137
I00
sg138
S'Release_Demand'
p554
sg131
Nsbsg129
g130
sg144
F523.8890018566132
sg131
g122
(g132
g124
Ntp555
Rp556
(dp557
g136
Nsg137
I00
sg138
S'Hedge_80'
p558
sg131
Nsbsg137
I01
sbsg137
I01
sbsg145
(lp559
g542
ag549
ag556
ag552
ag545
asg147
I5
sbag539
ag539
ag539
ag539
ag539
ag539
ag539
a(itree
PTree
p560
(dp561
g121
g122
(g123
g124
Ntp562
Rp563
(dp564
g128
I2
sg136
g122
(g132
g124
Ntp565
Rp566
(dp567
g136
Nsg137
I00
sg138
g547
sg131
Nsbsg129
g204
sg144
F65.25241486520632
sg131
g122
(g123
g124
Ntp568
Rp569
(dp570
g128
I0
sg136
g122
(g132
g124
Ntp571
Rp572
(dp573
g136
Nsg137
I00
sg138
g554
sg131
Nsbsg129
g130
sg144
F648.6725240500978
sg131
g122
(g132
g124
Ntp574
Rp575
(dp576
g136
Nsg137
I00
sg138
g558
sg131
Nsbsg137
I01
sbsg137
I01
sbsg145
(lp577
g563
ag569
ag575
ag572
ag566
asg147
I5
sbag560
ag560
a(itree
PTree
p578
(dp579
g121
g122
(g123
g124
Ntp580
Rp581
(dp582
g128
I2
sg136
g122
(g132
g124
Ntp583
Rp584
(dp585
g136
Nsg137
I00
sg138
g547
sg131
Nsbsg129
g204
sg144
F58.25156454075636
sg131
g122
(g123
g124
Ntp586
Rp587
(dp588
g128
I0
sg136
g122
(g132
g124
Ntp589
Rp590
(dp591
g136
Nsg137
I00
sg138
g554
sg131
Nsbsg129
g130
sg144
F630.6427905086856
sg131
g122
(g132
g124
Ntp592
Rp593
(dp594
g136
Nsg137
I00
sg138
g558
sg131
Nsbsg137
I01
sbsg137
I01
sbsg145
(lp595
g581
ag587
ag593
ag590
ag584
asg147
I5
sbag578
ag578
ag578
ag578
ag578
ag578
ag578
ag578
ag578
ag578
ag578
ag578
ag578
ag578
ag578
ag578
ag578
a(itree
PTree
p596
(dp597
g121
g122
(g123
g124
Ntp598
Rp599
(dp600
g128
I2
sg136
g122
(g132
g124
Ntp601
Rp602
(dp603
g136
Nsg137
I00
sg138
g547
sg131
Nsbsg129
g204
sg144
F58.25156454075636
sg131
g122
(g123
g124
Ntp604
Rp605
(dp606
g128
I0
sg136
g122
(g132
g124
Ntp607
Rp608
(dp609
g136
Nsg137
I00
sg138
g554
sg131
Nsbsg129
g130
sg144
F604.5541261255564
sg131
g122
(g132
g124
Ntp610
Rp611
(dp612
g136
Nsg137
I00
sg138
g558
sg131
Nsbsg137
I01
sbsg137
I01
sbsg145
(lp613
g599
ag605
ag611
ag608
ag602
asg147
I5
sbag596
ag596
ag596
ag596
ag596
ag596
ag596
ag596
ag596
ag596
ag596
ag596
ag596
ag596
ag596
ag596
ag596
ag596
ag596
ag596
ag596
ag596
ag596
ag596
ag596
ag596
ag596
ag596
ag596
ag596
ag596
ag596
ag596
ag596
a(itree
PTree
p614
(dp615
g121
g122
(g123
g124
Ntp616
Rp617
(dp618
g128
I2
sg136
g122
(g132
g124
Ntp619
Rp620
(dp621
g136
Nsg137
I00
sg138
S'Flood_Control'
p622
sg131
Nsbsg129
g204
sg144
F56.44971165489669
sg131
g122
(g123
g124
Ntp623
Rp624
(dp625
g128
I0
sg136
g122
(g132
g124
Ntp626
Rp627
(dp628
g136
Nsg137
I00
sg138
S'Release_Demand'
p629
sg131
Nsbsg129
g130
sg144
F616.8363189932394
sg131
g122
(g132
g124
Ntp630
Rp631
(dp632
g136
Nsg137
I00
sg138
g477
sg131
Nsbsg137
I01
sbsg137
I01
sbsg145
(lp633
g617
ag624
ag631
ag627
ag620
asg147
I5
sbag614
ag614
ag614
ag614
ag614
ag614
ag614
a(itree
PTree
p634
(dp635
g121
g122
(g123
g124
Ntp636
Rp637
(dp638
g128
I2
sg136
g122
(g132
g124
Ntp639
Rp640
(dp641
g136
Nsg137
I00
sg138
g622
sg131
Nsbsg129
g204
sg144
F76.12664740378862
sg131
g122
(g123
g124
Ntp642
Rp643
(dp644
g128
I0
sg136
g122
(g132
g124
Ntp645
Rp646
(dp647
g136
Nsg137
I00
sg138
g629
sg131
Nsbsg129
g130
sg144
F616.8363189932394
sg131
g122
(g132
g124
Ntp648
Rp649
(dp650
g136
Nsg137
I00
sg138
g477
sg131
Nsbsg137
I01
sbsg137
I01
sbsg145
(lp651
g637
ag643
ag649
ag646
ag640
asg147
I5
sbag634
ag634
ag634
ag634
ag634
ag634
ag634
a(itree
PTree
p652
(dp653
g121
g122
(g123
g124
Ntp654
Rp655
(dp656
g128
I2
sg136
g122
(g132
g124
Ntp657
Rp658
(dp659
g136
Nsg137
I00
sg138
S'Flood_Control'
p660
sg131
Nsbsg129
g204
sg144
F61.45152054282684
sg131
g122
(g123
g124
Ntp661
Rp662
(dp663
g128
I0
sg136
g122
(g132
g124
Ntp664
Rp665
(dp666
g136
Nsg137
I00
sg138
S'Release_Demand'
p667
sg131
Nsbsg129
g130
sg144
F622.8340750852092
sg131
g122
(g132
g124
Ntp668
Rp669
(dp670
g136
Nsg137
I00
sg138
g477
sg131
Nsbsg137
I01
sbsg137
I01
sbsg145
(lp671
g655
ag662
ag669
ag665
ag658
asg147
I5
sbag652
ag652
ag652
ag652
ag652
ag652
ag652
ag652
ag652
ag652
ag652
ag652
ag652
ag652
ag652
ag652
ag652
ag652
ag652
a(itree
PTree
p672
(dp673
g121
g122
(g123
g124
Ntp674
Rp675
(dp676
g128
I2
sg136
g122
(g132
g124
Ntp677
Rp678
(dp679
g136
Nsg137
I00
sg138
g660
sg131
Nsbsg129
g204
sg144
F74.69918453313892
sg131
g122
(g123
g124
Ntp680
Rp681
(dp682
g128
I0
sg136
g122
(g132
g124
Ntp683
Rp684
(dp685
g136
Nsg137
I00
sg138
g667
sg131
Nsbsg129
g130
sg144
F622.8340750852092
sg131
g122
(g132
g124
Ntp686
Rp687
(dp688
g136
Nsg137
I00
sg138
g477
sg131
Nsbsg137
I01
sbsg137
I01
sbsg145
(lp689
g675
ag681
ag687
ag684
ag678
asg147
I5
sbag672
ag672
ag672
ag672
ag672
ag672
ag672
ag672
ag672
ag672
ag672
ag672
ag672
ag672
ag672
ag672
ag672
ag672
ag672
ag672
ag672
ag672
ag672
ag672
ag672
ag672
ag672
ag672
ag672
ag672
ag672
ag672
ag672
ag672
ag672
ag672
a(itree
PTree
p690
(dp691
g121
g122
(g123
g124
Ntp692
Rp693
(dp694
g128
I2
sg136
g122
(g132
g124
Ntp695
Rp696
(dp697
g136
Nsg137
I00
sg138
S'Flood_Control'
p698
sg131
Nsbsg129
g204
sg144
F78.64646066046313
sg131
g122
(g123
g124
Ntp699
Rp700
(dp701
g128
I0
sg136
g122
(g132
g124
Ntp702
Rp703
(dp704
g136
Nsg137
I00
sg138
S'Release_Demand'
p705
sg131
Nsbsg129
g130
sg144
F618.5373970766562
sg131
g122
(g132
g124
Ntp706
Rp707
(dp708
g136
Nsg137
I00
sg138
g477
sg131
Nsbsg137
I01
sbsg137
I01
sbsg145
(lp709
g693
ag700
ag707
ag703
ag696
asg147
I5
sbag690
ag690
ag690
ag690
ag690
ag690
ag690
ag690
ag690
ag690
ag690
ag690
ag690
ag690
ag690
ag690
ag690
ag690
ag690
ag690
ag690
ag690
ag690
ag690
ag690
ag690
ag690
ag690
ag690
ag690
ag690
ag690
ag690
ag690
ag690
ag690
ag690
ag690
ag690
ag690
ag690
ag690
ag690
ag690
ag690
ag690
ag690
ag690
ag690
ag690
ag690
ag690
ag690
ag690
ag690
ag690
ag690
ag690
ag690
ag690
ag690
ag690
ag690
ag690
ag690
ag690
ag690
ag690
ag690
ag690
ag690
ag690
ag690
ag690
ag690
ag690
ag690
ag690
ag690
ag690
ag690
ag690
ag690
ag690
ag690
ag690
ag690
ag690
ag690
ag690
ag690
ag690
ag690
ag690
ag690
ag690
ag690
ag690
ag690
ag690
ag690
ag690
ag690
ag690
ag690
ag690
ag690
ag690
ag690
ag690
ag690
ag690
ag690
ag690
ag690
ag690
ag690
ag690
ag690
ag690
ag690
ag690
ag690
ag690
ag690
ag690
ag690
ag690
ag690
ag690
ag690
ag690
ag690
ag690
ag690
ag690
ag690
ag690
a(itree
PTree
p710
(dp711
g121
g122
(g123
g124
Ntp712
Rp713
(dp714
g128
I2
sg136
g122
(g132
g124
Ntp715
Rp716
(dp717
g136
Nsg137
I00
sg138
S'Flood_Control'
p718
sg131
Nsbsg129
g204
sg144
F78.1339183809491
sg131
g122
(g123
g124
Ntp719
Rp720
(dp721
g128
I0
sg136
g122
(g132
g124
Ntp722
Rp723
(dp724
g136
Nsg137
I00
sg138
S'Release_Demand'
p725
sg131
Nsbsg129
g130
sg144
F618.3694899874251
sg131
g122
(g132
g124
Ntp726
Rp727
(dp728
g136
Nsg137
I00
sg138
S'Hedge_80'
p729
sg131
Nsbsg137
I01
sbsg137
I01
sbsg145
(lp730
g713
ag720
ag727
ag723
ag716
asg147
I5
sbag710
ag710
ag710
ag710
ag710
ag710
ag710
ag710
ag710
ag710
ag710
asS'time'
p731
(lp732
I65
aI99
aI131
aI163
aI195
aI227
aI259
aI290
aI322
aI353
aI385
aI416
aI448
aI480
aI511
aI543
aI574
aI605
aI637
aI668
aI700
aI732
aI763
aI795
aI826
aI857
aI889
aI920
aI952
aI984
aI1015
aI1047
aI1079
aI1111
aI1143
aI1175
aI1206
aI1238
aI1270
aI1302
aI1334
aI1366
aI1398
aI1430
aI1461
aI1493
aI1525
aI1557
aI1589
aI1621
aI1653
aI1685
aI1718
aI1750
aI1782
aI1814
aI1846
aI1879
aI1911
aI1943
aI1976
aI2007
aI2039
aI2072
aI2104
aI2137
aI2169
aI2201
aI2233
aI2265
aI2297
aI2329
aI2362
aI2394
aI2427
aI2459
aI2492
aI2524
aI2556
aI2588
aI2620
aI2652
aI2685
aI2717
aI2749
aI2781
aI2814
aI2846
aI2879
aI2912
aI2944
aI2976
aI3008
aI3040
aI3072
aI3103
aI3135
aI3166
aI3198
aI3230
aI3262
aI3294
aI3325
aI3357
aI3389
aI3421
aI3453
aI3485
aI3518
aI3550
aI3582
aI3614
aI3645
aI3678
aI3709
aI3741
aI3773
aI3805
aI3837
aI3870
aI3902
aI3934
aI3966
aI3998
aI4030
aI4063
aI4095
aI4127
aI4159
aI4190
aI4223
aI4255
aI4287
aI4319
aI4351
aI4383
aI4415
aI4447
aI4478
aI4511
aI4543
aI4575
aI4607
aI4639
aI4671
aI4704
aI4736
aI4768
aI4800
aI4832
aI4865
aI4897
aI4930
aI4962
aI4994
aI5026
aI5058
aI5091
aI5123
aI5155
aI5187
aI5219
aI5251
aI5284
aI5316
aI5348
aI5380
aI5412
aI5444
aI5476
aI5509
aI5540
aI5572
aI5604
aI5636
aI5668
aI5701
aI5733
aI5765
aI5797
aI5829
aI5861
aI5894
aI5926
aI5959
aI5991
aI6023
aI6055
aI6088
aI6121
aI6152
aI6184
aI6217
aI6248
aI6281
aI6313
aI6345
aI6377
aI6410
aI6442
aI6474
aI6506
aI6539
aI6571
aI6603
aI6635
aI6667
aI6699
aI6731
aI6763
aI6795
aI6827
aI6860
aI6892
aI6924
aI6956
aI6988
aI7021
aI7053
aI7085
aI7117
aI7150
aI7182
aI7214
aI7246
aI7279
aI7311
aI7344
aI7376
aI7408
aI7441
aI7473
aI7506
aI7538
aI7570
aI7602
aI7635
aI7667
aI7700
aI7732
aI7765
aI7797
aI7829
aI7861
aI7893
aI7925
aI7957
aI7990
aI8023
aI8055
aI8087
aI8120
aI8152
aI8185
aI8217
aI8249
aI8281
aI8313
aI8346
aI8377
aI8410
aI8443
aI8474
aI8507
aI8539
aI8571
aI8602
aI8635
aI8667
aI8699
aI8731
aI8763
aI8795
aI8828
aI8860
aI8892
aI8924
aI8955
aI8987
aI9020
aI9052
aI9084
aI9116
aI9149
aI9181
aI9213
aI9244
aI9276
aI9308
aI9339
aI9371
aI9403
aI9435
aI9466
aI9498
aI9529
aI9561
aI9593
aI9624
aI9656
aI9687
aI9719
aI9750
aI9783
aI9815
aI9846
aI9878
aI9909
aI9941
aI9972
aI10004
aI10035
aI10067
aI10099
aI10131
aI10162
aI10193
aI10225
aI10257
aI10289
aI10320
aI10352
aI10383
aI10415
aI10447
aI10479
aI10510
aI10542
aI10573
aI10605
aI10637
aI10669
aI10700
aI10732
aI10763
aI10795
aI10826
aI10858
aI10890
aI10922
aI10954
aI10986
aI11018
aI11050
aI11081
aI11113
aI11145
aI11176
aI11208
aI11239
aI11271
aI11303
aI11335
aI11366
aI11398
aI11429
aI11461
aI11494
aI11525
aI11557
aI11589
aI11621
aI11653
aI11685
aI11716
aI11749
aI11780
aI11812
aI11844
aI11876
aI11907
aI11938
aI11970
aI12001
aI12033
aI12064
aI12096
aI12128
aI12159
aI12191
aI12223
aI12255
aI12286
aI12318
aI12349
aI12381
aI12413
aI12444
aI12476
aI12507
aI12539
aI12570
aI12603
aI12634
aI12666
aI12697
aI12728
aI12759
aI12790
aI12821
aI12852
aI12883
aI12915
aI12946
aI12977
aI13008
aI13039
aI13070
aI13101
aI13132
aI13163
aI13194
aI13225
aI13256
aI13287
aI13318
aI13349
aI13380
aI13411
aI13442
aI13474
aI13505
aI13536
aI13567
aI13598
aI13629
aI13661
aI13692
aI13723
aI13754
aI13786
aI13816
aI13848
aI13879
aI13910
aI13941
aI13972
aI14003
aI14034
aI14065
aI14097
aI14128
aI14159
aI14190
aI14220
aI14251
aI14282
aI14313
aI14344
aI14375
aI14406
aI14437
aI14468
aI14499
aI14529
aI14561
aI14591
aI14622
aI14654
aI14685
aI14716
aI14747
aI14778
aI14809
aI14840
aI14871
aI14902
aI14933
aI14964
aI14995
aI15026
aI15057
aI15088
aI15119
aI15150
aI15181
aI15212
aI15243
aI15274
aI15306
aI15337
aI15368
aI15399
aI15430
aI15461
aI15492
aI15523
aI15554
aI15586
aI15617
aI15648
aI15679
aI15710
aI15742
aI15772
aI15804
aI15835
aI15866
aI15898
aI15930
as.