(dp0
S'nfe'
p1
(lp2
I50
aI100
aI150
aI200
aI250
aI300
aI350
aI400
aI450
aI500
aI550
aI600
aI650
aI700
aI750
aI800
aI850
aI900
aI950
aI1000
aI1050
aI1100
aI1150
aI1200
aI1250
aI1300
aI1350
aI1400
aI1450
aI1500
aI1550
aI1600
aI1650
aI1700
aI1750
aI1800
aI1850
aI1900
aI1950
aI2000
aI2050
aI2100
aI2150
aI2200
aI2250
aI2300
aI2350
aI2400
aI2450
aI2500
aI2550
aI2600
aI2650
aI2700
aI2750
aI2800
aI2850
aI2900
aI2950
aI3000
aI3050
aI3100
aI3150
aI3200
aI3250
aI3300
aI3350
aI3400
aI3450
aI3500
aI3550
aI3600
aI3650
aI3700
aI3750
aI3800
aI3850
aI3900
aI3950
aI4000
aI4050
aI4100
aI4150
aI4200
aI4250
aI4300
aI4350
aI4400
aI4450
aI4500
aI4550
aI4600
aI4650
aI4700
aI4750
aI4800
aI4850
aI4900
aI4950
aI5000
aI5050
aI5100
aI5150
aI5200
aI5250
aI5300
aI5350
aI5400
aI5450
aI5500
aI5550
aI5600
aI5650
aI5700
aI5750
aI5800
aI5850
aI5900
aI5950
aI6000
aI6050
aI6100
aI6150
aI6200
aI6250
aI6300
aI6350
aI6400
aI6450
aI6500
aI6550
aI6600
aI6650
aI6700
aI6750
aI6800
aI6850
aI6900
aI6950
aI7000
aI7050
aI7100
aI7150
aI7200
aI7250
aI7300
aI7350
aI7400
aI7450
aI7500
aI7550
aI7600
aI7650
aI7700
aI7750
aI7800
aI7850
aI7900
aI7950
aI8000
aI8050
aI8100
aI8150
aI8200
aI8250
aI8300
aI8350
aI8400
aI8450
aI8500
aI8550
aI8600
aI8650
aI8700
aI8750
aI8800
aI8850
aI8900
aI8950
aI9000
aI9050
aI9100
aI9150
aI9200
aI9250
aI9300
aI9350
aI9400
aI9450
aI9500
aI9550
aI9600
aI9650
aI9700
aI9750
aI9800
aI9850
aI9900
aI9950
aI10000
aI10050
aI10100
aI10150
aI10200
aI10250
aI10300
aI10350
aI10400
aI10450
aI10500
aI10550
aI10600
aI10650
aI10700
aI10750
aI10800
aI10850
aI10900
aI10950
aI11000
aI11050
aI11100
aI11150
aI11200
aI11250
aI11300
aI11350
aI11400
aI11450
aI11500
aI11550
aI11600
aI11650
aI11700
aI11750
aI11800
aI11850
aI11900
aI11950
aI12000
aI12050
aI12100
aI12150
aI12200
aI12250
aI12300
aI12350
aI12400
aI12450
aI12500
aI12550
aI12600
aI12650
aI12700
aI12750
aI12800
aI12850
aI12900
aI12950
aI13000
aI13050
aI13100
aI13150
aI13200
aI13250
aI13300
aI13350
aI13400
aI13450
aI13500
aI13550
aI13600
aI13650
aI13700
aI13750
aI13800
aI13850
aI13900
aI13950
aI14000
aI14050
aI14100
aI14150
aI14200
aI14250
aI14300
aI14350
aI14400
aI14450
aI14500
aI14550
aI14600
aI14650
aI14700
aI14750
aI14800
aI14850
aI14900
aI14950
aI15000
aI15050
aI15100
aI15150
aI15200
aI15250
aI15300
aI15350
aI15400
aI15450
aI15500
aI15550
aI15600
aI15650
aI15700
aI15750
aI15800
aI15850
aI15900
aI15950
aI16000
aI16050
aI16100
aI16150
aI16200
aI16250
aI16300
aI16350
aI16400
aI16450
aI16500
aI16550
aI16600
aI16650
aI16700
aI16750
aI16800
aI16850
aI16900
aI16950
aI17000
aI17050
aI17100
aI17150
aI17200
aI17250
aI17300
aI17350
aI17400
aI17450
aI17500
aI17550
aI17600
aI17650
aI17700
aI17750
aI17800
aI17850
aI17900
aI17950
aI18000
aI18050
aI18100
aI18150
aI18200
aI18250
aI18300
aI18350
aI18400
aI18450
aI18500
aI18550
aI18600
aI18650
aI18700
aI18750
aI18800
aI18850
aI18900
aI18950
aI19000
aI19050
aI19100
aI19150
aI19200
aI19250
aI19300
aI19350
aI19400
aI19450
aI19500
aI19550
aI19600
aI19650
aI19700
aI19750
aI19800
aI19850
aI19900
aI19950
aI20000
asS'best_f'
p3
(lp4
cnumpy.core.multiarray
scalar
p5
(cnumpy
dtype
p6
(S'f8'
p7
I0
I1
tp8
Rp9
(I3
S'<'
p10
NNNI-1
I-1
I0
tp11
bS'y\xe06\xbc\xc5\xa0\xea?'
p12
tp13
Rp14
ag5
(g9
S'\x7fFG\xd8\xc5;\xe5?'
p15
tp16
Rp17
ag5
(g9
S'(\x1d\xef\xa7\x89\xaf\xdf?'
p18
tp19
Rp20
ag5
(g9
S'\x8fd\xc0\x93\xd2\xbb\xde?'
p21
tp22
Rp23
ag5
(g9
S'qG\xd7cY\x98\xd8?'
p24
tp25
Rp26
ag5
(g9
S'^\x15\xf3#\xae8\xd7?'
p27
tp28
Rp29
ag29
ag29
ag29
ag5
(g9
S'\x12\x0c\xe2\xc7\xa8\xaf\xd4?'
p30
tp31
Rp32
ag32
ag5
(g9
S'\xf6\xe40\x9eR\xd3\xd2?'
p33
tp34
Rp35
ag35
ag35
ag35
ag5
(g9
S'\x04\xb0\x14\x14\x88y\xd2?'
p36
tp37
Rp38
ag38
ag38
ag38
ag38
ag38
ag38
ag38
ag38
ag38
ag38
ag38
ag38
ag38
ag38
ag38
ag38
ag38
ag38
ag38
ag38
ag38
ag38
ag38
ag38
ag38
ag38
ag38
ag38
ag38
ag38
ag38
ag38
ag38
ag38
ag38
ag38
ag38
ag38
ag5
(g9
S'\x1a\xdf=\xf6Kt\xd2?'
p39
tp40
Rp41
ag41
ag41
ag41
ag41
ag41
ag41
ag41
ag41
ag41
ag41
ag41
ag41
ag41
ag41
ag41
ag41
ag41
ag41
ag41
ag41
ag41
ag5
(g9
S"\x8cm'\xf0(.\xd2?"
p42
tp43
Rp44
ag44
ag44
ag44
ag44
ag44
ag44
ag44
ag44
ag44
ag5
(g9
S'E \x10E\xd6\t\xc9?'
p45
tp46
Rp47
ag47
ag47
ag47
ag47
ag47
ag47
ag5
(g9
S'BUW@\xfdT\xc8?'
p48
tp49
Rp50
ag50
ag50
ag50
ag50
ag50
ag50
ag50
ag50
ag50
ag50
ag50
ag50
ag50
ag50
ag5
(g9
S'\xf1\x93\xb05\xfd_\xc5?'
p51
tp52
Rp53
ag5
(g9
S'\xdd3X\xca\xa6q\xb7?'
p54
tp55
Rp56
ag56
ag56
ag56
ag56
ag56
ag56
ag56
ag56
ag56
ag56
ag56
ag56
ag56
ag56
ag56
ag56
ag56
ag56
ag56
ag56
ag56
ag5
(g9
S'\xcd\xc3x\xdb\rq\xb7?'
p57
tp58
Rp59
ag59
ag59
ag59
ag5
(g9
S'2N9n\xabe\xb7?'
p60
tp61
Rp62
ag62
ag62
ag62
ag62
ag62
ag62
ag62
ag62
ag62
ag62
ag62
ag62
ag62
ag62
ag62
ag62
ag62
ag62
ag62
ag62
ag62
ag62
ag5
(g9
S'8\xac \xb2\xe4c\xb7?'
p63
tp64
Rp65
ag65
ag65
ag65
ag65
ag65
ag65
ag65
ag65
ag65
ag65
ag65
ag65
ag65
ag65
ag65
ag65
ag65
ag65
ag65
ag65
ag65
ag65
ag65
ag65
ag65
ag65
ag65
ag65
ag65
ag65
ag65
ag65
ag65
ag65
ag65
ag65
ag65
ag65
ag65
ag65
ag65
ag65
ag65
ag65
ag65
ag65
ag65
ag65
ag65
ag65
ag65
ag65
ag65
ag65
ag65
ag65
ag65
ag65
ag65
ag65
ag65
ag65
ag65
ag65
ag65
ag65
ag65
ag65
ag65
ag65
ag65
ag65
ag65
ag65
ag65
ag65
ag65
ag65
ag65
ag65
ag65
ag65
ag65
ag65
ag65
ag65
ag65
ag65
ag65
ag65
ag65
ag65
ag65
ag65
ag65
ag65
ag65
ag65
ag65
ag65
ag65
ag65
ag65
ag65
ag65
ag65
ag65
ag65
ag65
ag65
ag65
ag65
ag65
ag65
ag65
ag65
ag65
ag65
ag65
ag65
ag65
ag65
ag65
ag65
ag65
ag65
ag65
ag65
ag65
ag65
ag65
ag65
ag65
ag65
ag65
ag65
ag65
ag65
ag65
ag65
ag65
ag65
ag65
ag65
ag65
ag65
ag65
ag65
ag65
ag65
ag65
ag65
ag65
ag65
ag65
ag65
ag65
ag65
ag65
ag65
ag65
ag65
ag65
ag65
ag65
ag65
ag65
ag65
ag65
ag65
ag65
ag65
ag65
ag65
ag65
ag65
ag65
ag65
ag65
ag65
ag65
ag65
ag65
ag65
ag65
ag65
ag65
ag65
ag65
ag65
ag65
ag65
ag65
ag65
ag65
ag65
ag65
ag65
ag65
ag65
ag65
ag65
ag65
ag65
ag65
ag65
ag65
ag65
ag65
ag65
ag65
ag65
ag65
ag65
ag65
ag65
ag65
ag65
ag65
ag65
ag65
ag65
ag65
ag65
ag65
ag65
ag65
ag65
ag65
ag65
ag65
ag65
ag65
ag65
ag65
ag65
ag65
ag65
ag65
ag65
ag65
asS'best_P'
p66
(lp67
(itree
PTree
p68
(dp69
S'root'
p70
ccopy_reg
_reconstructor
p71
(ctree
Feature
p72
c__builtin__
object
p73
Ntp74
Rp75
(dp76
S'index'
p77
I0
sS'name'
p78
S'Storage'
p79
sS'l'
p80
g71
(ctree
Action
p81
g73
Ntp82
Rp83
(dp84
S'r'
p85
NsS'is_feature'
p86
I00
sS'value'
p87
S'Hedge_80'
p88
sg80
Nsbsg85
g71
(g81
g73
Ntp89
Rp90
(dp91
g85
Nsg86
I00
sg87
S'Flood_Control'
p92
sg80
NsbsS'threshold'
p93
F347.93782945498896
sg86
I01
sbsS'L'
p94
(lp95
g75
ag83
ag90
asS'N'
p96
I3
sba(itree
PTree
p97
(dp98
g70
g71
(g72
g73
Ntp99
Rp100
(dp101
g77
I0
sg85
g71
(g81
g73
Ntp102
Rp103
(dp104
g85
Nsg86
I00
sg87
g92
sg80
Nsbsg78
g79
sg93
F489.6218898877661
sg80
g71
(g81
g73
Ntp105
Rp106
(dp107
g85
Nsg86
I00
sg87
g88
sg80
Nsbsg86
I01
sbsg94
(lp108
g100
ag106
ag103
asg96
I3
sba(itree
PTree
p109
(dp110
g70
g71
(g72
g73
Ntp111
Rp112
(dp113
g77
I0
sg85
g71
(g81
g73
Ntp114
Rp115
(dp116
g85
Nsg86
I00
sg87
S'Flood_Control'
p117
sg80
Nsbsg78
g79
sg93
F465.4561592885374
sg80
g71
(g81
g73
Ntp118
Rp119
(dp120
g85
Nsg86
I00
sg87
S'Release_Demand'
p121
sg80
Nsbsg86
I01
sbsg94
(lp122
g112
ag119
ag115
asg96
I3
sba(itree
PTree
p123
(dp124
g70
g71
(g72
g73
Ntp125
Rp126
(dp127
g77
I0
sg85
g71
(g81
g73
Ntp128
Rp129
(dp130
g85
Nsg86
I00
sg87
g117
sg80
Nsbsg78
g79
sg93
F442.64344568636403
sg80
g71
(g81
g73
Ntp131
Rp132
(dp133
g85
Nsg86
I00
sg87
S'Hedge_90'
p134
sg80
Nsbsg86
I01
sbsg94
(lp135
g126
ag132
ag129
asg96
I3
sba(itree
PTree
p136
(dp137
g70
g71
(g72
g73
Ntp138
Rp139
(dp140
g77
I0
sg85
g71
(g81
g73
Ntp141
Rp142
(dp143
g85
Nsg86
I00
sg87
g117
sg80
Nsbsg78
g79
sg93
F504.2812603893987
sg80
g71
(g81
g73
Ntp144
Rp145
(dp146
g85
Nsg86
I00
sg87
g134
sg80
Nsbsg86
I01
sbsg94
(lp147
g139
ag145
ag142
asg96
I3
sba(itree
PTree
p148
(dp149
g70
g71
(g72
g73
Ntp150
Rp151
(dp152
g77
I0
sg85
g71
(g81
g73
Ntp153
Rp154
(dp155
g85
Nsg86
I00
sg87
g117
sg80
Nsbsg78
g79
sg93
F601.8248095705902
sg80
g71
(g81
g73
Ntp156
Rp157
(dp158
g85
Nsg86
I00
sg87
g121
sg80
Nsbsg86
I01
sbsg94
(lp159
g151
ag157
ag154
asg96
I3
sbag148
ag148
ag148
a(itree
PTree
p160
(dp161
g70
g71
(g72
g73
Ntp162
Rp163
(dp164
g77
I0
sg85
g71
(g81
g73
Ntp165
Rp166
(dp167
g85
Nsg86
I00
sg87
S'Flood_Control'
p168
sg80
Nsbsg78
g79
sg93
F668.2654548530392
sg80
g71
(g81
g73
Ntp169
Rp170
(dp171
g85
Nsg86
I00
sg87
S'Release_Demand'
p172
sg80
Nsbsg86
I01
sbsg94
(lp173
g163
ag170
ag166
asg96
I3
sbag160
a(itree
PTree
p174
(dp175
g70
g71
(g72
g73
Ntp176
Rp177
(dp178
g77
I0
sg85
g71
(g81
g73
Ntp179
Rp180
(dp181
g85
Nsg86
I00
sg87
g168
sg80
Nsbsg78
g79
sg93
F654.3164440050932
sg80
g71
(g81
g73
Ntp182
Rp183
(dp184
g85
Nsg86
I00
sg87
g172
sg80
Nsbsg86
I01
sbsg94
(lp185
g177
ag183
ag180
asg96
I3
sbag174
ag174
ag174
a(itree
PTree
p186
(dp187
g70
g71
(g72
g73
Ntp188
Rp189
(dp190
g77
I0
sg85
g71
(g81
g73
Ntp191
Rp192
(dp193
g85
Nsg86
I00
sg87
g168
sg80
Nsbsg78
g79
sg93
F648.9113639428156
sg80
g71
(g81
g73
Ntp194
Rp195
(dp196
g85
Nsg86
I00
sg87
S'Release_Demand'
p197
sg80
Nsbsg86
I01
sbsg94
(lp198
g189
ag195
ag192
asg96
I3
sbag186
ag186
ag186
ag186
ag186
ag186
ag186
ag186
ag186
ag186
ag186
ag186
ag186
ag186
ag186
ag186
ag186
ag186
ag186
ag186
ag186
ag186
ag186
ag186
ag186
ag186
ag186
ag186
ag186
ag186
ag186
ag186
ag186
ag186
ag186
ag186
ag186
ag186
a(itree
PTree
p199
(dp200
g70
g71
(g72
g73
Ntp201
Rp202
(dp203
g77
I0
sg85
g71
(g81
g73
Ntp204
Rp205
(dp206
g85
Nsg86
I00
sg87
S'Flood_Control'
p207
sg80
Nsbsg78
g79
sg93
F648.7917637206099
sg80
g71
(g81
g73
Ntp208
Rp209
(dp210
g85
Nsg86
I00
sg87
S'Release_Demand'
p211
sg80
Nsbsg86
I01
sbsg94
(lp212
g202
ag209
ag205
asg96
I3
sbag199
ag199
ag199
ag199
ag199
ag199
ag199
ag199
ag199
ag199
ag199
ag199
ag199
ag199
ag199
ag199
ag199
ag199
ag199
ag199
ag199
a(itree
PTree
p213
(dp214
g70
g71
(g72
g73
Ntp215
Rp216
(dp217
g77
I0
sg85
g71
(g81
g73
Ntp218
Rp219
(dp220
g85
Nsg86
I00
sg87
g207
sg80
Nsbsg78
g79
sg93
F750.3818455870003
sg80
g71
(g81
g73
Ntp221
Rp222
(dp223
g85
Nsg86
I00
sg87
S'Hedge_90'
p224
sg80
Nsbsg86
I01
sbsg94
(lp225
g216
ag222
ag219
asg96
I3
sbag213
ag213
ag213
ag213
ag213
ag213
ag213
ag213
ag213
a(itree
PTree
p226
(dp227
g70
g71
(g72
g73
Ntp228
Rp229
(dp230
g77
I1
sg85
g71
(g81
g73
Ntp231
Rp232
(dp233
g85
Nsg86
I00
sg87
S'Release_Demand'
p234
sg80
Nsbsg78
S'Day'
p235
sg93
F110.31258450253794
sg80
g71
(g72
g73
Ntp236
Rp237
(dp238
g77
I0
sg85
g71
(g81
g73
Ntp239
Rp240
(dp241
g85
Nsg86
I00
sg87
S'Flood_Control'
p242
sg80
Nsbsg78
g79
sg93
F746.4681945989212
sg80
g71
(g81
g73
Ntp243
Rp244
(dp245
g85
Nsg86
I00
sg87
S'Hedge_80'
p246
sg80
Nsbsg86
I01
sbsg86
I01
sbsg94
(lp247
g229
ag237
ag244
ag240
ag232
asg96
I5
sbag226
ag226
ag226
ag226
ag226
ag226
a(itree
PTree
p248
(dp249
g70
g71
(g72
g73
Ntp250
Rp251
(dp252
g77
I1
sg85
g71
(g81
g73
Ntp253
Rp254
(dp255
g85
Nsg86
I00
sg87
g234
sg80
Nsbsg78
g235
sg93
F98.17942211937819
sg80
g71
(g72
g73
Ntp256
Rp257
(dp258
g77
I0
sg85
g71
(g81
g73
Ntp259
Rp260
(dp261
g85
Nsg86
I00
sg87
g242
sg80
Nsbsg78
g79
sg93
F713.9371125513775
sg80
g71
(g81
g73
Ntp262
Rp263
(dp264
g85
Nsg86
I00
sg87
g246
sg80
Nsbsg86
I01
sbsg86
I01
sbsg94
(lp265
g251
ag257
ag263
ag260
ag254
asg96
I5
sbag248
ag248
ag248
ag248
ag248
ag248
ag248
ag248
ag248
ag248
ag248
ag248
ag248
ag248
a(itree
PTree
p266
(dp267
g70
g71
(g72
g73
Ntp268
Rp269
(dp270
g77
I1
sg85
g71
(g81
g73
Ntp271
Rp272
(dp273
g85
Nsg86
I00
sg87
S'Hedge_90'
p274
sg80
Nsbsg78
g235
sg93
F132.9852094906263
sg80
g71
(g72
g73
Ntp275
Rp276
(dp277
g77
I0
sg85
g71
(g81
g73
Ntp278
Rp279
(dp280
g85
Nsg86
I00
sg87
S'Flood_Control'
p281
sg80
Nsbsg78
g79
sg93
F583.3509038119408
sg80
g71
(g81
g73
Ntp282
Rp283
(dp284
g85
Nsg86
I00
sg87
S'Hedge_90'
p285
sg80
Nsbsg86
I01
sbsg86
I01
sbsg94
(lp286
g269
ag276
ag283
ag279
ag272
asg96
I5
sba(itree
PTree
p287
(dp288
g70
g71
(g72
g73
Ntp289
Rp290
(dp291
g77
I1
sg85
g71
(g81
g73
Ntp292
Rp293
(dp294
g85
Nsg86
I00
sg87
S'Hedge_90'
p295
sg80
Nsbsg78
g235
sg93
F112.39171865332841
sg80
g71
(g72
g73
Ntp296
Rp297
(dp298
g77
I0
sg85
g71
(g81
g73
Ntp299
Rp300
(dp301
g85
Nsg86
I00
sg87
S'Flood_Control'
p302
sg80
Nsbsg78
g79
sg93
F734.6639161695331
sg80
g71
(g81
g73
Ntp303
Rp304
(dp305
g85
Nsg86
I00
sg87
S'Release_Demand'
p306
sg80
Nsbsg86
I01
sbsg86
I01
sbsg94
(lp307
g290
ag297
ag304
ag300
ag293
asg96
I5
sbag287
ag287
ag287
ag287
ag287
ag287
ag287
ag287
ag287
ag287
ag287
ag287
ag287
ag287
ag287
ag287
ag287
ag287
ag287
ag287
ag287
a(itree
PTree
p308
(dp309
g70
g71
(g72
g73
Ntp310
Rp311
(dp312
g77
I1
sg85
g71
(g81
g73
Ntp313
Rp314
(dp315
g85
Nsg86
I00
sg87
S'Hedge_90'
p316
sg80
Nsbsg78
g235
sg93
F101.48031141991994
sg80
g71
(g72
g73
Ntp317
Rp318
(dp319
g77
I0
sg85
g71
(g81
g73
Ntp320
Rp321
(dp322
g85
Nsg86
I00
sg87
S'Flood_Control'
p323
sg80
Nsbsg78
g79
sg93
F747.7809389193158
sg80
g71
(g81
g73
Ntp324
Rp325
(dp326
g85
Nsg86
I00
sg87
S'Release_Demand'
p327
sg80
Nsbsg86
I01
sbsg86
I01
sbsg94
(lp328
g311
ag318
ag325
ag321
ag314
asg96
I5
sbag308
ag308
ag308
a(itree
PTree
p329
(dp330
g70
g71
(g72
g73
Ntp331
Rp332
(dp333
g77
I1
sg85
g71
(g81
g73
Ntp334
Rp335
(dp336
g85
Nsg86
I00
sg87
S'Hedge_90'
p337
sg80
Nsbsg78
g235
sg93
F105.28521325468857
sg80
g71
(g72
g73
Ntp338
Rp339
(dp340
g77
I0
sg85
g71
(g81
g73
Ntp341
Rp342
(dp343
g85
Nsg86
I00
sg87
g302
sg80
Nsbsg78
g79
sg93
F738.8197788834458
sg80
g71
(g81
g73
Ntp344
Rp345
(dp346
g85
Nsg86
I00
sg87
S'Release_Demand'
p347
sg80
Nsbsg86
I01
sbsg86
I01
sbsg94
(lp348
g332
ag339
ag345
ag342
ag335
asg96
I5
sbag329
ag329
ag329
ag329
ag329
ag329
ag329
ag329
ag329
ag329
ag329
ag329
ag329
ag329
ag329
ag329
ag329
ag329
ag329
ag329
ag329
ag329
a(itree
PTree
p349
(dp350
g70
g71
(g72
g73
Ntp351
Rp352
(dp353
g77
I1
sg85
g71
(g81
g73
Ntp354
Rp355
(dp356
g85
Nsg86
I00
sg87
g295
sg80
Nsbsg78
g235
sg93
F104.82327621152206
sg80
g71
(g72
g73
Ntp357
Rp358
(dp359
g77
I0
sg85
g71
(g81
g73
Ntp360
Rp361
(dp362
g85
Nsg86
I00
sg87
g302
sg80
Nsbsg78
g79
sg93
F727.3642841750553
sg80
g71
(g81
g73
Ntp363
Rp364
(dp365
g85
Nsg86
I00
sg87
g306
sg80
Nsbsg86
I01
sbsg86
I01
sbsg94
(lp366
g352
ag358
ag364
ag361
ag355
asg96
I5
sbag349
ag349
ag349
ag349
ag349
ag349
ag349
ag349
ag349
ag349
ag349
ag349
ag349
ag349
ag349
ag349
ag349
ag349
ag349
ag349
ag349
ag349
ag349
ag349
ag349
ag349
ag349
ag349
ag349
ag349
ag349
ag349
ag349
ag349
ag349
ag349
ag349
ag349
ag349
ag349
ag349
ag349
ag349
ag349
ag349
ag349
ag349
ag349
ag349
ag349
ag349
ag349
ag349
ag349
ag349
ag349
ag349
ag349
ag349
ag349
ag349
ag349
ag349
ag349
ag349
ag349
ag349
ag349
ag349
ag349
ag349
ag349
ag349
ag349
ag349
ag349
ag349
ag349
ag349
ag349
ag349
ag349
ag349
ag349
ag349
ag349
ag349
ag349
ag349
ag349
ag349
ag349
ag349
ag349
ag349
ag349
ag349
ag349
ag349
ag349
ag349
ag349
ag349
ag349
ag349
ag349
ag349
ag349
ag349
ag349
ag349
ag349
ag349
ag349
ag349
ag349
ag349
ag349
ag349
ag349
ag349
ag349
ag349
ag349
ag349
ag349
ag349
ag349
ag349
ag349
ag349
ag349
ag349
ag349
ag349
ag349
ag349
ag349
ag349
ag349
ag349
ag349
ag349
ag349
ag349
ag349
ag349
ag349
ag349
ag349
ag349
ag349
ag349
ag349
ag349
ag349
ag349
ag349
ag349
ag349
ag349
ag349
ag349
ag349
ag349
ag349
ag349
ag349
ag349
ag349
ag349
ag349
ag349
ag349
ag349
ag349
ag349
ag349
ag349
ag349
ag349
ag349
ag349
ag349
ag349
ag349
ag349
ag349
ag349
ag349
ag349
ag349
ag349
ag349
ag349
ag349
ag349
ag349
ag349
ag349
ag349
ag349
ag349
ag349
ag349
ag349
ag349
ag349
ag349
ag349
ag349
ag349
ag349
ag349
ag349
ag349
ag349
ag349
ag349
ag349
ag349
ag349
ag349
ag349
ag349
ag349
ag349
ag349
ag349
ag349
ag349
ag349
ag349
ag349
ag349
ag349
ag349
ag349
ag349
ag349
ag349
asS'time'
p367
(lp368
I56
aI84
aI111
aI140
aI166
aI189
aI219
aI244
aI270
aI295
aI320
aI347
aI374
aI399
aI423
aI448
aI481
aI506
aI532
aI560
aI585
aI610
aI635
aI659
aI684
aI710
aI735
aI761
aI786
aI810
aI835
aI860
aI886
aI912
aI936
aI964
aI1002
aI1028
aI1054
aI1080
aI1106
aI1130
aI1156
aI1181
aI1206
aI1233
aI1259
aI1283
aI1308
aI1334
aI1360
aI1385
aI1409
aI1434
aI1462
aI1491
aI1517
aI1544
aI1571
aI1601
aI1627
aI1653
aI1677
aI1702
aI1728
aI1753
aI1777
aI1802
aI1826
aI1852
aI1878
aI1905
aI1931
aI1957
aI1983
aI2008
aI2035
aI2063
aI2096
aI2121
aI2146
aI2171
aI2196
aI2229
aI2256
aI2282
aI2308
aI2335
aI2364
aI2392
aI2422
aI2447
aI2472
aI2497
aI2524
aI2558
aI2587
aI2613
aI2647
aI2674
aI2710
aI2740
aI2777
aI2803
aI2830
aI2856
aI2882
aI2908
aI2936
aI2963
aI2991
aI3018
aI3045
aI3072
aI3099
aI3125
aI3151
aI3179
aI3206
aI3234
aI3261
aI3288
aI3316
aI3344
aI3373
aI3400
aI3433
aI3460
aI3488
aI3517
aI3544
aI3572
aI3600
aI3629
aI3655
aI3683
aI3711
aI3739
aI3768
aI3795
aI3821
aI3847
aI3878
aI3908
aI3937
aI3965
aI3992
aI4019
aI4047
aI4076
aI4103
aI4131
aI4159
aI4186
aI4213
aI4241
aI4268
aI4294
aI4322
aI4350
aI4379
aI4408
aI4438
aI4467
aI4495
aI4524
aI4552
aI4581
aI4608
aI4636
aI4664
aI4694
aI4724
aI4754
aI4783
aI4814
aI4841
aI4867
aI4894
aI4920
aI4947
aI4976
aI5002
aI5031
aI5058
aI5086
aI5115
aI5143
aI5173
aI5202
aI5231
aI5259
aI5287
aI5314
aI5340
aI5367
aI5394
aI5426
aI5455
aI5482
aI5511
aI5539
aI5568
aI5597
aI5623
aI5649
aI5677
aI5706
aI5734
aI5761
aI5790
aI5820
aI5849
aI5878
aI5907
aI5936
aI5964
aI5992
aI6021
aI6048
aI6074
aI6101
aI6128
aI6156
aI6183
aI6210
aI6239
aI6269
aI6298
aI6327
aI6355
aI6384
aI6414
aI6444
aI6473
aI6501
aI6530
aI6559
aI6586
aI6613
aI6640
aI6668
aI6697
aI6726
aI6754
aI6782
aI6811
aI6840
aI6867
aI6894
aI6921
aI6950
aI6978
aI7005
aI7033
aI7060
aI7086
aI7114
aI7140
aI7166
aI7192
aI7221
aI7250
aI7278
aI7306
aI7336
aI7364
aI7393
aI7422
aI7451
aI7480
aI7508
aI7536
aI7565
aI7595
aI7623
aI7652
aI7681
aI7711
aI7739
aI7768
aI7797
aI7826
aI7856
aI7883
aI7911
aI7940
aI7969
aI7998
aI8027
aI8058
aI8086
aI8115
aI8143
aI8172
aI8201
aI8229
aI8256
aI8284
aI8311
aI8340
aI8368
aI8396
aI8424
aI8453
aI8480
aI8509
aI8538
aI8566
aI8597
aI8627
aI8656
aI8686
aI8715
aI8743
aI8773
aI8802
aI8832
aI8861
aI8889
aI8918
aI8946
aI8975
aI9004
aI9033
aI9063
aI9094
aI9124
aI9153
aI9182
aI9212
aI9240
aI9268
aI9296
aI9325
aI9355
aI9384
aI9414
aI9443
aI9471
aI9501
aI9529
aI9558
aI9587
aI9615
aI9644
aI9673
aI9701
aI9730
aI9759
aI9788
aI9817
aI9847
aI9875
aI9904
aI9932
aI9961
aI9989
aI10020
aI10049
aI10080
aI10109
aI10138
aI10167
aI10196
aI10226
aI10255
aI10283
aI10310
aI10340
aI10369
aI10398
aI10428
aI10457
aI10485
aI10514
aI10543
aI10573
aI10602
aI10632
aI10661
aI10689
aI10718
aI10747
aI10774
aI10803
aI10836
aI10865
aI10893
aI10922
aI10951
aI10978
aI11006
aI11035
aI11065
aI11093
aI11121
aI11149
aI11176
aI11204
as.