(dp0
S'nfe'
p1
(lp2
I50
aI100
aI150
aI200
aI250
aI300
aI350
aI400
aI450
aI500
aI550
aI600
aI650
aI700
aI750
aI800
aI850
aI900
aI950
aI1000
aI1050
aI1100
aI1150
aI1200
aI1250
aI1300
aI1350
aI1400
aI1450
aI1500
aI1550
aI1600
aI1650
aI1700
aI1750
aI1800
aI1850
aI1900
aI1950
aI2000
aI2050
aI2100
aI2150
aI2200
aI2250
aI2300
aI2350
aI2400
aI2450
aI2500
aI2550
aI2600
aI2650
aI2700
aI2750
aI2800
aI2850
aI2900
aI2950
aI3000
aI3050
aI3100
aI3150
aI3200
aI3250
aI3300
aI3350
aI3400
aI3450
aI3500
aI3550
aI3600
aI3650
aI3700
aI3750
aI3800
aI3850
aI3900
aI3950
aI4000
aI4050
aI4100
aI4150
aI4200
aI4250
aI4300
aI4350
aI4400
aI4450
aI4500
aI4550
aI4600
aI4650
aI4700
aI4750
aI4800
aI4850
aI4900
aI4950
aI5000
aI5050
aI5100
aI5150
aI5200
aI5250
aI5300
aI5350
aI5400
aI5450
aI5500
aI5550
aI5600
aI5650
aI5700
aI5750
aI5800
aI5850
aI5900
aI5950
aI6000
aI6050
aI6100
aI6150
aI6200
aI6250
aI6300
aI6350
aI6400
aI6450
aI6500
aI6550
aI6600
aI6650
aI6700
aI6750
aI6800
aI6850
aI6900
aI6950
aI7000
aI7050
aI7100
aI7150
aI7200
aI7250
aI7300
aI7350
aI7400
aI7450
aI7500
aI7550
aI7600
aI7650
aI7700
aI7750
aI7800
aI7850
aI7900
aI7950
aI8000
aI8050
aI8100
aI8150
aI8200
aI8250
aI8300
aI8350
aI8400
aI8450
aI8500
aI8550
aI8600
aI8650
aI8700
aI8750
aI8800
aI8850
aI8900
aI8950
aI9000
aI9050
aI9100
aI9150
aI9200
aI9250
aI9300
aI9350
aI9400
aI9450
aI9500
aI9550
aI9600
aI9650
aI9700
aI9750
aI9800
aI9850
aI9900
aI9950
aI10000
aI10050
aI10100
aI10150
aI10200
aI10250
aI10300
aI10350
aI10400
aI10450
aI10500
aI10550
aI10600
aI10650
aI10700
aI10750
aI10800
aI10850
aI10900
aI10950
aI11000
aI11050
aI11100
aI11150
aI11200
aI11250
aI11300
aI11350
aI11400
aI11450
aI11500
aI11550
aI11600
aI11650
aI11700
aI11750
aI11800
aI11850
aI11900
aI11950
aI12000
aI12050
aI12100
aI12150
aI12200
aI12250
aI12300
aI12350
aI12400
aI12450
aI12500
aI12550
aI12600
aI12650
aI12700
aI12750
aI12800
aI12850
aI12900
aI12950
aI13000
aI13050
aI13100
aI13150
aI13200
aI13250
aI13300
aI13350
aI13400
aI13450
aI13500
aI13550
aI13600
aI13650
aI13700
aI13750
aI13800
aI13850
aI13900
aI13950
aI14000
aI14050
aI14100
aI14150
aI14200
aI14250
aI14300
aI14350
aI14400
aI14450
aI14500
aI14550
aI14600
aI14650
aI14700
aI14750
aI14800
aI14850
aI14900
aI14950
aI15000
aI15050
aI15100
aI15150
aI15200
aI15250
aI15300
aI15350
aI15400
aI15450
aI15500
aI15550
aI15600
aI15650
aI15700
aI15750
aI15800
aI15850
aI15900
aI15950
aI16000
aI16050
aI16100
aI16150
aI16200
aI16250
aI16300
aI16350
aI16400
aI16450
aI16500
aI16550
aI16600
aI16650
aI16700
aI16750
aI16800
aI16850
aI16900
aI16950
aI17000
aI17050
aI17100
aI17150
aI17200
aI17250
aI17300
aI17350
aI17400
aI17450
aI17500
aI17550
aI17600
aI17650
aI17700
aI17750
aI17800
aI17850
aI17900
aI17950
aI18000
aI18050
aI18100
aI18150
aI18200
aI18250
aI18300
aI18350
aI18400
aI18450
aI18500
aI18550
aI18600
aI18650
aI18700
aI18750
aI18800
aI18850
aI18900
aI18950
aI19000
aI19050
aI19100
aI19150
aI19200
aI19250
aI19300
aI19350
aI19400
aI19450
aI19500
aI19550
aI19600
aI19650
aI19700
aI19750
aI19800
aI19850
aI19900
aI19950
aI20000
asS'best_f'
p3
(lp4
cnumpy.core.multiarray
scalar
p5
(cnumpy
dtype
p6
(S'f8'
p7
I0
I1
tp8
Rp9
(I3
S'<'
p10
NNNI-1
I-1
I0
tp11
bS'\xff\xc9\xc4\xb9\xf6\x88\xf3?'
p12
tp13
Rp14
ag5
(g9
S"\xa9'K\x85\x93\x96\xd7?"
p15
tp16
Rp17
ag17
ag5
(g9
S'\xd1\xd2q\xc8x\xca\xd6?'
p18
tp19
Rp20
ag20
ag5
(g9
S'(\x9d\x1e6\x8f;\xd6?'
p21
tp22
Rp23
ag23
ag23
ag23
ag5
(g9
S'\x96\xf1\xaa\xcdB\xf7\xd5?'
p24
tp25
Rp26
ag26
ag26
ag5
(g9
S's0\xd9\x89\x05\xb3\xd5?'
p27
tp28
Rp29
ag29
ag29
ag29
ag29
ag29
ag29
ag5
(g9
S'\xbb\xd3`K\x98\xaa\xd5?'
p30
tp31
Rp32
ag32
ag32
ag32
ag5
(g9
S'\xdf\xb7\xa2t[\x9e\xd5?'
p33
tp34
Rp35
ag35
ag35
ag35
ag35
ag5
(g9
S'2G[\xac\xb9\x9d\xd5?'
p36
tp37
Rp38
ag38
ag5
(g9
S'PI\xc1Uk\x04\xd5?'
p39
tp40
Rp41
ag41
ag41
ag5
(g9
S'\xa2=\xc7\x95\xad\x90\xd4?'
p42
tp43
Rp44
ag44
ag44
ag44
ag5
(g9
S'\xc6%Y\xb9\xe8\xdd\xd3?'
p45
tp46
Rp47
ag47
ag47
ag47
ag47
ag47
ag47
ag47
ag5
(g9
S'\xe6\xdc\xa0\x87#\xdb\xd3?'
p48
tp49
Rp50
ag5
(g9
S'\x0f\xa5\xf9\x85#\xdb\xd3?'
p51
tp52
Rp53
ag53
ag53
ag53
ag5
(g9
S'\xdb\x9f\x12V\xa1\xd7\xd3?'
p54
tp55
Rp56
ag56
ag56
ag56
ag56
ag56
ag56
ag56
ag56
ag56
ag5
(g9
S'\x02\xd4N\xdd\xd2\xba\xd3?'
p57
tp58
Rp59
ag59
ag59
ag59
ag59
ag59
ag59
ag59
ag5
(g9
S'\xb9\x05\x07\xa2 \xb7\xd3?'
p60
tp61
Rp62
ag62
ag62
ag62
ag62
ag62
ag62
ag62
ag5
(g9
S'\xc8;8\xdd#\x8c\xd3?'
p63
tp64
Rp65
ag65
ag65
ag65
ag65
ag65
ag65
ag65
ag65
ag65
ag65
ag65
ag65
ag5
(g9
S'\xe2J1\xdf\x92S\xd1?'
p66
tp67
Rp68
ag68
ag68
ag68
ag68
ag68
ag68
ag68
ag68
ag68
ag68
ag68
ag68
ag5
(g9
S'\x8e\xc6@\x86$1\xd1?'
p69
tp70
Rp71
ag71
ag71
ag71
ag71
ag71
ag71
ag71
ag71
ag71
ag71
ag71
ag71
ag71
ag71
ag71
ag71
ag71
ag71
ag71
ag71
ag71
ag71
ag71
ag71
ag71
ag71
ag71
ag71
ag71
ag71
ag71
ag71
ag71
ag71
ag71
ag71
ag71
ag71
ag71
ag5
(g9
S'\x1cv\x0c\xb3\r\xf5\xd0?'
p72
tp73
Rp74
ag74
ag74
ag74
ag5
(g9
S'\x1fO\xbc\xf7\x04\x10\xce?'
p75
tp76
Rp77
ag77
ag77
ag77
ag77
ag77
ag77
ag77
ag77
ag77
ag77
ag77
ag77
ag77
ag77
ag77
ag77
ag5
(g9
S'\xf1:\x90\x07\x819\xcb?'
p78
tp79
Rp80
ag80
ag80
ag5
(g9
S'Y\xd2h\xa1\xa1\xfc\xca?'
p81
tp82
Rp83
ag83
ag83
ag5
(g9
S'L\xf7\x1bI<\x9f\xca?'
p84
tp85
Rp86
ag86
ag86
ag5
(g9
S'\xdd\x08\x92\t\xf7t\xca?'
p87
tp88
Rp89
ag89
ag89
ag89
ag89
ag5
(g9
S'\x9b\xa4H\x93 \xed\xc9?'
p90
tp91
Rp92
ag92
ag92
ag92
ag92
ag92
ag92
ag92
ag92
ag92
ag92
ag92
ag5
(g9
S'5A\x84\x12\xca\x9f\xc9?'
p93
tp94
Rp95
ag95
ag5
(g9
S'\x19\x18w\x02S\xdf\xc8?'
p96
tp97
Rp98
ag98
ag98
ag98
ag98
ag98
ag98
ag98
ag98
ag98
ag98
ag98
ag98
ag98
ag98
ag98
ag98
ag98
ag98
ag98
ag98
ag98
ag98
ag98
ag98
ag98
ag5
(g9
S'\xc4O\xfbN\x13\xc9\xc8?'
p99
tp100
Rp101
ag101
ag101
ag101
ag101
ag101
ag101
ag101
ag101
ag101
ag101
ag101
ag101
ag101
ag101
ag101
ag101
ag101
ag101
ag101
ag101
ag101
ag101
ag101
ag101
ag101
ag101
ag101
ag101
ag101
ag101
ag5
(g9
S'\x8b\x7f\xe3\xa7\x90:\xc8?'
p102
tp103
Rp104
ag104
ag104
ag104
ag104
ag104
ag104
ag104
ag104
ag104
ag104
ag104
ag5
(g9
S'\xb2\xc7\xcdFa\xf0\xc7?'
p105
tp106
Rp107
ag107
ag107
ag107
ag107
ag107
ag107
ag107
ag107
ag107
ag107
ag107
ag107
ag107
ag107
ag107
ag107
ag107
ag107
ag107
ag107
ag107
ag107
ag107
ag107
ag107
ag107
ag107
ag107
ag107
ag107
ag107
ag107
ag107
ag107
ag107
ag107
ag107
ag107
ag107
ag107
ag107
ag107
ag107
ag107
ag107
ag107
ag107
ag107
ag107
ag107
ag107
ag107
ag107
ag107
ag107
ag107
ag107
ag107
ag5
(g9
S'\x92("\xd5\xde\xaa\xc7?'
p108
tp109
Rp110
ag110
ag110
ag110
ag110
ag110
ag110
ag110
ag110
ag110
ag110
ag110
ag110
ag110
ag110
ag110
ag110
ag110
ag110
ag110
ag110
ag110
ag110
ag110
ag110
ag110
ag110
ag110
ag110
ag110
ag110
ag110
ag110
ag110
ag110
ag110
ag110
ag110
ag110
ag110
ag110
ag110
ag110
ag110
ag110
ag110
ag110
ag110
ag110
ag110
ag110
ag110
ag110
ag110
ag5
(g9
S'c\x8a\x171D\x10\xc7?'
p111
tp112
Rp113
ag113
ag113
ag113
ag113
ag113
ag113
ag113
ag113
ag113
ag113
ag113
ag113
ag113
ag113
ag113
ag113
ag113
ag113
ag113
ag113
ag113
ag113
ag113
ag113
ag113
ag113
asS'best_P'
p114
(lp115
(itree
PTree
p116
(dp117
S'root'
p118
ccopy_reg
_reconstructor
p119
(ctree
Feature
p120
c__builtin__
object
p121
Ntp122
Rp123
(dp124
S'index'
p125
I0
sS'name'
p126
S'Storage'
p127
sS'l'
p128
g119
(g120
g121
Ntp129
Rp130
(dp131
g125
I1
sg126
S'Day'
p132
sg128
g119
(ctree
Action
p133
g121
Ntp134
Rp135
(dp136
S'r'
p137
NsS'is_feature'
p138
I00
sS'value'
p139
S'Hedge_60'
p140
sg128
Nsbsg137
g119
(g133
g121
Ntp141
Rp142
(dp143
g137
Nsg138
I00
sg139
S'Flood_Control'
p144
sg128
NsbsS'threshold'
p145
F20.571509808059414
sg138
I01
sbsg137
g119
(g120
g121
Ntp146
Rp147
(dp148
g125
I1
sg126
g132
sg128
g119
(g133
g121
Ntp149
Rp150
(dp151
g137
Nsg138
I00
sg139
S'Hedge_90'
p152
sg128
Nsbsg137
g119
(g120
g121
Ntp153
Rp154
(dp155
g125
I0
sg126
g127
sg128
g119
(g133
g121
Ntp156
Rp157
(dp158
g137
Nsg138
I00
sg139
S'Hedge_60'
p159
sg128
Nsbsg137
g119
(g133
g121
Ntp160
Rp161
(dp162
g137
Nsg138
I00
sg139
S'Hedge_80'
p163
sg128
Nsbsg145
F665.2217869706029
sg138
I01
sbsg145
F49.8281048804398
sg138
I01
sbsg145
F632.5235815544233
sg138
I01
sbsS'L'
p164
(lp165
g123
ag130
ag135
ag142
ag147
ag150
ag154
ag157
ag161
asS'N'
p166
I9
sba(itree
PTree
p167
(dp168
g118
g119
(g120
g121
Ntp169
Rp170
(dp171
g125
I0
sg137
g119
(g133
g121
Ntp172
Rp173
(dp174
g137
Nsg138
I00
sg139
S'Flood_Control'
p175
sg128
Nsbsg126
g127
sg145
F462.5402419430068
sg128
g119
(g133
g121
Ntp176
Rp177
(dp178
g137
Nsg138
I00
sg139
S'Hedge_90'
p179
sg128
Nsbsg138
I01
sbsg164
(lp180
g170
ag177
ag173
asg166
I3
sbag167
a(itree
PTree
p181
(dp182
g118
g119
(g120
g121
Ntp183
Rp184
(dp185
g125
I0
sg137
g119
(g133
g121
Ntp186
Rp187
(dp188
g137
Nsg138
I00
sg139
g175
sg128
Nsbsg126
g127
sg145
F488.7687367239253
sg128
g119
(g133
g121
Ntp189
Rp190
(dp191
g137
Nsg138
I00
sg139
g179
sg128
Nsbsg138
I01
sbsg164
(lp192
g184
ag190
ag187
asg166
I3
sbag181
a(itree
PTree
p193
(dp194
g118
g119
(g120
g121
Ntp195
Rp196
(dp197
g125
I0
sg137
g119
(g133
g121
Ntp198
Rp199
(dp200
g137
Nsg138
I00
sg139
g175
sg128
Nsbsg126
g127
sg145
F517.1430863811854
sg128
g119
(g133
g121
Ntp201
Rp202
(dp203
g137
Nsg138
I00
sg139
g179
sg128
Nsbsg138
I01
sbsg164
(lp204
g196
ag202
ag199
asg166
I3
sbag193
ag193
ag193
a(itree
PTree
p205
(dp206
g118
g119
(g120
g121
Ntp207
Rp208
(dp209
g125
I0
sg137
g119
(g133
g121
Ntp210
Rp211
(dp212
g137
Nsg138
I00
sg139
g175
sg128
Nsbsg126
g127
sg145
F530.2672228662759
sg128
g119
(g133
g121
Ntp213
Rp214
(dp215
g137
Nsg138
I00
sg139
g179
sg128
Nsbsg138
I01
sbsg164
(lp216
g208
ag214
ag211
asg166
I3
sbag205
ag205
a(itree
PTree
p217
(dp218
g118
g119
(g120
g121
Ntp219
Rp220
(dp221
g125
I0
sg137
g119
(g133
g121
Ntp222
Rp223
(dp224
g137
Nsg138
I00
sg139
g175
sg128
Nsbsg126
g127
sg145
F564.8499359820169
sg128
g119
(g133
g121
Ntp225
Rp226
(dp227
g137
Nsg138
I00
sg139
g179
sg128
Nsbsg138
I01
sbsg164
(lp228
g220
ag226
ag223
asg166
I3
sbag217
ag217
ag217
ag217
ag217
ag217
a(itree
PTree
p229
(dp230
g118
g119
(g120
g121
Ntp231
Rp232
(dp233
g125
I0
sg137
g119
(g133
g121
Ntp234
Rp235
(dp236
g137
Nsg138
I00
sg139
S'Flood_Control'
p237
sg128
Nsbsg126
g127
sg145
F547.0159086993568
sg128
g119
(g133
g121
Ntp238
Rp239
(dp240
g137
Nsg138
I00
sg139
S'Hedge_90'
p241
sg128
Nsbsg138
I01
sbsg164
(lp242
g232
ag239
ag235
asg166
I3
sbag229
ag229
ag229
a(itree
PTree
p243
(dp244
g118
g119
(g120
g121
Ntp245
Rp246
(dp247
g125
I0
sg137
g119
(g133
g121
Ntp248
Rp249
(dp250
g137
Nsg138
I00
sg139
S'Flood_Control'
p251
sg128
Nsbsg126
g127
sg145
F561.4085451431662
sg128
g119
(g133
g121
Ntp252
Rp253
(dp254
g137
Nsg138
I00
sg139
g241
sg128
Nsbsg138
I01
sbsg164
(lp255
g246
ag253
ag249
asg166
I3
sbag243
ag243
ag243
ag243
a(itree
PTree
p256
(dp257
g118
g119
(g120
g121
Ntp258
Rp259
(dp260
g125
I0
sg137
g119
(g133
g121
Ntp261
Rp262
(dp263
g137
Nsg138
I00
sg139
S'Flood_Control'
p264
sg128
Nsbsg126
g127
sg145
F559.7161154101824
sg128
g119
(g133
g121
Ntp265
Rp266
(dp267
g137
Nsg138
I00
sg139
S'Release_Demand'
p268
sg128
Nsbsg138
I01
sbsg164
(lp269
g259
ag266
ag262
asg166
I3
sbag256
a(itree
PTree
p270
(dp271
g118
g119
(g120
g121
Ntp272
Rp273
(dp274
g125
I0
sg137
g119
(g133
g121
Ntp275
Rp276
(dp277
g137
Nsg138
I00
sg139
g264
sg128
Nsbsg126
g127
sg145
F600.3586919232356
sg128
g119
(g133
g121
Ntp278
Rp279
(dp280
g137
Nsg138
I00
sg139
S'Hedge_90'
p281
sg128
Nsbsg138
I01
sbsg164
(lp282
g273
ag279
ag276
asg166
I3
sbag270
ag270
a(itree
PTree
p283
(dp284
g118
g119
(g120
g121
Ntp285
Rp286
(dp287
g125
I0
sg137
g119
(g133
g121
Ntp288
Rp289
(dp290
g137
Nsg138
I00
sg139
g175
sg128
Nsbsg126
g127
sg145
F591.5812936400114
sg128
g119
(g133
g121
Ntp291
Rp292
(dp293
g137
Nsg138
I00
sg139
g179
sg128
Nsbsg138
I01
sbsg164
(lp294
g286
ag292
ag289
asg166
I3
sbag283
ag283
ag283
a(itree
PTree
p295
(dp296
g118
g119
(g120
g121
Ntp297
Rp298
(dp299
g125
I0
sg137
g119
(g133
g121
Ntp300
Rp301
(dp302
g137
Nsg138
I00
sg139
S'Flood_Control'
p303
sg128
Nsbsg126
g127
sg145
F589.329104008889
sg128
g119
(g133
g121
Ntp304
Rp305
(dp306
g137
Nsg138
I00
sg139
g268
sg128
Nsbsg138
I01
sbsg164
(lp307
g298
ag305
ag301
asg166
I3
sbag295
ag295
ag295
ag295
ag295
ag295
ag295
a(itree
PTree
p308
(dp309
g118
g119
(g120
g121
Ntp310
Rp311
(dp312
g125
I0
sg137
g119
(g133
g121
Ntp313
Rp314
(dp315
g137
Nsg138
I00
sg139
g264
sg128
Nsbsg126
g127
sg145
F593.253692202752
sg128
g119
(g133
g121
Ntp316
Rp317
(dp318
g137
Nsg138
I00
sg139
S'Release_Demand'
p319
sg128
Nsbsg138
I01
sbsg164
(lp320
g311
ag317
ag314
asg166
I3
sba(itree
PTree
p321
(dp322
g118
g119
(g120
g121
Ntp323
Rp324
(dp325
g125
I0
sg137
g119
(g133
g121
Ntp326
Rp327
(dp328
g137
Nsg138
I00
sg139
g303
sg128
Nsbsg126
g127
sg145
F593.2182021306085
sg128
g119
(g133
g121
Ntp329
Rp330
(dp331
g137
Nsg138
I00
sg139
g268
sg128
Nsbsg138
I01
sbsg164
(lp332
g324
ag330
ag327
asg166
I3
sbag321
ag321
ag321
a(itree
PTree
p333
(dp334
g118
g119
(g120
g121
Ntp335
Rp336
(dp337
g125
I0
sg137
g119
(g133
g121
Ntp338
Rp339
(dp340
g137
Nsg138
I00
sg139
S'Flood_Control'
p341
sg128
Nsbsg126
g127
sg145
F592.0295718100206
sg128
g119
(g133
g121
Ntp342
Rp343
(dp344
g137
Nsg138
I00
sg139
S'Release_Demand'
p345
sg128
Nsbsg138
I01
sbsg164
(lp346
g336
ag343
ag339
asg166
I3
sbag333
ag333
ag333
ag333
ag333
ag333
ag333
ag333
ag333
a(itree
PTree
p347
(dp348
g118
g119
(g120
g121
Ntp349
Rp350
(dp351
g125
I0
sg137
g119
(g133
g121
Ntp352
Rp353
(dp354
g137
Nsg138
I00
sg139
g175
sg128
Nsbsg126
g127
sg145
F591.5812936400114
sg128
g119
(g133
g121
Ntp355
Rp356
(dp357
g137
Nsg138
I00
sg139
S'Release_Demand'
p358
sg128
Nsbsg138
I01
sbsg164
(lp359
g350
ag356
ag353
asg166
I3
sbag347
ag347
ag347
ag347
ag347
ag347
ag347
a(itree
PTree
p360
(dp361
g118
g119
(g120
g121
Ntp362
Rp363
(dp364
g125
I0
sg137
g119
(g133
g121
Ntp365
Rp366
(dp367
g137
Nsg138
I00
sg139
S'Flood_Control'
p368
sg128
Nsbsg126
g127
sg145
F593.9435117636348
sg128
g119
(g133
g121
Ntp369
Rp370
(dp371
g137
Nsg138
I00
sg139
S'Release_Demand'
p372
sg128
Nsbsg138
I01
sbsg164
(lp373
g363
ag370
ag366
asg166
I3
sbag360
ag360
ag360
ag360
ag360
ag360
ag360
a(itree
PTree
p374
(dp375
g118
g119
(g120
g121
Ntp376
Rp377
(dp378
g125
I0
sg137
g119
(g133
g121
Ntp379
Rp380
(dp381
g137
Nsg138
I00
sg139
S'Flood_Control'
p382
sg128
Nsbsg126
g127
sg145
F595.4333311264473
sg128
g119
(g133
g121
Ntp383
Rp384
(dp385
g137
Nsg138
I00
sg139
g268
sg128
Nsbsg138
I01
sbsg164
(lp386
g377
ag384
ag380
asg166
I3
sbag374
ag374
ag374
ag374
ag374
ag374
ag374
ag374
ag374
ag374
ag374
ag374
a(itree
PTree
p387
(dp388
g118
g119
(g120
g121
Ntp389
Rp390
(dp391
g125
I0
sg137
g119
(g133
g121
Ntp392
Rp393
(dp394
g137
Nsg138
I00
sg139
S'Flood_Control'
p395
sg128
Nsbsg126
g127
sg145
F550.6618976153692
sg128
g119
(g120
g121
Ntp396
Rp397
(dp398
g125
I0
sg137
g119
(g133
g121
Ntp399
Rp400
(dp401
g137
Nsg138
I00
sg139
S'Hedge_90'
p402
sg128
Nsbsg126
g127
sg145
F171.60729085001003
sg128
g119
(g133
g121
Ntp403
Rp404
(dp405
g137
Nsg138
I00
sg139
S'Hedge_70'
p406
sg128
Nsbsg138
I01
sbsg138
I01
sbsg164
(lp407
g390
ag397
ag404
ag400
ag393
asg166
I5
sbag387
ag387
ag387
ag387
ag387
ag387
ag387
ag387
ag387
ag387
ag387
ag387
a(itree
PTree
p408
(dp409
g118
g119
(g120
g121
Ntp410
Rp411
(dp412
g125
I0
sg137
g119
(g133
g121
Ntp413
Rp414
(dp415
g137
Nsg138
I00
sg139
g395
sg128
Nsbsg126
g127
sg145
F555.2241619463165
sg128
g119
(g120
g121
Ntp416
Rp417
(dp418
g125
I0
sg137
g119
(g133
g121
Ntp419
Rp420
(dp421
g137
Nsg138
I00
sg139
g402
sg128
Nsbsg126
g127
sg145
F210.2548740407008
sg128
g119
(g133
g121
Ntp422
Rp423
(dp424
g137
Nsg138
I00
sg139
g406
sg128
Nsbsg138
I01
sbsg138
I01
sbsg164
(lp425
g411
ag417
ag423
ag420
ag414
asg166
I5
sbag408
ag408
ag408
ag408
ag408
ag408
ag408
ag408
ag408
ag408
ag408
ag408
ag408
ag408
ag408
ag408
ag408
ag408
ag408
ag408
ag408
ag408
ag408
ag408
ag408
ag408
ag408
ag408
ag408
ag408
ag408
ag408
ag408
ag408
ag408
ag408
ag408
ag408
ag408
a(itree
PTree
p426
(dp427
g118
g119
(g120
g121
Ntp428
Rp429
(dp430
g125
I0
sg137
g119
(g133
g121
Ntp431
Rp432
(dp433
g137
Nsg138
I00
sg139
S'Flood_Control'
p434
sg128
Nsbsg126
g127
sg145
F600.1156272541385
sg128
g119
(g120
g121
Ntp435
Rp436
(dp437
g125
I0
sg137
g119
(g133
g121
Ntp438
Rp439
(dp440
g137
Nsg138
I00
sg139
g402
sg128
Nsbsg126
g127
sg145
F269.17215316214987
sg128
g119
(g133
g121
Ntp441
Rp442
(dp443
g137
Nsg138
I00
sg139
S'Hedge_70'
p444
sg128
Nsbsg138
I01
sbsg138
I01
sbsg164
(lp445
g429
ag436
ag442
ag439
ag432
asg166
I5
sbag426
ag426
ag426
a(itree
PTree
p446
(dp447
g118
g119
(g120
g121
Ntp448
Rp449
(dp450
g125
I0
sg137
g119
(g133
g121
Ntp451
Rp452
(dp453
g137
Nsg138
I00
sg139
S'Flood_Control'
p454
sg128
Nsbsg126
g127
sg145
F538.7946513514607
sg128
g119
(g120
g121
Ntp455
Rp456
(dp457
g125
I0
sg137
g119
(g133
g121
Ntp458
Rp459
(dp460
g137
Nsg138
I00
sg139
S'Release_Demand'
p461
sg128
Nsbsg126
g127
sg145
F152.13060737122524
sg128
g119
(g133
g121
Ntp462
Rp463
(dp464
g137
Nsg138
I00
sg139
g406
sg128
Nsbsg138
I01
sbsg138
I01
sbsg164
(lp465
g449
ag456
ag463
ag459
ag452
asg166
I5
sbag446
ag446
ag446
ag446
ag446
ag446
ag446
ag446
ag446
ag446
ag446
ag446
ag446
ag446
ag446
ag446
a(itree
PTree
p466
(dp467
g118
g119
(g120
g121
Ntp468
Rp469
(dp470
g125
I0
sg137
g119
(g133
g121
Ntp471
Rp472
(dp473
g137
Nsg138
I00
sg139
S'Flood_Control'
p474
sg128
Nsbsg126
g127
sg145
F557.0570979375386
sg128
g119
(g120
g121
Ntp475
Rp476
(dp477
g125
I0
sg137
g119
(g133
g121
Ntp478
Rp479
(dp480
g137
Nsg138
I00
sg139
S'Release_Demand'
p481
sg128
Nsbsg126
g127
sg145
F228.6342486445711
sg128
g119
(g133
g121
Ntp482
Rp483
(dp484
g137
Nsg138
I00
sg139
S'Hedge_80'
p485
sg128
Nsbsg138
I01
sbsg138
I01
sbsg164
(lp486
g469
ag476
ag483
ag479
ag472
asg166
I5
sbag466
ag466
a(itree
PTree
p487
(dp488
g118
g119
(g120
g121
Ntp489
Rp490
(dp491
g125
I0
sg137
g119
(g133
g121
Ntp492
Rp493
(dp494
g137
Nsg138
I00
sg139
g474
sg128
Nsbsg126
g127
sg145
F557.0570979375386
sg128
g119
(g120
g121
Ntp495
Rp496
(dp497
g125
I0
sg137
g119
(g133
g121
Ntp498
Rp499
(dp500
g137
Nsg138
I00
sg139
g481
sg128
Nsbsg126
g127
sg145
F246.79786666682057
sg128
g119
(g133
g121
Ntp501
Rp502
(dp503
g137
Nsg138
I00
sg139
g485
sg128
Nsbsg138
I01
sbsg138
I01
sbsg164
(lp504
g490
ag496
ag502
ag499
ag493
asg166
I5
sbag487
ag487
a(itree
PTree
p505
(dp506
g118
g119
(g120
g121
Ntp507
Rp508
(dp509
g125
I0
sg137
g119
(g133
g121
Ntp510
Rp511
(dp512
g137
Nsg138
I00
sg139
g474
sg128
Nsbsg126
g127
sg145
F557.0570979375386
sg128
g119
(g120
g121
Ntp513
Rp514
(dp515
g125
I0
sg137
g119
(g133
g121
Ntp516
Rp517
(dp518
g137
Nsg138
I00
sg139
g481
sg128
Nsbsg126
g127
sg145
F239.563705093401
sg128
g119
(g133
g121
Ntp519
Rp520
(dp521
g137
Nsg138
I00
sg139
g485
sg128
Nsbsg138
I01
sbsg138
I01
sbsg164
(lp522
g508
ag514
ag520
ag517
ag511
asg166
I5
sbag505
ag505
a(itree
PTree
p523
(dp524
g118
g119
(g120
g121
Ntp525
Rp526
(dp527
g125
I0
sg137
g119
(g133
g121
Ntp528
Rp529
(dp530
g137
Nsg138
I00
sg139
g454
sg128
Nsbsg126
g127
sg145
F585.3083140960777
sg128
g119
(g120
g121
Ntp531
Rp532
(dp533
g125
I0
sg137
g119
(g133
g121
Ntp534
Rp535
(dp536
g137
Nsg138
I00
sg139
g461
sg128
Nsbsg126
g127
sg145
F190.44623098924905
sg128
g119
(g133
g121
Ntp537
Rp538
(dp539
g137
Nsg138
I00
sg139
g406
sg128
Nsbsg138
I01
sbsg138
I01
sbsg164
(lp540
g526
ag532
ag538
ag535
ag529
asg166
I5
sbag523
ag523
ag523
ag523
a(itree
PTree
p541
(dp542
g118
g119
(g120
g121
Ntp543
Rp544
(dp545
g125
I0
sg137
g119
(g133
g121
Ntp546
Rp547
(dp548
g137
Nsg138
I00
sg139
g454
sg128
Nsbsg126
g127
sg145
F585.3083140960777
sg128
g119
(g120
g121
Ntp549
Rp550
(dp551
g125
I0
sg137
g119
(g133
g121
Ntp552
Rp553
(dp554
g137
Nsg138
I00
sg139
g461
sg128
Nsbsg126
g127
sg145
F230.56508060587834
sg128
g119
(g133
g121
Ntp555
Rp556
(dp557
g137
Nsg138
I00
sg139
g406
sg128
Nsbsg138
I01
sbsg138
I01
sbsg164
(lp558
g544
ag550
ag556
ag553
ag547
asg166
I5
sbag541
ag541
ag541
ag541
ag541
ag541
ag541
ag541
ag541
ag541
ag541
a(itree
PTree
p559
(dp560
g118
g119
(g120
g121
Ntp561
Rp562
(dp563
g125
I0
sg137
g119
(g133
g121
Ntp564
Rp565
(dp566
g137
Nsg138
I00
sg139
S'Flood_Control'
p567
sg128
Nsbsg126
g127
sg145
F571.7621778493153
sg128
g119
(g120
g121
Ntp568
Rp569
(dp570
g125
I0
sg137
g119
(g133
g121
Ntp571
Rp572
(dp573
g137
Nsg138
I00
sg139
S'Release_Demand'
p574
sg128
Nsbsg126
g127
sg145
F262.4612180632359
sg128
g119
(g133
g121
Ntp575
Rp576
(dp577
g137
Nsg138
I00
sg139
S'Hedge_80'
p578
sg128
Nsbsg138
I01
sbsg138
I01
sbsg164
(lp579
g562
ag569
ag576
ag572
ag565
asg166
I5
sbag559
a(itree
PTree
p580
(dp581
g118
g119
(g120
g121
Ntp582
Rp583
(dp584
g125
I0
sg137
g119
(g133
g121
Ntp585
Rp586
(dp587
g137
Nsg138
I00
sg139
S'Flood_Control'
p588
sg128
Nsbsg126
g127
sg145
F592.916293589038
sg128
g119
(g120
g121
Ntp589
Rp590
(dp591
g125
I0
sg137
g119
(g133
g121
Ntp592
Rp593
(dp594
g137
Nsg138
I00
sg139
S'Release_Demand'
p595
sg128
Nsbsg126
g127
sg145
F207.21763885620626
sg128
g119
(g133
g121
Ntp596
Rp597
(dp598
g137
Nsg138
I00
sg139
S'Hedge_70'
p599
sg128
Nsbsg138
I01
sbsg138
I01
sbsg164
(lp600
g583
ag590
ag597
ag593
ag586
asg166
I5
sbag580
ag580
ag580
ag580
ag580
ag580
ag580
ag580
ag580
ag580
ag580
ag580
ag580
ag580
ag580
ag580
ag580
ag580
ag580
ag580
ag580
ag580
ag580
ag580
ag580
a(itree
PTree
p601
(dp602
g118
g119
(g120
g121
Ntp603
Rp604
(dp605
g125
I0
sg137
g119
(g133
g121
Ntp606
Rp607
(dp608
g137
Nsg138
I00
sg139
g567
sg128
Nsbsg126
g127
sg145
F571.7621778493153
sg128
g119
(g120
g121
Ntp609
Rp610
(dp611
g125
I0
sg137
g119
(g133
g121
Ntp612
Rp613
(dp614
g137
Nsg138
I00
sg139
g574
sg128
Nsbsg126
g127
sg145
F245.16711839632333
sg128
g119
(g133
g121
Ntp615
Rp616
(dp617
g137
Nsg138
I00
sg139
g578
sg128
Nsbsg138
I01
sbsg138
I01
sbsg164
(lp618
g604
ag610
ag616
ag613
ag607
asg166
I5
sbag601
ag601
ag601
ag601
ag601
ag601
ag601
ag601
ag601
ag601
ag601
ag601
ag601
ag601
ag601
ag601
ag601
ag601
ag601
ag601
ag601
ag601
ag601
ag601
ag601
ag601
ag601
ag601
ag601
ag601
a(itree
PTree
p619
(dp620
g118
g119
(g120
g121
Ntp621
Rp622
(dp623
g125
I0
sg137
g119
(g133
g121
Ntp624
Rp625
(dp626
g137
Nsg138
I00
sg139
S'Flood_Control'
p627
sg128
Nsbsg126
g127
sg145
F591.694439251278
sg128
g119
(g120
g121
Ntp628
Rp629
(dp630
g125
I0
sg137
g119
(g133
g121
Ntp631
Rp632
(dp633
g137
Nsg138
I00
sg139
S'Release_Demand'
p634
sg128
Nsbsg126
g127
sg145
F286.5118395450017
sg128
g119
(g133
g121
Ntp635
Rp636
(dp637
g137
Nsg138
I00
sg139
S'Hedge_80'
p638
sg128
Nsbsg138
I01
sbsg138
I01
sbsg164
(lp639
g622
ag629
ag636
ag632
ag625
asg166
I5
sbag619
ag619
ag619
ag619
ag619
ag619
ag619
ag619
ag619
ag619
ag619
a(itree
PTree
p640
(dp641
g118
g119
(g120
g121
Ntp642
Rp643
(dp644
g125
I0
sg137
g119
(g133
g121
Ntp645
Rp646
(dp647
g137
Nsg138
I00
sg139
g567
sg128
Nsbsg126
g127
sg145
F595.649801007027
sg128
g119
(g120
g121
Ntp648
Rp649
(dp650
g125
I0
sg137
g119
(g133
g121
Ntp651
Rp652
(dp653
g137
Nsg138
I00
sg139
g574
sg128
Nsbsg126
g127
sg145
F237.5383188245413
sg128
g119
(g133
g121
Ntp654
Rp655
(dp656
g137
Nsg138
I00
sg139
g578
sg128
Nsbsg138
I01
sbsg138
I01
sbsg164
(lp657
g643
ag649
ag655
ag652
ag646
asg166
I5
sbag640
ag640
ag640
ag640
ag640
ag640
ag640
ag640
ag640
ag640
ag640
ag640
ag640
ag640
ag640
ag640
ag640
ag640
ag640
ag640
ag640
ag640
ag640
ag640
ag640
ag640
ag640
ag640
ag640
ag640
ag640
ag640
ag640
ag640
ag640
ag640
ag640
ag640
ag640
ag640
ag640
ag640
ag640
ag640
ag640
ag640
ag640
ag640
ag640
ag640
ag640
ag640
ag640
ag640
ag640
ag640
ag640
ag640
a(itree
PTree
p658
(dp659
g118
g119
(g120
g121
Ntp660
Rp661
(dp662
g125
I0
sg137
g119
(g133
g121
Ntp663
Rp664
(dp665
g137
Nsg138
I00
sg139
g567
sg128
Nsbsg126
g127
sg145
F595.649801007027
sg128
g119
(g120
g121
Ntp666
Rp667
(dp668
g125
I0
sg137
g119
(g133
g121
Ntp669
Rp670
(dp671
g137
Nsg138
I00
sg139
g574
sg128
Nsbsg126
g127
sg145
F240.01593115601568
sg128
g119
(g133
g121
Ntp672
Rp673
(dp674
g137
Nsg138
I00
sg139
g578
sg128
Nsbsg138
I01
sbsg138
I01
sbsg164
(lp675
g661
ag667
ag673
ag670
ag664
asg166
I5
sbag658
ag658
ag658
ag658
ag658
ag658
ag658
ag658
ag658
ag658
ag658
ag658
ag658
ag658
ag658
ag658
ag658
ag658
ag658
ag658
ag658
ag658
ag658
ag658
ag658
ag658
ag658
ag658
ag658
ag658
ag658
ag658
ag658
ag658
ag658
ag658
ag658
ag658
ag658
ag658
ag658
ag658
ag658
ag658
ag658
ag658
ag658
ag658
ag658
ag658
ag658
ag658
ag658
a(itree
PTree
p676
(dp677
g118
g119
(g120
g121
Ntp678
Rp679
(dp680
g125
I0
sg137
g119
(g133
g121
Ntp681
Rp682
(dp683
g137
Nsg138
I00
sg139
g567
sg128
Nsbsg126
g127
sg145
F595.649801007027
sg128
g119
(g120
g121
Ntp684
Rp685
(dp686
g125
I0
sg137
g119
(g133
g121
Ntp687
Rp688
(dp689
g137
Nsg138
I00
sg139
g574
sg128
Nsbsg126
g127
sg145
F248.91005437251354
sg128
g119
(g133
g121
Ntp690
Rp691
(dp692
g137
Nsg138
I00
sg139
g578
sg128
Nsbsg138
I01
sbsg138
I01
sbsg164
(lp693
g679
ag685
ag691
ag688
ag682
asg166
I5
sbag676
ag676
ag676
ag676
ag676
ag676
ag676
ag676
ag676
ag676
ag676
ag676
ag676
ag676
ag676
ag676
ag676
ag676
ag676
ag676
ag676
ag676
ag676
ag676
ag676
ag676
asS'time'
p694
(lp695
I45
aI66
aI89
aI111
aI132
aI153
aI174
aI195
aI216
aI235
aI257
aI278
aI299
aI319
aI338
aI358
aI377
aI398
aI420
aI441
aI462
aI485
aI503
aI521
aI540
aI561
aI584
aI609
aI634
aI658
aI683
aI705
aI728
aI750
aI771
aI792
aI813
aI839
aI864
aI891
aI917
aI939
aI960
aI981
aI1005
aI1029
aI1054
aI1079
aI1103
aI1125
aI1148
aI1172
aI1195
aI1219
aI1242
aI1264
aI1287
aI1310
aI1333
aI1356
aI1378
aI1397
aI1418
aI1437
aI1458
aI1477
aI1495
aI1515
aI1534
aI1552
aI1571
aI1589
aI1609
aI1629
aI1649
aI1667
aI1687
aI1706
aI1727
aI1747
aI1765
aI1785
aI1805
aI1824
aI1845
aI1864
aI1883
aI1901
aI1920
aI1939
aI1962
aI1987
aI2010
aI2035
aI2059
aI2084
aI2108
aI2132
aI2152
aI2173
aI2191
aI2210
aI2230
aI2250
aI2270
aI2288
aI2307
aI2327
aI2347
aI2368
aI2389
aI2408
aI2427
aI2446
aI2465
aI2484
aI2504
aI2523
aI2541
aI2562
aI2579
aI2598
aI2616
aI2640
aI2664
aI2689
aI2715
aI2740
aI2766
aI2792
aI2818
aI2844
aI2871
aI2897
aI2924
aI2951
aI2977
aI3004
aI3031
aI3057
aI3084
aI3110
aI3136
aI3163
aI3189
aI3216
aI3242
aI3269
aI3295
aI3322
aI3349
aI3375
aI3402
aI3429
aI3455
aI3482
aI3508
aI3535
aI3561
aI3588
aI3614
aI3641
aI3668
aI3693
aI3717
aI3740
aI3764
aI3787
aI3809
aI3831
aI3854
aI3874
aI3897
aI3920
aI3943
aI3967
aI3989
aI4012
aI4032
aI4054
aI4098
aI4176
aI4201
aI4225
aI4248
aI4271
aI4294
aI4317
aI4340
aI4363
aI4382
aI4402
aI4421
aI4439
aI4460
aI4480
aI4500
aI4518
aI4536
aI4556
aI4576
aI4594
aI4611
aI4630
aI4650
aI4669
aI4688
aI4708
aI4726
aI4743
aI4762
aI4781
aI4800
aI4820
aI4840
aI4860
aI4882
aI4903
aI4922
aI5007
aI5097
aI5158
aI5205
aI5254
aI5313
aI5372
aI5432
aI5500
aI5572
aI5643
aI5714
aI5786
aI5853
aI5918
aI5939
aI5960
aI5983
aI6006
aI6029
aI6051
aI6072
aI6093
aI6118
aI6142
aI6163
aI6184
aI6205
aI6223
aI6242
aI6262
aI6283
aI6304
aI6325
aI6376
aI6470
aI6550
aI6625
aI6707
aI6787
aI6868
aI6941
aI7013
aI7089
aI7149
aI7221
aI7279
aI7309
aI7335
aI7362
aI7388
aI7413
aI7437
aI7460
aI7484
aI7507
aI7528
aI7549
aI7568
aI7587
aI7608
aI7627
aI7646
aI7667
aI7685
aI7704
aI7723
aI7745
aI7767
aI7789
aI7812
aI7837
aI7862
aI7887
aI7912
aI7937
aI7961
aI7983
aI8005
aI8027
aI8049
aI8070
aI8092
aI8114
aI8134
aI8155
aI8174
aI8193
aI8212
aI8231
aI8249
aI8267
aI8286
aI8306
aI8323
aI8342
aI8359
aI8377
aI8395
aI8412
aI8431
aI8449
aI8468
aI8489
aI8508
aI8528
aI8548
aI8568
aI8585
aI8603
aI8623
aI8641
aI8659
aI8679
aI8699
aI8718
aI8737
aI8757
aI8776
aI8798
aI8820
aI8841
aI8859
aI8878
aI8898
aI8918
aI8939
aI8959
aI8979
aI8998
aI9018
aI9036
aI9058
aI9078
aI9102
aI9128
aI9155
aI9179
aI9206
aI9232
aI9259
aI9285
aI9312
aI9338
aI9364
aI9391
aI9417
aI9443
aI9470
aI9496
aI9522
aI9549
aI9575
aI9601
aI9627
aI9653
aI9679
aI9705
aI9731
aI9757
aI9781
aI9806
aI9830
aI9854
aI9877
aI9900
aI9923
aI9946
aI9973
aI9999
aI10026
aI10052
aI10078
aI10105
aI10131
aI10157
aI10183
aI10210
aI10236
aI10262
aI10287
as.