(dp0
S'nfe'
p1
(lp2
I50
aI100
aI150
aI200
aI250
aI300
aI350
aI400
aI450
aI500
aI550
aI600
aI650
aI700
aI750
aI800
aI850
aI900
aI950
aI1000
aI1050
aI1100
aI1150
aI1200
aI1250
aI1300
aI1350
aI1400
aI1450
aI1500
aI1550
aI1600
aI1650
aI1700
aI1750
aI1800
aI1850
aI1900
aI1950
aI2000
aI2050
aI2100
aI2150
aI2200
aI2250
aI2300
aI2350
aI2400
aI2450
aI2500
aI2550
aI2600
aI2650
aI2700
aI2750
aI2800
aI2850
aI2900
aI2950
aI3000
aI3050
aI3100
aI3150
aI3200
aI3250
aI3300
aI3350
aI3400
aI3450
aI3500
aI3550
aI3600
aI3650
aI3700
aI3750
aI3800
aI3850
aI3900
aI3950
aI4000
aI4050
aI4100
aI4150
aI4200
aI4250
aI4300
aI4350
aI4400
aI4450
aI4500
aI4550
aI4600
aI4650
aI4700
aI4750
aI4800
aI4850
aI4900
aI4950
aI5000
aI5050
aI5100
aI5150
aI5200
aI5250
aI5300
aI5350
aI5400
aI5450
aI5500
aI5550
aI5600
aI5650
aI5700
aI5750
aI5800
aI5850
aI5900
aI5950
aI6000
aI6050
aI6100
aI6150
aI6200
aI6250
aI6300
aI6350
aI6400
aI6450
aI6500
aI6550
aI6600
aI6650
aI6700
aI6750
aI6800
aI6850
aI6900
aI6950
aI7000
aI7050
aI7100
aI7150
aI7200
aI7250
aI7300
aI7350
aI7400
aI7450
aI7500
aI7550
aI7600
aI7650
aI7700
aI7750
aI7800
aI7850
aI7900
aI7950
aI8000
aI8050
aI8100
aI8150
aI8200
aI8250
aI8300
aI8350
aI8400
aI8450
aI8500
aI8550
aI8600
aI8650
aI8700
aI8750
aI8800
aI8850
aI8900
aI8950
aI9000
aI9050
aI9100
aI9150
aI9200
aI9250
aI9300
aI9350
aI9400
aI9450
aI9500
aI9550
aI9600
aI9650
aI9700
aI9750
aI9800
aI9850
aI9900
aI9950
aI10000
aI10050
aI10100
aI10150
aI10200
aI10250
aI10300
aI10350
aI10400
aI10450
aI10500
aI10550
aI10600
aI10650
aI10700
aI10750
aI10800
aI10850
aI10900
aI10950
aI11000
aI11050
aI11100
aI11150
aI11200
aI11250
aI11300
aI11350
aI11400
aI11450
aI11500
aI11550
aI11600
aI11650
aI11700
aI11750
aI11800
aI11850
aI11900
aI11950
aI12000
aI12050
aI12100
aI12150
aI12200
aI12250
aI12300
aI12350
aI12400
aI12450
aI12500
aI12550
aI12600
aI12650
aI12700
aI12750
aI12800
aI12850
aI12900
aI12950
aI13000
aI13050
aI13100
aI13150
aI13200
aI13250
aI13300
aI13350
aI13400
aI13450
aI13500
aI13550
aI13600
aI13650
aI13700
aI13750
aI13800
aI13850
aI13900
aI13950
aI14000
aI14050
aI14100
aI14150
aI14200
aI14250
aI14300
aI14350
aI14400
aI14450
aI14500
aI14550
aI14600
aI14650
aI14700
aI14750
aI14800
aI14850
aI14900
aI14950
aI15000
aI15050
aI15100
aI15150
aI15200
aI15250
aI15300
aI15350
aI15400
aI15450
aI15500
aI15550
aI15600
aI15650
aI15700
aI15750
aI15800
aI15850
aI15900
aI15950
aI16000
aI16050
aI16100
aI16150
aI16200
aI16250
aI16300
aI16350
aI16400
aI16450
aI16500
aI16550
aI16600
aI16650
aI16700
aI16750
aI16800
aI16850
aI16900
aI16950
aI17000
aI17050
aI17100
aI17150
aI17200
aI17250
aI17300
aI17350
aI17400
aI17450
aI17500
aI17550
aI17600
aI17650
aI17700
aI17750
aI17800
aI17850
aI17900
aI17950
aI18000
aI18050
aI18100
aI18150
aI18200
aI18250
aI18300
aI18350
aI18400
aI18450
aI18500
aI18550
aI18600
aI18650
aI18700
aI18750
aI18800
aI18850
aI18900
aI18950
aI19000
aI19050
aI19100
aI19150
aI19200
aI19250
aI19300
aI19350
aI19400
aI19450
aI19500
aI19550
aI19600
aI19650
aI19700
aI19750
aI19800
aI19850
aI19900
aI19950
aI20000
asS'best_f'
p3
(lp4
cnumpy.core.multiarray
scalar
p5
(cnumpy
dtype
p6
(S'f8'
p7
I0
I1
tp8
Rp9
(I3
S'<'
p10
NNNI-1
I-1
I0
tp11
bS'\x00\xdaT\xb7)\x8c\xf1?'
p12
tp13
Rp14
ag5
(g9
S'\xd8e\x15\xb9\xbb\x00\xe8?'
p15
tp16
Rp17
ag5
(g9
S'A\xc5n\x80\x01\x96\xe0?'
p18
tp19
Rp20
ag20
ag20
ag20
ag20
ag20
ag5
(g9
S'Xx\xb9\xac\x99d\xd5?'
p21
tp22
Rp23
ag23
ag23
ag5
(g9
S'C!\xe5\x9d\x05s\xd4?'
p24
tp25
Rp26
ag26
ag26
ag26
ag5
(g9
S'\xc3\x1f\nm\xfd!\xd4?'
p27
tp28
Rp29
ag29
ag29
ag29
ag29
ag29
ag29
ag29
ag29
ag29
ag29
ag29
ag29
ag29
ag29
ag29
ag29
ag29
ag29
ag29
ag29
ag29
ag29
ag29
ag29
ag29
ag29
ag29
ag29
ag29
ag29
ag29
ag29
ag29
ag5
(g9
S'\xbb\xb1\x97F\x7f\xcf\xd3?'
p30
tp31
Rp32
ag32
ag32
ag32
ag32
ag32
ag32
ag32
ag32
ag32
ag32
ag32
ag32
ag32
ag32
ag32
ag32
ag32
ag32
ag32
ag32
ag32
ag32
ag32
ag32
ag32
ag32
ag32
ag32
ag32
ag32
ag32
ag32
ag32
ag32
ag32
ag32
ag32
ag32
ag32
ag32
ag32
ag32
ag32
ag32
ag32
ag32
ag32
ag32
ag32
ag32
ag32
ag32
ag32
ag32
ag32
ag32
ag5
(g9
S'\xd8\x82\xe1\xc9\x9d\xbc\xd3?'
p33
tp34
Rp35
ag35
ag35
ag35
ag35
ag35
ag35
ag35
ag5
(g9
S'I)(\x95\xb6\x8e\xd3?'
p36
tp37
Rp38
ag38
ag38
ag38
ag38
ag38
ag38
ag38
ag38
ag38
ag38
ag38
ag38
ag38
ag38
ag38
ag38
ag38
ag38
ag5
(g9
S'\xb2\xe8fk\xb8\x83\xd3?'
p39
tp40
Rp41
ag41
ag41
ag41
ag41
ag41
ag41
ag41
ag41
ag41
ag41
ag41
ag41
ag41
ag41
ag41
ag5
(g9
S'])\x98\xa7y\xcc\xce?'
p42
tp43
Rp44
ag44
ag44
ag44
ag44
ag44
ag44
ag44
ag44
ag44
ag44
ag44
ag5
(g9
S'\xd5\x9a\xbac\x9b=\xca?'
p45
tp46
Rp47
ag47
ag47
ag47
ag47
ag47
ag47
ag47
ag47
ag47
ag47
ag47
ag47
ag47
ag47
ag47
ag47
ag47
ag47
ag47
ag47
ag47
ag47
ag47
ag47
ag47
ag47
ag47
ag47
ag47
ag47
ag47
ag47
ag47
ag47
ag47
ag47
ag47
ag47
ag5
(g9
S'\xcc\xf2\xaa\x96E\xf9\xc7?'
p48
tp49
Rp50
ag50
ag50
ag50
ag50
ag50
ag50
ag50
ag50
ag50
ag50
ag50
ag50
ag50
ag50
ag50
ag50
ag5
(g9
S'\x19\xce:\x82\xe6\xdc\xc7?'
p51
tp52
Rp53
ag5
(g9
S'\x9d}P}\xe2\x01\xc7?'
p54
tp55
Rp56
ag5
(g9
S'h\xd7\x0c\xbd\xc8\xe0\xc5?'
p57
tp58
Rp59
ag59
ag59
ag59
ag59
ag59
ag59
ag59
ag59
ag59
ag5
(g9
S'qf\xbdw_A\xc5?'
p60
tp61
Rp62
ag62
ag62
ag62
ag62
ag62
ag62
ag62
ag62
ag62
ag5
(g9
S'\xf9\x91\x89\xe51\x11\xc5?'
p63
tp64
Rp65
ag5
(g9
S'\xe6dd\x84\x80\x90\xc3?'
p66
tp67
Rp68
ag68
ag68
ag68
ag68
ag68
ag68
ag68
ag68
ag68
ag68
ag68
ag68
ag68
ag68
ag68
ag68
ag68
ag68
ag68
ag68
ag68
ag68
ag68
ag68
ag68
ag68
ag68
ag68
ag68
ag68
ag68
ag68
ag68
ag68
ag68
ag68
ag68
ag68
ag68
ag68
ag68
ag5
(g9
S'\xbc\xb33\x9a\xbe\x81\xc3?'
p69
tp70
Rp71
ag71
ag71
ag71
ag5
(g9
S'\x9e\xb2\xb4\xe8\xd7Q\xc3?'
p72
tp73
Rp74
ag74
ag74
ag74
ag74
ag74
ag74
ag74
ag74
ag74
ag74
ag74
ag74
ag74
ag74
ag74
ag74
ag74
ag74
ag74
ag5
(g9
S'ds\xa5\xf4}\xf2\xc2?'
p75
tp76
Rp77
ag77
ag77
ag77
ag77
ag77
ag77
ag77
ag77
ag77
ag77
ag77
ag77
ag77
ag77
ag77
ag77
ag77
ag77
ag77
ag5
(g9
S'\xb9\xc1\xa7\rV\xa0\xc2?'
p78
tp79
Rp80
ag80
ag80
ag80
ag80
ag5
(g9
S'\xfc\x81\xf19l\xa8\xc1?'
p81
tp82
Rp83
ag5
(g9
S'\xd9\xfbq},\x01\xc0?'
p84
tp85
Rp86
ag5
(g9
S'\x0e\x05\x84\xc2\x9f\x1a\xbe?'
p87
tp88
Rp89
ag5
(g9
S'du\xae\x0b6\xbb\xb7?'
p90
tp91
Rp92
ag92
ag92
ag92
ag92
ag92
ag92
ag92
ag92
ag92
ag92
ag92
ag92
ag5
(g9
S'\xad\xf1f JU\xb6?'
p93
tp94
Rp95
ag95
ag95
ag95
ag95
ag5
(g9
S'\xe1X\x82\xca\x06%\xb5?'
p96
tp97
Rp98
ag98
ag98
ag98
ag98
ag98
ag98
ag98
ag98
ag98
ag98
ag5
(g9
S'\xa1\xaf\xe94\xffl\xb1?'
p99
tp100
Rp101
ag101
ag101
ag101
ag101
ag101
ag101
ag101
ag101
ag101
ag101
ag101
ag101
ag101
ag101
ag101
ag101
ag101
ag101
ag101
ag101
ag101
ag101
ag101
ag101
ag101
ag101
ag101
ag101
ag101
ag101
ag101
ag101
ag101
ag101
ag101
ag101
asS'best_P'
p102
(lp103
(itree
PTree
p104
(dp105
S'root'
p106
ccopy_reg
_reconstructor
p107
(ctree
Feature
p108
c__builtin__
object
p109
Ntp110
Rp111
(dp112
S'index'
p113
I0
sS'name'
p114
S'Storage'
p115
sS'l'
p116
g107
(ctree
Action
p117
g109
Ntp118
Rp119
(dp120
S'r'
p121
NsS'is_feature'
p122
I00
sS'value'
p123
S'Hedge_70'
p124
sg116
Nsbsg121
g107
(g117
g109
Ntp125
Rp126
(dp127
g121
Nsg122
I00
sg123
S'Flood_Control'
p128
sg116
NsbsS'threshold'
p129
F443.8314340164178
sg122
I01
sbsS'L'
p130
(lp131
g111
ag119
ag126
asS'N'
p132
I3
sba(itree
PTree
p133
(dp134
g106
g107
(g108
g109
Ntp135
Rp136
(dp137
g113
I1
sg121
g107
(g117
g109
Ntp138
Rp139
(dp140
g121
Nsg122
I00
sg123
S'Hedge_50'
p141
sg116
Nsbsg114
S'Day'
p142
sg129
F340.9321850793705
sg116
g107
(g108
g109
Ntp143
Rp144
(dp145
g113
I1
sg121
g107
(g108
g109
Ntp146
Rp147
(dp148
g113
I1
sg121
g107
(g117
g109
Ntp149
Rp150
(dp151
g121
Nsg122
I00
sg123
S'Hedge_90'
p152
sg116
Nsbsg114
g142
sg129
F198.26343999637533
sg116
g107
(g117
g109
Ntp153
Rp154
(dp155
g121
Nsg122
I00
sg123
S'Flood_Control'
p156
sg116
Nsbsg122
I01
sbsg114
g142
sg129
F67.07659300263833
sg116
g107
(g108
g109
Ntp157
Rp158
(dp159
g113
I0
sg121
g107
(g117
g109
Ntp160
Rp161
(dp162
g121
Nsg122
I00
sg123
S'Hedge_90'
p163
sg116
Nsbsg114
g115
sg129
F618.9143724552881
sg116
g107
(g117
g109
Ntp164
Rp165
(dp166
g121
Nsg122
I00
sg123
S'Hedge_80'
p167
sg116
Nsbsg122
I01
sbsg122
I01
sbsg122
I01
sbsg130
(lp168
g136
ag144
ag158
ag165
ag161
ag147
ag154
ag150
ag139
asg132
I9
sba(itree
PTree
p169
(dp170
g106
g107
(g108
g109
Ntp171
Rp172
(dp173
g113
I0
sg121
g107
(g117
g109
Ntp174
Rp175
(dp176
g121
Nsg122
I00
sg123
S'Flood_Control'
p177
sg116
Nsbsg114
g115
sg129
F419.3287005737045
sg116
g107
(g117
g109
Ntp178
Rp179
(dp180
g121
Nsg122
I00
sg123
S'Hedge_80'
p181
sg116
Nsbsg122
I01
sbsg130
(lp182
g172
ag179
ag175
asg132
I3
sbag169
ag169
ag169
ag169
ag169
a(itree
PTree
p183
(dp184
g106
g107
(g108
g109
Ntp185
Rp186
(dp187
g113
I0
sg121
g107
(g117
g109
Ntp188
Rp189
(dp190
g121
Nsg122
I00
sg123
S'Flood_Control'
p191
sg116
Nsbsg114
g115
sg129
F564.2737519917794
sg116
g107
(g117
g109
Ntp192
Rp193
(dp194
g121
Nsg122
I00
sg123
S'Hedge_90'
p195
sg116
Nsbsg122
I01
sbsg130
(lp196
g186
ag193
ag189
asg132
I3
sbag183
ag183
a(itree
PTree
p197
(dp198
g106
g107
(g108
g109
Ntp199
Rp200
(dp201
g113
I0
sg121
g107
(g117
g109
Ntp202
Rp203
(dp204
g121
Nsg122
I00
sg123
g191
sg116
Nsbsg114
g115
sg129
F580.6603251132266
sg116
g107
(g117
g109
Ntp205
Rp206
(dp207
g121
Nsg122
I00
sg123
S'Release_Demand'
p208
sg116
Nsbsg122
I01
sbsg130
(lp209
g200
ag206
ag203
asg132
I3
sbag197
ag197
ag197
a(itree
PTree
p210
(dp211
g106
g107
(g108
g109
Ntp212
Rp213
(dp214
g113
I0
sg121
g107
(g117
g109
Ntp215
Rp216
(dp217
g121
Nsg122
I00
sg123
S'Flood_Control'
p218
sg116
Nsbsg114
g115
sg129
F592.8495755458171
sg116
g107
(g117
g109
Ntp219
Rp220
(dp221
g121
Nsg122
I00
sg123
S'Release_Demand'
p222
sg116
Nsbsg122
I01
sbsg130
(lp223
g213
ag220
ag216
asg132
I3
sbag210
ag210
ag210
ag210
ag210
ag210
ag210
ag210
ag210
ag210
ag210
ag210
ag210
ag210
ag210
ag210
ag210
ag210
ag210
ag210
ag210
ag210
ag210
ag210
ag210
ag210
ag210
ag210
ag210
ag210
ag210
ag210
ag210
a(itree
PTree
p224
(dp225
g106
g107
(g108
g109
Ntp226
Rp227
(dp228
g113
I0
sg121
g107
(g117
g109
Ntp229
Rp230
(dp231
g121
Nsg122
I00
sg123
S'Flood_Control'
p232
sg116
Nsbsg114
g115
sg129
F595.2111922553106
sg116
g107
(g117
g109
Ntp233
Rp234
(dp235
g121
Nsg122
I00
sg123
S'Release_Demand'
p236
sg116
Nsbsg122
I01
sbsg130
(lp237
g227
ag234
ag230
asg132
I3
sbag224
ag224
ag224
ag224
ag224
ag224
ag224
ag224
ag224
ag224
ag224
ag224
ag224
ag224
ag224
ag224
ag224
ag224
ag224
ag224
ag224
ag224
ag224
ag224
ag224
ag224
ag224
ag224
ag224
ag224
ag224
ag224
ag224
ag224
ag224
ag224
ag224
ag224
ag224
ag224
ag224
ag224
ag224
ag224
ag224
ag224
ag224
ag224
ag224
ag224
ag224
ag224
ag224
ag224
ag224
ag224
a(itree
PTree
p238
(dp239
g106
g107
(g108
g109
Ntp240
Rp241
(dp242
g113
I0
sg121
g107
(g117
g109
Ntp243
Rp244
(dp245
g121
Nsg122
I00
sg123
S'Flood_Control'
p246
sg116
Nsbsg114
g115
sg129
F595.5710636212818
sg116
g107
(g117
g109
Ntp247
Rp248
(dp249
g121
Nsg122
I00
sg123
S'Release_Demand'
p250
sg116
Nsbsg122
I01
sbsg130
(lp251
g241
ag248
ag244
asg132
I3
sbag238
ag238
ag238
ag238
ag238
ag238
ag238
a(itree
PTree
p252
(dp253
g106
g107
(g108
g109
Ntp254
Rp255
(dp256
g113
I0
sg121
g107
(g117
g109
Ntp257
Rp258
(dp259
g121
Nsg122
I00
sg123
g232
sg116
Nsbsg114
g115
sg129
F595.5350440500027
sg116
g107
(g117
g109
Ntp260
Rp261
(dp262
g121
Nsg122
I00
sg123
g236
sg116
Nsbsg122
I01
sbsg130
(lp263
g255
ag261
ag258
asg132
I3
sbag252
ag252
ag252
ag252
ag252
ag252
ag252
ag252
ag252
ag252
ag252
ag252
ag252
ag252
ag252
ag252
ag252
ag252
a(itree
PTree
p264
(dp265
g106
g107
(g108
g109
Ntp266
Rp267
(dp268
g113
I0
sg121
g107
(g117
g109
Ntp269
Rp270
(dp271
g121
Nsg122
I00
sg123
g246
sg116
Nsbsg114
g115
sg129
F591.2085984523621
sg116
g107
(g117
g109
Ntp272
Rp273
(dp274
g121
Nsg122
I00
sg123
g250
sg116
Nsbsg122
I01
sbsg130
(lp275
g267
ag273
ag270
asg132
I3
sbag264
ag264
ag264
ag264
ag264
ag264
ag264
ag264
ag264
ag264
ag264
ag264
ag264
ag264
ag264
a(itree
PTree
p276
(dp277
g106
g107
(g108
g109
Ntp278
Rp279
(dp280
g113
I0
sg121
g107
(g108
g109
Ntp281
Rp282
(dp283
g113
I0
sg121
g107
(g108
g109
Ntp284
Rp285
(dp286
g113
I1
sg121
g107
(g117
g109
Ntp287
Rp288
(dp289
g121
Nsg122
I00
sg123
S'Flood_Control'
p290
sg116
Nsbsg114
g142
sg129
F262.24095927083135
sg116
g107
(g117
g109
Ntp291
Rp292
(dp293
g121
Nsg122
I00
sg123
S'Hedge_70'
p294
sg116
Nsbsg122
I01
sbsg114
g115
sg129
F827.8606183593555
sg116
g107
(g117
g109
Ntp295
Rp296
(dp297
g121
Nsg122
I00
sg123
S'Flood_Control'
p298
sg116
Nsbsg122
I01
sbsg114
g115
sg129
F563.3951215664728
sg116
g107
(g108
g109
Ntp299
Rp300
(dp301
g113
I0
sg121
g107
(g117
g109
Ntp302
Rp303
(dp304
g121
Nsg122
I00
sg123
S'Release_Demand'
p305
sg116
Nsbsg114
g115
sg129
F367.96337650505575
sg116
g107
(g117
g109
Ntp306
Rp307
(dp308
g121
Nsg122
I00
sg123
S'Hedge_80'
p309
sg116
Nsbsg122
I01
sbsg122
I01
sbsg130
(lp310
g279
ag300
ag307
ag303
ag282
ag296
ag285
ag292
ag288
asg132
I9
sbag276
ag276
ag276
ag276
ag276
ag276
ag276
ag276
ag276
ag276
ag276
a(itree
PTree
p311
(dp312
g106
g107
(g108
g109
Ntp313
Rp314
(dp315
g113
I0
sg121
g107
(g108
g109
Ntp316
Rp317
(dp318
g113
I0
sg121
g107
(g108
g109
Ntp319
Rp320
(dp321
g113
I1
sg121
g107
(g117
g109
Ntp322
Rp323
(dp324
g121
Nsg122
I00
sg123
g290
sg116
Nsbsg114
g142
sg129
F230.3434538269103
sg116
g107
(g117
g109
Ntp325
Rp326
(dp327
g121
Nsg122
I00
sg123
g294
sg116
Nsbsg122
I01
sbsg114
g115
sg129
F904.6211830080025
sg116
g107
(g117
g109
Ntp328
Rp329
(dp330
g121
Nsg122
I00
sg123
g298
sg116
Nsbsg122
I01
sbsg114
g115
sg129
F563.3951215664728
sg116
g107
(g108
g109
Ntp331
Rp332
(dp333
g113
I0
sg121
g107
(g117
g109
Ntp334
Rp335
(dp336
g121
Nsg122
I00
sg123
g305
sg116
Nsbsg114
g115
sg129
F245.61831098611063
sg116
g107
(g117
g109
Ntp337
Rp338
(dp339
g121
Nsg122
I00
sg123
g309
sg116
Nsbsg122
I01
sbsg122
I01
sbsg130
(lp340
g314
ag332
ag338
ag335
ag317
ag329
ag320
ag326
ag323
asg132
I9
sbag311
ag311
ag311
ag311
ag311
ag311
ag311
ag311
ag311
ag311
ag311
ag311
ag311
ag311
ag311
ag311
ag311
ag311
ag311
ag311
ag311
ag311
ag311
ag311
ag311
ag311
ag311
ag311
ag311
ag311
ag311
ag311
ag311
ag311
ag311
ag311
ag311
ag311
a(itree
PTree
p341
(dp342
g106
g107
(g108
g109
Ntp343
Rp344
(dp345
g113
I0
sg121
g107
(g108
g109
Ntp346
Rp347
(dp348
g113
I1
sg121
g107
(g117
g109
Ntp349
Rp350
(dp351
g121
Nsg122
I00
sg123
S'Release_Demand'
p352
sg116
Nsbsg114
g142
sg129
F101.10629368929416
sg116
g107
(g117
g109
Ntp353
Rp354
(dp355
g121
Nsg122
I00
sg123
S'Flood_Control'
p356
sg116
Nsbsg122
I01
sbsg114
g115
sg129
F568.1076932712452
sg116
g107
(g117
g109
Ntp357
Rp358
(dp359
g121
Nsg122
I00
sg123
S'Hedge_80'
p360
sg116
Nsbsg122
I01
sbsg130
(lp361
g344
ag358
ag347
ag354
ag350
asg132
I5
sbag341
ag341
ag341
ag341
ag341
ag341
ag341
ag341
ag341
ag341
ag341
ag341
ag341
ag341
ag341
ag341
a(itree
PTree
p362
(dp363
g106
g107
(g108
g109
Ntp364
Rp365
(dp366
g113
I0
sg121
g107
(g108
g109
Ntp367
Rp368
(dp369
g113
I1
sg121
g107
(g117
g109
Ntp370
Rp371
(dp372
g121
Nsg122
I00
sg123
S'Release_Demand'
p373
sg116
Nsbsg114
g142
sg129
F101.10629368929416
sg116
g107
(g117
g109
Ntp374
Rp375
(dp376
g121
Nsg122
I00
sg123
S'Flood_Control'
p377
sg116
Nsbsg122
I01
sbsg114
g115
sg129
F546.3396870188197
sg116
g107
(g117
g109
Ntp378
Rp379
(dp380
g121
Nsg122
I00
sg123
S'Hedge_80'
p381
sg116
Nsbsg122
I01
sbsg130
(lp382
g365
ag379
ag368
ag375
ag371
asg132
I5
sba(itree
PTree
p383
(dp384
g106
g107
(g108
g109
Ntp385
Rp386
(dp387
g113
I0
sg121
g107
(g108
g109
Ntp388
Rp389
(dp390
g113
I1
sg121
g107
(g117
g109
Ntp391
Rp392
(dp393
g121
Nsg122
I00
sg123
g373
sg116
Nsbsg114
g142
sg129
F100.73969032677304
sg116
g107
(g117
g109
Ntp394
Rp395
(dp396
g121
Nsg122
I00
sg123
g377
sg116
Nsbsg122
I01
sbsg114
g115
sg129
F510.60746311642646
sg116
g107
(g117
g109
Ntp397
Rp398
(dp399
g121
Nsg122
I00
sg123
g381
sg116
Nsbsg122
I01
sbsg130
(lp400
g386
ag398
ag389
ag395
ag392
asg132
I5
sba(itree
PTree
p401
(dp402
g106
g107
(g108
g109
Ntp403
Rp404
(dp405
g113
I0
sg121
g107
(g108
g109
Ntp406
Rp407
(dp408
g113
I1
sg121
g107
(g117
g109
Ntp409
Rp410
(dp411
g121
Nsg122
I00
sg123
g352
sg116
Nsbsg114
g142
sg129
F93.77841691426313
sg116
g107
(g117
g109
Ntp412
Rp413
(dp414
g121
Nsg122
I00
sg123
g356
sg116
Nsbsg122
I01
sbsg114
g115
sg129
F472.62740186252347
sg116
g107
(g117
g109
Ntp415
Rp416
(dp417
g121
Nsg122
I00
sg123
g360
sg116
Nsbsg122
I01
sbsg130
(lp418
g404
ag416
ag407
ag413
ag410
asg132
I5
sbag401
ag401
ag401
ag401
ag401
ag401
ag401
ag401
ag401
a(itree
PTree
p419
(dp420
g106
g107
(g108
g109
Ntp421
Rp422
(dp423
g113
I0
sg121
g107
(g108
g109
Ntp424
Rp425
(dp426
g113
I1
sg121
g107
(g117
g109
Ntp427
Rp428
(dp429
g121
Nsg122
I00
sg123
g373
sg116
Nsbsg114
g142
sg129
F92.76120106837313
sg116
g107
(g117
g109
Ntp430
Rp431
(dp432
g121
Nsg122
I00
sg123
g377
sg116
Nsbsg122
I01
sbsg114
g115
sg129
F457.98831067434753
sg116
g107
(g117
g109
Ntp433
Rp434
(dp435
g121
Nsg122
I00
sg123
g381
sg116
Nsbsg122
I01
sbsg130
(lp436
g422
ag434
ag425
ag431
ag428
asg132
I5
sbag419
ag419
ag419
ag419
ag419
ag419
ag419
ag419
ag419
a(itree
PTree
p437
(dp438
g106
g107
(g108
g109
Ntp439
Rp440
(dp441
g113
I0
sg121
g107
(g108
g109
Ntp442
Rp443
(dp444
g113
I1
sg121
g107
(g117
g109
Ntp445
Rp446
(dp447
g121
Nsg122
I00
sg123
g373
sg116
Nsbsg114
g142
sg129
F101.21017883902262
sg116
g107
(g117
g109
Ntp448
Rp449
(dp450
g121
Nsg122
I00
sg123
g377
sg116
Nsbsg122
I01
sbsg114
g115
sg129
F436.81657219330276
sg116
g107
(g117
g109
Ntp451
Rp452
(dp453
g121
Nsg122
I00
sg123
g381
sg116
Nsbsg122
I01
sbsg130
(lp454
g440
ag452
ag443
ag449
ag446
asg132
I5
sba(itree
PTree
p455
(dp456
g106
g107
(g108
g109
Ntp457
Rp458
(dp459
g113
I0
sg121
g107
(g108
g109
Ntp460
Rp461
(dp462
g113
I1
sg121
g107
(g117
g109
Ntp463
Rp464
(dp465
g121
Nsg122
I00
sg123
g373
sg116
Nsbsg114
g142
sg129
F101.21017883902262
sg116
g107
(g117
g109
Ntp466
Rp467
(dp468
g121
Nsg122
I00
sg123
g377
sg116
Nsbsg122
I01
sbsg114
g115
sg129
F417.52510305317975
sg116
g107
(g117
g109
Ntp469
Rp470
(dp471
g121
Nsg122
I00
sg123
g381
sg116
Nsbsg122
I01
sbsg130
(lp472
g458
ag470
ag461
ag467
ag464
asg132
I5
sbag455
ag455
ag455
ag455
ag455
ag455
ag455
ag455
ag455
ag455
ag455
ag455
ag455
ag455
ag455
ag455
ag455
ag455
ag455
ag455
ag455
ag455
ag455
ag455
ag455
ag455
ag455
ag455
ag455
ag455
ag455
ag455
ag455
ag455
ag455
ag455
ag455
ag455
ag455
ag455
ag455
a(itree
PTree
p473
(dp474
g106
g107
(g108
g109
Ntp475
Rp476
(dp477
g113
I0
sg121
g107
(g108
g109
Ntp478
Rp479
(dp480
g113
I1
sg121
g107
(g117
g109
Ntp481
Rp482
(dp483
g121
Nsg122
I00
sg123
S'Hedge_90'
p484
sg116
Nsbsg114
g142
sg129
F119.7856353842961
sg116
g107
(g117
g109
Ntp485
Rp486
(dp487
g121
Nsg122
I00
sg123
g356
sg116
Nsbsg122
I01
sbsg114
g115
sg129
F566.3841052709745
sg116
g107
(g117
g109
Ntp488
Rp489
(dp490
g121
Nsg122
I00
sg123
S'Hedge_90'
p491
sg116
Nsbsg122
I01
sbsg130
(lp492
g476
ag489
ag479
ag486
ag482
asg132
I5
sbag473
ag473
ag473
a(itree
PTree
p493
(dp494
g106
g107
(g108
g109
Ntp495
Rp496
(dp497
g113
I0
sg121
g107
(g108
g109
Ntp498
Rp499
(dp500
g113
I1
sg121
g107
(g117
g109
Ntp501
Rp502
(dp503
g121
Nsg122
I00
sg123
g352
sg116
Nsbsg114
g142
sg129
F103.88424155349517
sg116
g107
(g117
g109
Ntp504
Rp505
(dp506
g121
Nsg122
I00
sg123
g356
sg116
Nsbsg122
I01
sbsg114
g115
sg129
F415.16701945362206
sg116
g107
(g117
g109
Ntp507
Rp508
(dp509
g121
Nsg122
I00
sg123
g360
sg116
Nsbsg122
I01
sbsg130
(lp510
g496
ag508
ag499
ag505
ag502
asg132
I5
sbag493
ag493
ag493
ag493
ag493
ag493
ag493
ag493
ag493
ag493
ag493
ag493
ag493
ag493
ag493
ag493
ag493
ag493
ag493
a(itree
PTree
p511
(dp512
g106
g107
(g108
g109
Ntp513
Rp514
(dp515
g113
I0
sg121
g107
(g108
g109
Ntp516
Rp517
(dp518
g113
I1
sg121
g107
(g117
g109
Ntp519
Rp520
(dp521
g121
Nsg122
I00
sg123
S'Release_Demand'
p522
sg116
Nsbsg114
g142
sg129
F92.26212498142803
sg116
g107
(g117
g109
Ntp523
Rp524
(dp525
g121
Nsg122
I00
sg123
S'Flood_Control'
p526
sg116
Nsbsg122
I01
sbsg114
g115
sg129
F424.2688841445225
sg116
g107
(g117
g109
Ntp527
Rp528
(dp529
g121
Nsg122
I00
sg123
S'Hedge_80'
p530
sg116
Nsbsg122
I01
sbsg130
(lp531
g514
ag528
ag517
ag524
ag520
asg132
I5
sbag511
ag511
ag511
ag511
ag511
ag511
ag511
ag511
ag511
ag511
ag511
ag511
ag511
ag511
ag511
ag511
ag511
ag511
ag511
a(itree
PTree
p532
(dp533
g106
g107
(g108
g109
Ntp534
Rp535
(dp536
g113
I0
sg121
g107
(g108
g109
Ntp537
Rp538
(dp539
g113
I1
sg121
g107
(g117
g109
Ntp540
Rp541
(dp542
g121
Nsg122
I00
sg123
S'Release_Demand'
p543
sg116
Nsbsg114
g142
sg129
F95.07886770886849
sg116
g107
(g117
g109
Ntp544
Rp545
(dp546
g121
Nsg122
I00
sg123
S'Flood_Control'
p547
sg116
Nsbsg122
I01
sbsg114
g115
sg129
F417.6254855497075
sg116
g107
(g117
g109
Ntp548
Rp549
(dp550
g121
Nsg122
I00
sg123
S'Hedge_80'
p551
sg116
Nsbsg122
I01
sbsg130
(lp552
g535
ag549
ag538
ag545
ag541
asg132
I5
sbag532
ag532
ag532
ag532
a(itree
PTree
p553
(dp554
g106
g107
(g108
g109
Ntp555
Rp556
(dp557
g113
I0
sg121
g107
(g108
g109
Ntp558
Rp559
(dp560
g113
I0
sg121
g107
(g108
g109
Ntp561
Rp562
(dp563
g113
I1
sg121
g107
(g117
g109
Ntp564
Rp565
(dp566
g121
Nsg122
I00
sg123
S'Release_Demand'
p567
sg116
Nsbsg114
g142
sg129
F146.77833683370412
sg116
g107
(g117
g109
Ntp568
Rp569
(dp570
g121
Nsg122
I00
sg123
S'Flood_Control'
p571
sg116
Nsbsg122
I01
sbsg114
g115
sg129
F571.6998691586829
sg116
g107
(g117
g109
Ntp572
Rp573
(dp574
g121
Nsg122
I00
sg123
S'Hedge_90'
p575
sg116
Nsbsg122
I01
sbsg114
g115
sg129
F370.4642054234849
sg116
g107
(g117
g109
Ntp576
Rp577
(dp578
g121
Nsg122
I00
sg123
S'Hedge_70'
p579
sg116
Nsbsg122
I01
sbsg130
(lp580
g556
ag577
ag559
ag573
ag562
ag569
ag565
asg132
I7
sba(itree
PTree
p581
(dp582
g106
g107
(g108
g109
Ntp583
Rp584
(dp585
g113
I0
sg121
g107
(g108
g109
Ntp586
Rp587
(dp588
g113
I0
sg121
g107
(g108
g109
Ntp589
Rp590
(dp591
g113
I1
sg121
g107
(g117
g109
Ntp592
Rp593
(dp594
g121
Nsg122
I00
sg123
g567
sg116
Nsbsg114
g142
sg129
F131.99999048555205
sg116
g107
(g117
g109
Ntp595
Rp596
(dp597
g121
Nsg122
I00
sg123
g571
sg116
Nsbsg122
I01
sbsg114
g115
sg129
F510.5808534801306
sg116
g107
(g117
g109
Ntp598
Rp599
(dp600
g121
Nsg122
I00
sg123
g575
sg116
Nsbsg122
I01
sbsg114
g115
sg129
F300.9652252368481
sg116
g107
(g117
g109
Ntp601
Rp602
(dp603
g121
Nsg122
I00
sg123
g579
sg116
Nsbsg122
I01
sbsg130
(lp604
g584
ag602
ag587
ag599
ag590
ag596
ag593
asg132
I7
sba(itree
PTree
p605
(dp606
g106
g107
(g108
g109
Ntp607
Rp608
(dp609
g113
I0
sg121
g107
(g108
g109
Ntp610
Rp611
(dp612
g113
I0
sg121
g107
(g108
g109
Ntp613
Rp614
(dp615
g113
I1
sg121
g107
(g117
g109
Ntp616
Rp617
(dp618
g121
Nsg122
I00
sg123
g567
sg116
Nsbsg114
g142
sg129
F118.36366595900685
sg116
g107
(g117
g109
Ntp619
Rp620
(dp621
g121
Nsg122
I00
sg123
g571
sg116
Nsbsg122
I01
sbsg114
g115
sg129
F515.3880238830993
sg116
g107
(g117
g109
Ntp622
Rp623
(dp624
g121
Nsg122
I00
sg123
g575
sg116
Nsbsg122
I01
sbsg114
g115
sg129
F305.2684307656081
sg116
g107
(g117
g109
Ntp625
Rp626
(dp627
g121
Nsg122
I00
sg123
g579
sg116
Nsbsg122
I01
sbsg130
(lp628
g608
ag626
ag611
ag623
ag614
ag620
ag617
asg132
I7
sba(itree
PTree
p629
(dp630
g106
g107
(g108
g109
Ntp631
Rp632
(dp633
g113
I0
sg121
g107
(g108
g109
Ntp634
Rp635
(dp636
g113
I0
sg121
g107
(g108
g109
Ntp637
Rp638
(dp639
g113
I1
sg121
g107
(g117
g109
Ntp640
Rp641
(dp642
g121
Nsg122
I00
sg123
g567
sg116
Nsbsg114
g142
sg129
F99.52288853946489
sg116
g107
(g117
g109
Ntp643
Rp644
(dp645
g121
Nsg122
I00
sg123
g571
sg116
Nsbsg122
I01
sbsg114
g115
sg129
F520.3409656287871
sg116
g107
(g117
g109
Ntp646
Rp647
(dp648
g121
Nsg122
I00
sg123
g575
sg116
Nsbsg122
I01
sbsg114
g115
sg129
F230.11601527036188
sg116
g107
(g117
g109
Ntp649
Rp650
(dp651
g121
Nsg122
I00
sg123
g579
sg116
Nsbsg122
I01
sbsg130
(lp652
g632
ag650
ag635
ag647
ag638
ag644
ag641
asg132
I7
sbag629
ag629
ag629
ag629
ag629
ag629
ag629
ag629
ag629
ag629
ag629
ag629
a(itree
PTree
p653
(dp654
g106
g107
(g108
g109
Ntp655
Rp656
(dp657
g113
I0
sg121
g107
(g108
g109
Ntp658
Rp659
(dp660
g113
I0
sg121
g107
(g108
g109
Ntp661
Rp662
(dp663
g113
I1
sg121
g107
(g117
g109
Ntp664
Rp665
(dp666
g121
Nsg122
I00
sg123
S'Release_Demand'
p667
sg116
Nsbsg114
g142
sg129
F110.202050679448
sg116
g107
(g117
g109
Ntp668
Rp669
(dp670
g121
Nsg122
I00
sg123
S'Flood_Control'
p671
sg116
Nsbsg122
I01
sbsg114
g115
sg129
F552.1553777483649
sg116
g107
(g117
g109
Ntp672
Rp673
(dp674
g121
Nsg122
I00
sg123
S'Release_Demand'
p675
sg116
Nsbsg122
I01
sbsg114
g115
sg129
F238.69522390552882
sg116
g107
(g117
g109
Ntp676
Rp677
(dp678
g121
Nsg122
I00
sg123
S'Hedge_70'
p679
sg116
Nsbsg122
I01
sbsg130
(lp680
g656
ag677
ag659
ag673
ag662
ag669
ag665
asg132
I7
sbag653
ag653
ag653
ag653
a(itree
PTree
p681
(dp682
g106
g107
(g108
g109
Ntp683
Rp684
(dp685
g113
I0
sg121
g107
(g108
g109
Ntp686
Rp687
(dp688
g113
I0
sg121
g107
(g108
g109
Ntp689
Rp690
(dp691
g113
I1
sg121
g107
(g117
g109
Ntp692
Rp693
(dp694
g121
Nsg122
I00
sg123
g667
sg116
Nsbsg114
g142
sg129
F101.31333515668686
sg116
g107
(g117
g109
Ntp695
Rp696
(dp697
g121
Nsg122
I00
sg123
g671
sg116
Nsbsg122
I01
sbsg114
g115
sg129
F552.2107072344457
sg116
g107
(g117
g109
Ntp698
Rp699
(dp700
g121
Nsg122
I00
sg123
g675
sg116
Nsbsg122
I01
sbsg114
g115
sg129
F239.28945032906122
sg116
g107
(g117
g109
Ntp701
Rp702
(dp703
g121
Nsg122
I00
sg123
g679
sg116
Nsbsg122
I01
sbsg130
(lp704
g684
ag702
ag687
ag699
ag690
ag696
ag693
asg132
I7
sbag681
ag681
ag681
ag681
ag681
ag681
ag681
ag681
ag681
ag681
a(itree
PTree
p705
(dp706
g106
g107
(g108
g109
Ntp707
Rp708
(dp709
g113
I0
sg121
g107
(g108
g109
Ntp710
Rp711
(dp712
g113
I0
sg121
g107
(g108
g109
Ntp713
Rp714
(dp715
g113
I1
sg121
g107
(g117
g109
Ntp716
Rp717
(dp718
g121
Nsg122
I00
sg123
S'Release_Demand'
p719
sg116
Nsbsg114
g142
sg129
F98.29504478123285
sg116
g107
(g117
g109
Ntp720
Rp721
(dp722
g121
Nsg122
I00
sg123
S'Flood_Control'
p723
sg116
Nsbsg122
I01
sbsg114
g115
sg129
F518.4190015443279
sg116
g107
(g117
g109
Ntp724
Rp725
(dp726
g121
Nsg122
I00
sg123
S'Release_Demand'
p727
sg116
Nsbsg122
I01
sbsg114
g115
sg129
F371.97034176088573
sg116
g107
(g117
g109
Ntp728
Rp729
(dp730
g121
Nsg122
I00
sg123
S'Hedge_80'
p731
sg116
Nsbsg122
I01
sbsg130
(lp732
g708
ag729
ag711
ag725
ag714
ag721
ag717
asg132
I7
sbag705
ag705
ag705
ag705
ag705
ag705
ag705
ag705
ag705
ag705
ag705
ag705
ag705
ag705
ag705
ag705
ag705
ag705
ag705
ag705
ag705
ag705
ag705
ag705
ag705
ag705
ag705
ag705
ag705
ag705
ag705
ag705
ag705
ag705
ag705
ag705
asS'time'
p733
(lp734
I56
aI84
aI112
aI141
aI169
aI198
aI226
aI255
aI283
aI310
aI337
aI364
aI392
aI419
aI446
aI473
aI499
aI526
aI553
aI580
aI606
aI633
aI659
aI686
aI713
aI739
aI766
aI793
aI819
aI845
aI872
aI898
aI925
aI951
aI977
aI1004
aI1030
aI1056
aI1083
aI1109
aI1136
aI1162
aI1188
aI1215
aI1241
aI1268
aI1294
aI1320
aI1346
aI1373
aI1399
aI1425
aI1452
aI1478
aI1505
aI1531
aI1558
aI1584
aI1611
aI1637
aI1664
aI1691
aI1717
aI1743
aI1770
aI1796
aI1823
aI1849
aI1875
aI1902
aI1928
aI1954
aI1981
aI2007
aI2033
aI2059
aI2085
aI2112
aI2138
aI2164
aI2190
aI2216
aI2243
aI2269
aI2295
aI2322
aI2348
aI2375
aI2401
aI2427
aI2454
aI2480
aI2507
aI2533
aI2559
aI2586
aI2612
aI2638
aI2664
aI2690
aI2717
aI2743
aI2769
aI2796
aI2822
aI2849
aI2875
aI2901
aI2927
aI2954
aI2981
aI3007
aI3033
aI3060
aI3087
aI3114
aI3141
aI3168
aI3194
aI3221
aI3248
aI3275
aI3302
aI3329
aI3356
aI3383
aI3410
aI3437
aI3464
aI3491
aI3517
aI3544
aI3572
aI3599
aI3625
aI3653
aI3680
aI3706
aI3733
aI3760
aI3787
aI3814
aI3841
aI3868
aI3895
aI3922
aI3949
aI3975
aI4002
aI4030
aI4057
aI4084
aI4111
aI4138
aI4165
aI4192
aI4219
aI4246
aI4274
aI4301
aI4328
aI4355
aI4383
aI4410
aI4437
aI4464
aI4491
aI4518
aI4546
aI4573
aI4600
aI4627
aI4655
aI4682
aI4709
aI4736
aI4763
aI4791
aI4818
aI4845
aI4872
aI4899
aI4927
aI4954
aI4982
aI5009
aI5036
aI5064
aI5091
aI5118
aI5146
aI5173
aI5200
aI5228
aI5255
aI5283
aI5311
aI5338
aI5366
aI5393
aI5421
aI5449
aI5477
aI5504
aI5532
aI5560
aI5588
aI5616
aI5644
aI5671
aI5699
aI5727
aI5755
aI5783
aI5810
aI5838
aI5866
aI5894
aI5921
aI5949
aI5977
aI6005
aI6033
aI6061
aI6089
aI6117
aI6145
aI6174
aI6202
aI6230
aI6258
aI6286
aI6314
aI6342
aI6370
aI6398
aI6425
aI6454
aI6482
aI6510
aI6538
aI6567
aI6596
aI6624
aI6653
aI6681
aI6710
aI6738
aI6767
aI6795
aI6824
aI6853
aI6883
aI6912
aI6941
aI6970
aI6998
aI7028
aI7057
aI7085
aI7114
aI7143
aI7172
aI7201
aI7230
aI7259
aI7288
aI7317
aI7346
aI7375
aI7404
aI7432
aI7461
aI7490
aI7519
aI7548
aI7577
aI7606
aI7634
aI7664
aI7692
aI7722
aI7750
aI7780
aI7809
aI7838
aI7867
aI7896
aI7925
aI7953
aI7982
aI8012
aI8041
aI8070
aI8099
aI8128
aI8157
aI8186
aI8215
aI8244
aI8273
aI8302
aI8331
aI8359
aI8389
aI8418
aI8448
aI8477
aI8506
aI8535
aI8564
aI8594
aI8622
aI8652
aI8681
aI8710
aI8739
aI8768
aI8798
aI8827
aI8856
aI8886
aI8915
aI8944
aI8973
aI9003
aI9032
aI9061
aI9091
aI9121
aI9150
aI9179
aI9209
aI9238
aI9268
aI9297
aI9326
aI9356
aI9385
aI9414
aI9443
aI9472
aI9501
aI9531
aI9560
aI9589
aI9618
aI9647
aI9676
aI9705
aI9735
aI9764
aI9793
aI9823
aI9852
aI9881
aI9910
aI9939
aI9968
aI9998
aI10027
aI10056
aI10084
aI10113
aI10142
aI10171
aI10200
aI10229
aI10258
aI10287
aI10316
aI10344
aI10373
aI10403
aI10432
aI10460
aI10489
aI10518
aI10548
aI10576
aI10606
aI10635
aI10664
aI10694
aI10723
aI10752
aI10781
aI10811
aI10839
aI10869
aI10898
aI10927
aI10957
aI10985
aI11015
aI11044
aI11073
aI11102
aI11131
aI11160
as.