(dp0
S'nfe'
p1
(lp2
I50
aI100
aI150
aI200
aI250
aI300
aI350
aI400
aI450
aI500
aI550
aI600
aI650
aI700
aI750
aI800
aI850
aI900
aI950
aI1000
aI1050
aI1100
aI1150
aI1200
aI1250
aI1300
aI1350
aI1400
aI1450
aI1500
aI1550
aI1600
aI1650
aI1700
aI1750
aI1800
aI1850
aI1900
aI1950
aI2000
aI2050
aI2100
aI2150
aI2200
aI2250
aI2300
aI2350
aI2400
aI2450
aI2500
aI2550
aI2600
aI2650
aI2700
aI2750
aI2800
aI2850
aI2900
aI2950
aI3000
aI3050
aI3100
aI3150
aI3200
aI3250
aI3300
aI3350
aI3400
aI3450
aI3500
aI3550
aI3600
aI3650
aI3700
aI3750
aI3800
aI3850
aI3900
aI3950
aI4000
aI4050
aI4100
aI4150
aI4200
aI4250
aI4300
aI4350
aI4400
aI4450
aI4500
aI4550
aI4600
aI4650
aI4700
aI4750
aI4800
aI4850
aI4900
aI4950
aI5000
aI5050
aI5100
aI5150
aI5200
aI5250
aI5300
aI5350
aI5400
aI5450
aI5500
aI5550
aI5600
aI5650
aI5700
aI5750
aI5800
aI5850
aI5900
aI5950
aI6000
aI6050
aI6100
aI6150
aI6200
aI6250
aI6300
aI6350
aI6400
aI6450
aI6500
aI6550
aI6600
aI6650
aI6700
aI6750
aI6800
aI6850
aI6900
aI6950
aI7000
aI7050
aI7100
aI7150
aI7200
aI7250
aI7300
aI7350
aI7400
aI7450
aI7500
aI7550
aI7600
aI7650
aI7700
aI7750
aI7800
aI7850
aI7900
aI7950
aI8000
aI8050
aI8100
aI8150
aI8200
aI8250
aI8300
aI8350
aI8400
aI8450
aI8500
aI8550
aI8600
aI8650
aI8700
aI8750
aI8800
aI8850
aI8900
aI8950
aI9000
aI9050
aI9100
aI9150
aI9200
aI9250
aI9300
aI9350
aI9400
aI9450
aI9500
aI9550
aI9600
aI9650
aI9700
aI9750
aI9800
aI9850
aI9900
aI9950
aI10000
aI10050
aI10100
aI10150
aI10200
aI10250
aI10300
aI10350
aI10400
aI10450
aI10500
aI10550
aI10600
aI10650
aI10700
aI10750
aI10800
aI10850
aI10900
aI10950
aI11000
aI11050
aI11100
aI11150
aI11200
aI11250
aI11300
aI11350
aI11400
aI11450
aI11500
aI11550
aI11600
aI11650
aI11700
aI11750
aI11800
aI11850
aI11900
aI11950
aI12000
aI12050
aI12100
aI12150
aI12200
aI12250
aI12300
aI12350
aI12400
aI12450
aI12500
aI12550
aI12600
aI12650
aI12700
aI12750
aI12800
aI12850
aI12900
aI12950
aI13000
aI13050
aI13100
aI13150
aI13200
aI13250
aI13300
aI13350
aI13400
aI13450
aI13500
aI13550
aI13600
aI13650
aI13700
aI13750
aI13800
aI13850
aI13900
aI13950
aI14000
aI14050
aI14100
aI14150
aI14200
aI14250
aI14300
aI14350
aI14400
aI14450
aI14500
aI14550
aI14600
aI14650
aI14700
aI14750
aI14800
aI14850
aI14900
aI14950
aI15000
aI15050
aI15100
aI15150
aI15200
aI15250
aI15300
aI15350
aI15400
aI15450
aI15500
aI15550
aI15600
aI15650
aI15700
aI15750
aI15800
aI15850
aI15900
aI15950
aI16000
aI16050
aI16100
aI16150
aI16200
aI16250
aI16300
aI16350
aI16400
aI16450
aI16500
aI16550
aI16600
aI16650
aI16700
aI16750
aI16800
aI16850
aI16900
aI16950
aI17000
aI17050
aI17100
aI17150
aI17200
aI17250
aI17300
aI17350
aI17400
aI17450
aI17500
aI17550
aI17600
aI17650
aI17700
aI17750
aI17800
aI17850
aI17900
aI17950
aI18000
aI18050
aI18100
aI18150
aI18200
aI18250
aI18300
aI18350
aI18400
aI18450
aI18500
aI18550
aI18600
aI18650
aI18700
aI18750
aI18800
aI18850
aI18900
aI18950
aI19000
aI19050
aI19100
aI19150
aI19200
aI19250
aI19300
aI19350
aI19400
aI19450
aI19500
aI19550
aI19600
aI19650
aI19700
aI19750
aI19800
aI19850
aI19900
aI19950
aI20000
asS'best_f'
p3
(lp4
cnumpy.core.multiarray
scalar
p5
(cnumpy
dtype
p6
(S'f8'
p7
I0
I1
tp8
Rp9
(I3
S'<'
p10
NNNI-1
I-1
I0
tp11
bS"LU\xe28'\x03\xfd?"
p12
tp13
Rp14
ag5
(g9
S'\xb6\xee&\xcb\x0cv\xf7?'
p15
tp16
Rp17
ag5
(g9
S'\xbf\x0b\x80\x93#@\xf7?'
p18
tp19
Rp20
ag5
(g9
S'\xea\xd7\x99\x97H\x1a\xe0?'
p21
tp22
Rp23
ag5
(g9
S'\xf9\x98:rn\xc0\xdf?'
p24
tp25
Rp26
ag26
ag5
(g9
S'n\xfc[\tAe\xdc?'
p27
tp28
Rp29
ag29
ag29
ag29
ag5
(g9
S'ws3\xe0vF\xd9?'
p30
tp31
Rp32
ag5
(g9
S'\xa2\x92\x8e\x80b \xd4?'
p33
tp34
Rp35
ag35
ag35
ag5
(g9
S'T`p\xf1\xf2\xc8\xd3?'
p36
tp37
Rp38
ag38
ag38
ag38
ag38
ag38
ag5
(g9
S'\x1c\xe6\xaf\x81H\x1a\xd3?'
p39
tp40
Rp41
ag41
ag41
ag41
ag41
ag41
ag41
ag41
ag41
ag41
ag41
ag41
ag41
ag41
ag5
(g9
S'\x03WK\x02\xb3\xc3\xd2?'
p42
tp43
Rp44
ag44
ag44
ag5
(g9
S'\x0f\x9at\x15\xe1\xf5\xd1?'
p45
tp46
Rp47
ag47
ag47
ag47
ag47
ag47
ag47
ag47
ag47
ag47
ag47
ag47
ag47
ag47
ag47
ag47
ag47
ag47
ag47
ag47
ag47
ag47
ag5
(g9
S'd\x9b\xb6\x00\xeb\xcd\xd0?'
p48
tp49
Rp50
ag50
ag50
ag50
ag50
ag50
ag5
(g9
S'\xcb/m\xc4\x1b\x88\xcd?'
p51
tp52
Rp53
ag53
ag53
ag53
ag53
ag53
ag53
ag5
(g9
S' \x8b\xc9\x92)\x04\xcc?'
p54
tp55
Rp56
ag56
ag56
ag56
ag56
ag56
ag56
ag56
ag56
ag56
ag56
ag56
ag56
ag56
ag56
ag56
ag56
ag56
ag56
ag56
ag56
ag56
ag56
ag56
ag56
ag56
ag56
ag56
ag56
ag56
ag56
ag56
ag56
ag56
ag56
ag56
ag56
ag56
ag56
ag56
ag56
ag56
ag56
ag56
ag56
ag56
ag56
ag5
(g9
S':\xeb_\xe5\xb1W\xcb?'
p57
tp58
Rp59
ag59
ag59
ag59
ag59
ag59
ag59
ag59
ag59
ag59
ag59
ag59
ag59
ag59
ag59
ag59
ag59
ag59
ag59
ag59
ag59
ag59
ag59
ag59
ag59
ag59
ag59
ag59
ag59
ag59
ag59
ag59
ag59
ag59
ag59
ag59
ag59
ag59
ag59
ag59
ag59
ag59
ag59
ag59
ag59
ag5
(g9
S'q\xc6\xec\xc4\x8c\xea\xca?'
p60
tp61
Rp62
ag62
ag62
ag62
ag62
ag62
ag62
ag62
ag62
ag62
ag62
ag62
ag62
ag62
ag62
ag62
ag62
ag62
ag62
ag62
ag62
ag62
ag62
ag62
ag62
ag62
ag62
ag62
ag62
ag62
ag62
ag62
ag62
ag62
ag62
ag62
ag62
ag62
ag62
ag62
ag62
ag62
ag62
ag62
ag62
ag62
ag62
ag62
ag62
ag62
ag62
ag62
ag62
ag62
ag62
ag62
ag62
ag62
ag62
ag62
ag62
ag62
ag62
ag62
ag62
ag62
ag62
ag62
ag62
ag62
ag62
ag62
ag62
ag62
ag62
ag62
ag62
ag5
(g9
S'\xbcfY\xa1\xe7\xe7\xca?'
p63
tp64
Rp65
ag65
ag65
ag65
ag65
ag65
ag65
ag65
ag65
ag65
ag65
ag65
ag65
ag65
ag65
ag65
ag65
ag65
ag65
ag65
ag65
ag65
ag65
ag65
ag65
ag65
ag65
ag65
ag65
ag65
ag65
ag65
ag65
ag65
ag65
ag65
ag65
ag65
ag65
ag65
ag65
ag65
ag65
ag65
ag65
ag65
ag65
ag65
ag65
ag65
ag65
ag65
ag65
ag65
ag65
ag65
ag65
ag65
ag65
ag65
ag65
ag65
ag65
ag65
ag65
ag65
ag65
ag65
ag65
ag65
ag65
ag65
ag65
ag65
ag65
ag65
ag65
ag65
ag65
ag65
ag65
ag65
ag65
ag65
ag65
ag65
ag65
ag65
ag65
ag65
ag65
ag65
ag65
ag65
ag65
ag65
ag65
ag65
ag65
ag65
ag65
ag65
ag65
ag65
ag65
ag65
ag65
ag65
ag65
ag65
ag65
ag65
ag65
ag65
ag65
ag65
ag65
ag65
ag65
ag65
ag65
ag65
ag65
ag65
ag65
ag65
ag65
ag65
ag65
ag65
ag65
ag65
ag65
ag65
ag65
ag65
ag65
ag65
ag65
ag65
ag65
ag65
ag65
ag65
ag65
ag65
ag65
ag65
ag65
ag65
ag65
ag65
ag65
ag65
ag65
ag65
ag65
ag65
ag65
asS'best_P'
p66
(lp67
(itree
PTree
p68
(dp69
S'root'
p70
ccopy_reg
_reconstructor
p71
(ctree
Feature
p72
c__builtin__
object
p73
Ntp74
Rp75
(dp76
S'index'
p77
I0
sS'name'
p78
S'Storage'
p79
sS'l'
p80
g71
(g72
g73
Ntp81
Rp82
(dp83
g77
I0
sg78
g79
sg80
g71
(ctree
Action
p84
g73
Ntp85
Rp86
(dp87
S'r'
p88
NsS'is_feature'
p89
I00
sS'value'
p90
S'Hedge_70'
p91
sg80
Nsbsg88
g71
(g72
g73
Ntp92
Rp93
(dp94
g77
I1
sg78
S'Day'
p95
sg80
g71
(g84
g73
Ntp96
Rp97
(dp98
g88
Nsg89
I00
sg90
S'Release_Demand'
p99
sg80
Nsbsg88
g71
(g84
g73
Ntp100
Rp101
(dp102
g88
Nsg89
I00
sg90
S'Flood_Control'
p103
sg80
NsbsS'threshold'
p104
F68.77244569861521
sg89
I01
sbsg104
F165.87144843833423
sg89
I01
sbsg88
g71
(g84
g73
Ntp105
Rp106
(dp107
g88
Nsg89
I00
sg90
S'Flood_Control'
p108
sg80
Nsbsg104
F861.1811529138913
sg89
I01
sbsS'L'
p109
(lp110
g75
ag82
ag86
ag93
ag97
ag101
ag106
asS'N'
p111
I7
sba(itree
PTree
p112
(dp113
g70
g71
(g72
g73
Ntp114
Rp115
(dp116
g77
I1
sg88
g71
(g84
g73
Ntp117
Rp118
(dp119
g88
Nsg89
I00
sg90
S'Hedge_70'
p120
sg80
Nsbsg78
g95
sg104
F114.86805911158386
sg80
g71
(g84
g73
Ntp121
Rp122
(dp123
g88
Nsg89
I00
sg90
S'Flood_Control'
p124
sg80
Nsbsg89
I01
sbsg109
(lp125
g115
ag122
ag118
asg111
I3
sba(itree
PTree
p126
(dp127
g70
g71
(g72
g73
Ntp128
Rp129
(dp130
g77
I1
sg88
g71
(g84
g73
Ntp131
Rp132
(dp133
g88
Nsg89
I00
sg90
g120
sg80
Nsbsg78
g95
sg104
F86.62195258996742
sg80
g71
(g84
g73
Ntp134
Rp135
(dp136
g88
Nsg89
I00
sg90
g124
sg80
Nsbsg89
I01
sbsg109
(lp137
g129
ag135
ag132
asg111
I3
sba(itree
PTree
p138
(dp139
g70
g71
(g72
g73
Ntp140
Rp141
(dp142
g77
I0
sg88
g71
(g84
g73
Ntp143
Rp144
(dp145
g88
Nsg89
I00
sg90
S'Hedge_80'
p146
sg80
Nsbsg78
g79
sg104
F490.0302171505698
sg80
g71
(g72
g73
Ntp147
Rp148
(dp149
g77
I1
sg88
g71
(g84
g73
Ntp150
Rp151
(dp152
g88
Nsg89
I00
sg90
S'Flood_Control'
p153
sg80
Nsbsg78
g95
sg104
F45.80919326664335
sg80
g71
(g84
g73
Ntp154
Rp155
(dp156
g88
Nsg89
I00
sg90
S'Hedge_70'
p157
sg80
Nsbsg89
I01
sbsg89
I01
sbsg109
(lp158
g141
ag148
ag155
ag151
ag144
asg111
I5
sba(itree
PTree
p159
(dp160
g70
g71
(g72
g73
Ntp161
Rp162
(dp163
g77
I0
sg88
g71
(g84
g73
Ntp164
Rp165
(dp166
g88
Nsg89
I00
sg90
g146
sg80
Nsbsg78
g79
sg104
F485.2138448520608
sg80
g71
(g72
g73
Ntp167
Rp168
(dp169
g77
I1
sg88
g71
(g84
g73
Ntp170
Rp171
(dp172
g88
Nsg89
I00
sg90
g153
sg80
Nsbsg78
g95
sg104
F10.6703188422448
sg80
g71
(g84
g73
Ntp173
Rp174
(dp175
g88
Nsg89
I00
sg90
g157
sg80
Nsbsg89
I01
sbsg89
I01
sbsg109
(lp176
g162
ag168
ag174
ag171
ag165
asg111
I5
sbag159
a(itree
PTree
p177
(dp178
g70
g71
(g72
g73
Ntp179
Rp180
(dp181
g77
I0
sg88
g71
(g84
g73
Ntp182
Rp183
(dp184
g88
Nsg89
I00
sg90
S'Hedge_90'
p185
sg80
Nsbsg78
g79
sg104
F666.1375954528573
sg80
g71
(g72
g73
Ntp186
Rp187
(dp188
g77
I0
sg88
g71
(g72
g73
Ntp189
Rp190
(dp191
g77
I1
sg88
g71
(g84
g73
Ntp192
Rp193
(dp194
g88
Nsg89
I00
sg90
g103
sg80
Nsbsg78
g95
sg104
F40.18693671021329
sg80
g71
(g84
g73
Ntp195
Rp196
(dp197
g88
Nsg89
I00
sg90
S'Hedge_50'
p198
sg80
Nsbsg89
I01
sbsg78
g79
sg104
F467.39063742380154
sg80
g71
(g84
g73
Ntp199
Rp200
(dp201
g88
Nsg89
I00
sg90
S'Release_Demand'
p202
sg80
Nsbsg89
I01
sbsg89
I01
sbsg109
(lp203
g180
ag187
ag200
ag190
ag196
ag193
ag183
asg111
I7
sbag177
ag177
ag177
a(itree
PTree
p204
(dp205
g70
g71
(g72
g73
Ntp206
Rp207
(dp208
g77
I0
sg88
g71
(g84
g73
Ntp209
Rp210
(dp211
g88
Nsg89
I00
sg90
S'Flood_Control'
p212
sg80
Nsbsg78
g79
sg104
F611.5448860907823
sg80
g71
(g84
g73
Ntp213
Rp214
(dp215
g88
Nsg89
I00
sg90
S'Release_Demand'
p216
sg80
Nsbsg89
I01
sbsg109
(lp217
g207
ag214
ag210
asg111
I3
sba(itree
PTree
p218
(dp219
g70
g71
(g72
g73
Ntp220
Rp221
(dp222
g77
I0
sg88
g71
(g84
g73
Ntp223
Rp224
(dp225
g88
Nsg89
I00
sg90
g212
sg80
Nsbsg78
g79
sg104
F664.8208943436642
sg80
g71
(g84
g73
Ntp226
Rp227
(dp228
g88
Nsg89
I00
sg90
g216
sg80
Nsbsg89
I01
sbsg109
(lp229
g221
ag227
ag224
asg111
I3
sbag218
ag218
a(itree
PTree
p230
(dp231
g70
g71
(g72
g73
Ntp232
Rp233
(dp234
g77
I0
sg88
g71
(g84
g73
Ntp235
Rp236
(dp237
g88
Nsg89
I00
sg90
g212
sg80
Nsbsg78
g79
sg104
F661.8991974633632
sg80
g71
(g84
g73
Ntp238
Rp239
(dp240
g88
Nsg89
I00
sg90
g216
sg80
Nsbsg89
I01
sbsg109
(lp241
g233
ag239
ag236
asg111
I3
sbag230
ag230
ag230
ag230
ag230
a(itree
PTree
p242
(dp243
g70
g71
(g72
g73
Ntp244
Rp245
(dp246
g77
I0
sg88
g71
(g84
g73
Ntp247
Rp248
(dp249
g88
Nsg89
I00
sg90
g212
sg80
Nsbsg78
g79
sg104
F657.1909004239994
sg80
g71
(g84
g73
Ntp250
Rp251
(dp252
g88
Nsg89
I00
sg90
g216
sg80
Nsbsg89
I01
sbsg109
(lp253
g245
ag251
ag248
asg111
I3
sbag242
ag242
ag242
ag242
ag242
ag242
ag242
ag242
ag242
ag242
ag242
ag242
ag242
a(itree
PTree
p254
(dp255
g70
g71
(g72
g73
Ntp256
Rp257
(dp258
g77
I0
sg88
g71
(g84
g73
Ntp259
Rp260
(dp261
g88
Nsg89
I00
sg90
S'Flood_Control'
p262
sg80
Nsbsg78
g79
sg104
F652.910349082078
sg80
g71
(g84
g73
Ntp263
Rp264
(dp265
g88
Nsg89
I00
sg90
S'Release_Demand'
p266
sg80
Nsbsg89
I01
sbsg109
(lp267
g257
ag264
ag260
asg111
I3
sbag254
ag254
a(itree
PTree
p268
(dp269
g70
g71
(g72
g73
Ntp270
Rp271
(dp272
g77
I0
sg88
g71
(g84
g73
Ntp273
Rp274
(dp275
g88
Nsg89
I00
sg90
S'Flood_Control'
p276
sg80
Nsbsg78
g79
sg104
F748.7229633503878
sg80
g71
(g84
g73
Ntp277
Rp278
(dp279
g88
Nsg89
I00
sg90
S'Hedge_90'
p280
sg80
Nsbsg89
I01
sbsg109
(lp281
g271
ag278
ag274
asg111
I3
sbag268
ag268
ag268
ag268
ag268
ag268
ag268
ag268
ag268
ag268
ag268
ag268
ag268
ag268
ag268
ag268
ag268
ag268
ag268
ag268
ag268
a(itree
PTree
p282
(dp283
g70
g71
(g72
g73
Ntp284
Rp285
(dp286
g77
I0
sg88
g71
(g84
g73
Ntp287
Rp288
(dp289
g88
Nsg89
I00
sg90
S'Flood_Control'
p290
sg80
Nsbsg78
g79
sg104
F721.7995861958257
sg80
g71
(g72
g73
Ntp291
Rp292
(dp293
g77
I0
sg88
g71
(g84
g73
Ntp294
Rp295
(dp296
g88
Nsg89
I00
sg90
S'Release_Demand'
p297
sg80
Nsbsg78
g79
sg104
F568.865766589624
sg80
g71
(g84
g73
Ntp298
Rp299
(dp300
g88
Nsg89
I00
sg90
S'Hedge_90'
p301
sg80
Nsbsg89
I01
sbsg89
I01
sbsg109
(lp302
g285
ag292
ag299
ag295
ag288
asg111
I5
sbag282
ag282
ag282
ag282
ag282
a(itree
PTree
p303
(dp304
g70
g71
(g72
g73
Ntp305
Rp306
(dp307
g77
I0
sg88
g71
(g84
g73
Ntp308
Rp309
(dp310
g88
Nsg89
I00
sg90
g276
sg80
Nsbsg78
g79
sg104
F771.2235893372871
sg80
g71
(g84
g73
Ntp311
Rp312
(dp313
g88
Nsg89
I00
sg90
g280
sg80
Nsbsg89
I01
sbsg109
(lp314
g306
ag312
ag309
asg111
I3
sbag303
ag303
ag303
ag303
ag303
ag303
a(itree
PTree
p315
(dp316
g70
g71
(g72
g73
Ntp317
Rp318
(dp319
g77
I0
sg88
g71
(g84
g73
Ntp320
Rp321
(dp322
g88
Nsg89
I00
sg90
g276
sg80
Nsbsg78
g79
sg104
F769.7537089400029
sg80
g71
(g84
g73
Ntp323
Rp324
(dp325
g88
Nsg89
I00
sg90
g280
sg80
Nsbsg89
I01
sbsg109
(lp326
g318
ag324
ag321
asg111
I3
sbag315
ag315
ag315
ag315
ag315
ag315
ag315
ag315
ag315
ag315
ag315
ag315
ag315
ag315
ag315
ag315
ag315
ag315
ag315
ag315
ag315
ag315
ag315
ag315
ag315
ag315
ag315
ag315
ag315
ag315
ag315
ag315
ag315
ag315
ag315
ag315
ag315
ag315
ag315
ag315
ag315
ag315
ag315
ag315
ag315
ag315
a(itree
PTree
p327
(dp328
g70
g71
(g72
g73
Ntp329
Rp330
(dp331
g77
I0
sg88
g71
(g84
g73
Ntp332
Rp333
(dp334
g88
Nsg89
I00
sg90
g290
sg80
Nsbsg78
g79
sg104
F669.8939108186415
sg80
g71
(g72
g73
Ntp335
Rp336
(dp337
g77
I0
sg88
g71
(g84
g73
Ntp338
Rp339
(dp340
g88
Nsg89
I00
sg90
g297
sg80
Nsbsg78
g79
sg104
F236.1754662916962
sg80
g71
(g84
g73
Ntp341
Rp342
(dp343
g88
Nsg89
I00
sg90
g301
sg80
Nsbsg89
I01
sbsg89
I01
sbsg109
(lp344
g330
ag336
ag342
ag339
ag333
asg111
I5
sbag327
ag327
ag327
ag327
ag327
ag327
ag327
ag327
ag327
ag327
ag327
ag327
ag327
ag327
ag327
ag327
ag327
ag327
ag327
ag327
ag327
ag327
ag327
ag327
ag327
ag327
ag327
ag327
ag327
ag327
ag327
ag327
ag327
ag327
ag327
ag327
ag327
ag327
ag327
ag327
ag327
ag327
ag327
ag327
a(itree
PTree
p345
(dp346
g70
g71
(g72
g73
Ntp347
Rp348
(dp349
g77
I0
sg88
g71
(g84
g73
Ntp350
Rp351
(dp352
g88
Nsg89
I00
sg90
g290
sg80
Nsbsg78
g79
sg104
F680.1837640449384
sg80
g71
(g72
g73
Ntp353
Rp354
(dp355
g77
I0
sg88
g71
(g84
g73
Ntp356
Rp357
(dp358
g88
Nsg89
I00
sg90
g297
sg80
Nsbsg78
g79
sg104
F281.22371399273965
sg80
g71
(g84
g73
Ntp359
Rp360
(dp361
g88
Nsg89
I00
sg90
g301
sg80
Nsbsg89
I01
sbsg89
I01
sbsg109
(lp362
g348
ag354
ag360
ag357
ag351
asg111
I5
sbag345
ag345
ag345
ag345
ag345
ag345
ag345
ag345
ag345
ag345
ag345
ag345
ag345
ag345
ag345
ag345
ag345
ag345
ag345
ag345
ag345
ag345
ag345
ag345
ag345
ag345
ag345
ag345
ag345
ag345
ag345
ag345
ag345
ag345
ag345
ag345
ag345
ag345
ag345
ag345
ag345
ag345
ag345
ag345
ag345
ag345
ag345
ag345
ag345
ag345
ag345
ag345
ag345
ag345
ag345
ag345
ag345
ag345
ag345
ag345
ag345
ag345
ag345
ag345
ag345
ag345
ag345
ag345
ag345
ag345
ag345
ag345
ag345
ag345
ag345
ag345
a(itree
PTree
p363
(dp364
g70
g71
(g72
g73
Ntp365
Rp366
(dp367
g77
I0
sg88
g71
(g84
g73
Ntp368
Rp369
(dp370
g88
Nsg89
I00
sg90
g290
sg80
Nsbsg78
g79
sg104
F680.1837640449384
sg80
g71
(g72
g73
Ntp371
Rp372
(dp373
g77
I0
sg88
g71
(g84
g73
Ntp374
Rp375
(dp376
g88
Nsg89
I00
sg90
g297
sg80
Nsbsg78
g79
sg104
F282.5452506989182
sg80
g71
(g84
g73
Ntp377
Rp378
(dp379
g88
Nsg89
I00
sg90
g301
sg80
Nsbsg89
I01
sbsg89
I01
sbsg109
(lp380
g366
ag372
ag378
ag375
ag369
asg111
I5
sbag363
ag363
ag363
ag363
ag363
ag363
ag363
ag363
ag363
ag363
ag363
ag363
ag363
ag363
ag363
ag363
ag363
ag363
ag363
ag363
ag363
ag363
ag363
ag363
ag363
ag363
ag363
ag363
ag363
ag363
ag363
ag363
ag363
ag363
ag363
ag363
ag363
ag363
ag363
ag363
ag363
ag363
ag363
ag363
ag363
ag363
ag363
ag363
ag363
ag363
ag363
ag363
ag363
ag363
ag363
ag363
ag363
ag363
ag363
ag363
ag363
ag363
ag363
ag363
ag363
ag363
ag363
ag363
ag363
ag363
ag363
ag363
ag363
ag363
ag363
ag363
ag363
ag363
ag363
ag363
ag363
ag363
ag363
ag363
ag363
ag363
ag363
ag363
ag363
ag363
ag363
ag363
ag363
ag363
ag363
ag363
ag363
ag363
ag363
ag363
ag363
ag363
ag363
ag363
ag363
ag363
ag363
ag363
ag363
ag363
ag363
ag363
ag363
ag363
ag363
ag363
ag363
ag363
ag363
ag363
ag363
ag363
ag363
ag363
ag363
ag363
ag363
ag363
ag363
ag363
ag363
ag363
ag363
ag363
ag363
ag363
ag363
ag363
ag363
ag363
ag363
ag363
ag363
ag363
ag363
ag363
ag363
ag363
ag363
ag363
ag363
ag363
ag363
ag363
ag363
ag363
ag363
ag363
asS'time'
p381
(lp382
I58
aI88
aI121
aI149
aI177
aI205
aI235
aI263
aI290
aI319
aI346
aI372
aI399
aI427
aI454
aI481
aI507
aI535
aI562
aI589
aI614
aI641
aI666
aI690
aI716
aI742
aI769
aI797
aI823
aI852
aI876
aI903
aI930
aI957
aI984
aI1011
aI1039
aI1066
aI1092
aI1120
aI1146
aI1171
aI1197
aI1223
aI1249
aI1276
aI1303
aI1329
aI1357
aI1384
aI1411
aI1439
aI1466
aI1494
aI1522
aI1546
aI1569
aI1593
aI1618
aI1642
aI1666
aI1690
aI1712
aI1737
aI1760
aI1784
aI1809
aI1833
aI1857
aI1881
aI1905
aI1928
aI1952
aI1976
aI2000
aI2024
aI2049
aI2073
aI2109
aI2138
aI2162
aI2186
aI2210
aI2234
aI2258
aI2282
aI2306
aI2330
aI2356
aI2383
aI2411
aI2435
aI2461
aI2497
aI2533
aI2568
aI2603
aI2638
aI2672
aI2700
aI2724
aI2752
aI2776
aI2802
aI2826
aI2851
aI2875
aI2899
aI2924
aI2949
aI2973
aI2997
aI3021
aI3046
aI3070
aI3093
aI3117
aI3141
aI3165
aI3188
aI3213
aI3237
aI3261
aI3285
aI3310
aI3334
aI3358
aI3382
aI3407
aI3431
aI3455
aI3479
aI3513
aI3549
aI3585
aI3622
aI3661
aI3711
aI3754
aI3780
aI3805
aI3841
aI3879
aI3915
aI3950
aI3985
aI4020
aI4057
aI4082
aI4106
aI4132
aI4163
aI4195
aI4226
aI4256
aI4281
aI4305
aI4329
aI4354
aI4380
aI4404
aI4428
aI4452
aI4476
aI4501
aI4525
aI4550
aI4575
aI4599
aI4634
aI4675
aI4714
aI4751
aI4786
aI4821
aI4858
aI4893
aI4930
aI4965
aI5000
aI5033
aI5071
aI5119
aI5170
aI5218
aI5263
aI5305
aI5352
aI5402
aI5452
aI5499
aI5527
aI5550
aI5578
aI5614
aI5650
aI5687
aI5711
aI5740
aI5771
aI5795
aI5819
aI5852
aI5889
aI5925
aI5953
aI5978
aI6001
aI6025
aI6049
aI6073
aI6096
aI6119
aI6143
aI6167
aI6191
aI6214
aI6238
aI6262
aI6285
aI6309
aI6333
aI6357
aI6381
aI6406
aI6429
aI6454
aI6477
aI6501
aI6525
aI6549
aI6578
aI6613
aI6640
aI6666
aI6691
aI6714
aI6738
aI6768
aI6791
aI6821
aI6856
aI6892
aI6926
aI6951
aI6976
aI7001
aI7025
aI7049
aI7078
aI7103
aI7128
aI7152
aI7175
aI7200
aI7224
aI7248
aI7272
aI7295
aI7339
aI7388
aI7436
aI7484
aI7536
aI7566
aI7592
aI7616
aI7640
aI7663
aI7696
aI7723
aI7761
aI7789
aI7812
aI7836
aI7860
aI7884
aI7908
aI7931
aI7955
aI7979
aI8011
aI8045
aI8085
aI8122
aI8158
aI8194
aI8231
aI8267
aI8302
aI8347
aI8398
aI8446
aI8495
aI8544
aI8594
aI8643
aI8693
aI8742
aI8789
aI8825
aI8848
aI8873
aI8903
aI8931
aI8961
aI8989
aI9018
aI9046
aI9074
aI9102
aI9130
aI9159
aI9187
aI9216
aI9245
aI9274
aI9303
aI9330
aI9359
aI9387
aI9415
aI9443
aI9471
aI9498
aI9523
aI9549
aI9571
aI9594
aI9617
aI9641
aI9664
aI9687
aI9709
aI9734
aI9759
aI9784
aI9809
aI9834
aI9858
aI9881
aI9906
aI9928
aI9949
aI9972
aI9995
aI10019
aI10042
aI10066
aI10089
aI10112
aI10135
aI10160
aI10185
aI10210
aI10236
aI10263
aI10288
aI10315
aI10357
aI10399
aI10440
aI10467
aI10494
aI10522
aI10550
aI10576
aI10602
aI10627
aI10650
aI10675
aI10697
aI10722
aI10745
aI10768
aI10789
aI10812
aI10834
aI10860
aI10884
aI10906
aI10928
aI10954
aI10980
aI11006
aI11033
aI11059
aI11085
aI11111
aI11137
aI11164
aI11190
aI11214
aI11239
aI11263
aI11287
aI11311
aI11336
aI11360
aI11382
as.