(dp0
S'nfe'
p1
(lp2
I50
aI100
aI150
aI200
aI250
aI300
aI350
aI400
aI450
aI500
aI550
aI600
aI650
aI700
aI750
aI800
aI850
aI900
aI950
aI1000
aI1050
aI1100
aI1150
aI1200
aI1250
aI1300
aI1350
aI1400
aI1450
aI1500
aI1550
aI1600
aI1650
aI1700
aI1750
aI1800
aI1850
aI1900
aI1950
aI2000
aI2050
aI2100
aI2150
aI2200
aI2250
aI2300
aI2350
aI2400
aI2450
aI2500
aI2550
aI2600
aI2650
aI2700
aI2750
aI2800
aI2850
aI2900
aI2950
aI3000
aI3050
aI3100
aI3150
aI3200
aI3250
aI3300
aI3350
aI3400
aI3450
aI3500
aI3550
aI3600
aI3650
aI3700
aI3750
aI3800
aI3850
aI3900
aI3950
aI4000
aI4050
aI4100
aI4150
aI4200
aI4250
aI4300
aI4350
aI4400
aI4450
aI4500
aI4550
aI4600
aI4650
aI4700
aI4750
aI4800
aI4850
aI4900
aI4950
aI5000
aI5050
aI5100
aI5150
aI5200
aI5250
aI5300
aI5350
aI5400
aI5450
aI5500
aI5550
aI5600
aI5650
aI5700
aI5750
aI5800
aI5850
aI5900
aI5950
aI6000
aI6050
aI6100
aI6150
aI6200
aI6250
aI6300
aI6350
aI6400
aI6450
aI6500
aI6550
aI6600
aI6650
aI6700
aI6750
aI6800
aI6850
aI6900
aI6950
aI7000
aI7050
aI7100
aI7150
aI7200
aI7250
aI7300
aI7350
aI7400
aI7450
aI7500
aI7550
aI7600
aI7650
aI7700
aI7750
aI7800
aI7850
aI7900
aI7950
aI8000
aI8050
aI8100
aI8150
aI8200
aI8250
aI8300
aI8350
aI8400
aI8450
aI8500
aI8550
aI8600
aI8650
aI8700
aI8750
aI8800
aI8850
aI8900
aI8950
aI9000
aI9050
aI9100
aI9150
aI9200
aI9250
aI9300
aI9350
aI9400
aI9450
aI9500
aI9550
aI9600
aI9650
aI9700
aI9750
aI9800
aI9850
aI9900
aI9950
aI10000
aI10050
aI10100
aI10150
aI10200
aI10250
aI10300
aI10350
aI10400
aI10450
aI10500
aI10550
aI10600
aI10650
aI10700
aI10750
aI10800
aI10850
aI10900
aI10950
aI11000
aI11050
aI11100
aI11150
aI11200
aI11250
aI11300
aI11350
aI11400
aI11450
aI11500
aI11550
aI11600
aI11650
aI11700
aI11750
aI11800
aI11850
aI11900
aI11950
aI12000
aI12050
aI12100
aI12150
aI12200
aI12250
aI12300
aI12350
aI12400
aI12450
aI12500
aI12550
aI12600
aI12650
aI12700
aI12750
aI12800
aI12850
aI12900
aI12950
aI13000
aI13050
aI13100
aI13150
aI13200
aI13250
aI13300
aI13350
aI13400
aI13450
aI13500
aI13550
aI13600
aI13650
aI13700
aI13750
aI13800
aI13850
aI13900
aI13950
aI14000
aI14050
aI14100
aI14150
aI14200
aI14250
aI14300
aI14350
aI14400
aI14450
aI14500
aI14550
aI14600
aI14650
aI14700
aI14750
aI14800
aI14850
aI14900
aI14950
aI15000
aI15050
aI15100
aI15150
aI15200
aI15250
aI15300
aI15350
aI15400
aI15450
aI15500
aI15550
aI15600
aI15650
aI15700
aI15750
aI15800
aI15850
aI15900
aI15950
aI16000
aI16050
aI16100
aI16150
aI16200
aI16250
aI16300
aI16350
aI16400
aI16450
aI16500
aI16550
aI16600
aI16650
aI16700
aI16750
aI16800
aI16850
aI16900
aI16950
aI17000
aI17050
aI17100
aI17150
aI17200
aI17250
aI17300
aI17350
aI17400
aI17450
aI17500
aI17550
aI17600
aI17650
aI17700
aI17750
aI17800
aI17850
aI17900
aI17950
aI18000
aI18050
aI18100
aI18150
aI18200
aI18250
aI18300
aI18350
aI18400
aI18450
aI18500
aI18550
aI18600
aI18650
aI18700
aI18750
aI18800
aI18850
aI18900
aI18950
aI19000
aI19050
aI19100
aI19150
aI19200
aI19250
aI19300
aI19350
aI19400
aI19450
aI19500
aI19550
aI19600
aI19650
aI19700
aI19750
aI19800
aI19850
aI19900
aI19950
aI20000
asS'best_f'
p3
(lp4
cnumpy.core.multiarray
scalar
p5
(cnumpy
dtype
p6
(S'f8'
p7
I0
I1
tp8
Rp9
(I3
S'<'
p10
NNNI-1
I-1
I0
tp11
bS'9.\xaa0\x06(\xe0?'
p12
tp13
Rp14
ag5
(g9
S'\x98\x14\x16\x14\xb6\xff\xdf?'
p15
tp16
Rp17
ag17
ag5
(g9
S'\xd2\xca~\xd1\x8fJ\xdb?'
p18
tp19
Rp20
ag20
ag5
(g9
S's\xf8\xea2\xa7U\xd8?'
p21
tp22
Rp23
ag5
(g9
S'\x82\xa2nB\xb8\x0c\xd6?'
p24
tp25
Rp26
ag26
ag5
(g9
S'\xc8\xe7\xccD\x01I\xd5?'
p27
tp28
Rp29
ag29
ag29
ag29
ag5
(g9
S'\x1f\xd0\xd3D\xfaG\xd5?'
p30
tp31
Rp32
ag32
ag32
ag32
ag32
ag5
(g9
S'\xb3\xda\xde\xf2{p\xd4?'
p33
tp34
Rp35
ag35
ag35
ag35
ag35
ag35
ag35
ag35
ag35
ag35
ag35
ag5
(g9
S'\xdd\xad\xc9\xaf{p\xd4?'
p36
tp37
Rp38
ag38
ag38
ag38
ag38
ag5
(g9
S'\x9c\xae\xb9\xe5\x9fb\xd4?'
p39
tp40
Rp41
ag5
(g9
S'\xfb\x1b\xbe\xec\xbaq\xd3?'
p42
tp43
Rp44
ag44
ag44
ag44
ag44
ag44
ag44
ag44
ag44
ag44
ag44
ag44
ag44
ag44
ag44
ag44
ag44
ag44
ag44
ag44
ag44
ag44
ag44
ag44
ag44
ag44
ag44
ag44
ag44
ag44
ag44
ag44
ag44
ag44
ag44
ag44
ag44
ag44
ag44
ag44
ag44
ag44
ag44
ag44
ag44
ag44
ag44
ag44
ag44
ag44
ag44
ag44
ag44
ag44
ag44
ag44
ag44
ag44
ag44
ag44
ag44
ag44
ag44
ag44
ag44
ag44
ag44
ag44
ag44
ag44
ag44
ag44
ag44
ag44
ag44
ag5
(g9
S'\xaam\x86FZl\xd3?'
p45
tp46
Rp47
ag47
ag47
ag47
ag47
ag47
ag47
ag47
ag47
ag47
ag47
ag47
ag47
ag47
ag47
ag47
ag47
ag47
ag47
ag47
ag47
ag47
ag47
ag47
ag47
ag47
ag47
ag47
ag47
ag47
ag47
ag47
ag47
ag47
ag47
ag47
ag47
ag47
ag47
ag47
ag47
ag47
ag47
ag47
ag47
ag47
ag47
ag47
ag47
ag47
ag47
ag47
ag47
ag47
ag47
ag47
ag47
ag47
ag5
(g9
S'\xd3\xccf\x90\x81\x0f\xd3?'
p48
tp49
Rp50
ag50
ag50
ag5
(g9
S'\xd4R\x1cM\x84\xd8\xd1?'
p51
tp52
Rp53
ag53
ag53
ag53
ag53
ag53
ag53
ag53
ag53
ag53
ag53
ag53
ag5
(g9
S'+\xf3\xa5\x10 \x0b\xd1?'
p54
tp55
Rp56
ag56
ag56
ag56
ag56
ag56
ag56
ag56
ag56
ag5
(g9
S'\xe1\x11\xae\xed\x9a%\xd0?'
p57
tp58
Rp59
ag59
ag59
ag59
ag59
ag59
ag59
ag59
ag59
ag59
ag59
ag59
ag59
ag59
ag59
ag59
ag59
ag59
ag59
ag59
ag59
ag59
ag59
ag59
ag59
ag59
ag59
ag59
ag59
ag59
ag59
ag59
ag59
ag59
ag59
ag59
ag59
ag59
ag59
ag59
ag59
ag59
ag59
ag59
ag59
ag59
ag59
ag59
ag59
ag59
ag59
ag59
ag59
ag59
ag59
ag59
ag59
ag59
ag59
ag59
ag59
ag59
ag59
ag59
ag59
ag59
ag5
(g9
S'\xb8\xa0\xc5\xc0gb\xc9?'
p60
tp61
Rp62
ag62
ag62
ag62
ag62
ag62
ag62
ag62
ag62
ag62
ag62
ag62
ag62
ag62
ag62
ag62
ag62
ag62
ag62
ag62
ag62
ag62
ag62
ag62
ag62
ag62
ag62
ag62
ag62
ag62
ag62
ag62
ag62
ag62
ag62
ag5
(g9
S'\xb8\xedp\x8d\xcb)\xc9?'
p63
tp64
Rp65
ag65
ag65
ag65
ag65
ag65
ag65
ag65
ag65
ag5
(g9
S'\x1b\xccv\x10\x0b\x03\xc9?'
p66
tp67
Rp68
ag68
ag68
ag68
ag68
ag68
ag68
ag68
ag68
ag68
ag68
ag68
ag68
ag68
ag68
ag5
(g9
S"'\r\xdf\xafe\xda\xc8?"
p69
tp70
Rp71
ag71
ag71
ag71
ag71
ag71
ag71
ag71
ag71
ag71
ag71
ag71
ag71
ag71
ag71
ag71
ag71
ag71
ag71
ag5
(g9
S'\x90\xac\x10\x1b\xd4\xd6\xc8?'
p72
tp73
Rp74
ag74
ag74
ag74
ag74
ag74
ag74
ag74
ag74
ag74
ag74
ag74
ag74
ag5
(g9
S'\xd4l\xf0;g\xd1\xc8?'
p75
tp76
Rp77
ag77
ag77
ag77
ag77
ag77
ag77
ag77
ag77
ag77
ag77
ag77
ag77
ag77
ag77
ag77
ag77
ag77
ag77
ag77
ag77
ag77
ag77
ag77
ag77
ag77
ag77
ag77
ag77
ag77
ag77
ag77
ag77
ag77
ag77
ag77
ag77
ag5
(g9
S'x\xff\xb8\x83er\xc8?'
p78
tp79
Rp80
ag80
ag80
ag80
ag80
ag80
ag80
ag80
ag80
ag80
ag80
ag80
ag80
ag80
ag80
asS'best_P'
p81
(lp82
(itree
PTree
p83
(dp84
S'root'
p85
ccopy_reg
_reconstructor
p86
(ctree
Feature
p87
c__builtin__
object
p88
Ntp89
Rp90
(dp91
S'index'
p92
I1
sS'name'
p93
S'Day'
p94
sS'l'
p95
g86
(ctree
Action
p96
g88
Ntp97
Rp98
(dp99
S'r'
p100
NsS'is_feature'
p101
I00
sS'value'
p102
S'Flood_Control'
p103
sg95
Nsbsg100
g86
(g96
g88
Ntp104
Rp105
(dp106
g100
Nsg101
I00
sg102
S'Hedge_90'
p107
sg95
NsbsS'threshold'
p108
F124.51770564263893
sg101
I01
sbsS'L'
p109
(lp110
g90
ag98
ag105
asS'N'
p111
I3
sba(itree
PTree
p112
(dp113
g85
g86
(g87
g88
Ntp114
Rp115
(dp116
g92
I1
sg100
g86
(g96
g88
Ntp117
Rp118
(dp119
g100
Nsg101
I00
sg102
g107
sg95
Nsbsg93
g94
sg108
F94.52692507163273
sg95
g86
(g96
g88
Ntp120
Rp121
(dp122
g100
Nsg101
I00
sg102
g103
sg95
Nsbsg101
I01
sbsg109
(lp123
g115
ag121
ag118
asg111
I3
sbag112
a(itree
PTree
p124
(dp125
g85
g86
(g87
g88
Ntp126
Rp127
(dp128
g92
I0
sg100
g86
(g96
g88
Ntp129
Rp130
(dp131
g100
Nsg101
I00
sg102
S'Flood_Control'
p132
sg95
Nsbsg93
S'Storage'
p133
sg108
F461.78707955628977
sg95
g86
(g96
g88
Ntp134
Rp135
(dp136
g100
Nsg101
I00
sg102
S'Release_Demand'
p137
sg95
Nsbsg101
I01
sbsg109
(lp138
g127
ag135
ag130
asg111
I3
sbag124
a(itree
PTree
p139
(dp140
g85
g86
(g87
g88
Ntp141
Rp142
(dp143
g92
I0
sg100
g86
(g96
g88
Ntp144
Rp145
(dp146
g100
Nsg101
I00
sg102
S'Flood_Control'
p147
sg95
Nsbsg93
g133
sg108
F433.286870587823
sg95
g86
(g96
g88
Ntp148
Rp149
(dp150
g100
Nsg101
I00
sg102
S'Hedge_90'
p151
sg95
Nsbsg101
I01
sbsg109
(lp152
g142
ag149
ag145
asg111
I3
sba(itree
PTree
p153
(dp154
g85
g86
(g87
g88
Ntp155
Rp156
(dp157
g92
I0
sg100
g86
(g96
g88
Ntp158
Rp159
(dp160
g100
Nsg101
I00
sg102
S'Flood_Control'
p161
sg95
Nsbsg93
g133
sg108
F531.2910082534833
sg95
g86
(g96
g88
Ntp162
Rp163
(dp164
g100
Nsg101
I00
sg102
g151
sg95
Nsbsg101
I01
sbsg109
(lp165
g156
ag163
ag159
asg111
I3
sbag153
a(itree
PTree
p166
(dp167
g85
g86
(g87
g88
Ntp168
Rp169
(dp170
g92
I0
sg100
g86
(g96
g88
Ntp171
Rp172
(dp173
g100
Nsg101
I00
sg102
g161
sg95
Nsbsg93
g133
sg108
F569.8660712411432
sg95
g86
(g96
g88
Ntp174
Rp175
(dp176
g100
Nsg101
I00
sg102
S'Hedge_90'
p177
sg95
Nsbsg101
I01
sbsg109
(lp178
g169
ag175
ag172
asg111
I3
sbag166
ag166
ag166
a(itree
PTree
p179
(dp180
g85
g86
(g87
g88
Ntp181
Rp182
(dp183
g92
I0
sg100
g86
(g96
g88
Ntp184
Rp185
(dp186
g100
Nsg101
I00
sg102
S'Flood_Control'
p187
sg95
Nsbsg93
g133
sg108
F580.2970665966917
sg95
g86
(g96
g88
Ntp188
Rp189
(dp190
g100
Nsg101
I00
sg102
S'Hedge_90'
p191
sg95
Nsbsg101
I01
sbsg109
(lp192
g182
ag189
ag185
asg111
I3
sbag179
ag179
ag179
ag179
a(itree
PTree
p193
(dp194
g85
g86
(g87
g88
Ntp195
Rp196
(dp197
g92
I0
sg100
g86
(g96
g88
Ntp198
Rp199
(dp200
g100
Nsg101
I00
sg102
g132
sg95
Nsbsg93
g133
sg108
F581.129926458201
sg95
g86
(g96
g88
Ntp201
Rp202
(dp203
g100
Nsg101
I00
sg102
g137
sg95
Nsbsg101
I01
sbsg109
(lp204
g196
ag202
ag199
asg111
I3
sbag193
ag193
ag193
ag193
ag193
ag193
ag193
ag193
ag193
ag193
a(itree
PTree
p205
(dp206
g85
g86
(g87
g88
Ntp207
Rp208
(dp209
g92
I0
sg100
g86
(g96
g88
Ntp210
Rp211
(dp212
g100
Nsg101
I00
sg102
S'Flood_Control'
p213
sg95
Nsbsg93
g133
sg108
F581.0376003525662
sg95
g86
(g96
g88
Ntp214
Rp215
(dp216
g100
Nsg101
I00
sg102
S'Release_Demand'
p217
sg95
Nsbsg101
I01
sbsg109
(lp218
g208
ag215
ag211
asg111
I3
sbag205
ag205
ag205
ag205
a(itree
PTree
p219
(dp220
g85
g86
(g87
g88
Ntp221
Rp222
(dp223
g92
I0
sg100
g86
(g96
g88
Ntp224
Rp225
(dp226
g100
Nsg101
I00
sg102
S'Flood_Control'
p227
sg95
Nsbsg93
g133
sg108
F598.2327751993244
sg95
g86
(g96
g88
Ntp228
Rp229
(dp230
g100
Nsg101
I00
sg102
S'Hedge_90'
p231
sg95
Nsbsg101
I01
sbsg109
(lp232
g222
ag229
ag225
asg111
I3
sba(itree
PTree
p233
(dp234
g85
g86
(g87
g88
Ntp235
Rp236
(dp237
g92
I0
sg100
g86
(g96
g88
Ntp238
Rp239
(dp240
g100
Nsg101
I00
sg102
g132
sg95
Nsbsg93
g133
sg108
F591.1393471351394
sg95
g86
(g96
g88
Ntp241
Rp242
(dp243
g100
Nsg101
I00
sg102
g137
sg95
Nsbsg101
I01
sbsg109
(lp244
g236
ag242
ag239
asg111
I3
sbag233
ag233
ag233
ag233
ag233
ag233
ag233
ag233
ag233
ag233
ag233
ag233
ag233
ag233
ag233
ag233
ag233
ag233
ag233
ag233
ag233
ag233
ag233
ag233
ag233
ag233
ag233
ag233
ag233
ag233
ag233
ag233
ag233
ag233
ag233
ag233
ag233
ag233
ag233
ag233
ag233
ag233
ag233
ag233
ag233
ag233
ag233
ag233
ag233
ag233
ag233
ag233
ag233
ag233
ag233
ag233
ag233
ag233
ag233
ag233
ag233
ag233
ag233
ag233
ag233
ag233
ag233
ag233
ag233
ag233
ag233
ag233
ag233
ag233
a(itree
PTree
p245
(dp246
g85
g86
(g87
g88
Ntp247
Rp248
(dp249
g92
I0
sg100
g86
(g96
g88
Ntp250
Rp251
(dp252
g100
Nsg101
I00
sg102
S'Flood_Control'
p253
sg95
Nsbsg93
g133
sg108
F589.8682860653189
sg95
g86
(g96
g88
Ntp254
Rp255
(dp256
g100
Nsg101
I00
sg102
S'Release_Demand'
p257
sg95
Nsbsg101
I01
sbsg109
(lp258
g248
ag255
ag251
asg111
I3
sbag245
ag245
ag245
ag245
ag245
ag245
ag245
ag245
ag245
ag245
ag245
ag245
ag245
ag245
ag245
ag245
ag245
ag245
ag245
ag245
ag245
ag245
ag245
ag245
ag245
ag245
ag245
ag245
ag245
ag245
ag245
ag245
ag245
ag245
ag245
ag245
ag245
ag245
ag245
ag245
ag245
ag245
ag245
ag245
ag245
ag245
ag245
ag245
ag245
ag245
ag245
ag245
ag245
ag245
ag245
ag245
ag245
a(itree
PTree
p259
(dp260
g85
g86
(g87
g88
Ntp261
Rp262
(dp263
g92
I0
sg100
g86
(g87
g88
Ntp264
Rp265
(dp266
g92
I0
sg100
g86
(g96
g88
Ntp267
Rp268
(dp269
g100
Nsg101
I00
sg102
S'Flood_Control'
p270
sg95
Nsbsg93
g133
sg108
F546.5125137566423
sg95
g86
(g96
g88
Ntp271
Rp272
(dp273
g100
Nsg101
I00
sg102
S'Hedge_90'
p274
sg95
Nsbsg101
I01
sbsg93
g133
sg108
F94.5179165848765
sg95
g86
(g96
g88
Ntp275
Rp276
(dp277
g100
Nsg101
I00
sg102
S'Hedge_70'
p278
sg95
Nsbsg101
I01
sbsg109
(lp279
g262
ag276
ag265
ag272
ag268
asg111
I5
sbag259
ag259
a(itree
PTree
p280
(dp281
g85
g86
(g87
g88
Ntp282
Rp283
(dp284
g92
I0
sg100
g86
(g87
g88
Ntp285
Rp286
(dp287
g92
I0
sg100
g86
(g96
g88
Ntp288
Rp289
(dp290
g100
Nsg101
I00
sg102
g270
sg95
Nsbsg93
g133
sg108
F546.5125137566423
sg95
g86
(g96
g88
Ntp291
Rp292
(dp293
g100
Nsg101
I00
sg102
g274
sg95
Nsbsg101
I01
sbsg93
g133
sg108
F136.83216015228294
sg95
g86
(g96
g88
Ntp294
Rp295
(dp296
g100
Nsg101
I00
sg102
g278
sg95
Nsbsg101
I01
sbsg109
(lp297
g283
ag295
ag286
ag292
ag289
asg111
I5
sbag280
ag280
ag280
ag280
ag280
ag280
ag280
ag280
ag280
ag280
ag280
a(itree
PTree
p298
(dp299
g85
g86
(g87
g88
Ntp300
Rp301
(dp302
g92
I0
sg100
g86
(g87
g88
Ntp303
Rp304
(dp305
g92
I0
sg100
g86
(g96
g88
Ntp306
Rp307
(dp308
g100
Nsg101
I00
sg102
g270
sg95
Nsbsg93
g133
sg108
F595.5370950571196
sg95
g86
(g96
g88
Ntp309
Rp310
(dp311
g100
Nsg101
I00
sg102
g274
sg95
Nsbsg101
I01
sbsg93
g133
sg108
F136.83216015228294
sg95
g86
(g96
g88
Ntp312
Rp313
(dp314
g100
Nsg101
I00
sg102
g278
sg95
Nsbsg101
I01
sbsg109
(lp315
g301
ag313
ag304
ag310
ag307
asg111
I5
sbag298
ag298
ag298
ag298
ag298
ag298
ag298
ag298
a(itree
PTree
p316
(dp317
g85
g86
(g87
g88
Ntp318
Rp319
(dp320
g92
I0
sg100
g86
(g87
g88
Ntp321
Rp322
(dp323
g92
I0
sg100
g86
(g96
g88
Ntp324
Rp325
(dp326
g100
Nsg101
I00
sg102
g270
sg95
Nsbsg93
g133
sg108
F595.5370950571196
sg95
g86
(g96
g88
Ntp327
Rp328
(dp329
g100
Nsg101
I00
sg102
g274
sg95
Nsbsg101
I01
sbsg93
g133
sg108
F180.8290655766288
sg95
g86
(g96
g88
Ntp330
Rp331
(dp332
g100
Nsg101
I00
sg102
g278
sg95
Nsbsg101
I01
sbsg109
(lp333
g319
ag331
ag322
ag328
ag325
asg111
I5
sbag316
ag316
ag316
ag316
ag316
ag316
ag316
ag316
ag316
ag316
ag316
ag316
ag316
ag316
ag316
ag316
ag316
ag316
ag316
ag316
ag316
ag316
ag316
ag316
ag316
ag316
ag316
ag316
ag316
ag316
ag316
ag316
ag316
ag316
ag316
ag316
ag316
ag316
ag316
ag316
ag316
ag316
ag316
ag316
ag316
ag316
ag316
ag316
ag316
ag316
ag316
ag316
ag316
ag316
ag316
ag316
ag316
ag316
ag316
ag316
ag316
ag316
ag316
ag316
ag316
a(itree
PTree
p334
(dp335
g85
g86
(g87
g88
Ntp336
Rp337
(dp338
g92
I0
sg100
g86
(g87
g88
Ntp339
Rp340
(dp341
g92
I0
sg100
g86
(g96
g88
Ntp342
Rp343
(dp344
g100
Nsg101
I00
sg102
S'Flood_Control'
p345
sg95
Nsbsg93
g133
sg108
F589.8682860653189
sg95
g86
(g96
g88
Ntp346
Rp347
(dp348
g100
Nsg101
I00
sg102
S'Release_Demand'
p349
sg95
Nsbsg101
I01
sbsg93
g133
sg108
F175.42750741856779
sg95
g86
(g96
g88
Ntp350
Rp351
(dp352
g100
Nsg101
I00
sg102
S'Hedge_70'
p353
sg95
Nsbsg101
I01
sbsg109
(lp354
g337
ag351
ag340
ag347
ag343
asg111
I5
sbag334
ag334
ag334
ag334
ag334
ag334
ag334
ag334
ag334
ag334
ag334
ag334
ag334
ag334
ag334
ag334
ag334
ag334
ag334
ag334
ag334
ag334
ag334
ag334
ag334
ag334
ag334
ag334
ag334
ag334
ag334
ag334
ag334
ag334
a(itree
PTree
p355
(dp356
g85
g86
(g87
g88
Ntp357
Rp358
(dp359
g92
I0
sg100
g86
(g87
g88
Ntp360
Rp361
(dp362
g92
I0
sg100
g86
(g96
g88
Ntp363
Rp364
(dp365
g100
Nsg101
I00
sg102
S'Flood_Control'
p366
sg95
Nsbsg93
g133
sg108
F589.4993413695424
sg95
g86
(g96
g88
Ntp367
Rp368
(dp369
g100
Nsg101
I00
sg102
S'Release_Demand'
p370
sg95
Nsbsg101
I01
sbsg93
g133
sg108
F200.4606493774951
sg95
g86
(g96
g88
Ntp371
Rp372
(dp373
g100
Nsg101
I00
sg102
S'Hedge_70'
p374
sg95
Nsbsg101
I01
sbsg109
(lp375
g358
ag372
ag361
ag368
ag364
asg111
I5
sbag355
ag355
ag355
ag355
ag355
ag355
ag355
ag355
a(itree
PTree
p376
(dp377
g85
g86
(g87
g88
Ntp378
Rp379
(dp380
g92
I0
sg100
g86
(g87
g88
Ntp381
Rp382
(dp383
g92
I0
sg100
g86
(g96
g88
Ntp384
Rp385
(dp386
g100
Nsg101
I00
sg102
g366
sg95
Nsbsg93
g133
sg108
F594.1703356532497
sg95
g86
(g96
g88
Ntp387
Rp388
(dp389
g100
Nsg101
I00
sg102
g370
sg95
Nsbsg101
I01
sbsg93
g133
sg108
F215.3355010729172
sg95
g86
(g96
g88
Ntp390
Rp391
(dp392
g100
Nsg101
I00
sg102
S'Hedge_70'
p393
sg95
Nsbsg101
I01
sbsg109
(lp394
g379
ag391
ag382
ag388
ag385
asg111
I5
sbag376
ag376
ag376
ag376
ag376
ag376
ag376
ag376
ag376
ag376
ag376
ag376
ag376
ag376
a(itree
PTree
p395
(dp396
g85
g86
(g87
g88
Ntp397
Rp398
(dp399
g92
I0
sg100
g86
(g87
g88
Ntp400
Rp401
(dp402
g92
I0
sg100
g86
(g96
g88
Ntp403
Rp404
(dp405
g100
Nsg101
I00
sg102
g366
sg95
Nsbsg93
g133
sg108
F591.881167974814
sg95
g86
(g96
g88
Ntp406
Rp407
(dp408
g100
Nsg101
I00
sg102
g370
sg95
Nsbsg101
I01
sbsg93
g133
sg108
F213.04891469981564
sg95
g86
(g96
g88
Ntp409
Rp410
(dp411
g100
Nsg101
I00
sg102
g393
sg95
Nsbsg101
I01
sbsg109
(lp412
g398
ag410
ag401
ag407
ag404
asg111
I5
sbag395
ag395
ag395
ag395
ag395
ag395
ag395
ag395
ag395
ag395
ag395
ag395
ag395
ag395
ag395
ag395
ag395
ag395
a(itree
PTree
p413
(dp414
g85
g86
(g87
g88
Ntp415
Rp416
(dp417
g92
I0
sg100
g86
(g87
g88
Ntp418
Rp419
(dp420
g92
I0
sg100
g86
(g96
g88
Ntp421
Rp422
(dp423
g100
Nsg101
I00
sg102
S'Flood_Control'
p424
sg95
Nsbsg93
g133
sg108
F591.881167974814
sg95
g86
(g96
g88
Ntp425
Rp426
(dp427
g100
Nsg101
I00
sg102
S'Release_Demand'
p428
sg95
Nsbsg101
I01
sbsg93
g133
sg108
F217.62507301486096
sg95
g86
(g96
g88
Ntp429
Rp430
(dp431
g100
Nsg101
I00
sg102
S'Hedge_70'
p432
sg95
Nsbsg101
I01
sbsg109
(lp433
g416
ag430
ag419
ag426
ag422
asg111
I5
sbag413
ag413
ag413
ag413
ag413
ag413
ag413
ag413
ag413
ag413
ag413
ag413
a(itree
PTree
p434
(dp435
g85
g86
(g87
g88
Ntp436
Rp437
(dp438
g92
I0
sg100
g86
(g87
g88
Ntp439
Rp440
(dp441
g92
I0
sg100
g86
(g96
g88
Ntp442
Rp443
(dp444
g100
Nsg101
I00
sg102
g424
sg95
Nsbsg93
g133
sg108
F591.881167974814
sg95
g86
(g96
g88
Ntp445
Rp446
(dp447
g100
Nsg101
I00
sg102
g428
sg95
Nsbsg101
I01
sbsg93
g133
sg108
F219.7697237644108
sg95
g86
(g96
g88
Ntp448
Rp449
(dp450
g100
Nsg101
I00
sg102
g432
sg95
Nsbsg101
I01
sbsg109
(lp451
g437
ag449
ag440
ag446
ag443
asg111
I5
sbag434
ag434
ag434
ag434
ag434
ag434
ag434
ag434
ag434
ag434
ag434
ag434
ag434
ag434
ag434
ag434
ag434
ag434
ag434
ag434
ag434
ag434
ag434
ag434
ag434
ag434
ag434
ag434
ag434
ag434
ag434
ag434
ag434
ag434
ag434
ag434
a(itree
PTree
p452
(dp453
g85
g86
(g87
g88
Ntp454
Rp455
(dp456
g92
I0
sg100
g86
(g87
g88
Ntp457
Rp458
(dp459
g92
I0
sg100
g86
(g96
g88
Ntp460
Rp461
(dp462
g100
Nsg101
I00
sg102
g366
sg95
Nsbsg93
g133
sg108
F590.026711500013
sg95
g86
(g96
g88
Ntp463
Rp464
(dp465
g100
Nsg101
I00
sg102
g370
sg95
Nsbsg101
I01
sbsg93
g133
sg108
F213.04891469981564
sg95
g86
(g96
g88
Ntp466
Rp467
(dp468
g100
Nsg101
I00
sg102
g393
sg95
Nsbsg101
I01
sbsg109
(lp469
g455
ag467
ag458
ag464
ag461
asg111
I5
sbag452
ag452
ag452
ag452
ag452
ag452
ag452
ag452
ag452
ag452
ag452
ag452
ag452
ag452
asS'time'
p470
(lp471
I35
aI51
aI71
aI93
aI115
aI135
aI153
aI171
aI188
aI204
aI222
aI243
aI264
aI286
aI307
aI326
aI345
aI364
aI384
aI403
aI422
aI438
aI455
aI474
aI490
aI507
aI524
aI541
aI558
aI576
aI595
aI612
aI630
aI646
aI663
aI680
aI697
aI712
aI734
aI758
aI782
aI806
aI830
aI853
aI877
aI900
aI924
aI969
aI994
aI1018
aI1042
aI1067
aI1092
aI1116
aI1140
aI1165
aI1189
aI1214
aI1238
aI1263
aI1287
aI1311
aI1336
aI1360
aI1385
aI1409
aI1433
aI1458
aI1482
aI1506
aI1531
aI1555
aI1579
aI1604
aI1628
aI1653
aI1677
aI1701
aI1725
aI1750
aI1774
aI1799
aI1823
aI1848
aI1872
aI1897
aI1921
aI1946
aI1970
aI1995
aI2019
aI2043
aI2068
aI2091
aI2115
aI2153
aI2200
aI2255
aI2315
aI2384
aI2434
aI2474
aI2509
aI2537
aI2560
aI2583
aI2607
aI2628
aI2650
aI2672
aI2693
aI2713
aI2730
aI2749
aI2767
aI2784
aI2802
aI2818
aI2836
aI2853
aI2872
aI2890
aI2910
aI2929
aI2949
aI2967
aI2987
aI3006
aI3024
aI3043
aI3060
aI3077
aI3094
aI3111
aI3128
aI3144
aI3160
aI3179
aI3199
aI3217
aI3234
aI3253
aI3269
aI3287
aI3305
aI3323
aI3339
aI3355
aI3372
aI3391
aI3408
aI3428
aI3445
aI3462
aI3479
aI3498
aI3517
aI3538
aI3558
aI3579
aI3602
aI3624
aI3646
aI3667
aI3688
aI3707
aI3722
aI3738
aI3756
aI3773
aI3789
aI3805
aI3821
aI3839
aI3858
aI3875
aI3894
aI3912
aI3930
aI3948
aI3966
aI3983
aI4001
aI4019
aI4040
aI4064
aI4087
aI4107
aI4125
aI4144
aI4164
aI4183
aI4201
aI4219
aI4238
aI4257
aI4275
aI4293
aI4310
aI4329
aI4346
aI4364
aI4380
aI4398
aI4414
aI4431
aI4449
aI4466
aI4484
aI4500
aI4517
aI4534
aI4551
aI4568
aI4588
aI4607
aI4626
aI4646
aI4663
aI4681
aI4697
aI4717
aI4734
aI4750
aI4766
aI4783
aI4799
aI4817
aI4834
aI4853
aI4872
aI4891
aI4911
aI4929
aI4948
aI4966
aI4986
aI5004
aI5022
aI5041
aI5062
aI5084
aI5104
aI5123
aI5141
aI5160
aI5177
aI5195
aI5215
aI5234
aI5253
aI5270
aI5289
aI5307
aI5327
aI5347
aI5366
aI5386
aI5406
aI5426
aI5444
aI5462
aI5479
aI5495
aI5512
aI5530
aI5549
aI5570
aI5590
aI5608
aI5626
aI5646
aI5666
aI5683
aI5701
aI5718
aI5734
aI5751
aI5767
aI5783
aI5799
aI5818
aI5837
aI5856
aI5872
aI5889
aI5906
aI5926
aI5948
aI5969
aI5991
aI6012
aI6032
aI6058
aI6078
aI6097
aI6117
aI6137
aI6155
aI6174
aI6193
aI6211
aI6230
aI6249
aI6268
aI6284
aI6301
aI6321
aI6339
aI6357
aI6377
aI6395
aI6413
aI6432
aI6452
aI6472
aI6490
aI6507
aI6523
aI6541
aI6558
aI6577
aI6601
aI6625
aI6649
aI6672
aI6693
aI6714
aI6734
aI6755
aI6776
aI6796
aI6816
aI6838
aI6858
aI6877
aI6897
aI6915
aI6933
aI6952
aI6970
aI6988
aI7006
aI7025
aI7042
aI7059
aI7076
aI7095
aI7115
aI7133
aI7150
aI7169
aI7185
aI7203
aI7220
aI7239
aI7256
aI7275
aI7294
aI7312
aI7330
aI7348
aI7365
aI7382
aI7401
aI7417
aI7433
aI7450
aI7467
aI7483
aI7500
aI7519
aI7537
aI7555
aI7572
aI7590
aI7607
aI7626
aI7643
aI7662
aI7680
aI7698
aI7717
aI7736
aI7753
aI7773
aI7792
aI7810
aI7828
aI7846
aI7862
aI7880
aI7897
aI7915
aI7932
aI7953
aI7973
aI7997
aI8041
aI8088
as.