(dp0
S'nfe'
p1
(lp2
I50
aI100
aI150
aI200
aI250
aI300
aI350
aI400
aI450
aI500
aI550
aI600
aI650
aI700
aI750
aI800
aI850
aI900
aI950
aI1000
aI1050
aI1100
aI1150
aI1200
aI1250
aI1300
aI1350
aI1400
aI1450
aI1500
aI1550
aI1600
aI1650
aI1700
aI1750
aI1800
aI1850
aI1900
aI1950
aI2000
aI2050
aI2100
aI2150
aI2200
aI2250
aI2300
aI2350
aI2400
aI2450
aI2500
aI2550
aI2600
aI2650
aI2700
aI2750
aI2800
aI2850
aI2900
aI2950
aI3000
aI3050
aI3100
aI3150
aI3200
aI3250
aI3300
aI3350
aI3400
aI3450
aI3500
aI3550
aI3600
aI3650
aI3700
aI3750
aI3800
aI3850
aI3900
aI3950
aI4000
aI4050
aI4100
aI4150
aI4200
aI4250
aI4300
aI4350
aI4400
aI4450
aI4500
aI4550
aI4600
aI4650
aI4700
aI4750
aI4800
aI4850
aI4900
aI4950
aI5000
aI5050
aI5100
aI5150
aI5200
aI5250
aI5300
aI5350
aI5400
aI5450
aI5500
aI5550
aI5600
aI5650
aI5700
aI5750
aI5800
aI5850
aI5900
aI5950
aI6000
aI6050
aI6100
aI6150
aI6200
aI6250
aI6300
aI6350
aI6400
aI6450
aI6500
aI6550
aI6600
aI6650
aI6700
aI6750
aI6800
aI6850
aI6900
aI6950
aI7000
aI7050
aI7100
aI7150
aI7200
aI7250
aI7300
aI7350
aI7400
aI7450
aI7500
aI7550
aI7600
aI7650
aI7700
aI7750
aI7800
aI7850
aI7900
aI7950
aI8000
aI8050
aI8100
aI8150
aI8200
aI8250
aI8300
aI8350
aI8400
aI8450
aI8500
aI8550
aI8600
aI8650
aI8700
aI8750
aI8800
aI8850
aI8900
aI8950
aI9000
aI9050
aI9100
aI9150
aI9200
aI9250
aI9300
aI9350
aI9400
aI9450
aI9500
aI9550
aI9600
aI9650
aI9700
aI9750
aI9800
aI9850
aI9900
aI9950
aI10000
aI10050
aI10100
aI10150
aI10200
aI10250
aI10300
aI10350
aI10400
aI10450
aI10500
aI10550
aI10600
aI10650
aI10700
aI10750
aI10800
aI10850
aI10900
aI10950
aI11000
aI11050
aI11100
aI11150
aI11200
aI11250
aI11300
aI11350
aI11400
aI11450
aI11500
aI11550
aI11600
aI11650
aI11700
aI11750
aI11800
aI11850
aI11900
aI11950
aI12000
aI12050
aI12100
aI12150
aI12200
aI12250
aI12300
aI12350
aI12400
aI12450
aI12500
aI12550
aI12600
aI12650
aI12700
aI12750
aI12800
aI12850
aI12900
aI12950
aI13000
aI13050
aI13100
aI13150
aI13200
aI13250
aI13300
aI13350
aI13400
aI13450
aI13500
aI13550
aI13600
aI13650
aI13700
aI13750
aI13800
aI13850
aI13900
aI13950
aI14000
aI14050
aI14100
aI14150
aI14200
aI14250
aI14300
aI14350
aI14400
aI14450
aI14500
aI14550
aI14600
aI14650
aI14700
aI14750
aI14800
aI14850
aI14900
aI14950
aI15000
aI15050
aI15100
aI15150
aI15200
aI15250
aI15300
aI15350
aI15400
aI15450
aI15500
aI15550
aI15600
aI15650
aI15700
aI15750
aI15800
aI15850
aI15900
aI15950
aI16000
aI16050
aI16100
aI16150
aI16200
aI16250
aI16300
aI16350
aI16400
aI16450
aI16500
aI16550
aI16600
aI16650
aI16700
aI16750
aI16800
aI16850
aI16900
aI16950
aI17000
aI17050
aI17100
aI17150
aI17200
aI17250
aI17300
aI17350
aI17400
aI17450
aI17500
aI17550
aI17600
aI17650
aI17700
aI17750
aI17800
aI17850
aI17900
aI17950
aI18000
aI18050
aI18100
aI18150
aI18200
aI18250
aI18300
aI18350
aI18400
aI18450
aI18500
aI18550
aI18600
aI18650
aI18700
aI18750
aI18800
aI18850
aI18900
aI18950
aI19000
aI19050
aI19100
aI19150
aI19200
aI19250
aI19300
aI19350
aI19400
aI19450
aI19500
aI19550
aI19600
aI19650
aI19700
aI19750
aI19800
aI19850
aI19900
aI19950
aI20000
asS'best_f'
p3
(lp4
cnumpy.core.multiarray
scalar
p5
(cnumpy
dtype
p6
(S'f8'
p7
I0
I1
tp8
Rp9
(I3
S'<'
p10
NNNI-1
I-1
I0
tp11
bS'_y\x96\x85\x98>\xf7?'
p12
tp13
Rp14
ag5
(g9
S'\x04\xc4\xbf%\x04\x99\xf5?'
p15
tp16
Rp17
ag5
(g9
S'X\xa6\x11H\x17a\xe1?'
p18
tp19
Rp20
ag20
ag5
(g9
S'\xbd\n\xb3Z\x85R\xe1?'
p21
tp22
Rp23
ag5
(g9
S'\xc3\x12\x04)i\xdd\xdc?'
p24
tp25
Rp26
ag26
ag5
(g9
S'!\xeex\xfa\xf0&\xdc?'
p27
tp28
Rp29
ag29
ag29
ag5
(g9
S'\x17\x9a\x85\xd3y\xbb\xd7?'
p30
tp31
Rp32
ag5
(g9
S'P\x17[\xe1\xee\xdd\xd6?'
p33
tp34
Rp35
ag35
ag5
(g9
S'g\x12\xf7\x19\xa7\x8f\xd5?'
p36
tp37
Rp38
ag38
ag5
(g9
S'K\xb9\xccL"\xc2\xd2?'
p39
tp40
Rp41
ag5
(g9
S'1""Qc\xab\xd2?'
p42
tp43
Rp44
ag44
ag5
(g9
S'\xbe\x8b\xb1\x9e\xe2+\xd2?'
p45
tp46
Rp47
ag47
ag47
ag5
(g9
S'\xcb/m\xc4\x1b\x88\xcd?'
p48
tp49
Rp50
ag50
ag50
ag5
(g9
S'\xf60W\xc4\xbf\x86\xcd?'
p51
tp52
Rp53
ag53
ag53
ag53
ag53
ag53
ag53
ag53
ag53
ag53
ag53
ag53
ag53
ag53
ag53
ag53
ag53
ag53
ag53
ag53
ag53
ag53
ag5
(g9
S"\xa9^'\x8e\xb6\x10\xcc?"
p54
tp55
Rp56
ag56
ag56
ag56
ag56
ag56
ag56
ag56
ag56
ag56
ag56
ag56
ag56
ag56
ag56
ag56
ag56
ag56
ag56
ag56
ag56
ag56
ag56
ag56
ag56
ag56
ag56
ag56
ag56
ag56
ag56
ag56
ag56
ag56
ag56
ag56
ag56
ag56
ag56
ag56
ag56
ag56
ag56
ag56
ag56
ag56
ag56
ag56
ag56
ag56
ag56
ag56
ag56
ag56
ag56
ag56
ag56
ag56
ag56
ag56
ag56
ag56
ag56
ag56
ag56
ag56
ag56
ag56
ag56
ag56
ag56
ag56
ag56
ag56
ag56
ag56
ag56
ag56
ag56
ag56
ag56
ag56
ag56
ag56
ag56
ag56
ag56
ag56
ag56
ag56
ag56
ag56
ag56
ag56
ag56
ag56
ag56
ag56
ag56
ag56
ag56
ag56
ag56
ag56
ag56
ag56
ag56
ag56
ag56
ag56
ag56
ag56
ag56
ag56
ag56
ag56
ag56
ag56
ag56
ag56
ag56
ag56
ag56
ag56
ag56
ag56
ag56
ag56
ag56
ag56
ag56
ag56
ag56
ag56
ag56
ag56
ag56
ag56
ag56
ag56
ag56
ag56
ag56
ag56
ag56
ag56
ag56
ag56
ag56
ag56
ag56
ag56
ag56
ag56
ag56
ag56
ag56
ag56
ag56
ag56
ag56
ag56
ag56
ag56
ag56
ag56
ag56
ag56
ag56
ag56
ag56
ag56
ag56
ag56
ag56
ag56
ag56
ag56
ag56
ag56
ag56
ag56
ag56
ag56
ag56
ag56
ag56
ag56
ag56
ag56
ag56
ag56
ag56
ag56
ag56
ag56
ag56
ag56
ag56
ag56
ag56
ag56
ag56
ag56
ag56
ag56
ag56
ag56
ag56
ag56
ag56
ag56
ag56
ag56
ag56
ag56
ag56
ag56
ag56
ag56
ag56
ag56
ag56
ag56
ag56
ag56
ag56
ag56
ag56
ag56
ag56
ag56
ag56
ag56
ag56
ag56
ag56
ag56
ag56
ag56
ag56
ag56
ag56
ag56
ag56
ag56
ag56
ag56
ag56
ag56
ag56
ag56
ag56
ag56
ag56
ag56
ag56
ag56
ag56
ag56
ag56
ag56
ag56
ag56
ag56
ag56
ag56
ag56
ag56
ag56
ag56
ag56
ag56
ag56
ag56
ag56
ag56
ag56
ag56
ag56
ag56
ag56
ag56
ag56
ag56
ag56
ag56
ag56
ag56
ag56
ag56
ag56
ag56
ag56
ag56
ag56
ag56
ag56
ag56
ag56
ag56
ag56
ag56
ag56
ag56
ag56
ag56
ag56
ag56
ag56
ag56
ag56
ag56
ag56
ag56
ag56
ag56
ag56
ag56
ag56
ag56
ag56
ag56
ag56
ag56
ag56
ag56
ag56
ag56
ag56
ag56
ag56
ag56
ag56
ag56
ag56
ag56
ag56
ag56
ag56
ag56
ag56
ag56
ag56
ag56
ag56
ag56
ag56
ag56
ag56
ag56
ag56
ag56
ag56
asS'best_P'
p57
(lp58
(itree
PTree
p59
(dp60
S'root'
p61
ccopy_reg
_reconstructor
p62
(ctree
Feature
p63
c__builtin__
object
p64
Ntp65
Rp66
(dp67
S'index'
p68
I0
sS'name'
p69
S'Storage'
p70
sS'l'
p71
g62
(ctree
Action
p72
g64
Ntp73
Rp74
(dp75
S'r'
p76
NsS'is_feature'
p77
I00
sS'value'
p78
S'Hedge_70'
p79
sg71
Nsbsg76
g62
(g72
g64
Ntp80
Rp81
(dp82
g76
Nsg77
I00
sg78
S'Flood_Control'
p83
sg71
NsbsS'threshold'
p84
F282.9278829865975
sg77
I01
sbsS'L'
p85
(lp86
g66
ag74
ag81
asS'N'
p87
I3
sba(itree
PTree
p88
(dp89
g61
g62
(g63
g64
Ntp90
Rp91
(dp92
g68
I0
sg76
g62
(g72
g64
Ntp93
Rp94
(dp95
g76
Nsg77
I00
sg78
S'Flood_Control'
p96
sg71
Nsbsg69
g70
sg84
F371.76144570958706
sg71
g62
(g63
g64
Ntp97
Rp98
(dp99
g68
I1
sg76
g62
(g63
g64
Ntp100
Rp101
(dp102
g68
I0
sg76
g62
(g72
g64
Ntp103
Rp104
(dp105
g76
Nsg77
I00
sg78
S'Hedge_80'
p106
sg71
Nsbsg69
g70
sg84
F232.46698153783524
sg71
g62
(g72
g64
Ntp107
Rp108
(dp109
g76
Nsg77
I00
sg78
S'Hedge_90'
p110
sg71
Nsbsg77
I01
sbsg69
S'Day'
p111
sg84
F94.15150874491128
sg71
g62
(g72
g64
Ntp112
Rp113
(dp114
g76
Nsg77
I00
sg78
S'Hedge_50'
p115
sg71
Nsbsg77
I01
sbsg77
I01
sbsg85
(lp116
g91
ag98
ag113
ag101
ag108
ag104
ag94
asg87
I7
sba(itree
PTree
p117
(dp118
g61
g62
(g63
g64
Ntp119
Rp120
(dp121
g68
I0
sg76
g62
(g72
g64
Ntp122
Rp123
(dp124
g76
Nsg77
I00
sg78
S'Flood_Control'
p125
sg71
Nsbsg69
g70
sg84
F374.1259739985388
sg71
g62
(g72
g64
Ntp126
Rp127
(dp128
g76
Nsg77
I00
sg78
S'Hedge_90'
p129
sg71
Nsbsg77
I01
sbsg85
(lp130
g120
ag127
ag123
asg87
I3
sbag117
a(itree
PTree
p131
(dp132
g61
g62
(g63
g64
Ntp133
Rp134
(dp135
g68
I0
sg76
g62
(g72
g64
Ntp136
Rp137
(dp138
g76
Nsg77
I00
sg78
g125
sg71
Nsbsg69
g70
sg84
F372.87119148698554
sg71
g62
(g72
g64
Ntp139
Rp140
(dp141
g76
Nsg77
I00
sg78
g129
sg71
Nsbsg77
I01
sbsg85
(lp142
g134
ag140
ag137
asg87
I3
sba(itree
PTree
p143
(dp144
g61
g62
(g63
g64
Ntp145
Rp146
(dp147
g68
I0
sg76
g62
(g72
g64
Ntp148
Rp149
(dp150
g76
Nsg77
I00
sg78
g125
sg71
Nsbsg69
g70
sg84
F445.83811132597737
sg71
g62
(g72
g64
Ntp151
Rp152
(dp153
g76
Nsg77
I00
sg78
g129
sg71
Nsbsg77
I01
sbsg85
(lp154
g146
ag152
ag149
asg87
I3
sbag143
a(itree
PTree
p155
(dp156
g61
g62
(g63
g64
Ntp157
Rp158
(dp159
g68
I0
sg76
g62
(g72
g64
Ntp160
Rp161
(dp162
g76
Nsg77
I00
sg78
S'Flood_Control'
p163
sg71
Nsbsg69
g70
sg84
F518.0163535734756
sg71
g62
(g72
g64
Ntp164
Rp165
(dp166
g76
Nsg77
I00
sg78
S'Hedge_90'
p167
sg71
Nsbsg77
I01
sbsg85
(lp168
g158
ag165
ag161
asg87
I3
sbag155
ag155
a(itree
PTree
p169
(dp170
g61
g62
(g63
g64
Ntp171
Rp172
(dp173
g68
I0
sg76
g62
(g72
g64
Ntp174
Rp175
(dp176
g76
Nsg77
I00
sg78
g125
sg71
Nsbsg69
g70
sg84
F505.39374948544634
sg71
g62
(g72
g64
Ntp177
Rp178
(dp179
g76
Nsg77
I00
sg78
g129
sg71
Nsbsg77
I01
sbsg85
(lp180
g172
ag178
ag175
asg87
I3
sba(itree
PTree
p181
(dp182
g61
g62
(g63
g64
Ntp183
Rp184
(dp185
g68
I0
sg76
g62
(g72
g64
Ntp186
Rp187
(dp188
g76
Nsg77
I00
sg78
S'Flood_Control'
p189
sg71
Nsbsg69
g70
sg84
F644.6491074962246
sg71
g62
(g72
g64
Ntp190
Rp191
(dp192
g76
Nsg77
I00
sg78
S'Release_Demand'
p193
sg71
Nsbsg77
I01
sbsg85
(lp194
g184
ag191
ag187
asg87
I3
sbag181
a(itree
PTree
p195
(dp196
g61
g62
(g63
g64
Ntp197
Rp198
(dp199
g68
I0
sg76
g62
(g72
g64
Ntp200
Rp201
(dp202
g76
Nsg77
I00
sg78
g189
sg71
Nsbsg69
g70
sg84
F584.393466616695
sg71
g62
(g72
g64
Ntp203
Rp204
(dp205
g76
Nsg77
I00
sg78
S'Hedge_90'
p206
sg71
Nsbsg77
I01
sbsg85
(lp207
g198
ag204
ag201
asg87
I3
sbag195
a(itree
PTree
p208
(dp209
g61
g62
(g63
g64
Ntp210
Rp211
(dp212
g68
I0
sg76
g62
(g72
g64
Ntp213
Rp214
(dp215
g76
Nsg77
I00
sg78
g189
sg71
Nsbsg69
g70
sg84
F752.2944900649024
sg71
g62
(g72
g64
Ntp216
Rp217
(dp218
g76
Nsg77
I00
sg78
S'Hedge_90'
p219
sg71
Nsbsg77
I01
sbsg85
(lp220
g211
ag217
ag214
asg87
I3
sba(itree
PTree
p221
(dp222
g61
g62
(g63
g64
Ntp223
Rp224
(dp225
g68
I0
sg76
g62
(g72
g64
Ntp226
Rp227
(dp228
g76
Nsg77
I00
sg78
S'Flood_Control'
p229
sg71
Nsbsg69
g70
sg84
F650.5181874992206
sg71
g62
(g72
g64
Ntp230
Rp231
(dp232
g76
Nsg77
I00
sg78
S'Release_Demand'
p233
sg71
Nsbsg77
I01
sbsg85
(lp234
g224
ag231
ag227
asg87
I3
sbag221
a(itree
PTree
p235
(dp236
g61
g62
(g63
g64
Ntp237
Rp238
(dp239
g68
I0
sg76
g62
(g72
g64
Ntp240
Rp241
(dp242
g76
Nsg77
I00
sg78
g189
sg71
Nsbsg69
g70
sg84
F749.7551813627275
sg71
g62
(g72
g64
Ntp243
Rp244
(dp245
g76
Nsg77
I00
sg78
S'Hedge_90'
p246
sg71
Nsbsg77
I01
sbsg85
(lp247
g238
ag244
ag241
asg87
I3
sbag235
ag235
a(itree
PTree
p248
(dp249
g61
g62
(g63
g64
Ntp250
Rp251
(dp252
g68
I0
sg76
g62
(g72
g64
Ntp253
Rp254
(dp255
g76
Nsg77
I00
sg78
g189
sg71
Nsbsg69
g70
sg84
F771.2397667091883
sg71
g62
(g72
g64
Ntp256
Rp257
(dp258
g76
Nsg77
I00
sg78
g246
sg71
Nsbsg77
I01
sbsg85
(lp259
g251
ag257
ag254
asg87
I3
sbag248
ag248
a(itree
PTree
p260
(dp261
g61
g62
(g63
g64
Ntp262
Rp263
(dp264
g68
I0
sg76
g62
(g72
g64
Ntp265
Rp266
(dp267
g76
Nsg77
I00
sg78
S'Flood_Control'
p268
sg71
Nsbsg69
g70
sg84
F771.0647895880008
sg71
g62
(g72
g64
Ntp269
Rp270
(dp271
g76
Nsg77
I00
sg78
S'Hedge_90'
p272
sg71
Nsbsg77
I01
sbsg85
(lp273
g263
ag270
ag266
asg87
I3
sbag260
ag260
ag260
ag260
ag260
ag260
ag260
ag260
ag260
ag260
ag260
ag260
ag260
ag260
ag260
ag260
ag260
ag260
ag260
ag260
ag260
a(itree
PTree
p274
(dp275
g61
g62
(g63
g64
Ntp276
Rp277
(dp278
g68
I0
sg76
g62
(g72
g64
Ntp279
Rp280
(dp281
g76
Nsg77
I00
sg78
g189
sg71
Nsbsg69
g70
sg84
F769.9531133817691
sg71
g62
(g72
g64
Ntp282
Rp283
(dp284
g76
Nsg77
I00
sg78
S'Hedge_90'
p285
sg71
Nsbsg77
I01
sbsg85
(lp286
g277
ag283
ag280
asg87
I3
sbag274
ag274
ag274
ag274
ag274
ag274
ag274
ag274
ag274
ag274
ag274
ag274
ag274
ag274
ag274
ag274
ag274
ag274
ag274
ag274
ag274
ag274
ag274
ag274
ag274
ag274
ag274
ag274
ag274
ag274
ag274
ag274
ag274
ag274
ag274
ag274
ag274
ag274
ag274
ag274
ag274
ag274
ag274
ag274
ag274
ag274
ag274
ag274
ag274
ag274
ag274
ag274
ag274
ag274
ag274
ag274
ag274
ag274
ag274
ag274
ag274
ag274
ag274
ag274
ag274
ag274
ag274
ag274
ag274
ag274
ag274
ag274
ag274
ag274
ag274
ag274
ag274
ag274
ag274
ag274
ag274
ag274
ag274
ag274
ag274
ag274
ag274
ag274
ag274
ag274
ag274
ag274
ag274
ag274
ag274
ag274
ag274
ag274
ag274
ag274
ag274
ag274
ag274
ag274
ag274
ag274
ag274
ag274
ag274
ag274
ag274
ag274
ag274
ag274
ag274
ag274
ag274
ag274
ag274
ag274
ag274
ag274
ag274
ag274
ag274
ag274
ag274
ag274
ag274
ag274
ag274
ag274
ag274
ag274
ag274
ag274
ag274
ag274
ag274
ag274
ag274
ag274
ag274
ag274
ag274
ag274
ag274
ag274
ag274
ag274
ag274
ag274
ag274
ag274
ag274
ag274
ag274
ag274
ag274
ag274
ag274
ag274
ag274
ag274
ag274
ag274
ag274
ag274
ag274
ag274
ag274
ag274
ag274
ag274
ag274
ag274
ag274
ag274
ag274
ag274
ag274
ag274
ag274
ag274
ag274
ag274
ag274
ag274
ag274
ag274
ag274
ag274
ag274
ag274
ag274
ag274
ag274
ag274
ag274
ag274
ag274
ag274
ag274
ag274
ag274
ag274
ag274
ag274
ag274
ag274
ag274
ag274
ag274
ag274
ag274
ag274
ag274
ag274
ag274
ag274
ag274
ag274
ag274
ag274
ag274
ag274
ag274
ag274
ag274
ag274
ag274
ag274
ag274
ag274
ag274
ag274
ag274
ag274
ag274
ag274
ag274
ag274
ag274
ag274
ag274
ag274
ag274
ag274
ag274
ag274
ag274
ag274
ag274
ag274
ag274
ag274
ag274
ag274
ag274
ag274
ag274
ag274
ag274
ag274
ag274
ag274
ag274
ag274
ag274
ag274
ag274
ag274
ag274
ag274
ag274
ag274
ag274
ag274
ag274
ag274
ag274
ag274
ag274
ag274
ag274
ag274
ag274
ag274
ag274
ag274
ag274
ag274
ag274
ag274
ag274
ag274
ag274
ag274
ag274
ag274
ag274
ag274
ag274
ag274
ag274
ag274
ag274
ag274
ag274
ag274
ag274
ag274
ag274
ag274
ag274
ag274
ag274
ag274
ag274
ag274
ag274
ag274
ag274
ag274
ag274
ag274
ag274
ag274
ag274
ag274
ag274
ag274
ag274
ag274
ag274
ag274
ag274
ag274
ag274
ag274
ag274
ag274
ag274
ag274
ag274
ag274
ag274
ag274
ag274
ag274
ag274
ag274
ag274
asS'time'
p287
(lp288
I62
aI93
aI122
aI151
aI180
aI208
aI236
aI264
aI292
aI319
aI348
aI376
aI403
aI431
aI458
aI486
aI513
aI541
aI569
aI598
aI625
aI654
aI681
aI708
aI735
aI765
aI792
aI820
aI847
aI875
aI904
aI933
aI961
aI988
aI1016
aI1043
aI1071
aI1098
aI1125
aI1153
aI1181
aI1208
aI1236
aI1263
aI1290
aI1318
aI1346
aI1374
aI1401
aI1430
aI1458
aI1486
aI1514
aI1541
aI1569
aI1597
aI1626
aI1654
aI1682
aI1709
aI1734
aI1759
aI1782
aI1806
aI1831
aI1855
aI1876
aI1900
aI1924
aI1948
aI1971
aI1993
aI2017
aI2043
aI2068
aI2092
aI2116
aI2140
aI2164
aI2190
aI2214
aI2237
aI2260
aI2286
aI2310
aI2335
aI2360
aI2382
aI2404
aI2428
aI2454
aI2481
aI2508
aI2534
aI2562
aI2589
aI2616
aI2643
aI2670
aI2697
aI2725
aI2752
aI2779
aI2806
aI2833
aI2860
aI2887
aI2913
aI2938
aI2963
aI2988
aI3012
aI3036
aI3058
aI3081
aI3104
aI3127
aI3151
aI3175
aI3197
aI3221
aI3242
aI3266
aI3289
aI3312
aI3335
aI3360
aI3383
aI3406
aI3430
aI3455
aI3481
aI3507
aI3531
aI3555
aI3580
aI3607
aI3636
aI3664
aI3691
aI3720
aI3747
aI3775
aI3802
aI3830
aI3857
aI3886
aI3914
aI3941
aI3969
aI3997
aI4024
aI4049
aI4075
aI4099
aI4124
aI4149
aI4173
aI4197
aI4222
aI4247
aI4272
aI4297
aI4321
aI4371
aI4428
aI4483
aI4544
aI4599
aI4626
aI4653
aI4679
aI4702
aI4727
aI4752
aI4777
aI4801
aI4823
aI4848
aI4870
aI4894
aI4921
aI4946
aI4970
aI4994
aI5020
aI5046
aI5069
aI5094
aI5120
aI5143
aI5167
aI5192
aI5215
aI5238
aI5262
aI5287
aI5312
aI5336
aI5361
aI5386
aI5411
aI5433
aI5458
aI5482
aI5506
aI5531
aI5556
aI5580
aI5603
aI5626
aI5650
aI5673
aI5696
aI5721
aI5745
aI5770
aI5794
aI5818
aI5843
aI5867
aI5891
aI5916
aI5941
aI5966
aI5991
aI6014
aI6036
aI6059
aI6083
aI6105
aI6129
aI6153
aI6175
aI6199
aI6222
aI6244
aI6266
aI6290
aI6314
aI6338
aI6362
aI6385
aI6409
aI6432
aI6456
aI6480
aI6505
aI6530
aI6554
aI6578
aI6602
aI6626
aI6651
aI6674
aI6698
aI6721
aI6745
aI6767
aI6791
aI6816
aI6843
aI6871
aI6899
aI6924
aI6949
aI6975
aI7000
aI7023
aI7047
aI7070
aI7094
aI7119
aI7143
aI7167
aI7190
aI7213
aI7237
aI7262
aI7288
aI7313
aI7336
aI7359
aI7382
aI7404
aI7427
aI7450
aI7475
aI7499
aI7523
aI7548
aI7573
aI7599
aI7622
aI7647
aI7671
aI7695
aI7719
aI7742
aI7765
aI7789
aI7813
aI7838
aI7863
aI7887
aI7912
aI7936
aI7959
aI7981
aI8004
aI8029
aI8053
aI8077
aI8100
aI8123
aI8147
aI8170
aI8193
aI8219
aI8245
aI8271
aI8297
aI8322
aI8347
aI8370
aI8394
aI8417
aI8439
aI8464
aI8487
aI8509
aI8532
aI8557
aI8583
aI8609
aI8634
aI8660
aI8685
aI8711
aI8735
aI8757
aI8779
aI8802
aI8826
aI8850
aI8875
aI8900
aI8925
aI8950
aI8973
aI8996
aI9021
aI9045
aI9068
aI9093
aI9117
aI9143
aI9171
aI9197
aI9223
aI9249
aI9272
aI9297
aI9320
aI9345
aI9368
aI9393
aI9420
aI9445
aI9469
aI9492
aI9518
aI9544
aI9569
aI9594
aI9618
aI9645
aI9671
aI9698
aI9725
aI9752
aI9777
aI9803
aI9829
aI9855
aI9882
aI9909
aI9934
aI9960
aI9986
aI10010
aI10037
aI10061
aI10083
aI10108
aI10136
aI10163
aI10191
aI10219
aI10246
as.